ARM GAS  /tmp/ccQZ4VVk.s 			page 1


   1              		.syntax unified
   2              		.cpu cortex-m3
   3              		.fpu softvfp
   4              		.eabi_attribute 20, 1
   5              		.eabi_attribute 21, 1
   6              		.eabi_attribute 23, 3
   7              		.eabi_attribute 24, 1
   8              		.eabi_attribute 25, 1
   9              		.eabi_attribute 26, 1
  10              		.eabi_attribute 30, 2
  11              		.eabi_attribute 34, 1
  12              		.eabi_attribute 18, 4
  13              		.thumb
  14              		.file	"chqueues.c"
  15              		.text
  16              	.Ltext0:
  17              		.cfi_sections	.debug_frame
  18              		.section	.text.qwait,"ax",%progbits
  19              		.align	2
  20              		.p2align 4,,15
  21              		.thumb
  22              		.thumb_func
  23              		.type	qwait, %function
  24              	qwait:
  25              	.LFB7:
  26              		.file 1 "../../os/kernel/src/chqueues.c"
  27              		.loc 1 63 0
  28              		.cfi_startproc
  29              		@ args = 0, pretend = 0, frame = 0
  30              		@ frame_needed = 0, uses_anonymous_args = 0
  31              		@ link register save eliminated.
  32              	.LVL0:
  33 0000 10B4     		push	{r4}
  34              	.LCFI0:
  35              		.cfi_def_cfa_offset 4
  36              		.cfi_offset 4, -4
  37              		.loc 1 63 0
  38 0002 0246     		mov	r2, r0
  39              		.loc 1 65 0
  40 0004 59B1     		cbz	r1, .L2
  41              		.loc 1 67 0
  42 0006 084B     		ldr	r3, .L4
  43              		.loc 1 69 0
  44 0008 0D20     		movs	r0, #13
  45              	.LVL1:
  46              		.loc 1 67 0
  47 000a 9B69     		ldr	r3, [r3, #24]
  48 000c 9A62     		str	r2, [r3, #40]
  49              	.LVL2:
  50              	.LBB12:
  51              	.LBB13:
  52              		.file 2 "../../os/kernel/include/chinline.h"
  53              		.loc 2 48 0
  54 000e 5468     		ldr	r4, [r2, #4]
  55 0010 83E81400 		stmia	r3, {r2, r4}
  56              		.loc 2 49 0
  57 0014 5360     		str	r3, [r2, #4]
ARM GAS  /tmp/ccQZ4VVk.s 			page 2


  58 0016 2360     		str	r3, [r4, #0]
  59              	.LBE13:
  60              	.LBE12:
  61              		.loc 1 70 0
  62 0018 10BC     		pop	{r4}
  63              		.loc 1 69 0
  64 001a FFF7FEBF 		b	chSchGoSleepTimeoutS
  65              	.LVL3:
  66              	.L2:
  67              		.loc 1 70 0
  68 001e 4FF0FF30 		mov	r0, #-1
  69              	.LVL4:
  70 0022 10BC     		pop	{r4}
  71 0024 7047     		bx	lr
  72              	.L5:
  73 0026 00BF     		.align	2
  74              	.L4:
  75 0028 00000000 		.word	rlist
  76              		.cfi_endproc
  77              	.LFE7:
  78              		.size	qwait, .-qwait
  79 002c AFF30080 		.section	.text.chIQInit,"ax",%progbits
  80              		.align	2
  81              		.p2align 4,,15
  82              		.global	chIQInit
  83              		.thumb
  84              		.thumb_func
  85              		.type	chIQInit, %function
  86              	chIQInit:
  87              	.LFB8:
  88              		.loc 1 89 0
  89              		.cfi_startproc
  90              		@ args = 4, pretend = 0, frame = 0
  91              		@ frame_needed = 0, uses_anonymous_args = 0
  92              		@ link register save eliminated.
  93              	.LVL5:
  94 0000 10B4     		push	{r4}
  95              	.LCFI1:
  96              		.cfi_def_cfa_offset 4
  97              		.cfi_offset 4, -4
  98              		.loc 1 95 0
  99 0002 C361     		str	r3, [r0, #28]
 100              		.loc 1 96 0
 101 0004 019B     		ldr	r3, [sp, #4]
 102              	.LVL6:
 103              		.loc 1 94 0
 104 0006 8A18     		adds	r2, r1, r2
 105              	.LVL7:
 106              		.loc 1 92 0
 107 0008 0024     		movs	r4, #0
 108              		.loc 1 91 0
 109 000a 4060     		str	r0, [r0, #4]
 110 000c 0060     		str	r0, [r0, #0]
 111              		.loc 1 92 0
 112 000e 8460     		str	r4, [r0, #8]
 113              		.loc 1 93 0
 114 0010 4161     		str	r1, [r0, #20]
ARM GAS  /tmp/ccQZ4VVk.s 			page 3


 115 0012 8161     		str	r1, [r0, #24]
 116 0014 C160     		str	r1, [r0, #12]
 117              		.loc 1 94 0
 118 0016 0261     		str	r2, [r0, #16]
 119              		.loc 1 96 0
 120 0018 0362     		str	r3, [r0, #32]
 121              		.loc 1 97 0
 122 001a 10BC     		pop	{r4}
 123 001c 7047     		bx	lr
 124              		.cfi_endproc
 125              	.LFE8:
 126              		.size	chIQInit, .-chIQInit
 127 001e 00BF     		.section	.text.chIQResetI,"ax",%progbits
 128              		.align	2
 129              		.p2align 4,,15
 130              		.global	chIQResetI
 131              		.thumb
 132              		.thumb_func
 133              		.type	chIQResetI, %function
 134              	chIQResetI:
 135              	.LFB9:
 136              		.loc 1 110 0
 137              		.cfi_startproc
 138              		@ args = 0, pretend = 0, frame = 0
 139              		@ frame_needed = 0, uses_anonymous_args = 0
 140              	.LVL8:
 141 0000 38B5     		push	{r3, r4, r5, lr}
 142              	.LCFI2:
 143              		.cfi_def_cfa_offset 16
 144              		.cfi_offset 3, -16
 145              		.cfi_offset 4, -12
 146              		.cfi_offset 5, -8
 147              		.cfi_offset 14, -4
 148              		.loc 1 110 0
 149 0002 0446     		mov	r4, r0
 150              		.loc 1 112 0
 151 0004 FFF7FEFF 		bl	chDbgCheckClassI
 152              	.LVL9:
 153              		.loc 1 116 0
 154 0008 2068     		ldr	r0, [r4, #0]
 155              		.loc 1 114 0
 156 000a E368     		ldr	r3, [r4, #12]
 157              		.loc 1 115 0
 158 000c 0021     		movs	r1, #0
 159              		.loc 1 116 0
 160 000e A042     		cmp	r0, r4
 161              		.loc 1 114 0
 162 0010 6361     		str	r3, [r4, #20]
 163 0012 A361     		str	r3, [r4, #24]
 164              		.loc 1 115 0
 165 0014 A160     		str	r1, [r4, #8]
 166              		.loc 1 116 0
 167 0016 0AD0     		beq	.L7
 168              		.loc 1 117 0
 169 0018 6FF00105 		mvn	r5, #1
 170              	.L11:
 171              	.LVL10:
ARM GAS  /tmp/ccQZ4VVk.s 			page 4


 172              	.LBB14:
 173              	.LBB15:
 174              		.loc 2 55 0
 175 001c 0268     		ldr	r2, [r0, #0]
 176 001e 2260     		str	r2, [r4, #0]
 177 0020 5460     		str	r4, [r2, #4]
 178              	.LBE15:
 179              	.LBE14:
 180              		.loc 1 117 0
 181 0022 FFF7FEFF 		bl	chSchReadyI
 182              	.LVL11:
 183 0026 8562     		str	r5, [r0, #40]
 184              		.loc 1 116 0
 185 0028 2068     		ldr	r0, [r4, #0]
 186 002a A042     		cmp	r0, r4
 187 002c F6D1     		bne	.L11
 188              	.LVL12:
 189              	.L7:
 190 002e 38BD     		pop	{r3, r4, r5, pc}
 191              		.cfi_endproc
 192              	.LFE9:
 193              		.size	chIQResetI, .-chIQResetI
 194              		.section	.text.chIQPutI,"ax",%progbits
 195              		.align	2
 196              		.p2align 4,,15
 197              		.global	chIQPutI
 198              		.thumb
 199              		.thumb_func
 200              		.type	chIQPutI, %function
 201              	chIQPutI:
 202              	.LFB10:
 203              		.loc 1 133 0
 204              		.cfi_startproc
 205              		@ args = 0, pretend = 0, frame = 0
 206              		@ frame_needed = 0, uses_anonymous_args = 0
 207              	.LVL13:
 208 0000 38B5     		push	{r3, r4, r5, lr}
 209              	.LCFI3:
 210              		.cfi_def_cfa_offset 16
 211              		.cfi_offset 3, -16
 212              		.cfi_offset 4, -12
 213              		.cfi_offset 5, -8
 214              		.cfi_offset 14, -4
 215              		.loc 1 133 0
 216 0002 0446     		mov	r4, r0
 217 0004 0D46     		mov	r5, r1
 218              		.loc 1 135 0
 219 0006 FFF7FEFF 		bl	chDbgCheckClassI
 220              	.LVL14:
 221              		.loc 1 137 0
 222 000a 6369     		ldr	r3, [r4, #20]
 223 000c A269     		ldr	r2, [r4, #24]
 224 000e A068     		ldr	r0, [r4, #8]
 225 0010 9342     		cmp	r3, r2
 226 0012 1AD0     		beq	.L22
 227              	.L16:
 228              		.loc 1 140 0
ARM GAS  /tmp/ccQZ4VVk.s 			page 5


 229 0014 411C     		adds	r1, r0, #1
 230 0016 A160     		str	r1, [r4, #8]
 231              		.loc 1 141 0
 232 0018 03F8015B 		strb	r5, [r3], #1
 233              		.loc 1 142 0
 234 001c 2269     		ldr	r2, [r4, #16]
 235              		.loc 1 141 0
 236 001e 6361     		str	r3, [r4, #20]
 237              		.loc 1 142 0
 238 0020 9342     		cmp	r3, r2
 239 0022 0BD2     		bcs	.L17
 240              		.loc 1 145 0
 241 0024 2068     		ldr	r0, [r4, #0]
 242 0026 A042     		cmp	r0, r4
 243 0028 0DD0     		beq	.L20
 244              	.L23:
 245              	.LVL15:
 246              	.LBB16:
 247              	.LBB17:
 248              		.loc 2 55 0
 249 002a 0168     		ldr	r1, [r0, #0]
 250 002c 2160     		str	r1, [r4, #0]
 251 002e 4C60     		str	r4, [r1, #4]
 252              	.LBE17:
 253              	.LBE16:
 254              		.loc 1 146 0
 255 0030 FFF7FEFF 		bl	chSchReadyI
 256              	.LVL16:
 257 0034 0022     		movs	r2, #0
 258 0036 8262     		str	r2, [r0, #40]
 259              		.loc 1 148 0
 260 0038 1046     		mov	r0, r2
 261 003a 38BD     		pop	{r3, r4, r5, pc}
 262              	.LVL17:
 263              	.L17:
 264              		.loc 1 145 0
 265 003c 2068     		ldr	r0, [r4, #0]
 266              		.loc 1 143 0
 267 003e E368     		ldr	r3, [r4, #12]
 268              		.loc 1 145 0
 269 0040 A042     		cmp	r0, r4
 270              		.loc 1 143 0
 271 0042 6361     		str	r3, [r4, #20]
 272              		.loc 1 145 0
 273 0044 F1D1     		bne	.L23
 274              	.L20:
 275              		.loc 1 148 0
 276 0046 0020     		movs	r0, #0
 277 0048 38BD     		pop	{r3, r4, r5, pc}
 278              	.L22:
 279              		.loc 1 137 0 discriminator 1
 280 004a 0028     		cmp	r0, #0
 281 004c E2D0     		beq	.L16
 282              		.loc 1 138 0
 283 004e 6FF00300 		mvn	r0, #3
 284 0052 38BD     		pop	{r3, r4, r5, pc}
 285              		.cfi_endproc
ARM GAS  /tmp/ccQZ4VVk.s 			page 6


 286              	.LFE10:
 287              		.size	chIQPutI, .-chIQPutI
 288 0054 AFF30080 		.section	.text.chIQGetTimeout,"ax",%progbits
 288      AFF30080 
 288      AFF30080 
 289              		.align	2
 290              		.p2align 4,,15
 291              		.global	chIQGetTimeout
 292              		.thumb
 293              		.thumb_func
 294              		.type	chIQGetTimeout, %function
 295              	chIQGetTimeout:
 296              	.LFB11:
 297              		.loc 1 171 0
 298              		.cfi_startproc
 299              		@ args = 0, pretend = 0, frame = 0
 300              		@ frame_needed = 0, uses_anonymous_args = 0
 301              	.LVL18:
 302 0000 F8B5     		push	{r3, r4, r5, r6, r7, lr}
 303              	.LCFI4:
 304              		.cfi_def_cfa_offset 24
 305              		.cfi_offset 3, -24
 306              		.cfi_offset 4, -20
 307              		.cfi_offset 5, -16
 308              		.cfi_offset 6, -12
 309              		.cfi_offset 7, -8
 310              		.cfi_offset 14, -4
 311              		.loc 1 171 0
 312 0002 0446     		mov	r4, r0
 313 0004 0E46     		mov	r6, r1
 314              	.LBB18:
 315              		.loc 1 174 0
 316 0006 2023     		movs	r3, #32
 317              	.LVL19:
 318              	@ 174 "../../os/kernel/src/chqueues.c" 1
 319 0008 83F31188 		msr     BASEPRI, r3
 320              	@ 0 "" 2
 321              	.LVL20:
 322              		.thumb
 323              	.LBE18:
 324 000c FFF7FEFF 		bl	dbg_check_lock
 325              	.LVL21:
 326              		.loc 1 175 0
 327 0010 E369     		ldr	r3, [r4, #28]
 328 0012 0BB1     		cbz	r3, .L32
 329              		.loc 1 176 0
 330 0014 2046     		mov	r0, r4
 331 0016 9847     		blx	r3
 332              	.LVL22:
 333              	.L32:
 334              		.loc 1 178 0 discriminator 1
 335 0018 A568     		ldr	r5, [r4, #8]
 336              	.LBB19:
 337              		.loc 1 180 0 discriminator 1
 338 001a 2046     		mov	r0, r4
 339 001c 3146     		mov	r1, r6
 340              	.LBE19:
ARM GAS  /tmp/ccQZ4VVk.s 			page 7


 341              		.loc 1 178 0 discriminator 1
 342 001e 55B9     		cbnz	r5, .L35
 343              	.LVL23:
 344              	.LBB21:
 345              		.loc 1 180 0
 346 0020 FFF7FEFF 		bl	qwait
 347              	.LVL24:
 348 0024 071E     		subs	r7, r0, #0
 349 0026 F7DA     		bge	.L32
 350              		.loc 1 181 0
 351 0028 FFF7FEFF 		bl	dbg_check_unlock
 352              	.LVL25:
 353              	.LBB20:
 354 002c 2B46     		mov	r3, r5
 355              	.LVL26:
 356              	@ 181 "../../os/kernel/src/chqueues.c" 1
 357 002e 83F31188 		msr     BASEPRI, r3
 358              	@ 0 "" 2
 359              	.LVL27:
 360              		.thumb
 361              	.LBE20:
 362              	.LBE21:
 363              		.loc 1 193 0
 364 0032 3846     		mov	r0, r7
 365 0034 F8BD     		pop	{r3, r4, r5, r6, r7, pc}
 366              	.LVL28:
 367              	.L35:
 368              		.loc 1 187 0
 369 0036 A069     		ldr	r0, [r4, #24]
 370              	.LVL29:
 371              		.loc 1 186 0
 372 0038 013D     		subs	r5, r5, #1
 373 003a A560     		str	r5, [r4, #8]
 374              		.loc 1 187 0
 375 003c 10F8017B 		ldrb	r7, [r0], #1	@ zero_extendqisi2
 376              	.LVL30:
 377              		.loc 1 188 0
 378 0040 2269     		ldr	r2, [r4, #16]
 379              		.loc 1 187 0
 380 0042 A061     		str	r0, [r4, #24]
 381              		.loc 1 188 0
 382 0044 9042     		cmp	r0, r2
 383              		.loc 1 189 0
 384 0046 24BF     		itt	cs
 385 0048 E068     		ldrcs	r0, [r4, #12]
 386 004a A061     		strcs	r0, [r4, #24]
 387              		.loc 1 191 0
 388 004c FFF7FEFF 		bl	dbg_check_unlock
 389              	.LVL31:
 390              	.LBB22:
 391 0050 0023     		movs	r3, #0
 392              	.LVL32:
 393              	@ 191 "../../os/kernel/src/chqueues.c" 1
 394 0052 83F31188 		msr     BASEPRI, r3
 395              	@ 0 "" 2
 396              	.LVL33:
 397              		.thumb
ARM GAS  /tmp/ccQZ4VVk.s 			page 8


 398              	.LBE22:
 399              		.loc 1 193 0
 400 0056 3846     		mov	r0, r7
 401 0058 F8BD     		pop	{r3, r4, r5, r6, r7, pc}
 402              		.cfi_endproc
 403              	.LFE11:
 404              		.size	chIQGetTimeout, .-chIQGetTimeout
 405 005a 00BFAFF3 		.section	.text.chIQReadTimeout,"ax",%progbits
 405      0080
 406              		.align	2
 407              		.p2align 4,,15
 408              		.global	chIQReadTimeout
 409              		.thumb
 410              		.thumb_func
 411              		.type	chIQReadTimeout, %function
 412              	chIQReadTimeout:
 413              	.LFB12:
 414              		.loc 1 220 0
 415              		.cfi_startproc
 416              		@ args = 0, pretend = 0, frame = 0
 417              		@ frame_needed = 0, uses_anonymous_args = 0
 418              	.LVL34:
 419 0000 2DE9F047 		push	{r4, r5, r6, r7, r8, r9, sl, lr}
 420              	.LCFI5:
 421              		.cfi_def_cfa_offset 32
 422              		.cfi_offset 4, -32
 423              		.cfi_offset 5, -28
 424              		.cfi_offset 6, -24
 425              		.cfi_offset 7, -20
 426              		.cfi_offset 8, -16
 427              		.cfi_offset 9, -12
 428              		.cfi_offset 10, -8
 429              		.cfi_offset 14, -4
 430              		.loc 1 220 0
 431 0004 0446     		mov	r4, r0
 432              		.loc 1 224 0
 433 0006 1546     		mov	r5, r2
 434              		.loc 1 220 0
 435 0008 8846     		mov	r8, r1
 436 000a 1E46     		mov	r6, r3
 437              		.loc 1 221 0
 438 000c C769     		ldr	r7, [r0, #28]
 439              	.LVL35:
 440              		.loc 1 224 0
 441 000e 002A     		cmp	r2, #0
 442 0010 3AD0     		beq	.L52
 443              	.LVL36:
 444              	.L37:
 445              	.LBB23:
 446              		.loc 1 226 0
 447 0012 2023     		movs	r3, #32
 448              	.LVL37:
 449              	@ 226 "../../os/kernel/src/chqueues.c" 1
 450 0014 83F31188 		msr     BASEPRI, r3
 451              	@ 0 "" 2
 452              	.LVL38:
 453              		.thumb
ARM GAS  /tmp/ccQZ4VVk.s 			page 9


 454              	.LBE23:
 455 0018 FFF7FEFF 		bl	dbg_check_lock
 456              	.LVL39:
 457              		.loc 1 219 0
 458 001c 08F1010A 		add	sl, r8, #1
 459              		.loc 1 222 0
 460 0020 4FF00009 		mov	r9, #0
 461              		.loc 1 219 0
 462 0024 A844     		add	r8, r8, r5
 463              	.LVL40:
 464              	.L43:
 465              		.loc 1 228 0
 466 0026 0FB1     		cbz	r7, .L48
 467              		.loc 1 229 0
 468 0028 2046     		mov	r0, r4
 469 002a B847     		blx	r7
 470              	.LVL41:
 471              	.L48:
 472              		.loc 1 231 0 discriminator 1
 473 002c A568     		ldr	r5, [r4, #8]
 474              		.loc 1 232 0 discriminator 1
 475 002e 2046     		mov	r0, r4
 476 0030 3146     		mov	r1, r6
 477              		.loc 1 231 0 discriminator 1
 478 0032 5DB9     		cbnz	r5, .L53
 479              	.LVL42:
 480              		.loc 1 232 0
 481 0034 FFF7FEFF 		bl	qwait
 482              	.LVL43:
 483 0038 0028     		cmp	r0, #0
 484 003a F7D0     		beq	.L48
 485              		.loc 1 233 0
 486 003c FFF7FEFF 		bl	dbg_check_unlock
 487              	.LVL44:
 488              	.LBB24:
 489 0040 2B46     		mov	r3, r5
 490              	.LVL45:
 491              	@ 233 "../../os/kernel/src/chqueues.c" 1
 492 0042 83F31188 		msr     BASEPRI, r3
 493              	@ 0 "" 2
 494              	.LVL46:
 495              		.thumb
 496              	.L40:
 497              	.LBE24:
 498              		.loc 1 250 0
 499 0046 4846     		mov	r0, r9
 500 0048 BDE8F087 		pop	{r4, r5, r6, r7, r8, r9, sl, pc}
 501              	.LVL47:
 502              	.L53:
 503              		.loc 1 239 0
 504 004c A369     		ldr	r3, [r4, #24]
 505              		.loc 1 238 0
 506 004e 013D     		subs	r5, r5, #1
 507 0050 A560     		str	r5, [r4, #8]
 508              		.loc 1 239 0
 509 0052 13F8012B 		ldrb	r2, [r3], #1	@ zero_extendqisi2
 510 0056 0AF8012C 		strb	r2, [sl, #-1]
ARM GAS  /tmp/ccQZ4VVk.s 			page 10


 511              		.loc 1 240 0
 512 005a 2069     		ldr	r0, [r4, #16]
 513              	.LVL48:
 514              		.loc 1 239 0
 515 005c A361     		str	r3, [r4, #24]
 516              		.loc 1 240 0
 517 005e 8342     		cmp	r3, r0
 518              		.loc 1 241 0
 519 0060 24BF     		itt	cs
 520 0062 E368     		ldrcs	r3, [r4, #12]
 521 0064 A361     		strcs	r3, [r4, #24]
 522              		.loc 1 243 0
 523 0066 FFF7FEFF 		bl	dbg_check_unlock
 524              	.LVL49:
 525              	.LBB25:
 526 006a 0023     		movs	r3, #0
 527              	@ 243 "../../os/kernel/src/chqueues.c" 1
 528 006c 83F31188 		msr     BASEPRI, r3
 529              	@ 0 "" 2
 530              	.LVL50:
 531              		.thumb
 532              	.LBE25:
 533              		.loc 1 245 0
 534 0070 C245     		cmp	sl, r8
 535              		.loc 1 244 0
 536 0072 09F10109 		add	r9, r9, #1
 537              	.LVL51:
 538              		.loc 1 245 0
 539 0076 E6D0     		beq	.L40
 540              	.LBB26:
 541              		.loc 1 248 0
 542 0078 2023     		movs	r3, #32
 543              	.LVL52:
 544              	@ 248 "../../os/kernel/src/chqueues.c" 1
 545 007a 83F31188 		msr     BASEPRI, r3
 546              	@ 0 "" 2
 547              	.LVL53:
 548              		.thumb
 549              	.LBE26:
 550 007e FFF7FEFF 		bl	dbg_check_lock
 551              	.LVL54:
 552 0082 0AF1010A 		add	sl, sl, #1
 553              		.loc 1 249 0
 554 0086 CEE7     		b	.L43
 555              	.LVL55:
 556              	.L52:
 557              		.loc 1 224 0 discriminator 1
 558 0088 0148     		ldr	r0, .L54
 559              	.LVL56:
 560 008a FFF7FEFF 		bl	chDbgPanic
 561              	.LVL57:
 562 008e C0E7     		b	.L37
 563              	.L55:
 564              		.align	2
 565              	.L54:
 566 0090 00000000 		.word	.LC0
 567              		.cfi_endproc
ARM GAS  /tmp/ccQZ4VVk.s 			page 11


 568              	.LFE12:
 569              		.size	chIQReadTimeout, .-chIQReadTimeout
 570 0094 AFF30080 		.section	.text.chOQInit,"ax",%progbits
 570      AFF30080 
 570      AFF30080 
 571              		.align	2
 572              		.p2align 4,,15
 573              		.global	chOQInit
 574              		.thumb
 575              		.thumb_func
 576              		.type	chOQInit, %function
 577              	chOQInit:
 578              	.LFB13:
 579              		.loc 1 269 0
 580              		.cfi_startproc
 581              		@ args = 4, pretend = 0, frame = 0
 582              		@ frame_needed = 0, uses_anonymous_args = 0
 583              		@ link register save eliminated.
 584              	.LVL58:
 585 0000 10B4     		push	{r4}
 586              	.LCFI6:
 587              		.cfi_def_cfa_offset 4
 588              		.cfi_offset 4, -4
 589              		.loc 1 275 0
 590 0002 C361     		str	r3, [r0, #28]
 591              		.loc 1 276 0
 592 0004 019B     		ldr	r3, [sp, #4]
 593              	.LVL59:
 594              		.loc 1 274 0
 595 0006 8C18     		adds	r4, r1, r2
 596              		.loc 1 271 0
 597 0008 4060     		str	r0, [r0, #4]
 598 000a 0060     		str	r0, [r0, #0]
 599              		.loc 1 272 0
 600 000c 8260     		str	r2, [r0, #8]
 601              		.loc 1 273 0
 602 000e 4161     		str	r1, [r0, #20]
 603 0010 8161     		str	r1, [r0, #24]
 604 0012 C160     		str	r1, [r0, #12]
 605              		.loc 1 274 0
 606 0014 0461     		str	r4, [r0, #16]
 607              		.loc 1 276 0
 608 0016 0362     		str	r3, [r0, #32]
 609              		.loc 1 277 0
 610 0018 10BC     		pop	{r4}
 611 001a 7047     		bx	lr
 612              		.cfi_endproc
 613              	.LFE13:
 614              		.size	chOQInit, .-chOQInit
 615 001c AFF30080 		.section	.text.chOQResetI,"ax",%progbits
 616              		.align	2
 617              		.p2align 4,,15
 618              		.global	chOQResetI
 619              		.thumb
 620              		.thumb_func
 621              		.type	chOQResetI, %function
 622              	chOQResetI:
ARM GAS  /tmp/ccQZ4VVk.s 			page 12


 623              	.LFB14:
 624              		.loc 1 290 0
 625              		.cfi_startproc
 626              		@ args = 0, pretend = 0, frame = 0
 627              		@ frame_needed = 0, uses_anonymous_args = 0
 628              	.LVL60:
 629 0000 38B5     		push	{r3, r4, r5, lr}
 630              	.LCFI7:
 631              		.cfi_def_cfa_offset 16
 632              		.cfi_offset 3, -16
 633              		.cfi_offset 4, -12
 634              		.cfi_offset 5, -8
 635              		.cfi_offset 14, -4
 636              		.loc 1 290 0
 637 0002 0446     		mov	r4, r0
 638              		.loc 1 292 0
 639 0004 FFF7FEFF 		bl	chDbgCheckClassI
 640              	.LVL61:
 641              		.loc 1 294 0
 642 0008 E368     		ldr	r3, [r4, #12]
 643              		.loc 1 295 0
 644 000a 2269     		ldr	r2, [r4, #16]
 645              		.loc 1 296 0
 646 000c 2068     		ldr	r0, [r4, #0]
 647              		.loc 1 295 0
 648 000e D11A     		subs	r1, r2, r3
 649              		.loc 1 296 0
 650 0010 A042     		cmp	r0, r4
 651              		.loc 1 294 0
 652 0012 6361     		str	r3, [r4, #20]
 653 0014 A361     		str	r3, [r4, #24]
 654              		.loc 1 295 0
 655 0016 A160     		str	r1, [r4, #8]
 656              		.loc 1 296 0
 657 0018 0AD0     		beq	.L57
 658              		.loc 1 297 0
 659 001a 6FF00105 		mvn	r5, #1
 660              	.L61:
 661              	.LVL62:
 662              	.LBB27:
 663              	.LBB28:
 664              		.loc 2 55 0
 665 001e 0368     		ldr	r3, [r0, #0]
 666 0020 2360     		str	r3, [r4, #0]
 667 0022 5C60     		str	r4, [r3, #4]
 668              	.LBE28:
 669              	.LBE27:
 670              		.loc 1 297 0
 671 0024 FFF7FEFF 		bl	chSchReadyI
 672              	.LVL63:
 673 0028 8562     		str	r5, [r0, #40]
 674              		.loc 1 296 0
 675 002a 2068     		ldr	r0, [r4, #0]
 676 002c A042     		cmp	r0, r4
 677 002e F6D1     		bne	.L61
 678              	.LVL64:
 679              	.L57:
ARM GAS  /tmp/ccQZ4VVk.s 			page 13


 680 0030 38BD     		pop	{r3, r4, r5, pc}
 681              		.cfi_endproc
 682              	.LFE14:
 683              		.size	chOQResetI, .-chOQResetI
 684 0032 00BFAFF3 		.section	.text.chOQPutTimeout,"ax",%progbits
 684      0080AFF3 
 684      0080AFF3 
 684      0080
 685              		.align	2
 686              		.p2align 4,,15
 687              		.global	chOQPutTimeout
 688              		.thumb
 689              		.thumb_func
 690              		.type	chOQPutTimeout, %function
 691              	chOQPutTimeout:
 692              	.LFB15:
 693              		.loc 1 322 0
 694              		.cfi_startproc
 695              		@ args = 0, pretend = 0, frame = 0
 696              		@ frame_needed = 0, uses_anonymous_args = 0
 697              	.LVL65:
 698 0000 2DE9F041 		push	{r4, r5, r6, r7, r8, lr}
 699              	.LCFI8:
 700              		.cfi_def_cfa_offset 24
 701              		.cfi_offset 4, -24
 702              		.cfi_offset 5, -20
 703              		.cfi_offset 6, -16
 704              		.cfi_offset 7, -12
 705              		.cfi_offset 8, -8
 706              		.cfi_offset 14, -4
 707              	.LBB29:
 708              		.loc 1 324 0
 709 0004 2023     		movs	r3, #32
 710              	.LVL66:
 711              	.LBE29:
 712              		.loc 1 322 0
 713 0006 0446     		mov	r4, r0
 714 0008 8846     		mov	r8, r1
 715 000a 1646     		mov	r6, r2
 716              	.LBB30:
 717              		.loc 1 324 0
 718              	@ 324 "../../os/kernel/src/chqueues.c" 1
 719 000c 83F31188 		msr     BASEPRI, r3
 720              	@ 0 "" 2
 721              	.LVL67:
 722              		.thumb
 723              	.LBE30:
 724 0010 FFF7FEFF 		bl	dbg_check_lock
 725              	.LVL68:
 726              	.L64:
 727              		.loc 1 325 0 discriminator 1
 728 0014 A568     		ldr	r5, [r4, #8]
 729              	.LBB31:
 730              		.loc 1 328 0 discriminator 1
 731 0016 2046     		mov	r0, r4
 732 0018 3146     		mov	r1, r6
 733              	.LBE31:
ARM GAS  /tmp/ccQZ4VVk.s 			page 14


 734              		.loc 1 325 0 discriminator 1
 735 001a 5DB9     		cbnz	r5, .L73
 736              	.LVL69:
 737              	.LBB33:
 738              		.loc 1 328 0
 739 001c FFF7FEFF 		bl	qwait
 740              	.LVL70:
 741 0020 071E     		subs	r7, r0, #0
 742 0022 F7DA     		bge	.L64
 743              		.loc 1 329 0
 744 0024 FFF7FEFF 		bl	dbg_check_unlock
 745              	.LVL71:
 746              	.LBB32:
 747 0028 2B46     		mov	r3, r5
 748              	.LVL72:
 749              	@ 329 "../../os/kernel/src/chqueues.c" 1
 750 002a 83F31188 		msr     BASEPRI, r3
 751              	@ 0 "" 2
 752              	.LVL73:
 753              		.thumb
 754              	.LBE32:
 755              	.LBE33:
 756              		.loc 1 344 0
 757 002e 3846     		mov	r0, r7
 758 0030 BDE8F081 		pop	{r4, r5, r6, r7, r8, pc}
 759              	.LVL74:
 760              	.L73:
 761              		.loc 1 335 0
 762 0034 6369     		ldr	r3, [r4, #20]
 763              		.loc 1 334 0
 764 0036 013D     		subs	r5, r5, #1
 765 0038 A560     		str	r5, [r4, #8]
 766              		.loc 1 335 0
 767 003a 03F8018B 		strb	r8, [r3], #1
 768              		.loc 1 336 0
 769 003e 2269     		ldr	r2, [r4, #16]
 770              		.loc 1 335 0
 771 0040 6361     		str	r3, [r4, #20]
 772              		.loc 1 336 0
 773 0042 9342     		cmp	r3, r2
 774              		.loc 1 337 0
 775 0044 28BF     		it	cs
 776 0046 E368     		ldrcs	r3, [r4, #12]
 777              		.loc 1 339 0
 778 0048 E169     		ldr	r1, [r4, #28]
 779              	.LVL75:
 780              		.loc 1 337 0
 781 004a 28BF     		it	cs
 782 004c 6361     		strcs	r3, [r4, #20]
 783              		.loc 1 339 0
 784 004e 09B1     		cbz	r1, .L68
 785              		.loc 1 340 0
 786 0050 2046     		mov	r0, r4
 787              	.LVL76:
 788 0052 8847     		blx	r1
 789              	.LVL77:
 790              	.L68:
ARM GAS  /tmp/ccQZ4VVk.s 			page 15


 791              		.loc 1 342 0
 792 0054 FFF7FEFF 		bl	dbg_check_unlock
 793              	.LVL78:
 794              	.LBB34:
 795 0058 0023     		movs	r3, #0
 796              	.LVL79:
 797              	@ 342 "../../os/kernel/src/chqueues.c" 1
 798 005a 83F31188 		msr     BASEPRI, r3
 799              	@ 0 "" 2
 800              	.LVL80:
 801              		.thumb
 802              	.LBE34:
 803              		.loc 1 343 0
 804 005e 1F46     		mov	r7, r3
 805              		.loc 1 344 0
 806 0060 3846     		mov	r0, r7
 807 0062 BDE8F081 		pop	{r4, r5, r6, r7, r8, pc}
 808              		.cfi_endproc
 809              	.LFE15:
 810              		.size	chOQPutTimeout, .-chOQPutTimeout
 811 0066 00BFAFF3 		.section	.text.chOQGetI,"ax",%progbits
 811      0080AFF3 
 811      0080
 812              		.align	2
 813              		.p2align 4,,15
 814              		.global	chOQGetI
 815              		.thumb
 816              		.thumb_func
 817              		.type	chOQGetI, %function
 818              	chOQGetI:
 819              	.LFB16:
 820              		.loc 1 356 0
 821              		.cfi_startproc
 822              		@ args = 0, pretend = 0, frame = 0
 823              		@ frame_needed = 0, uses_anonymous_args = 0
 824              	.LVL81:
 825 0000 38B5     		push	{r3, r4, r5, lr}
 826              	.LCFI9:
 827              		.cfi_def_cfa_offset 16
 828              		.cfi_offset 3, -16
 829              		.cfi_offset 4, -12
 830              		.cfi_offset 5, -8
 831              		.cfi_offset 14, -4
 832              		.loc 1 356 0
 833 0002 0446     		mov	r4, r0
 834              		.loc 1 359 0
 835 0004 FFF7FEFF 		bl	chDbgCheckClassI
 836              	.LVL82:
 837              		.loc 1 361 0
 838 0008 A369     		ldr	r3, [r4, #24]
 839 000a 6269     		ldr	r2, [r4, #20]
 840 000c A068     		ldr	r0, [r4, #8]
 841 000e 9A42     		cmp	r2, r3
 842 0010 16D0     		beq	.L83
 843              	.L77:
 844              		.loc 1 364 0
 845 0012 411C     		adds	r1, r0, #1
ARM GAS  /tmp/ccQZ4VVk.s 			page 16


 846 0014 A160     		str	r1, [r4, #8]
 847              		.loc 1 365 0
 848 0016 13F8015B 		ldrb	r5, [r3], #1	@ zero_extendqisi2
 849              	.LVL83:
 850              		.loc 1 366 0
 851 001a 2269     		ldr	r2, [r4, #16]
 852              		.loc 1 365 0
 853 001c A361     		str	r3, [r4, #24]
 854              		.loc 1 366 0
 855 001e 9342     		cmp	r3, r2
 856 0020 0BD2     		bcs	.L79
 857              	.L80:
 858              		.loc 1 369 0
 859 0022 2068     		ldr	r0, [r4, #0]
 860 0024 A042     		cmp	r0, r4
 861 0026 06D0     		beq	.L78
 862              	.LVL84:
 863              	.LBB35:
 864              	.LBB36:
 865              		.loc 2 55 0
 866 0028 0168     		ldr	r1, [r0, #0]
 867 002a 2160     		str	r1, [r4, #0]
 868 002c 4C60     		str	r4, [r1, #4]
 869              	.LBE36:
 870              	.LBE35:
 871              		.loc 1 370 0
 872 002e FFF7FEFF 		bl	chSchReadyI
 873              	.LVL85:
 874 0032 0022     		movs	r2, #0
 875 0034 8262     		str	r2, [r0, #40]
 876              	.LVL86:
 877              	.L78:
 878              		.loc 1 372 0
 879 0036 2846     		mov	r0, r5
 880 0038 38BD     		pop	{r3, r4, r5, pc}
 881              	.LVL87:
 882              	.L79:
 883              		.loc 1 367 0
 884 003a E368     		ldr	r3, [r4, #12]
 885 003c A361     		str	r3, [r4, #24]
 886 003e F0E7     		b	.L80
 887              	.LVL88:
 888              	.L83:
 889              		.loc 1 361 0 discriminator 1
 890 0040 0028     		cmp	r0, #0
 891 0042 E6D0     		beq	.L77
 892              		.loc 1 362 0
 893 0044 6FF00200 		mvn	r0, #2
 894 0048 38BD     		pop	{r3, r4, r5, pc}
 895              		.cfi_endproc
 896              	.LFE16:
 897              		.size	chOQGetI, .-chOQGetI
 898 004a 00BFAFF3 		.section	.text.chOQWriteTimeout,"ax",%progbits
 898      0080
 899              		.align	2
 900              		.p2align 4,,15
 901              		.global	chOQWriteTimeout
ARM GAS  /tmp/ccQZ4VVk.s 			page 17


 902              		.thumb
 903              		.thumb_func
 904              		.type	chOQWriteTimeout, %function
 905              	chOQWriteTimeout:
 906              	.LFB17:
 907              		.loc 1 400 0
 908              		.cfi_startproc
 909              		@ args = 0, pretend = 0, frame = 0
 910              		@ frame_needed = 0, uses_anonymous_args = 0
 911              	.LVL89:
 912 0000 2DE9F047 		push	{r4, r5, r6, r7, r8, r9, sl, lr}
 913              	.LCFI10:
 914              		.cfi_def_cfa_offset 32
 915              		.cfi_offset 4, -32
 916              		.cfi_offset 5, -28
 917              		.cfi_offset 6, -24
 918              		.cfi_offset 7, -20
 919              		.cfi_offset 8, -16
 920              		.cfi_offset 9, -12
 921              		.cfi_offset 10, -8
 922              		.cfi_offset 14, -4
 923              		.loc 1 400 0
 924 0004 0446     		mov	r4, r0
 925              		.loc 1 404 0
 926 0006 1646     		mov	r6, r2
 927              		.loc 1 400 0
 928 0008 8846     		mov	r8, r1
 929 000a 9A46     		mov	sl, r3
 930              		.loc 1 401 0
 931 000c D0F81C90 		ldr	r9, [r0, #28]
 932              	.LVL90:
 933              		.loc 1 404 0
 934 0010 002A     		cmp	r2, #0
 935 0012 39D0     		beq	.L104
 936              	.LVL91:
 937              	.L85:
 938              	.LBB37:
 939              		.loc 1 406 0
 940 0014 2023     		movs	r3, #32
 941              	.LVL92:
 942              	@ 406 "../../os/kernel/src/chqueues.c" 1
 943 0016 83F31188 		msr     BASEPRI, r3
 944              	@ 0 "" 2
 945              	.LVL93:
 946              		.thumb
 947              	.LBE37:
 948 001a FFF7FEFF 		bl	dbg_check_lock
 949              	.LVL94:
 950              		.loc 1 402 0
 951 001e 0027     		movs	r7, #0
 952              	.LVL95:
 953              	.L103:
 954              		.loc 1 408 0 discriminator 1
 955 0020 A568     		ldr	r5, [r4, #8]
 956              		.loc 1 420 0 discriminator 1
 957 0022 2046     		mov	r0, r4
 958              		.loc 1 414 0 discriminator 1
ARM GAS  /tmp/ccQZ4VVk.s 			page 18


 959 0024 6B1E     		subs	r3, r5, #1
 960              		.loc 1 408 0 discriminator 1
 961 0026 0DB3     		cbz	r5, .L89
 962              	.LVL96:
 963              	.L105:
 964              		.loc 1 414 0
 965 0028 A360     		str	r3, [r4, #8]
 966              		.loc 1 415 0
 967 002a 6569     		ldr	r5, [r4, #20]
 968 002c 18F8011B 		ldrb	r1, [r8], #1	@ zero_extendqisi2
 969              	.LVL97:
 970 0030 05F8011B 		strb	r1, [r5], #1
 971              		.loc 1 416 0
 972 0034 2269     		ldr	r2, [r4, #16]
 973              		.loc 1 415 0
 974 0036 6561     		str	r5, [r4, #20]
 975              	.LVL98:
 976              		.loc 1 416 0
 977 0038 9542     		cmp	r5, r2
 978              		.loc 1 417 0
 979 003a 24BF     		itt	cs
 980 003c E268     		ldrcs	r2, [r4, #12]
 981 003e 6261     		strcs	r2, [r4, #20]
 982              		.loc 1 419 0
 983 0040 B9F1000F 		cmp	r9, #0
 984 0044 00D0     		beq	.L91
 985              		.loc 1 420 0
 986 0046 C847     		blx	r9
 987              	.LVL99:
 988              	.L91:
 989              		.loc 1 422 0
 990 0048 FFF7FEFF 		bl	dbg_check_unlock
 991              	.LVL100:
 992              	.LBB38:
 993 004c 0023     		movs	r3, #0
 994              	.LVL101:
 995              	@ 422 "../../os/kernel/src/chqueues.c" 1
 996 004e 83F31188 		msr     BASEPRI, r3
 997              	@ 0 "" 2
 998              	.LVL102:
 999              		.thumb
 1000              	.LBE38:
 1001              		.loc 1 423 0
 1002 0052 0137     		adds	r7, r7, #1
 1003              	.LVL103:
 1004              		.loc 1 424 0
 1005 0054 013E     		subs	r6, r6, #1
 1006              	.LVL104:
 1007 0056 14D0     		beq	.L88
 1008              	.LBB39:
 1009              		.loc 1 426 0
 1010 0058 2023     		movs	r3, #32
 1011              	.LVL105:
 1012              	@ 426 "../../os/kernel/src/chqueues.c" 1
 1013 005a 83F31188 		msr     BASEPRI, r3
 1014              	@ 0 "" 2
 1015              	.LVL106:
ARM GAS  /tmp/ccQZ4VVk.s 			page 19


 1016              		.thumb
 1017              	.LBE39:
 1018 005e FFF7FEFF 		bl	dbg_check_lock
 1019              	.LVL107:
 1020              		.loc 1 408 0
 1021 0062 A568     		ldr	r5, [r4, #8]
 1022              		.loc 1 420 0
 1023 0064 2046     		mov	r0, r4
 1024              		.loc 1 414 0
 1025 0066 6B1E     		subs	r3, r5, #1
 1026              		.loc 1 408 0
 1027 0068 002D     		cmp	r5, #0
 1028 006a DDD1     		bne	.L105
 1029              	.LVL108:
 1030              	.L89:
 1031              		.loc 1 409 0
 1032 006c 2046     		mov	r0, r4
 1033              	.LVL109:
 1034 006e 5146     		mov	r1, sl
 1035 0070 FFF7FEFF 		bl	qwait
 1036              	.LVL110:
 1037 0074 0028     		cmp	r0, #0
 1038 0076 D3D0     		beq	.L103
 1039              		.loc 1 410 0
 1040 0078 FFF7FEFF 		bl	dbg_check_unlock
 1041              	.LVL111:
 1042              	.LBB40:
 1043 007c 2B46     		mov	r3, r5
 1044              	.LVL112:
 1045              	@ 410 "../../os/kernel/src/chqueues.c" 1
 1046 007e 83F31188 		msr     BASEPRI, r3
 1047              	@ 0 "" 2
 1048              	.LVL113:
 1049              		.thumb
 1050              	.L88:
 1051              	.LBE40:
 1052              		.loc 1 428 0
 1053 0082 3846     		mov	r0, r7
 1054 0084 BDE8F087 		pop	{r4, r5, r6, r7, r8, r9, sl, pc}
 1055              	.LVL114:
 1056              	.L104:
 1057              		.loc 1 404 0 discriminator 1
 1058 0088 0148     		ldr	r0, .L106
 1059              	.LVL115:
 1060 008a FFF7FEFF 		bl	chDbgPanic
 1061              	.LVL116:
 1062 008e C1E7     		b	.L85
 1063              	.L107:
 1064              		.align	2
 1065              	.L106:
 1066 0090 14000000 		.word	.LC1
 1067              		.cfi_endproc
 1068              	.LFE17:
 1069              		.size	chOQWriteTimeout, .-chOQWriteTimeout
 1070 0094 AFF30080 		.section	.rodata.str1.4,"aMS",%progbits,1
 1070      AFF30080 
 1070      AFF30080 
ARM GAS  /tmp/ccQZ4VVk.s 			page 20


 1071              		.align	2
 1072              	.LC0:
 1073 0000 22636849 		.ascii	"\"chIQReadTimeout\"()\000"
 1073      51526561 
 1073      6454696D 
 1073      656F7574 
 1073      22282900 
 1074              	.LC1:
 1075 0014 2263684F 		.ascii	"\"chOQWriteTimeout\"()\000"
 1075      51577269 
 1075      74655469 
 1075      6D656F75 
 1075      74222829 
 1076 0029 000000   		.text
 1077              	.Letext0:
 1078              		.file 3 "/usr/bin/../lib/gcc/arm-none-eabi/4.7.4/include/stddef.h"
 1079              		.file 4 "/usr/bin/../lib/gcc/arm-none-eabi/4.7.4/../../../../arm-none-eabi/include/stdint.h"
 1080              		.file 5 "../../os/ports/GCC/ARMCMx/chtypes.h"
 1081              		.file 6 "../../os/kernel/include/chlists.h"
 1082              		.file 7 "../../os/kernel/include/chthreads.h"
 1083              		.file 8 "../../os/ports/GCC/ARMCMx/chcore_v7m.h"
 1084              		.file 9 "../../os/kernel/include/chschd.h"
 1085              		.file 10 "../../os/kernel/include/chmtx.h"
 1086              		.file 11 "../../os/kernel/include/chqueues.h"
 1087              		.file 12 "../../os/kernel/include/chdebug.h"