ARM GAS  /tmp/ccS0LL6t.s 			page 1


   1              		.syntax unified
   2              		.cpu cortex-m3
   3              		.fpu softvfp
   4              		.eabi_attribute 20, 1
   5              		.eabi_attribute 21, 1
   6              		.eabi_attribute 23, 3
   7              		.eabi_attribute 24, 1
   8              		.eabi_attribute 25, 1
   9              		.eabi_attribute 26, 1
  10              		.eabi_attribute 30, 2
  11              		.eabi_attribute 34, 1
  12              		.eabi_attribute 18, 4
  13              		.thumb
  14              		.file	"hal.c"
  15              		.text
  16              	.Ltext0:
  17              		.cfi_sections	.debug_frame
  18              		.section	.text.halInit,"ax",%progbits
  19              		.align	2
  20              		.p2align 4,,15
  21              		.global	halInit
  22              		.thumb
  23              		.thumb_func
  24              		.type	halInit, %function
  25              	halInit:
  26              	.LFB63:
  27              		.file 1 "../../os/hal/src/hal.c"
  28              		.loc 1 61 0
  29              		.cfi_startproc
  30              		@ args = 0, pretend = 0, frame = 0
  31              		@ frame_needed = 0, uses_anonymous_args = 0
  32 0000 08B5     		push	{r3, lr}
  33              	.LCFI0:
  34              		.cfi_def_cfa_offset 8
  35              		.cfi_offset 3, -8
  36              		.cfi_offset 14, -4
  37              		.loc 1 63 0
  38 0002 FFF7FEFF 		bl	hal_lld_init
  39              	.LVL0:
  40              		.loc 1 66 0
  41 0006 FFF7FEFF 		bl	tmInit
  42              	.LVL1:
  43              		.loc 1 69 0
  44 000a 40F20000 		movw	r0, #:lower16:pal_default_config
  45 000e C0F20000 		movt	r0, #:upper16:pal_default_config
  46 0012 FFF7FEFF 		bl	_pal_lld_init
  47              	.LVL2:
  48              		.loc 1 84 0
  49 0016 FFF7FEFF 		bl	i2cInit
  50              	.LVL3:
  51              		.loc 1 96 0
  52 001a FFF7FEFF 		bl	sdInit
  53              	.LVL4:
  54              		.loc 1 121 0
  55 001e BDE80840 		pop	{r3, lr}
  56              		.loc 1 120 0
  57 0022 FFF7FEBF 		b	boardInit
ARM GAS  /tmp/ccS0LL6t.s 			page 2


  58              	.LVL5:
  59              		.cfi_endproc
  60              	.LFE63:
  61              		.size	halInit, .-halInit
  62 0026 00BFAFF3 		.section	.text.halIsCounterWithin,"ax",%progbits
  62      0080AFF3 
  62      0080
  63              		.align	2
  64              		.p2align 4,,15
  65              		.global	halIsCounterWithin
  66              		.thumb
  67              		.thumb_func
  68              		.type	halIsCounterWithin, %function
  69              	halIsCounterWithin:
  70              	.LFB64:
  71              		.loc 1 167 0
  72              		.cfi_startproc
  73              		@ args = 0, pretend = 0, frame = 0
  74              		@ frame_needed = 0, uses_anonymous_args = 0
  75              		@ link register save eliminated.
  76              	.LVL6:
  77              		.loc 1 168 0
  78 0000 4FF48053 		mov	r3, #4096
  79 0004 CEF20003 		movt	r3, 57344
  80              		.loc 1 170 0
  81 0008 8142     		cmp	r1, r0
  82              		.loc 1 168 0
  83 000a 5A68     		ldr	r2, [r3, #4]
  84              	.LVL7:
  85              		.loc 1 170 0
  86 000c 06D9     		bls	.L3
  87              		.loc 1 170 0 is_stmt 0 discriminator 1
  88 000e 8242     		cmp	r2, r0
  89 0010 08D3     		bcc	.L7
  90              	.L9:
  91              		.loc 1 171 0 is_stmt 1 discriminator 2
  92 0012 8A42     		cmp	r2, r1
  93 0014 2CBF     		ite	cs
  94 0016 0020     		movcs	r0, #0
  95              	.LVL8:
  96 0018 0120     		movcc	r0, #1
  97 001a 7047     		bx	lr
  98              	.LVL9:
  99              	.L3:
 100              		.loc 1 171 0 is_stmt 0
 101 001c 8242     		cmp	r2, r0
 102 001e F8D3     		bcc	.L9
 103 0020 0120     		movs	r0, #1
 104              	.LVL10:
 105              		.loc 1 172 0 is_stmt 1
 106 0022 7047     		bx	lr
 107              	.LVL11:
 108              	.L7:
 109              		.loc 1 170 0
 110 0024 0020     		movs	r0, #0
 111              	.LVL12:
 112 0026 7047     		bx	lr
ARM GAS  /tmp/ccS0LL6t.s 			page 3


 113              		.cfi_endproc
 114              	.LFE64:
 115              		.size	halIsCounterWithin, .-halIsCounterWithin
 116 0028 AFF30080 		.section	.text.halPolledDelay,"ax",%progbits
 116      AFF30080 
 117              		.align	2
 118              		.p2align 4,,15
 119              		.global	halPolledDelay
 120              		.thumb
 121              		.thumb_func
 122              		.type	halPolledDelay, %function
 123              	halPolledDelay:
 124              	.LFB65:
 125              		.loc 1 186 0
 126              		.cfi_startproc
 127              		@ args = 0, pretend = 0, frame = 0
 128              		@ frame_needed = 0, uses_anonymous_args = 0
 129              		@ link register save eliminated.
 130              	.LVL13:
 131              		.loc 1 187 0
 132 0000 4FF48051 		mov	r1, #4096
 133 0004 CEF20001 		movt	r1, 57344
 134 0008 4A68     		ldr	r2, [r1, #4]
 135              	.LVL14:
 136              		.loc 1 188 0
 137 000a 8018     		adds	r0, r0, r2
 138              	.LVL15:
 139              	.L21:
 140              	.LBB4:
 141              	.LBB5:
 142              		.loc 1 170 0 discriminator 1
 143 000c 8242     		cmp	r2, r0
 144              		.loc 1 168 0 discriminator 1
 145 000e 4B68     		ldr	r3, [r1, #4]
 146              	.LVL16:
 147              		.loc 1 170 0 discriminator 1
 148 0010 02D2     		bcs	.L12
 149              		.loc 1 170 0 is_stmt 0
 150 0012 9A42     		cmp	r2, r3
 151 0014 02D9     		bls	.L22
 152 0016 7047     		bx	lr
 153              	.L12:
 154              		.loc 1 171 0 is_stmt 1
 155 0018 9A42     		cmp	r2, r3
 156 001a F7D9     		bls	.L21
 157              	.L22:
 158 001c 9842     		cmp	r0, r3
 159 001e 94BF     		ite	ls
 160 0020 0023     		movls	r3, #0
 161              	.LVL17:
 162 0022 0123     		movhi	r3, #1
 163              	.LBE5:
 164              	.LBE4:
 165              		.loc 1 189 0
 166 0024 002B     		cmp	r3, #0
 167 0026 F1D1     		bne	.L21
 168 0028 7047     		bx	lr
ARM GAS  /tmp/ccS0LL6t.s 			page 4


 169              		.cfi_endproc
 170              	.LFE65:
 171              		.size	halPolledDelay, .-halPolledDelay
 172 002a 00BFAFF3 		.text
 172      0080
 173              	.Letext0:
 174              		.file 2 "/usr/bin/../lib/gcc/arm-none-eabi/4.7.4/../../../../arm-none-eabi/include/stdint.h"
 175              		.file 3 "../../os/ports/GCC/ARMCMx/chtypes.h"
 176              		.file 4 "../../os/ports/common/ARMCMx/nvic.h"
 177              		.file 5 "../../os/hal/platforms/STM32F1xx/hal_lld.h"
 178              		.file 6 "../../os/hal/platforms/STM32/GPIOv1/pal_lld.h"
 179              		.file 7 "../../os/ports/common/ARMCMx/CMSIS/include/core_cm3.h"
 180              		.file 8 "../../os/hal/include/tm.h"
 181              		.file 9 "../../os/hal/include/i2c.h"
 182              		.file 10 "../../os/hal/include/serial.h"
 183              		.file 11 "../../boards/MLAB_STM32F107RxT01A/board.h"