ARM GAS  /tmp/ccGTWVBp.s 			page 1


   1              		.syntax unified
   2              		.cpu cortex-m3
   3              		.fpu softvfp
   4              		.eabi_attribute 20, 1
   5              		.eabi_attribute 21, 1
   6              		.eabi_attribute 23, 3
   7              		.eabi_attribute 24, 1
   8              		.eabi_attribute 25, 1
   9              		.eabi_attribute 26, 1
  10              		.eabi_attribute 30, 2
  11              		.eabi_attribute 34, 1
  12              		.eabi_attribute 18, 4
  13              		.thumb
  14              		.file	"i2c_lld.c"
  15              		.text
  16              	.Ltext0:
  17              		.cfi_sections	.debug_frame
  18              		.section	.text.i2c_lld_abort_operation,"ax",%progbits
  19              		.align	2
  20              		.p2align 4,,15
  21              		.thumb
  22              		.thumb_func
  23              		.type	i2c_lld_abort_operation, %function
  24              	i2c_lld_abort_operation:
  25              	.LFB63:
  26              		.file 1 "../../os/hal/platforms/STM32/I2Cv1/i2c_lld.c"
  27              		.loc 1 142 0
  28              		.cfi_startproc
  29              		@ args = 0, pretend = 0, frame = 0
  30              		@ frame_needed = 0, uses_anonymous_args = 0
  31              		@ link register save eliminated.
  32              	.LVL0:
  33              		.loc 1 152 0
  34 0000 026B     		ldr	r2, [r0, #48]
  35              		.loc 1 143 0
  36 0002 436B     		ldr	r3, [r0, #52]
  37              	.LVL1:
  38              		.loc 1 142 0
  39 0004 30B4     		push	{r4, r5}
  40              	.LCFI0:
  41              		.cfi_def_cfa_offset 8
  42              		.cfi_offset 4, -8
  43              		.cfi_offset 5, -4
  44              		.loc 1 147 0
  45 0006 0021     		movs	r1, #0
  46              		.loc 1 152 0
  47 0008 1468     		ldr	r4, [r2, #0]
  48              		.loc 1 146 0
  49 000a 4FF40045 		mov	r5, #32768
  50 000e 1D80     		strh	r5, [r3, #0]	@ movhi
  51              		.loc 1 147 0
  52 0010 1980     		strh	r1, [r3, #0]	@ movhi
  53              		.loc 1 148 0
  54 0012 9980     		strh	r1, [r3, #4]	@ movhi
  55              		.loc 1 149 0
  56 0014 9982     		strh	r1, [r3, #20]	@ movhi
  57              		.loc 1 152 0
ARM GAS  /tmp/ccGTWVBp.s 			page 2


  58 0016 2368     		ldr	r3, [r4, #0]
  59              	.LVL2:
  60 0018 0F21     		movs	r1, #15
  61 001a 23F00F03 		bic	r3, r3, #15
  62 001e 2360     		str	r3, [r4, #0]
  63 0020 147A     		ldrb	r4, [r2, #8]	@ zero_extendqisi2
  64              		.loc 1 153 0
  65 0022 C36A     		ldr	r3, [r0, #44]
  66              		.loc 1 152 0
  67 0024 01FA04F4 		lsl	r4, r1, r4
  68 0028 5068     		ldr	r0, [r2, #4]
  69              	.LVL3:
  70              		.loc 1 153 0
  71 002a 1A68     		ldr	r2, [r3, #0]
  72              		.loc 1 152 0
  73 002c 0460     		str	r4, [r0, #0]
  74              		.loc 1 153 0
  75 002e 1468     		ldr	r4, [r2, #0]
  76 0030 5868     		ldr	r0, [r3, #4]
  77 0032 24F00F04 		bic	r4, r4, #15
  78 0036 1460     		str	r4, [r2, #0]
  79 0038 1B7A     		ldrb	r3, [r3, #8]	@ zero_extendqisi2
  80 003a 01FA03F1 		lsl	r1, r1, r3
  81 003e 0160     		str	r1, [r0, #0]
  82              		.loc 1 154 0
  83 0040 30BC     		pop	{r4, r5}
  84 0042 7047     		bx	lr
  85              		.cfi_endproc
  86              	.LFE63:
  87              		.size	i2c_lld_abort_operation, .-i2c_lld_abort_operation
  88 0044 AFF30080 		.section	.text.i2c_lld_safety_timeout,"ax",%progbits
  88      AFF30080 
  88      AFF30080 
  89              		.align	2
  90              		.p2align 4,,15
  91              		.thumb
  92              		.thumb_func
  93              		.type	i2c_lld_safety_timeout, %function
  94              	i2c_lld_safety_timeout:
  95              	.LFB64:
  96              		.loc 1 163 0
  97              		.cfi_startproc
  98              		@ args = 0, pretend = 0, frame = 0
  99              		@ frame_needed = 0, uses_anonymous_args = 0
 100              	.LVL4:
 101 0000 38B5     		push	{r3, r4, r5, lr}
 102              	.LCFI1:
 103              		.cfi_def_cfa_offset 16
 104              		.cfi_offset 3, -16
 105              		.cfi_offset 4, -12
 106              		.cfi_offset 5, -8
 107              		.cfi_offset 14, -4
 108              		.loc 1 163 0
 109 0002 0446     		mov	r4, r0
 110              	.LVL5:
 111              	.LBB8:
 112              		.loc 1 166 0
ARM GAS  /tmp/ccGTWVBp.s 			page 3


 113 0004 2023     		movs	r3, #32
 114              	.LVL6:
 115              	@ 166 "../../os/hal/platforms/STM32/I2Cv1/i2c_lld.c" 1
 116 0006 83F31188 		msr     BASEPRI, r3
 117              	@ 0 "" 2
 118              	.LVL7:
 119              		.thumb
 120              	.LBE8:
 121 000a FFF7FEFF 		bl	dbg_check_lock_from_isr
 122              	.LVL8:
 123              		.loc 1 167 0
 124 000e E569     		ldr	r5, [r4, #28]
 125 0010 55B1     		cbz	r5, .L3
 126              	.LVL9:
 127              	.LBB9:
 128              		.loc 1 169 0
 129 0012 2046     		mov	r0, r4
 130 0014 FFF7FEFF 		bl	i2c_lld_abort_operation
 131              	.LVL10:
 132              		.loc 1 170 0
 133 0018 0023     		movs	r3, #0
 134              		.loc 1 171 0
 135 001a 4FF0FF31 		mov	r1, #-1
 136              		.loc 1 170 0
 137 001e E361     		str	r3, [r4, #28]
 138              		.loc 1 172 0
 139 0020 2846     		mov	r0, r5
 140              		.loc 1 171 0
 141 0022 A962     		str	r1, [r5, #40]
 142              		.loc 1 172 0
 143 0024 FFF7FEFF 		bl	chSchReadyI
 144              	.LVL11:
 145              	.L3:
 146              	.LBE9:
 147              		.loc 1 174 0
 148 0028 FFF7FEFF 		bl	dbg_check_unlock_from_isr
 149              	.LVL12:
 150              	.LBB10:
 151 002c 0023     		movs	r3, #0
 152              	.LVL13:
 153              	@ 174 "../../os/hal/platforms/STM32/I2Cv1/i2c_lld.c" 1
 154 002e 83F31188 		msr     BASEPRI, r3
 155              	@ 0 "" 2
 156              	.LVL14:
 157              		.thumb
 158 0032 38BD     		pop	{r3, r4, r5, pc}
 159              	.LBE10:
 160              		.cfi_endproc
 161              	.LFE64:
 162              		.size	i2c_lld_safety_timeout, .-i2c_lld_safety_timeout
 163 0034 AFF30080 		.section	.text.i2c_lld_serve_tx_end_irq,"ax",%progbits
 163      AFF30080 
 163      AFF30080 
 164              		.align	2
 165              		.p2align 4,,15
 166              		.thumb
 167              		.thumb_func
ARM GAS  /tmp/ccGTWVBp.s 			page 4


 168              		.type	i2c_lld_serve_tx_end_irq, %function
 169              	i2c_lld_serve_tx_end_irq:
 170              	.LFB69:
 171              		.loc 1 380 0
 172              		.cfi_startproc
 173              		@ args = 0, pretend = 0, frame = 0
 174              		@ frame_needed = 0, uses_anonymous_args = 0
 175              	.LVL15:
 176 0000 38B5     		push	{r3, r4, r5, lr}
 177              	.LCFI2:
 178              		.cfi_def_cfa_offset 16
 179              		.cfi_offset 3, -16
 180              		.cfi_offset 4, -12
 181              		.cfi_offset 5, -8
 182              		.cfi_offset 14, -4
 183              		.loc 1 385 0
 184 0002 0B07     		lsls	r3, r1, #28
 185              		.loc 1 380 0
 186 0004 0546     		mov	r5, r0
 187              		.loc 1 381 0
 188 0006 446B     		ldr	r4, [r0, #52]
 189              	.LVL16:
 190              		.loc 1 385 0
 191 0008 01D5     		bpl	.L9
 192              		.loc 1 386 0
 193 000a FFF7FEFF 		bl	port_halt
 194              	.LVL17:
 195              	.L9:
 196              		.loc 1 392 0
 197 000e 2B6B     		ldr	r3, [r5, #48]
 198 0010 1A68     		ldr	r2, [r3, #0]
 199 0012 5968     		ldr	r1, [r3, #4]
 200 0014 1068     		ldr	r0, [r2, #0]
 201 0016 20F00F00 		bic	r0, r0, #15
 202 001a 1060     		str	r0, [r2, #0]
 203 001c 1B7A     		ldrb	r3, [r3, #8]	@ zero_extendqisi2
 204 001e 0F22     		movs	r2, #15
 205 0020 02FA03F0 		lsl	r0, r2, r3
 206 0024 0860     		str	r0, [r1, #0]
 207              		.loc 1 396 0
 208 0026 A188     		ldrh	r1, [r4, #4]
 209 0028 8BB2     		uxth	r3, r1
 210 002a 43F40072 		orr	r2, r3, #512
 211 002e A280     		strh	r2, [r4, #4]	@ movhi
 212 0030 38BD     		pop	{r3, r4, r5, pc}
 213              		.cfi_endproc
 214              	.LFE69:
 215              		.size	i2c_lld_serve_tx_end_irq, .-i2c_lld_serve_tx_end_irq
 216 0032 00BFAFF3 		.section	.text.i2c_lld_serve_rx_end_irq,"ax",%progbits
 216      0080AFF3 
 216      0080AFF3 
 216      0080
 217              		.align	2
 218              		.p2align 4,,15
 219              		.thumb
 220              		.thumb_func
 221              		.type	i2c_lld_serve_rx_end_irq, %function
ARM GAS  /tmp/ccGTWVBp.s 			page 5


 222              	i2c_lld_serve_rx_end_irq:
 223              	.LFB68:
 224              		.loc 1 353 0
 225              		.cfi_startproc
 226              		@ args = 0, pretend = 0, frame = 0
 227              		@ frame_needed = 0, uses_anonymous_args = 0
 228              	.LVL18:
 229              		.loc 1 358 0
 230 0000 0A07     		lsls	r2, r1, #28
 231              		.loc 1 353 0
 232 0002 70B5     		push	{r4, r5, r6, lr}
 233              	.LCFI3:
 234              		.cfi_def_cfa_offset 16
 235              		.cfi_offset 4, -16
 236              		.cfi_offset 5, -12
 237              		.cfi_offset 6, -8
 238              		.cfi_offset 14, -4
 239              		.loc 1 353 0
 240 0004 0546     		mov	r5, r0
 241              		.loc 1 354 0
 242 0006 446B     		ldr	r4, [r0, #52]
 243              	.LVL19:
 244              		.loc 1 358 0
 245 0008 2FD4     		bmi	.L22
 246              	.LVL20:
 247              	.L14:
 248              		.loc 1 365 0
 249 000a EA6A     		ldr	r2, [r5, #44]
 250              	.LBB11:
 251              		.loc 1 370 0
 252 000c 2023     		movs	r3, #32
 253              	.LVL21:
 254              	.LBE11:
 255              		.loc 1 365 0
 256 000e 1168     		ldr	r1, [r2, #0]
 257 0010 5068     		ldr	r0, [r2, #4]
 258 0012 0E68     		ldr	r6, [r1, #0]
 259 0014 26F00F06 		bic	r6, r6, #15
 260 0018 0E60     		str	r6, [r1, #0]
 261 001a 127A     		ldrb	r2, [r2, #8]	@ zero_extendqisi2
 262 001c 0F21     		movs	r1, #15
 263 001e 01FA02F2 		lsl	r2, r1, r2
 264 0022 0260     		str	r2, [r0, #0]
 265              		.loc 1 367 0
 266 0024 A088     		ldrh	r0, [r4, #4]
 267 0026 20F48051 		bic	r1, r0, #4096
 268 002a 0A04     		lsls	r2, r1, #16
 269 002c 100C     		lsrs	r0, r2, #16
 270 002e A080     		strh	r0, [r4, #4]	@ movhi
 271              		.loc 1 368 0
 272 0030 2188     		ldrh	r1, [r4, #0]
 273 0032 21F48062 		bic	r2, r1, #1024
 274 0036 1004     		lsls	r0, r2, #16
 275 0038 010C     		lsrs	r1, r0, #16
 276 003a 2180     		strh	r1, [r4, #0]	@ movhi
 277              		.loc 1 369 0
 278 003c 2288     		ldrh	r2, [r4, #0]
ARM GAS  /tmp/ccGTWVBp.s 			page 6


 279 003e 90B2     		uxth	r0, r2
 280 0040 40F40071 		orr	r1, r0, #512
 281 0044 2180     		strh	r1, [r4, #0]	@ movhi
 282              	.LBB12:
 283              		.loc 1 370 0
 284              	@ 370 "../../os/hal/platforms/STM32/I2Cv1/i2c_lld.c" 1
 285 0046 83F31188 		msr     BASEPRI, r3
 286              	@ 0 "" 2
 287              	.LVL22:
 288              		.thumb
 289              	.LBE12:
 290 004a FFF7FEFF 		bl	dbg_check_lock_from_isr
 291              	.LVL23:
 292 004e EB69     		ldr	r3, [r5, #28]
 293 0050 2BB1     		cbz	r3, .L15
 294              	.LVL24:
 295              	.LBB13:
 296              		.loc 1 370 0 is_stmt 0 discriminator 1
 297 0052 0022     		movs	r2, #0
 298 0054 EA61     		str	r2, [r5, #28]
 299 0056 1846     		mov	r0, r3
 300 0058 9A62     		str	r2, [r3, #40]
 301 005a FFF7FEFF 		bl	chSchReadyI
 302              	.LVL25:
 303              	.L15:
 304              	.LBE13:
 305              		.loc 1 370 0 discriminator 2
 306 005e FFF7FEFF 		bl	dbg_check_unlock_from_isr
 307              	.LVL26:
 308              	.LBB14:
 309 0062 0023     		movs	r3, #0
 310              	.LVL27:
 311              	@ 370 "../../os/hal/platforms/STM32/I2Cv1/i2c_lld.c" 1
 312 0064 83F31188 		msr     BASEPRI, r3
 313              	@ 0 "" 2
 314              	.LVL28:
 315              		.thumb
 316 0068 70BD     		pop	{r4, r5, r6, pc}
 317              	.LVL29:
 318              	.L22:
 319              	.LBE14:
 320              		.loc 1 359 0 is_stmt 1
 321 006a FFF7FEFF 		bl	port_halt
 322              	.LVL30:
 323 006e CCE7     		b	.L14
 324              		.cfi_endproc
 325              	.LFE68:
 326              		.size	i2c_lld_serve_rx_end_irq, .-i2c_lld_serve_rx_end_irq
 327              		.section	.text.VectorC4,"ax",%progbits
 328              		.align	2
 329              		.p2align 4,,15
 330              		.global	VectorC4
 331              		.thumb
 332              		.thumb_func
 333              		.type	VectorC4, %function
 334              	VectorC4:
 335              	.LFB71:
ARM GAS  /tmp/ccGTWVBp.s 			page 7


 336              		.loc 1 484 0
 337              		.cfi_startproc
 338              		@ args = 0, pretend = 0, frame = 0
 339              		@ frame_needed = 0, uses_anonymous_args = 0
 340 0000 F8B5     		push	{r3, r4, r5, r6, r7, lr}
 341              	.LCFI4:
 342              		.cfi_def_cfa_offset 24
 343              		.cfi_offset 3, -24
 344              		.cfi_offset 4, -20
 345              		.cfi_offset 5, -16
 346              		.cfi_offset 6, -12
 347              		.cfi_offset 7, -8
 348              		.cfi_offset 14, -4
 349              	.LBB20:
 350              	.LBB21:
 351              		.loc 1 294 0
 352 0002 494D     		ldr	r5, .L44
 353              	.LBE21:
 354              	.LBE20:
 355              		.loc 1 486 0
 356 0004 FFF7FEFF 		bl	dbg_check_enter_isr
 357              	.LVL31:
 358              	.LBB28:
 359              	.LBB26:
 360              		.loc 1 294 0
 361 0008 6C6B     		ldr	r4, [r5, #52]
 362              	.LVL32:
 363              		.loc 1 301 0
 364 000a 0822     		movs	r2, #8
 365              		.loc 1 295 0
 366 000c 238B     		ldrh	r3, [r4, #24]
 367              	.LVL33:
 368              		.loc 1 296 0
 369 000e A68A     		ldrh	r6, [r4, #20]
 370              		.loc 1 301 0
 371 0010 C0F20302 		movt	r2, 3
 372              		.loc 1 296 0
 373 0014 B6B2     		uxth	r6, r6
 374              	.LVL34:
 375              		.loc 1 301 0
 376 0016 46EA0340 		orr	r0, r6, r3, lsl #16
 377 001a 20F07F43 		bic	r3, r0, #-16777216
 378              	.LVL35:
 379 001e 9342     		cmp	r3, r2
 380 0020 54D0     		beq	.L27
 381 0022 13D9     		bls	.L42
 382 0024 8222     		movs	r2, #130
 383 0026 C0F20702 		movt	r2, 7
 384 002a 9342     		cmp	r3, r2
 385 002c 53D0     		beq	.L28
 386 002e 8420     		movs	r0, #132
 387 0030 C0F20700 		movt	r0, 7
 388 0034 8342     		cmp	r3, r0
 389 0036 2ED0     		beq	.L43
 390              	.LVL36:
 391              	.L24:
 392              		.loc 1 341 0
ARM GAS  /tmp/ccGTWVBp.s 			page 8


 393 0038 16F00A0F 		tst	r6, #10
 394              		.loc 1 342 0
 395 003c 18BF     		it	ne
 396 003e 238B     		ldrhne	r3, [r4, #24]
 397              	.LVL37:
 398              	.L33:
 399              	.LBE26:
 400              	.LBE28:
 401              		.loc 1 490 0
 402 0040 FFF7FEFF 		bl	dbg_check_leave_isr
 403              	.LVL38:
 404              		.loc 1 491 0
 405 0044 BDE8F840 		pop	{r3, r4, r5, r6, r7, lr}
 406              		.loc 1 490 0
 407 0048 FFF7FEBF 		b	_port_irq_epilogue
 408              	.LVL39:
 409              	.L42:
 410              	.LBB29:
 411              	.LBB27:
 412              		.loc 1 301 0
 413 004c 0121     		movs	r1, #1
 414 004e C0F20301 		movt	r1, 3
 415 0052 8B42     		cmp	r3, r1
 416 0054 2DD0     		beq	.L25
 417 0056 0222     		movs	r2, #2
 418 0058 C0F20302 		movt	r2, 3
 419 005c 9342     		cmp	r3, r2
 420 005e EBD1     		bne	.L24
 421              		.loc 1 315 0
 422 0060 A388     		ldrh	r3, [r4, #4]
 423              		.loc 1 316 0
 424 0062 E86A     		ldr	r0, [r5, #44]
 425              		.loc 1 315 0
 426 0064 23F40071 		bic	r1, r3, #512
 427 0068 0B04     		lsls	r3, r1, #16
 428              		.loc 1 316 0
 429 006a 0268     		ldr	r2, [r0, #0]
 430              		.loc 1 315 0
 431 006c 180C     		lsrs	r0, r3, #16
 432 006e A080     		strh	r0, [r4, #4]	@ movhi
 433              		.loc 1 316 0
 434 0070 1168     		ldr	r1, [r2, #0]
 435 0072 41F00103 		orr	r3, r1, #1
 436 0076 1360     		str	r3, [r2, #0]
 437              		.loc 1 317 0
 438 0078 A088     		ldrh	r0, [r4, #4]
 439 007a 81B2     		uxth	r1, r0
 440 007c 41F48053 		orr	r3, r1, #4096
 441 0080 A380     		strh	r3, [r4, #4]	@ movhi
 442              		.loc 1 318 0
 443 0082 5368     		ldr	r3, [r2, #4]
 444 0084 012B     		cmp	r3, #1
 445 0086 D7D8     		bhi	.L24
 446              		.loc 1 319 0
 447 0088 2288     		ldrh	r2, [r4, #0]
 448 008a 22F48060 		bic	r0, r2, #1024
 449 008e 0104     		lsls	r1, r0, #16
ARM GAS  /tmp/ccGTWVBp.s 			page 9


 450 0090 0B0C     		lsrs	r3, r1, #16
 451 0092 2380     		strh	r3, [r4, #0]	@ movhi
 452 0094 D0E7     		b	.L24
 453              	.L43:
 454              		.loc 1 327 0
 455 0096 EF6A     		ldr	r7, [r5, #44]
 456 0098 3B68     		ldr	r3, [r7, #0]
 457 009a 5F68     		ldr	r7, [r3, #4]
 458 009c 47B3     		cbz	r7, .L32
 459              		.loc 1 330 0
 460 009e 2388     		ldrh	r3, [r4, #0]
 461              		.loc 1 329 0
 462 00a0 2A8C     		ldrh	r2, [r5, #32]
 463              		.loc 1 330 0
 464 00a2 98B2     		uxth	r0, r3
 465              		.loc 1 329 0
 466 00a4 42F00101 		orr	r1, r2, #1
 467              		.loc 1 330 0
 468 00a8 40F4A063 		orr	r3, r0, #1280
 469              		.loc 1 329 0
 470 00ac 2984     		strh	r1, [r5, #32]	@ movhi
 471              		.loc 1 330 0
 472 00ae 2380     		strh	r3, [r4, #0]	@ movhi
 473 00b0 C6E7     		b	.L33
 474              	.L25:
 475              		.loc 1 303 0
 476 00b2 2B8C     		ldrh	r3, [r5, #32]
 477 00b4 1A0A     		lsrs	r2, r3, #8
 478 00b6 0CD0     		beq	.L41
 479              		.loc 1 305 0
 480 00b8 03F00103 		and	r3, r3, #1
 481 00bc 43F0F003 		orr	r3, r3, #240
 482 00c0 02F00600 		and	r0, r2, #6
 483 00c4 43EA0001 		orr	r1, r3, r0
 484 00c8 2182     		strh	r1, [r4, #16]	@ movhi
 485 00ca B5E7     		b	.L24
 486              	.L27:
 487              		.loc 1 312 0
 488 00cc 2B8C     		ldrh	r3, [r5, #32]
 489 00ce C3F34703 		ubfx	r3, r3, #1, #8
 490              	.L41:
 491 00d2 2382     		strh	r3, [r4, #16]	@ movhi
 492 00d4 B0E7     		b	.L24
 493              	.L28:
 494              		.loc 1 322 0
 495 00d6 A088     		ldrh	r0, [r4, #4]
 496              		.loc 1 323 0
 497 00d8 2A6B     		ldr	r2, [r5, #48]
 498              		.loc 1 322 0
 499 00da 20F40071 		bic	r1, r0, #512
 500 00de 0B04     		lsls	r3, r1, #16
 501              		.loc 1 323 0
 502 00e0 1068     		ldr	r0, [r2, #0]
 503              		.loc 1 322 0
 504 00e2 1A0C     		lsrs	r2, r3, #16
 505 00e4 A280     		strh	r2, [r4, #4]	@ movhi
 506              		.loc 1 323 0
ARM GAS  /tmp/ccGTWVBp.s 			page 10


 507 00e6 0168     		ldr	r1, [r0, #0]
 508 00e8 41F00103 		orr	r3, r1, #1
 509 00ec 0360     		str	r3, [r0, #0]
 510 00ee A3E7     		b	.L24
 511              	.L32:
 512              		.loc 1 333 0
 513 00f0 A188     		ldrh	r1, [r4, #4]
 514              	.LBB22:
 515              		.loc 1 335 0
 516 00f2 2023     		movs	r3, #32
 517              	.LVL40:
 518              	.LBE22:
 519              		.loc 1 333 0
 520 00f4 21F40072 		bic	r2, r1, #512
 521 00f8 1004     		lsls	r0, r2, #16
 522 00fa 010C     		lsrs	r1, r0, #16
 523 00fc A180     		strh	r1, [r4, #4]	@ movhi
 524              		.loc 1 334 0
 525 00fe 2288     		ldrh	r2, [r4, #0]
 526 0100 90B2     		uxth	r0, r2
 527 0102 40F40071 		orr	r1, r0, #512
 528 0106 2180     		strh	r1, [r4, #0]	@ movhi
 529              	.LBB23:
 530              		.loc 1 335 0
 531              	@ 335 "../../os/hal/platforms/STM32/I2Cv1/i2c_lld.c" 1
 532 0108 83F31188 		msr     BASEPRI, r3
 533              	@ 0 "" 2
 534              	.LVL41:
 535              		.thumb
 536              	.LBE23:
 537 010c FFF7FEFF 		bl	dbg_check_lock_from_isr
 538              	.LVL42:
 539 0110 E869     		ldr	r0, [r5, #28]
 540 0112 18B1     		cbz	r0, .L34
 541              	.LVL43:
 542              	.LBB24:
 543 0114 8762     		str	r7, [r0, #40]
 544 0116 EF61     		str	r7, [r5, #28]
 545 0118 FFF7FEFF 		bl	chSchReadyI
 546              	.LVL44:
 547              	.L34:
 548              	.LBE24:
 549 011c FFF7FEFF 		bl	dbg_check_unlock_from_isr
 550              	.LVL45:
 551              	.LBB25:
 552 0120 0023     		movs	r3, #0
 553              	@ 335 "../../os/hal/platforms/STM32/I2Cv1/i2c_lld.c" 1
 554 0122 83F31188 		msr     BASEPRI, r3
 555              	@ 0 "" 2
 556              	.LVL46:
 557              		.thumb
 558 0126 87E7     		b	.L24
 559              	.L45:
 560              		.align	2
 561              	.L44:
 562 0128 00000000 		.word	.LANCHOR0
 563              	.LBE25:
ARM GAS  /tmp/ccGTWVBp.s 			page 11


 564              	.LBE27:
 565              	.LBE29:
 566              		.cfi_endproc
 567              	.LFE71:
 568              		.size	VectorC4, .-VectorC4
 569 012c AFF30080 		.section	.text.VectorC8,"ax",%progbits
 570              		.align	2
 571              		.p2align 4,,15
 572              		.global	VectorC8
 573              		.thumb
 574              		.thumb_func
 575              		.type	VectorC8, %function
 576              	VectorC8:
 577              	.LFB72:
 578              		.loc 1 498 0
 579              		.cfi_startproc
 580              		@ args = 0, pretend = 0, frame = 0
 581              		@ frame_needed = 0, uses_anonymous_args = 0
 582 0000 F8B5     		push	{r3, r4, r5, r6, r7, lr}
 583              	.LCFI5:
 584              		.cfi_def_cfa_offset 24
 585              		.cfi_offset 3, -24
 586              		.cfi_offset 4, -20
 587              		.cfi_offset 5, -16
 588              		.cfi_offset 6, -12
 589              		.cfi_offset 7, -8
 590              		.cfi_offset 14, -4
 591              		.loc 1 499 0
 592 0002 3D4C     		ldr	r4, .L81
 593 0004 636B     		ldr	r3, [r4, #52]
 594 0006 9D8A     		ldrh	r5, [r3, #20]
 595              		.loc 1 501 0
 596 0008 FFF7FEFF 		bl	dbg_check_enter_isr
 597              	.LVL47:
 598              		.loc 1 499 0
 599 000c ADB2     		uxth	r5, r5
 600              	.LVL48:
 601              	.LBB35:
 602              	.LBB36:
 603              		.loc 1 410 0
 604 000e 216B     		ldr	r1, [r4, #48]
 605              	.LBE36:
 606              	.LBE35:
 607              		.loc 1 503 0
 608 0010 05F45F40 		and	r0, r5, #57088
 609 0014 626B     		ldr	r2, [r4, #52]
 610 0016 80F47F47 		eor	r7, r0, #65280
 611              	.LBB43:
 612              	.LBB40:
 613              		.loc 1 410 0
 614 001a 0E68     		ldr	r6, [r1, #0]
 615              	.LBE40:
 616              	.LBE43:
 617              		.loc 1 503 0
 618 001c 87F0FF03 		eor	r3, r7, #255
 619 0020 9382     		strh	r3, [r2, #20]	@ movhi
 620              	.LVL49:
ARM GAS  /tmp/ccGTWVBp.s 			page 12


 621              	.LBB44:
 622              	.LBB41:
 623              		.loc 1 410 0
 624 0022 3768     		ldr	r7, [r6, #0]
 625 0024 0F20     		movs	r0, #15
 626 0026 27F00F03 		bic	r3, r7, #15
 627 002a 3360     		str	r3, [r6, #0]
 628 002c 0E7A     		ldrb	r6, [r1, #8]	@ zero_extendqisi2
 629              		.loc 1 411 0
 630 002e E36A     		ldr	r3, [r4, #44]
 631              		.loc 1 410 0
 632 0030 00FA06F7 		lsl	r7, r0, r6
 633 0034 4E68     		ldr	r6, [r1, #4]
 634              		.loc 1 411 0
 635 0036 1968     		ldr	r1, [r3, #0]
 636              		.loc 1 410 0
 637 0038 3760     		str	r7, [r6, #0]
 638              		.loc 1 411 0
 639 003a 0F68     		ldr	r7, [r1, #0]
 640 003c 5E68     		ldr	r6, [r3, #4]
 641 003e 27F00F07 		bic	r7, r7, #15
 642 0042 0F60     		str	r7, [r1, #0]
 643 0044 197A     		ldrb	r1, [r3, #8]	@ zero_extendqisi2
 644              		.loc 1 415 0
 645 0046 05F48073 		and	r3, r5, #256
 646              		.loc 1 411 0
 647 004a 00FA01F0 		lsl	r0, r0, r1
 648              		.loc 1 415 0
 649 004e 9BB2     		uxth	r3, r3
 650              		.loc 1 411 0
 651 0050 3060     		str	r0, [r6, #0]
 652              		.loc 1 415 0
 653 0052 03B1     		cbz	r3, .L79
 654              		.loc 1 416 0
 655 0054 0123     		movs	r3, #1
 656              	.L79:
 657              		.loc 1 418 0
 658 0056 05F40070 		and	r0, r5, #512
 659 005a 81B2     		uxth	r1, r0
 660              		.loc 1 416 0
 661 005c A360     		str	r3, [r4, #8]
 662              		.loc 1 418 0
 663 005e 11B1     		cbz	r1, .L49
 664              		.loc 1 419 0
 665 0060 43F00203 		orr	r3, r3, #2
 666 0064 A360     		str	r3, [r4, #8]
 667              	.L49:
 668              		.loc 1 421 0
 669 0066 05F48060 		and	r0, r5, #1024
 670 006a 81B2     		uxth	r1, r0
 671 006c 69B1     		cbz	r1, .L50
 672              		.loc 1 422 0
 673 006e 9088     		ldrh	r0, [r2, #4]
 674              		.loc 1 424 0
 675 0070 43F00403 		orr	r3, r3, #4
 676              		.loc 1 422 0
 677 0074 20F40071 		bic	r1, r0, #512
ARM GAS  /tmp/ccGTWVBp.s 			page 13


 678 0078 0804     		lsls	r0, r1, #16
 679 007a 010C     		lsrs	r1, r0, #16
 680 007c 9180     		strh	r1, [r2, #4]	@ movhi
 681              		.loc 1 423 0
 682 007e 1088     		ldrh	r0, [r2, #0]
 683 0080 81B2     		uxth	r1, r0
 684 0082 41F40070 		orr	r0, r1, #512
 685 0086 1080     		strh	r0, [r2, #0]	@ movhi
 686              		.loc 1 424 0
 687 0088 A360     		str	r3, [r4, #8]
 688              	.L50:
 689              		.loc 1 427 0
 690 008a 05F40062 		and	r2, r5, #2048
 691 008e 91B2     		uxth	r1, r2
 692 0090 11B1     		cbz	r1, .L51
 693              		.loc 1 428 0
 694 0092 43F00803 		orr	r3, r3, #8
 695 0096 A360     		str	r3, [r4, #8]
 696              	.L51:
 697              		.loc 1 430 0
 698 0098 05F48040 		and	r0, r5, #16384
 699 009c 82B2     		uxth	r2, r0
 700 009e 12B1     		cbz	r2, .L52
 701              		.loc 1 431 0
 702 00a0 43F02003 		orr	r3, r3, #32
 703 00a4 A360     		str	r3, [r4, #8]
 704              	.L52:
 705              		.loc 1 433 0
 706 00a6 05F48051 		and	r1, r5, #4096
 707 00aa 88B2     		uxth	r0, r1
 708 00ac 10B1     		cbz	r0, .L53
 709              		.loc 1 434 0
 710 00ae 43F01003 		orr	r3, r3, #16
 711 00b2 A360     		str	r3, [r4, #8]
 712              	.L53:
 713              		.loc 1 436 0
 714 00b4 2904     		lsls	r1, r5, #16
 715 00b6 06D4     		bmi	.L80
 716              		.loc 1 440 0
 717 00b8 43B9     		cbnz	r3, .L55
 718              	.LVL50:
 719              	.L56:
 720              	.LBE41:
 721              	.LBE44:
 722              		.loc 1 506 0
 723 00ba FFF7FEFF 		bl	dbg_check_leave_isr
 724              	.LVL51:
 725              		.loc 1 507 0
 726 00be BDE8F840 		pop	{r3, r4, r5, r6, r7, lr}
 727              		.loc 1 506 0
 728 00c2 FFF7FEBF 		b	_port_irq_epilogue
 729              	.LVL52:
 730              	.L80:
 731              	.LBB45:
 732              	.LBB42:
 733              		.loc 1 437 0
 734 00c6 43F04002 		orr	r2, r3, #64
ARM GAS  /tmp/ccGTWVBp.s 			page 14


 735 00ca A260     		str	r2, [r4, #8]
 736              	.L55:
 737              	.LBB37:
 738              		.loc 1 441 0
 739 00cc 2023     		movs	r3, #32
 740              	.LVL53:
 741              	@ 441 "../../os/hal/platforms/STM32/I2Cv1/i2c_lld.c" 1
 742 00ce 83F31188 		msr     BASEPRI, r3
 743              	@ 0 "" 2
 744              	.LVL54:
 745              		.thumb
 746              	.LBE37:
 747 00d2 FFF7FEFF 		bl	dbg_check_lock_from_isr
 748              	.LVL55:
 749 00d6 E069     		ldr	r0, [r4, #28]
 750 00d8 38B1     		cbz	r0, .L57
 751              	.LVL56:
 752              	.LBB38:
 753 00da 6FF00101 		mvn	r1, #1
 754 00de 064B     		ldr	r3, .L81
 755 00e0 0022     		movs	r2, #0
 756 00e2 8162     		str	r1, [r0, #40]
 757 00e4 DA61     		str	r2, [r3, #28]
 758 00e6 FFF7FEFF 		bl	chSchReadyI
 759              	.LVL57:
 760              	.L57:
 761              	.LBE38:
 762 00ea FFF7FEFF 		bl	dbg_check_unlock_from_isr
 763              	.LVL58:
 764              	.LBB39:
 765 00ee 0023     		movs	r3, #0
 766              	@ 441 "../../os/hal/platforms/STM32/I2Cv1/i2c_lld.c" 1
 767 00f0 83F31188 		msr     BASEPRI, r3
 768              	@ 0 "" 2
 769              	.LVL59:
 770              		.thumb
 771 00f4 E1E7     		b	.L56
 772              	.L82:
 773 00f6 00BF     		.align	2
 774              	.L81:
 775 00f8 00000000 		.word	.LANCHOR0
 776              	.LBE39:
 777              	.LBE42:
 778              	.LBE45:
 779              		.cfi_endproc
 780              	.LFE72:
 781              		.size	VectorC8, .-VectorC8
 782 00fc AFF30080 		.section	.text.i2c_lld_init,"ax",%progbits
 783              		.align	2
 784              		.p2align 4,,15
 785              		.global	i2c_lld_init
 786              		.thumb
 787              		.thumb_func
 788              		.type	i2c_lld_init, %function
 789              	i2c_lld_init:
 790              	.LFB73:
 791              		.loc 1 551 0
ARM GAS  /tmp/ccGTWVBp.s 			page 15


 792              		.cfi_startproc
 793              		@ args = 0, pretend = 0, frame = 0
 794              		@ frame_needed = 0, uses_anonymous_args = 0
 795 0000 10B5     		push	{r4, lr}
 796              	.LCFI6:
 797              		.cfi_def_cfa_offset 8
 798              		.cfi_offset 4, -8
 799              		.cfi_offset 14, -4
 800              		.loc 1 562 0
 801 0002 40F20004 		movw	r4, #:lower16:.LANCHOR0
 802 0006 C0F20004 		movt	r4, #:upper16:.LANCHOR0
 803 000a 2046     		mov	r0, r4
 804 000c FFF7FEFF 		bl	i2cObjectInit
 805              	.LVL60:
 806              		.loc 1 565 0
 807 0010 064B     		ldr	r3, .L84
 808              		.loc 1 564 0
 809 0012 4FF4B042 		mov	r2, #22528
 810 0016 C4F20002 		movt	r2, 16384
 811              		.loc 1 566 0
 812 001a A3F10C01 		sub	r1, r3, #12
 813              		.loc 1 563 0
 814 001e 0020     		movs	r0, #0
 815 0020 E061     		str	r0, [r4, #28]
 816              		.loc 1 564 0
 817 0022 6263     		str	r2, [r4, #52]
 818              		.loc 1 565 0
 819 0024 E362     		str	r3, [r4, #44]
 820              		.loc 1 566 0
 821 0026 2163     		str	r1, [r4, #48]
 822 0028 10BD     		pop	{r4, pc}
 823              	.L85:
 824 002a 00BF     		.align	2
 825              	.L84:
 826 002c 30000000 		.word	_stm32_dma_streams+48
 827              		.cfi_endproc
 828              	.LFE73:
 829              		.size	i2c_lld_init, .-i2c_lld_init
 830              		.section	.text.i2c_lld_start,"ax",%progbits
 831              		.align	2
 832              		.p2align 4,,15
 833              		.global	i2c_lld_start
 834              		.thumb
 835              		.thumb_func
 836              		.type	i2c_lld_start, %function
 837              	i2c_lld_start:
 838              	.LFB74:
 839              		.loc 1 585 0
 840              		.cfi_startproc
 841              		@ args = 0, pretend = 0, frame = 0
 842              		@ frame_needed = 0, uses_anonymous_args = 0
 843              	.LVL61:
 844              		.loc 1 598 0
 845 0000 0378     		ldrb	r3, [r0, #0]	@ zero_extendqisi2
 846              		.loc 1 588 0
 847 0002 9A22     		movs	r2, #154
 848              		.loc 1 585 0
ARM GAS  /tmp/ccGTWVBp.s 			page 16


 849 0004 2DE9F041 		push	{r4, r5, r6, r7, r8, lr}
 850              	.LCFI7:
 851              		.cfi_def_cfa_offset 24
 852              		.cfi_offset 4, -24
 853              		.cfi_offset 5, -20
 854              		.cfi_offset 6, -16
 855              		.cfi_offset 7, -12
 856              		.cfi_offset 8, -8
 857              		.cfi_offset 14, -4
 858              		.loc 1 585 0
 859 0008 0446     		mov	r4, r0
 860              		.loc 1 588 0
 861 000a 8262     		str	r2, [r0, #40]
 862              		.loc 1 592 0
 863 000c 8A20     		movs	r0, #138
 864              	.LVL62:
 865              		.loc 1 598 0
 866 000e 012B     		cmp	r3, #1
 867              		.loc 1 592 0
 868 0010 6062     		str	r0, [r4, #36]
 869              		.loc 1 586 0
 870 0012 656B     		ldr	r5, [r4, #52]
 871              	.LVL63:
 872              		.loc 1 598 0
 873 0014 00F08680 		beq	.L131
 874              	.L109:
 875              		.loc 1 586 0
 876 0018 2E46     		mov	r6, r5
 877              	.L87:
 878              	.LBB51:
 879              	.LBB52:
 880              		.loc 1 187 0
 881 001a 6268     		ldr	r2, [r4, #4]
 882              	.LBE52:
 883              	.LBE51:
 884              		.loc 1 687 0
 885 001c 236B     		ldr	r3, [r4, #48]
 886              		.loc 1 686 0
 887 001e E06A     		ldr	r0, [r4, #44]
 888              		.loc 1 687 0
 889 0020 1968     		ldr	r1, [r3, #0]
 890              	.LBB61:
 891              	.LBB53:
 892              		.loc 1 187 0
 893 0022 5768     		ldr	r7, [r2, #4]
 894              	.LBE53:
 895              	.LBE61:
 896              		.loc 1 686 0
 897 0024 0068     		ldr	r0, [r0, #0]
 898 0026 05F11003 		add	r3, r5, #16
 899 002a 8360     		str	r3, [r0, #8]
 900              	.LBB62:
 901              	.LBB54:
 902              		.loc 1 188 0
 903 002c 92F80880 		ldrb	r8, [r2, #8]	@ zero_extendqisi2
 904              	.LBE54:
 905              	.LBE62:
ARM GAS  /tmp/ccGTWVBp.s 			page 17


 906              		.loc 1 691 0
 907 0030 0020     		movs	r0, #0
 908              		.loc 1 687 0
 909 0032 8B60     		str	r3, [r1, #8]
 910              		.loc 1 690 0
 911 0034 4FF40042 		mov	r2, #32768
 912              		.loc 1 692 0
 913 0038 4FF41061 		mov	r1, #2304
 914              	.LBB63:
 915              	.LBB55:
 916              		.loc 1 190 0
 917 003c 002F     		cmp	r7, #0
 918              	.LBE55:
 919              	.LBE63:
 920              		.loc 1 690 0
 921 003e 2A80     		strh	r2, [r5, #0]	@ movhi
 922              		.loc 1 691 0
 923 0040 2880     		strh	r0, [r5, #0]	@ movhi
 924              		.loc 1 692 0
 925 0042 A980     		strh	r1, [r5, #4]	@ movhi
 926              	.LVL64:
 927              	.LBB64:
 928              	.LBB56:
 929              		.loc 1 190 0
 930 0044 56DD     		ble	.L90
 931 0046 C0F23D01 		movt	r1, 61
 932 004a 8F42     		cmp	r7, r1
 933 004c 52DC     		bgt	.L90
 934              	.LVL65:
 935              	.L91:
 936              		.loc 1 194 0
 937 004e B388     		ldrh	r3, [r6, #4]
 938              		.loc 1 201 0
 939 0050 48F2A062 		movw	r2, #34464
 940              		.loc 1 194 0
 941 0054 23F03F00 		bic	r0, r3, #63
 942 0058 0104     		lsls	r1, r0, #16
 943 005a 0B0C     		lsrs	r3, r1, #16
 944 005c B380     		strh	r3, [r6, #4]	@ movhi
 945              		.loc 1 195 0
 946 005e B088     		ldrh	r0, [r6, #4]
 947              		.loc 1 201 0
 948 0060 C0F20102 		movt	r2, 1
 949              		.loc 1 195 0
 950 0064 81B2     		uxth	r1, r0
 951 0066 41F01203 		orr	r3, r1, #18
 952              		.loc 1 201 0
 953 006a 9742     		cmp	r7, r2
 954              		.loc 1 195 0
 955 006c B380     		strh	r3, [r6, #4]	@ movhi
 956              	.LVL66:
 957              		.loc 1 201 0
 958 006e 45DC     		bgt	.L92
 959              		.loc 1 203 0
 960 0070 B8F1010F 		cmp	r8, #1
 961 0074 02D0     		beq	.L93
 962 0076 7C48     		ldr	r0, .L138
ARM GAS  /tmp/ccGTWVBp.s 			page 18


 963 0078 FFF7FEFF 		bl	chDbgPanic
 964              	.LVL67:
 965              	.L93:
 966              		.loc 1 208 0
 967 007c 4AF68003 		movw	r3, #43136
 968 0080 7F00     		lsls	r7, r7, #1
 969              	.LVL68:
 970 0082 C0F21213 		movt	r3, 274
 971 0086 93FBF7F2 		sdiv	r2, r3, r7
 972 008a 07FB02F0 		mul	r0, r7, r2
 973 008e 4AF68001 		movw	r1, #43136
 974 0092 C0F21211 		movt	r1, 274
 975 0096 0B1A     		subs	r3, r1, r0
 976 0098 002B     		cmp	r3, #0
 977 009a 40F08D80 		bne	.L132
 978              	.L94:
 979              		.loc 1 211 0
 980 009e 4AF68002 		movw	r2, #43136
 981 00a2 C0F21212 		movt	r2, 274
 982 00a6 92FBF7F7 		sdiv	r7, r2, r7
 983 00aa B8B2     		uxth	r0, r7
 984              	.LVL69:
 985              		.loc 1 213 0
 986 00ac 0328     		cmp	r0, #3
 987 00ae 7BD9     		bls	.L133
 988              		.loc 1 216 0
 989 00b0 3905     		lsls	r1, r7, #20
 990              		.loc 1 219 0
 991 00b2 1323     		movs	r3, #19
 992              		.loc 1 216 0
 993 00b4 0F0D     		lsrs	r7, r1, #20
 994              	.LVL70:
 995              		.loc 1 252 0
 996 00b6 B0F5805F 		cmp	r0, #4096
 997              		.loc 1 219 0
 998 00ba 3384     		strh	r3, [r6, #32]	@ movhi
 999              		.loc 1 252 0
 1000 00bc 02D3     		bcc	.L96
 1001 00be 6B48     		ldr	r0, .L138+4
 1002              	.LVL71:
 1003 00c0 FFF7FEFF 		bl	chDbgPanic
 1004              	.LVL72:
 1005              	.L96:
 1006              	.LBE56:
 1007              	.LBE64:
 1008              	.LBB65:
 1009              	.LBB66:
 1010              		.loc 1 267 0
 1011 00c4 6268     		ldr	r2, [r4, #4]
 1012              		.loc 1 266 0
 1013 00c6 616B     		ldr	r1, [r4, #52]
 1014              		.loc 1 271 0
 1015 00c8 1078     		ldrb	r0, [r2, #0]	@ zero_extendqisi2
 1016              	.LBE66:
 1017              	.LBE65:
 1018              	.LBB70:
 1019              	.LBB57:
ARM GAS  /tmp/ccGTWVBp.s 			page 19


 1020              		.loc 1 255 0
 1021 00ca B783     		strh	r7, [r6, #28]	@ movhi
 1022              	.LVL73:
 1023              	.LBE57:
 1024              	.LBE70:
 1025              	.LBB71:
 1026              	.LBB67:
 1027              		.loc 1 270 0
 1028 00cc 0B88     		ldrh	r3, [r1, #0]
 1029              		.loc 1 271 0
 1030 00ce 0228     		cmp	r0, #2
 1031              		.loc 1 270 0
 1032 00d0 9BB2     		uxth	r3, r3
 1033              	.LVL74:
 1034              		.loc 1 271 0
 1035 00d2 63D0     		beq	.L106
 1036 00d4 0328     		cmp	r0, #3
 1037 00d6 5ED0     		beq	.L107
 1038 00d8 0128     		cmp	r0, #1
 1039 00da 03D1     		bne	.L104
 1040              		.loc 1 273 0
 1041 00dc 23F00A02 		bic	r2, r3, #10
 1042 00e0 1304     		lsls	r3, r2, #16
 1043              	.LVL75:
 1044 00e2 1B0C     		lsrs	r3, r3, #16
 1045              	.LVL76:
 1046              	.L104:
 1047              		.loc 1 283 0
 1048 00e4 0B80     		strh	r3, [r1, #0]	@ movhi
 1049              	.LBE67:
 1050              	.LBE71:
 1051              		.loc 1 699 0
 1052 00e6 2988     		ldrh	r1, [r5, #0]
 1053              	.LVL77:
 1054 00e8 8AB2     		uxth	r2, r1
 1055 00ea 42F00103 		orr	r3, r2, #1
 1056              	.LVL78:
 1057 00ee 2B80     		strh	r3, [r5, #0]	@ movhi
 1058 00f0 BDE8F081 		pop	{r4, r5, r6, r7, r8, pc}
 1059              	.LVL79:
 1060              	.L90:
 1061              	.LBB72:
 1062              	.LBB58:
 1063              		.loc 1 190 0
 1064 00f4 5E48     		ldr	r0, .L138+8
 1065 00f6 FFF7FEFF 		bl	chDbgPanic
 1066              	.LVL80:
 1067 00fa A8E7     		b	.L91
 1068              	.LVL81:
 1069              	.L92:
 1070              		.loc 1 221 0
 1071 00fc 4FF4D452 		mov	r2, #6784
 1072 0100 C0F20602 		movt	r2, 6
 1073 0104 9742     		cmp	r7, r2
 1074 0106 0BDC     		bgt	.L110
 1075              		.loc 1 223 0
 1076 0108 A8F10200 		sub	r0, r8, #2
ARM GAS  /tmp/ccGTWVBp.s 			page 20


 1077 010c 0128     		cmp	r0, #1
 1078 010e 57D9     		bls	.L99
 1079 0110 5848     		ldr	r0, .L138+12
 1080 0112 FFF7FEFF 		bl	chDbgPanic
 1081              	.LVL82:
 1082 0116 48F6FF77 		movw	r7, #36863
 1083              	.LVL83:
 1084              	.L100:
 1085              		.loc 1 249 0
 1086 011a 0621     		movs	r1, #6
 1087 011c 3184     		strh	r1, [r6, #32]	@ movhi
 1088 011e D1E7     		b	.L96
 1089              	.LVL84:
 1090              	.L110:
 1091              		.loc 1 198 0
 1092 0120 0027     		movs	r7, #0
 1093              	.LVL85:
 1094 0122 CFE7     		b	.L96
 1095              	.LVL86:
 1096              	.L131:
 1097              	.LBE58:
 1098              	.LBE72:
 1099              		.loc 1 629 0
 1100 0124 544E     		ldr	r6, .L138+16
 1101 0126 B442     		cmp	r4, r6
 1102 0128 7FF476AF 		bne	.L109
 1103              	.LBB73:
 1104              		.loc 1 632 0
 1105 012c 4FF48051 		mov	r1, #4096
 1106 0130 C4F20201 		movt	r1, 16386
 1107 0134 0F69     		ldr	r7, [r1, #16]
 1108 0136 0022     		movs	r2, #0
 1109 0138 47F48003 		orr	r3, r7, #4194304
 1110 013c 0B61     		str	r3, [r1, #16]
 1111              		.loc 1 633 0
 1112 013e E06A     		ldr	r0, [r4, #44]
 1113 0140 2346     		mov	r3, r4
 1114              		.loc 1 632 0
 1115 0142 0A61     		str	r2, [r1, #16]
 1116              		.loc 1 633 0
 1117 0144 0A21     		movs	r1, #10
 1118 0146 4D4A     		ldr	r2, .L138+20
 1119 0148 FFF7FEFF 		bl	dmaStreamAllocate
 1120              	.LVL87:
 1121              		.loc 1 637 0
 1122 014c 0028     		cmp	r0, #0
 1123 014e 40F08380 		bne	.L134
 1124              	.LVL88:
 1125              	.L88:
 1126              		.loc 1 638 0
 1127 0152 306B     		ldr	r0, [r6, #48]
 1128 0154 0A21     		movs	r1, #10
 1129 0156 4A4A     		ldr	r2, .L138+24
 1130 0158 474B     		ldr	r3, .L138+16
 1131 015a FFF7FEFF 		bl	dmaStreamAllocate
 1132              	.LVL89:
 1133              		.loc 1 642 0
ARM GAS  /tmp/ccGTWVBp.s 			page 21


 1134 015e 0028     		cmp	r0, #0
 1135 0160 76D1     		bne	.L135
 1136              	.LVL90:
 1137              	.L89:
 1138              		.loc 1 643 0
 1139 0162 4FF48057 		mov	r7, #4096
 1140 0166 C4F20207 		movt	r7, 16386
 1141 016a F969     		ldr	r1, [r7, #28]
 1142              		.loc 1 644 0
 1143 016c 2120     		movs	r0, #33
 1144              		.loc 1 643 0
 1145 016e 41F48003 		orr	r3, r1, #4194304
 1146 0172 FB61     		str	r3, [r7, #28]
 1147              		.loc 1 644 0
 1148 0174 A021     		movs	r1, #160
 1149 0176 FFF7FEFF 		bl	nvicEnableVector
 1150              	.LVL91:
 1151              		.loc 1 646 0
 1152 017a 2220     		movs	r0, #34
 1153 017c A021     		movs	r1, #160
 1154 017e FFF7FEFF 		bl	nvicEnableVector
 1155              	.LVL92:
 1156              		.loc 1 649 0
 1157 0182 706A     		ldr	r0, [r6, #36]
 1158              		.loc 1 651 0
 1159 0184 B76A     		ldr	r7, [r6, #40]
 1160              		.loc 1 649 0
 1161 0186 40F48052 		orr	r2, r0, #4096
 1162              		.loc 1 651 0
 1163 018a 47F48051 		orr	r1, r7, #4096
 1164              		.loc 1 649 0
 1165 018e 7262     		str	r2, [r6, #36]
 1166              		.loc 1 651 0
 1167 0190 B162     		str	r1, [r6, #40]
 1168 0192 766B     		ldr	r6, [r6, #52]
 1169 0194 41E7     		b	.L87
 1170              	.LVL93:
 1171              	.L107:
 1172              	.LBE73:
 1173              	.LBB74:
 1174              	.LBB68:
 1175              		.loc 1 280 0
 1176 0196 43F00A03 		orr	r3, r3, #10
 1177              	.LVL94:
 1178 019a A3E7     		b	.L104
 1179              	.L106:
 1180              	.LVL95:
 1181              	.LBE68:
 1182              		.loc 1 277 0
 1183 019c 4FF6F770 		movw	r0, #65527
 1184 01a0 1840     		ands	r0, r0, r3
 1185              	.LBB69:
 1186 01a2 40F00203 		orr	r3, r0, #2
 1187              	.LVL96:
 1188 01a6 9DE7     		b	.L104
 1189              	.LVL97:
 1190              	.L133:
ARM GAS  /tmp/ccGTWVBp.s 			page 22


 1191              	.LBE69:
 1192              	.LBE74:
 1193              	.LBB75:
 1194              	.LBB59:
 1195              		.loc 1 213 0
 1196 01a8 3648     		ldr	r0, .L138+28
 1197 01aa FFF7FEFF 		bl	chDbgPanic
 1198              	.LVL98:
 1199              		.loc 1 216 0
 1200 01ae 3A05     		lsls	r2, r7, #20
 1201              		.loc 1 219 0
 1202 01b0 1320     		movs	r0, #19
 1203              		.loc 1 216 0
 1204 01b2 170D     		lsrs	r7, r2, #20
 1205              	.LVL99:
 1206              		.loc 1 219 0
 1207 01b4 3084     		strh	r0, [r6, #32]	@ movhi
 1208 01b6 85E7     		b	.L96
 1209              	.LVL100:
 1210              	.L132:
 1211              		.loc 1 208 0
 1212 01b8 3348     		ldr	r0, .L138+32
 1213 01ba FFF7FEFF 		bl	chDbgPanic
 1214              	.LVL101:
 1215 01be 6EE7     		b	.L94
 1216              	.LVL102:
 1217              	.L99:
 1218              		.loc 1 227 0
 1219 01c0 B8F1020F 		cmp	r8, #2
 1220 01c4 1FD1     		bne	.L101
 1221              		.loc 1 229 0
 1222 01c6 4AF68001 		movw	r1, #43136
 1223 01ca 07EB4707 		add	r7, r7, r7, lsl #1
 1224              	.LVL103:
 1225 01ce C0F21211 		movt	r1, 274
 1226 01d2 91FBF7F3 		sdiv	r3, r1, r7
 1227 01d6 07FB03F2 		mul	r2, r7, r3
 1228 01da 4AF68000 		movw	r0, #43136
 1229 01de C0F21210 		movt	r0, 274
 1230 01e2 811A     		subs	r1, r0, r2
 1231 01e4 59B9     		cbnz	r1, .L136
 1232              	.L102:
 1233              		.loc 1 232 0
 1234 01e6 4AF68003 		movw	r3, #43136
 1235 01ea C0F21213 		movt	r3, 274
 1236 01ee 93FBF7F7 		sdiv	r7, r3, r7
 1237              	.LVL104:
 1238 01f2 6FEA4742 		mvn	r2, r7, lsl #17
 1239 01f6 6FEA5240 		mvn	r0, r2, lsr #17
 1240 01fa 87B2     		uxth	r7, r0
 1241              	.LVL105:
 1242 01fc 8DE7     		b	.L100
 1243              	.LVL106:
 1244              	.L136:
 1245              		.loc 1 229 0
 1246 01fe 2348     		ldr	r0, .L138+36
 1247 0200 FFF7FEFF 		bl	chDbgPanic
ARM GAS  /tmp/ccGTWVBp.s 			page 23


 1248              	.LVL107:
 1249 0204 EFE7     		b	.L102
 1250              	.LVL108:
 1251              	.L101:
 1252              		.loc 1 234 0
 1253 0206 B8F1030F 		cmp	r8, #3
 1254 020a 29D1     		bne	.L111
 1255              		.loc 1 236 0
 1256 020c 07EB8707 		add	r7, r7, r7, lsl #2
 1257              	.LVL109:
 1258 0210 4AF68001 		movw	r1, #43136
 1259 0214 07EB8707 		add	r7, r7, r7, lsl #2
 1260 0218 C0F21211 		movt	r1, 274
 1261 021c 91FBF7F3 		sdiv	r3, r1, r7
 1262 0220 07FB03F2 		mul	r2, r7, r3
 1263 0224 4AF68000 		movw	r0, #43136
 1264 0228 C0F21210 		movt	r0, 274
 1265 022c 811A     		subs	r1, r0, r2
 1266 022e 59B9     		cbnz	r1, .L137
 1267              	.L103:
 1268              		.loc 1 239 0
 1269 0230 4AF68003 		movw	r3, #43136
 1270 0234 C0F21213 		movt	r3, 274
 1271 0238 93FBF7F7 		sdiv	r7, r3, r7
 1272              	.LVL110:
 1273 023c 6FEA8742 		mvn	r2, r7, lsl #18
 1274 0240 6FEA9240 		mvn	r0, r2, lsr #18
 1275 0244 87B2     		uxth	r7, r0
 1276              	.LVL111:
 1277 0246 68E7     		b	.L100
 1278              	.LVL112:
 1279              	.L137:
 1280              		.loc 1 236 0
 1281 0248 1148     		ldr	r0, .L138+40
 1282 024a FFF7FEFF 		bl	chDbgPanic
 1283              	.LVL113:
 1284 024e EFE7     		b	.L103
 1285              	.LVL114:
 1286              	.L135:
 1287              	.LBE59:
 1288              	.LBE75:
 1289              	.LBB76:
 1290              		.loc 1 642 0 discriminator 1
 1291 0250 1048     		ldr	r0, .L138+44
 1292              	.LVL115:
 1293 0252 FFF7FEFF 		bl	chDbgPanic
 1294              	.LVL116:
 1295 0256 84E7     		b	.L89
 1296              	.LVL117:
 1297              	.L134:
 1298              		.loc 1 637 0 discriminator 1
 1299 0258 0F48     		ldr	r0, .L138+48
 1300              	.LVL118:
 1301 025a FFF7FEFF 		bl	chDbgPanic
 1302              	.LVL119:
 1303 025e 78E7     		b	.L88
 1304              	.LVL120:
ARM GAS  /tmp/ccGTWVBp.s 			page 24


 1305              	.L111:
 1306              	.LBE76:
 1307              	.LBB77:
 1308              	.LBB60:
 1309              		.loc 1 234 0
 1310 0260 48F6FF77 		movw	r7, #36863
 1311              	.LVL121:
 1312 0264 59E7     		b	.L100
 1313              	.L139:
 1314 0266 00BF     		.align	2
 1315              	.L138:
 1316 0268 40000000 		.word	.LC3
 1317 026c D0000000 		.word	.LC9
 1318 0270 28000000 		.word	.LC2
 1319 0274 88000000 		.word	.LC6
 1320 0278 00000000 		.word	.LANCHOR0
 1321 027c 00000000 		.word	i2c_lld_serve_rx_end_irq
 1322 0280 00000000 		.word	i2c_lld_serve_tx_end_irq
 1323 0284 70000000 		.word	.LC5
 1324 0288 58000000 		.word	.LC4
 1325 028c A0000000 		.word	.LC7
 1326 0290 B8000000 		.word	.LC8
 1327 0294 14000000 		.word	.LC1
 1328 0298 00000000 		.word	.LC0
 1329              	.LBE60:
 1330              	.LBE77:
 1331              		.cfi_endproc
 1332              	.LFE74:
 1333              		.size	i2c_lld_start, .-i2c_lld_start
 1334 029c AFF30080 		.section	.text.i2c_lld_stop,"ax",%progbits
 1335              		.align	2
 1336              		.p2align 4,,15
 1337              		.global	i2c_lld_stop
 1338              		.thumb
 1339              		.thumb_func
 1340              		.type	i2c_lld_stop, %function
 1341              	i2c_lld_stop:
 1342              	.LFB75:
 1343              		.loc 1 709 0
 1344              		.cfi_startproc
 1345              		@ args = 0, pretend = 0, frame = 0
 1346              		@ frame_needed = 0, uses_anonymous_args = 0
 1347              	.LVL122:
 1348              		.loc 1 712 0
 1349 0000 0378     		ldrb	r3, [r0, #0]	@ zero_extendqisi2
 1350              		.loc 1 709 0
 1351 0002 10B5     		push	{r4, lr}
 1352              	.LCFI8:
 1353              		.cfi_def_cfa_offset 8
 1354              		.cfi_offset 4, -8
 1355              		.cfi_offset 14, -4
 1356              		.loc 1 712 0
 1357 0004 012B     		cmp	r3, #1
 1358              		.loc 1 709 0
 1359 0006 0446     		mov	r4, r0
 1360              		.loc 1 712 0
 1361 0008 0AD0     		beq	.L140
ARM GAS  /tmp/ccGTWVBp.s 			page 25


 1362              		.loc 1 715 0
 1363 000a FFF7FEFF 		bl	i2c_lld_abort_operation
 1364              	.LVL123:
 1365              		.loc 1 716 0
 1366 000e 206B     		ldr	r0, [r4, #48]
 1367 0010 FFF7FEFF 		bl	dmaStreamRelease
 1368              	.LVL124:
 1369              		.loc 1 717 0
 1370 0014 E06A     		ldr	r0, [r4, #44]
 1371 0016 FFF7FEFF 		bl	dmaStreamRelease
 1372              	.LVL125:
 1373              		.loc 1 728 0
 1374 001a 0948     		ldr	r0, .L145
 1375 001c 8442     		cmp	r4, r0
 1376 001e 00D0     		beq	.L144
 1377              	.L140:
 1378 0020 10BD     		pop	{r4, pc}
 1379              	.L144:
 1380              		.loc 1 729 0
 1381 0022 2120     		movs	r0, #33
 1382 0024 FFF7FEFF 		bl	nvicDisableVector
 1383              	.LVL126:
 1384              		.loc 1 730 0
 1385 0028 2220     		movs	r0, #34
 1386 002a FFF7FEFF 		bl	nvicDisableVector
 1387              	.LVL127:
 1388              		.loc 1 731 0
 1389 002e 4FF48051 		mov	r1, #4096
 1390 0032 C4F20201 		movt	r1, 16386
 1391 0036 CA69     		ldr	r2, [r1, #28]
 1392 0038 22F48003 		bic	r3, r2, #4194304
 1393 003c CB61     		str	r3, [r1, #28]
 1394 003e EFE7     		b	.L140
 1395              	.L146:
 1396              		.align	2
 1397              	.L145:
 1398 0040 00000000 		.word	.LANCHOR0
 1399              		.cfi_endproc
 1400              	.LFE75:
 1401              		.size	i2c_lld_stop, .-i2c_lld_stop
 1402 0044 AFF30080 		.section	.text.i2c_lld_master_receive_timeout,"ax",%progbits
 1402      AFF30080 
 1402      AFF30080 
 1403              		.align	2
 1404              		.p2align 4,,15
 1405              		.global	i2c_lld_master_receive_timeout
 1406              		.thumb
 1407              		.thumb_func
 1408              		.type	i2c_lld_master_receive_timeout, %function
 1409              	i2c_lld_master_receive_timeout:
 1410              	.LFB76:
 1411              		.loc 1 770 0
 1412              		.cfi_startproc
 1413              		@ args = 4, pretend = 0, frame = 24
 1414              		@ frame_needed = 0, uses_anonymous_args = 0
 1415              	.LVL128:
 1416 0000 2DE9F043 		push	{r4, r5, r6, r7, r8, r9, lr}
ARM GAS  /tmp/ccGTWVBp.s 			page 26


 1417              	.LCFI9:
 1418              		.cfi_def_cfa_offset 28
 1419              		.cfi_offset 4, -28
 1420              		.cfi_offset 5, -24
 1421              		.cfi_offset 6, -20
 1422              		.cfi_offset 7, -16
 1423              		.cfi_offset 8, -12
 1424              		.cfi_offset 9, -8
 1425              		.cfi_offset 14, -4
 1426              		.loc 1 775 0
 1427 0004 012B     		cmp	r3, #1
 1428              		.loc 1 770 0
 1429 0006 87B0     		sub	sp, sp, #28
 1430              	.LCFI10:
 1431              		.cfi_def_cfa_offset 56
 1432              		.loc 1 770 0
 1433 0008 0646     		mov	r6, r0
 1434 000a 1F46     		mov	r7, r3
 1435 000c 8946     		mov	r9, r1
 1436 000e 9046     		mov	r8, r2
 1437 0010 0E9D     		ldr	r5, [sp, #56]
 1438              		.loc 1 771 0
 1439 0012 446B     		ldr	r4, [r0, #52]
 1440              	.LVL129:
 1441              		.loc 1 775 0
 1442 0014 5AD9     		bls	.L170
 1443              	.LVL130:
 1444              	.L148:
 1445              		.loc 1 779 0
 1446 0016 6A1C     		adds	r2, r5, #1
 1447 0018 05D0     		beq	.L149
 1448              		.loc 1 780 0
 1449 001a 01A8     		add	r0, sp, #4
 1450 001c 2946     		mov	r1, r5
 1451 001e 364A     		ldr	r2, .L172
 1452 0020 3346     		mov	r3, r6
 1453 0022 FFF7FEFF 		bl	chVTSetI
 1454              	.LVL131:
 1455              	.L149:
 1456              		.loc 1 783 0
 1457 0026 FFF7FEFF 		bl	dbg_check_unlock
 1458              	.LVL132:
 1459              	.LBB78:
 1460 002a 0023     		movs	r3, #0
 1461              	.LVL133:
 1462              	@ 783 "../../os/hal/platforms/STM32/I2Cv1/i2c_lld.c" 1
 1463 002c 83F31188 		msr     BASEPRI, r3
 1464              	@ 0 "" 2
 1465              	.LVL134:
 1466              		.thumb
 1467              	.LBE78:
 1468              		.loc 1 790 0
 1469 0030 F26A     		ldr	r2, [r6, #44]
 1470              		.loc 1 786 0
 1471 0032 4FEA4901 		lsl	r1, r9, #1
 1472              		.loc 1 790 0
 1473 0036 1068     		ldr	r0, [r2, #0]
ARM GAS  /tmp/ccGTWVBp.s 			page 27


 1474              		.loc 1 787 0
 1475 0038 B360     		str	r3, [r6, #8]
 1476              	.LVL135:
 1477              		.loc 1 790 0
 1478 003a 736A     		ldr	r3, [r6, #36]
 1479              		.loc 1 786 0
 1480 003c 41F00109 		orr	r9, r1, #1
 1481 0040 A6F82090 		strh	r9, [r6, #32]	@ movhi
 1482              		.loc 1 790 0
 1483 0044 0360     		str	r3, [r0, #0]
 1484              		.loc 1 791 0
 1485 0046 C0F80C80 		str	r8, [r0, #12]
 1486              		.loc 1 792 0
 1487 004a 4760     		str	r7, [r0, #4]
 1488              		.loc 1 796 0
 1489 004c 04E0     		b	.L150
 1490              	.L151:
 1491              		.loc 1 800 0
 1492 004e FFF7FEFF 		bl	dbg_check_unlock
 1493              	.LVL136:
 1494              	.LBB79:
 1495 0052 0023     		movs	r3, #0
 1496              	.LVL137:
 1497              	@ 800 "../../os/hal/platforms/STM32/I2Cv1/i2c_lld.c" 1
 1498 0054 83F31188 		msr     BASEPRI, r3
 1499              	@ 0 "" 2
 1500              	.LVL138:
 1501              		.thumb
 1502              	.L150:
 1503              	.LBE79:
 1504              		.loc 1 796 0 discriminator 1
 1505 0058 228B     		ldrh	r2, [r4, #24]
 1506              	.LBB80:
 1507              		.loc 1 797 0 discriminator 1
 1508 005a 2023     		movs	r3, #32
 1509              	.LVL139:
 1510              	.LBE80:
 1511              		.loc 1 796 0 discriminator 1
 1512 005c 02F00200 		and	r0, r2, #2
 1513 0060 81B2     		uxth	r1, r0
 1514 0062 21B9     		cbnz	r1, .L153
 1515              		.loc 1 796 0 is_stmt 0 discriminator 2
 1516 0064 2288     		ldrh	r2, [r4, #0]
 1517 0066 02F40070 		and	r0, r2, #512
 1518 006a 81B2     		uxth	r1, r0
 1519 006c 69B1     		cbz	r1, .L171
 1520              	.L153:
 1521              	.LBB81:
 1522              		.loc 1 797 0 is_stmt 1
 1523              	@ 797 "../../os/hal/platforms/STM32/I2Cv1/i2c_lld.c" 1
 1524 006e 83F31188 		msr     BASEPRI, r3
 1525              	@ 0 "" 2
 1526              	.LVL140:
 1527              		.thumb
 1528              	.LBE81:
 1529 0072 FFF7FEFF 		bl	dbg_check_lock
 1530              	.LVL141:
ARM GAS  /tmp/ccGTWVBp.s 			page 28


 1531              		.loc 1 798 0
 1532 0076 6B1C     		adds	r3, r5, #1
 1533 0078 E9D0     		beq	.L151
 1534              		.loc 1 798 0 is_stmt 0 discriminator 1
 1535 007a 049A     		ldr	r2, [sp, #16]
 1536 007c 002A     		cmp	r2, #0
 1537 007e E6D1     		bne	.L151
 1538              	.L155:
 1539              		.loc 1 799 0 is_stmt 1
 1540 0080 4FF0FF30 		mov	r0, #-1
 1541              	.L168:
 1542              		.loc 1 822 0
 1543 0084 07B0     		add	sp, sp, #28
 1544 0086 BDE8F083 		pop	{r4, r5, r6, r7, r8, r9, pc}
 1545              	.L171:
 1546              	.LBB82:
 1547              		.loc 1 804 0
 1548              	@ 804 "../../os/hal/platforms/STM32/I2Cv1/i2c_lld.c" 1
 1549 008a 83F31188 		msr     BASEPRI, r3
 1550              	@ 0 "" 2
 1551              	.LVL142:
 1552              		.thumb
 1553              	.LBE82:
 1554 008e FFF7FEFF 		bl	dbg_check_lock
 1555              	.LVL143:
 1556              		.loc 1 808 0
 1557 0092 681C     		adds	r0, r5, #1
 1558 0094 1ED0     		beq	.L154
 1559              		.loc 1 808 0 is_stmt 0 discriminator 1
 1560 0096 0499     		ldr	r1, [sp, #16]
 1561 0098 0029     		cmp	r1, #0
 1562 009a F1D0     		beq	.L155
 1563              		.loc 1 812 0 is_stmt 1
 1564 009c A388     		ldrh	r3, [r4, #4]
 1565              		.loc 1 816 0
 1566 009e 174D     		ldr	r5, .L172+4
 1567              		.loc 1 812 0
 1568 00a0 9AB2     		uxth	r2, r3
 1569 00a2 42F40070 		orr	r0, r2, #512
 1570 00a6 A080     		strh	r0, [r4, #4]	@ movhi
 1571              		.loc 1 813 0
 1572 00a8 2188     		ldrh	r1, [r4, #0]
 1573              		.loc 1 816 0
 1574 00aa AB69     		ldr	r3, [r5, #24]
 1575              		.loc 1 813 0
 1576 00ac 8AB2     		uxth	r2, r1
 1577 00ae 42F4A060 		orr	r0, r2, #1280
 1578 00b2 2080     		strh	r0, [r4, #0]	@ movhi
 1579              		.loc 1 817 0
 1580 00b4 0220     		movs	r0, #2
 1581              		.loc 1 816 0
 1582 00b6 F361     		str	r3, [r6, #28]
 1583              		.loc 1 817 0
 1584 00b8 FFF7FEFF 		bl	chSchGoSleepS
 1585              	.LVL144:
 1586              		.loc 1 818 0
 1587 00bc 0499     		ldr	r1, [sp, #16]
ARM GAS  /tmp/ccGTWVBp.s 			page 29


 1588 00be 11B1     		cbz	r1, .L158
 1589              		.loc 1 819 0
 1590 00c0 01A8     		add	r0, sp, #4
 1591 00c2 FFF7FEFF 		bl	chVTResetI
 1592              	.LVL145:
 1593              	.L158:
 1594              		.loc 1 821 0
 1595 00c6 AB69     		ldr	r3, [r5, #24]
 1596 00c8 986A     		ldr	r0, [r3, #40]
 1597 00ca DBE7     		b	.L168
 1598              	.LVL146:
 1599              	.L170:
 1600              		.loc 1 775 0 discriminator 1
 1601 00cc 0C48     		ldr	r0, .L172+8
 1602              	.LVL147:
 1603 00ce FFF7FEFF 		bl	chDbgPanic
 1604              	.LVL148:
 1605 00d2 A0E7     		b	.L148
 1606              	.L154:
 1607              		.loc 1 812 0
 1608 00d4 A388     		ldrh	r3, [r4, #4]
 1609              		.loc 1 816 0
 1610 00d6 094D     		ldr	r5, .L172+4
 1611              		.loc 1 812 0
 1612 00d8 9AB2     		uxth	r2, r3
 1613 00da 42F40070 		orr	r0, r2, #512
 1614 00de A080     		strh	r0, [r4, #4]	@ movhi
 1615              		.loc 1 813 0
 1616 00e0 2188     		ldrh	r1, [r4, #0]
 1617              		.loc 1 816 0
 1618 00e2 AB69     		ldr	r3, [r5, #24]
 1619              		.loc 1 813 0
 1620 00e4 8AB2     		uxth	r2, r1
 1621 00e6 42F4A060 		orr	r0, r2, #1280
 1622 00ea 2080     		strh	r0, [r4, #0]	@ movhi
 1623              		.loc 1 817 0
 1624 00ec 0220     		movs	r0, #2
 1625              		.loc 1 816 0
 1626 00ee F361     		str	r3, [r6, #28]
 1627              		.loc 1 817 0
 1628 00f0 FFF7FEFF 		bl	chSchGoSleepS
 1629              	.LVL149:
 1630 00f4 E7E7     		b	.L158
 1631              	.L173:
 1632 00f6 00BF     		.align	2
 1633              	.L172:
 1634 00f8 00000000 		.word	i2c_lld_safety_timeout
 1635 00fc 00000000 		.word	rlist
 1636 0100 E8000000 		.word	.LC10
 1637              		.cfi_endproc
 1638              	.LFE76:
 1639              		.size	i2c_lld_master_receive_timeout, .-i2c_lld_master_receive_timeout
 1640 0104 AFF30080 		.section	.text.i2c_lld_master_transmit_timeout,"ax",%progbits
 1640      AFF30080 
 1640      AFF30080 
 1641              		.align	2
 1642              		.p2align 4,,15
ARM GAS  /tmp/ccGTWVBp.s 			page 30


 1643              		.global	i2c_lld_master_transmit_timeout
 1644              		.thumb
 1645              		.thumb_func
 1646              		.type	i2c_lld_master_transmit_timeout, %function
 1647              	i2c_lld_master_transmit_timeout:
 1648              	.LFB77:
 1649              		.loc 1 852 0
 1650              		.cfi_startproc
 1651              		@ args = 12, pretend = 0, frame = 24
 1652              		@ frame_needed = 0, uses_anonymous_args = 0
 1653              	.LVL150:
 1654 0000 2DE9F04E 		push	{r4, r5, r6, r7, r9, sl, fp, lr}
 1655              	.LCFI11:
 1656              		.cfi_def_cfa_offset 32
 1657              		.cfi_offset 4, -32
 1658              		.cfi_offset 5, -28
 1659              		.cfi_offset 6, -24
 1660              		.cfi_offset 7, -20
 1661              		.cfi_offset 9, -16
 1662              		.cfi_offset 10, -12
 1663              		.cfi_offset 11, -8
 1664              		.cfi_offset 14, -4
 1665 0004 86B0     		sub	sp, sp, #24
 1666              	.LCFI12:
 1667              		.cfi_def_cfa_offset 56
 1668              		.loc 1 852 0
 1669 0006 0F9F     		ldr	r7, [sp, #60]
 1670 0008 0646     		mov	r6, r0
 1671 000a 8B46     		mov	fp, r1
 1672 000c 9246     		mov	sl, r2
 1673 000e 9946     		mov	r9, r3
 1674 0010 109D     		ldr	r5, [sp, #64]
 1675              		.loc 1 853 0
 1676 0012 446B     		ldr	r4, [r0, #52]
 1677              	.LVL151:
 1678              		.loc 1 857 0
 1679 0014 27B1     		cbz	r7, .L175
 1680              		.loc 1 857 0 is_stmt 0 discriminator 1
 1681 0016 012F     		cmp	r7, #1
 1682 0018 63D9     		bls	.L176
 1683              		.loc 1 857 0 discriminator 3
 1684 001a 0E98     		ldr	r0, [sp, #56]
 1685              	.LVL152:
 1686 001c 0028     		cmp	r0, #0
 1687 001e 60D0     		beq	.L176
 1688              	.LVL153:
 1689              	.L175:
 1690              		.loc 1 862 0 is_stmt 1
 1691 0020 6B1C     		adds	r3, r5, #1
 1692 0022 05D0     		beq	.L177
 1693              		.loc 1 863 0
 1694 0024 01A8     		add	r0, sp, #4
 1695 0026 2946     		mov	r1, r5
 1696 0028 384A     		ldr	r2, .L202
 1697 002a 3346     		mov	r3, r6
 1698 002c FFF7FEFF 		bl	chVTSetI
 1699              	.LVL154:
ARM GAS  /tmp/ccGTWVBp.s 			page 31


 1700              	.L177:
 1701              		.loc 1 866 0
 1702 0030 FFF7FEFF 		bl	dbg_check_unlock
 1703              	.LVL155:
 1704              	.LBB83:
 1705 0034 0023     		movs	r3, #0
 1706              	.LVL156:
 1707              	@ 866 "../../os/hal/platforms/STM32/I2Cv1/i2c_lld.c" 1
 1708 0036 83F31188 		msr     BASEPRI, r3
 1709              	@ 0 "" 2
 1710              	.LVL157:
 1711              		.thumb
 1712              	.LBE83:
 1713              		.loc 1 873 0
 1714 003a 316B     		ldr	r1, [r6, #48]
 1715              		.loc 1 878 0
 1716 003c F26A     		ldr	r2, [r6, #44]
 1717              		.loc 1 873 0
 1718 003e 0968     		ldr	r1, [r1, #0]
 1719              		.loc 1 878 0
 1720 0040 1268     		ldr	r2, [r2, #0]
 1721              		.loc 1 870 0
 1722 0042 B360     		str	r3, [r6, #8]
 1723              	.LVL158:
 1724              		.loc 1 873 0
 1725 0044 B36A     		ldr	r3, [r6, #40]
 1726              		.loc 1 869 0
 1727 0046 4FEA4B0B 		lsl	fp, fp, #1
 1728 004a A6F820B0 		strh	fp, [r6, #32]	@ movhi
 1729              		.loc 1 878 0
 1730 004e 706A     		ldr	r0, [r6, #36]
 1731              		.loc 1 873 0
 1732 0050 0B60     		str	r3, [r1, #0]
 1733              		.loc 1 874 0
 1734 0052 C1F80CA0 		str	sl, [r1, #12]
 1735              		.loc 1 875 0
 1736 0056 C1F80490 		str	r9, [r1, #4]
 1737              		.loc 1 879 0
 1738 005a 0E99     		ldr	r1, [sp, #56]
 1739              		.loc 1 878 0
 1740 005c 1060     		str	r0, [r2, #0]
 1741              		.loc 1 879 0
 1742 005e D160     		str	r1, [r2, #12]
 1743              		.loc 1 880 0
 1744 0060 5760     		str	r7, [r2, #4]
 1745              		.loc 1 884 0
 1746 0062 04E0     		b	.L178
 1747              	.L179:
 1748              		.loc 1 888 0
 1749 0064 FFF7FEFF 		bl	dbg_check_unlock
 1750              	.LVL159:
 1751              	.LBB84:
 1752 0068 0023     		movs	r3, #0
 1753              	.LVL160:
 1754              	@ 888 "../../os/hal/platforms/STM32/I2Cv1/i2c_lld.c" 1
 1755 006a 83F31188 		msr     BASEPRI, r3
 1756              	@ 0 "" 2
ARM GAS  /tmp/ccGTWVBp.s 			page 32


 1757              	.LVL161:
 1758              		.thumb
 1759              	.L178:
 1760              	.LBE84:
 1761              		.loc 1 884 0 discriminator 1
 1762 006e 228B     		ldrh	r2, [r4, #24]
 1763              	.LBB85:
 1764              		.loc 1 885 0 discriminator 1
 1765 0070 2023     		movs	r3, #32
 1766              	.LVL162:
 1767              	.LBE85:
 1768              		.loc 1 884 0 discriminator 1
 1769 0072 02F00200 		and	r0, r2, #2
 1770 0076 81B2     		uxth	r1, r0
 1771 0078 21B9     		cbnz	r1, .L181
 1772              		.loc 1 884 0 is_stmt 0 discriminator 2
 1773 007a 2288     		ldrh	r2, [r4, #0]
 1774 007c 02F40070 		and	r0, r2, #512
 1775 0080 81B2     		uxth	r1, r0
 1776 0082 69B1     		cbz	r1, .L201
 1777              	.L181:
 1778              	.LBB86:
 1779              		.loc 1 885 0 is_stmt 1
 1780              	@ 885 "../../os/hal/platforms/STM32/I2Cv1/i2c_lld.c" 1
 1781 0084 83F31188 		msr     BASEPRI, r3
 1782              	@ 0 "" 2
 1783              	.LVL163:
 1784              		.thumb
 1785              	.LBE86:
 1786 0088 FFF7FEFF 		bl	dbg_check_lock
 1787              	.LVL164:
 1788              		.loc 1 886 0
 1789 008c 681C     		adds	r0, r5, #1
 1790 008e E9D0     		beq	.L179
 1791              		.loc 1 886 0 is_stmt 0 discriminator 1
 1792 0090 049A     		ldr	r2, [sp, #16]
 1793 0092 002A     		cmp	r2, #0
 1794 0094 E6D1     		bne	.L179
 1795              	.L183:
 1796              		.loc 1 887 0 is_stmt 1
 1797 0096 4FF0FF30 		mov	r0, #-1
 1798              	.L199:
 1799              		.loc 1 910 0
 1800 009a 06B0     		add	sp, sp, #24
 1801 009c BDE8F08E 		pop	{r4, r5, r6, r7, r9, sl, fp, pc}
 1802              	.L201:
 1803              	.LBB87:
 1804              		.loc 1 892 0
 1805              	@ 892 "../../os/hal/platforms/STM32/I2Cv1/i2c_lld.c" 1
 1806 00a0 83F31188 		msr     BASEPRI, r3
 1807              	@ 0 "" 2
 1808              	.LVL165:
 1809              		.thumb
 1810              	.LBE87:
 1811 00a4 FFF7FEFF 		bl	dbg_check_lock
 1812              	.LVL166:
 1813              		.loc 1 896 0
ARM GAS  /tmp/ccGTWVBp.s 			page 33


 1814 00a8 691C     		adds	r1, r5, #1
 1815 00aa 1ED0     		beq	.L182
 1816              		.loc 1 896 0 is_stmt 0 discriminator 1
 1817 00ac 0499     		ldr	r1, [sp, #16]
 1818 00ae 0029     		cmp	r1, #0
 1819 00b0 F1D0     		beq	.L183
 1820              		.loc 1 900 0 is_stmt 1
 1821 00b2 A388     		ldrh	r3, [r4, #4]
 1822              		.loc 1 904 0
 1823 00b4 164D     		ldr	r5, .L202+4
 1824              		.loc 1 900 0
 1825 00b6 9AB2     		uxth	r2, r3
 1826 00b8 42F40070 		orr	r0, r2, #512
 1827 00bc A080     		strh	r0, [r4, #4]	@ movhi
 1828              		.loc 1 901 0
 1829 00be 2188     		ldrh	r1, [r4, #0]
 1830              		.loc 1 904 0
 1831 00c0 AB69     		ldr	r3, [r5, #24]
 1832              		.loc 1 901 0
 1833 00c2 8AB2     		uxth	r2, r1
 1834 00c4 42F48070 		orr	r0, r2, #256
 1835 00c8 2080     		strh	r0, [r4, #0]	@ movhi
 1836              		.loc 1 905 0
 1837 00ca 0220     		movs	r0, #2
 1838              		.loc 1 904 0
 1839 00cc F361     		str	r3, [r6, #28]
 1840              		.loc 1 905 0
 1841 00ce FFF7FEFF 		bl	chSchGoSleepS
 1842              	.LVL167:
 1843              		.loc 1 906 0
 1844 00d2 0499     		ldr	r1, [sp, #16]
 1845 00d4 11B1     		cbz	r1, .L186
 1846              		.loc 1 907 0
 1847 00d6 01A8     		add	r0, sp, #4
 1848 00d8 FFF7FEFF 		bl	chVTResetI
 1849              	.LVL168:
 1850              	.L186:
 1851              		.loc 1 909 0
 1852 00dc AB69     		ldr	r3, [r5, #24]
 1853 00de 986A     		ldr	r0, [r3, #40]
 1854 00e0 DBE7     		b	.L199
 1855              	.LVL169:
 1856              	.L176:
 1857              		.loc 1 857 0 discriminator 2
 1858 00e2 0C48     		ldr	r0, .L202+8
 1859 00e4 FFF7FEFF 		bl	chDbgPanic
 1860              	.LVL170:
 1861 00e8 9AE7     		b	.L175
 1862              	.L182:
 1863              		.loc 1 900 0
 1864 00ea A388     		ldrh	r3, [r4, #4]
 1865              		.loc 1 904 0
 1866 00ec 084D     		ldr	r5, .L202+4
 1867              		.loc 1 900 0
 1868 00ee 9AB2     		uxth	r2, r3
 1869 00f0 42F40070 		orr	r0, r2, #512
 1870 00f4 A080     		strh	r0, [r4, #4]	@ movhi
ARM GAS  /tmp/ccGTWVBp.s 			page 34


 1871              		.loc 1 901 0
 1872 00f6 2188     		ldrh	r1, [r4, #0]
 1873              		.loc 1 904 0
 1874 00f8 AB69     		ldr	r3, [r5, #24]
 1875              		.loc 1 901 0
 1876 00fa 8AB2     		uxth	r2, r1
 1877 00fc 42F48070 		orr	r0, r2, #256
 1878 0100 2080     		strh	r0, [r4, #0]	@ movhi
 1879              		.loc 1 905 0
 1880 0102 0220     		movs	r0, #2
 1881              		.loc 1 904 0
 1882 0104 F361     		str	r3, [r6, #28]
 1883              		.loc 1 905 0
 1884 0106 FFF7FEFF 		bl	chSchGoSleepS
 1885              	.LVL171:
 1886 010a E7E7     		b	.L186
 1887              	.L203:
 1888              		.align	2
 1889              	.L202:
 1890 010c 00000000 		.word	i2c_lld_safety_timeout
 1891 0110 00000000 		.word	rlist
 1892 0114 0C010000 		.word	.LC11
 1893              		.cfi_endproc
 1894              	.LFE77:
 1895              		.size	i2c_lld_master_transmit_timeout, .-i2c_lld_master_transmit_timeout
 1896              		.global	I2CD2
 1897 0118 AFF30080 		.section	.rodata.str1.4,"aMS",%progbits,1
 1897      AFF30080 
 1898              		.align	2
 1899              	.LC0:
 1900 0000 6932635F 		.ascii	"i2c_lld_start(), #3\000"
 1900      6C6C645F 
 1900      73746172 
 1900      7428292C 
 1900      20233300 
 1901              	.LC1:
 1902 0014 6932635F 		.ascii	"i2c_lld_start(), #4\000"
 1902      6C6C645F 
 1902      73746172 
 1902      7428292C 
 1902      20233400 
 1903              	.LC2:
 1904 0028 22693263 		.ascii	"\"i2c_lld_set_clock\"()\000"
 1904      5F6C6C64 
 1904      5F736574 
 1904      5F636C6F 
 1904      636B2228 
 1905 003e 0000     		.space	2
 1906              	.LC3:
 1907 0040 6932635F 		.ascii	"i2c_lld_set_clock(), #1\000"
 1907      6C6C645F 
 1907      7365745F 
 1907      636C6F63 
 1907      6B28292C 
 1908              	.LC4:
 1909 0058 6932635F 		.ascii	"i2c_lld_set_clock(), #2\000"
 1909      6C6C645F 
ARM GAS  /tmp/ccGTWVBp.s 			page 35


 1909      7365745F 
 1909      636C6F63 
 1909      6B28292C 
 1910              	.LC5:
 1911 0070 6932635F 		.ascii	"i2c_lld_set_clock(), #3\000"
 1911      6C6C645F 
 1911      7365745F 
 1911      636C6F63 
 1911      6B28292C 
 1912              	.LC6:
 1913 0088 6932635F 		.ascii	"i2c_lld_set_clock(), #4\000"
 1913      6C6C645F 
 1913      7365745F 
 1913      636C6F63 
 1913      6B28292C 
 1914              	.LC7:
 1915 00a0 6932635F 		.ascii	"i2c_lld_set_clock(), #5\000"
 1915      6C6C645F 
 1915      7365745F 
 1915      636C6F63 
 1915      6B28292C 
 1916              	.LC8:
 1917 00b8 6932635F 		.ascii	"i2c_lld_set_clock(), #6\000"
 1917      6C6C645F 
 1917      7365745F 
 1917      636C6F63 
 1917      6B28292C 
 1918              	.LC9:
 1919 00d0 6932635F 		.ascii	"i2c_lld_set_clock(), #8\000"
 1919      6C6C645F 
 1919      7365745F 
 1919      636C6F63 
 1919      6B28292C 
 1920              	.LC10:
 1921 00e8 22693263 		.ascii	"\"i2c_lld_master_receive_timeout\"()\000"
 1921      5F6C6C64 
 1921      5F6D6173 
 1921      7465725F 
 1921      72656365 
 1922 010b 00       		.space	1
 1923              	.LC11:
 1924 010c 22693263 		.ascii	"\"i2c_lld_master_transmit_timeout\"()\000"
 1924      5F6C6C64 
 1924      5F6D6173 
 1924      7465725F 
 1924      7472616E 
 1925              		.section	.bss.I2CD2,"aw",%nobits
 1926              		.align	2
 1927              		.set	.LANCHOR0,. + 0
 1928              		.type	I2CD2, %object
 1929              		.size	I2CD2, 56
 1930              	I2CD2:
 1931 0000 00000000 		.space	56
 1931      00000000 
 1931      00000000 
 1931      00000000 
 1931      00000000 
ARM GAS  /tmp/ccGTWVBp.s 			page 36


 1932              		.text
 1933              	.Letext0:
 1934              		.file 2 "/usr/bin/../lib/gcc/arm-none-eabi/4.7.4/include/stddef.h"
 1935              		.file 3 "/usr/bin/../lib/gcc/arm-none-eabi/4.7.4/../../../../arm-none-eabi/include/stdint.h"
 1936              		.file 4 "../../os/ports/GCC/ARMCMx/chtypes.h"
 1937              		.file 5 "../../os/kernel/include/chlists.h"
 1938              		.file 6 "../../os/kernel/include/chthreads.h"
 1939              		.file 7 "../../os/ports/GCC/ARMCMx/chcore_v7m.h"
 1940              		.file 8 "../../os/kernel/include/chvt.h"
 1941              		.file 9 "../../os/kernel/include/chschd.h"
 1942              		.file 10 "../../os/kernel/include/chmtx.h"
 1943              		.file 11 "../../os/hal/platforms/STM32F1xx/stm32f10x.h"
 1944              		.file 12 "../../os/hal/platforms/STM32F1xx/stm32_dma.h"
 1945              		.file 13 "../../os/hal/include/i2c.h"
 1946              		.file 14 "../../os/hal/platforms/STM32/I2Cv1/i2c_lld.h"
 1947              		.file 15 "../../os/ports/common/ARMCMx/CMSIS/include/core_cm3.h"
 1948              		.file 16 "../../os/kernel/include/chdebug.h"
 1949              		.file 17 "../../os/ports/common/ARMCMx/nvic.h"