ARM GAS  /tmp/ccevaafS.s 			page 1


   1              		.syntax unified
   2              		.cpu cortex-m3
   3              		.fpu softvfp
   4              		.eabi_attribute 20, 1
   5              		.eabi_attribute 21, 1
   6              		.eabi_attribute 23, 3
   7              		.eabi_attribute 24, 1
   8              		.eabi_attribute 25, 1
   9              		.eabi_attribute 26, 1
  10              		.eabi_attribute 30, 2
  11              		.eabi_attribute 34, 1
  12              		.eabi_attribute 18, 4
  13              		.thumb
  14              		.file	"i2cGetErr.c"
  15              		.text
  16              	.Ltext0:
  17              		.cfi_sections	.debug_frame
  18              		.section	.text.i2cGetErr,"ax",%progbits
  19              		.align	2
  20              		.p2align 4,,15
  21              		.global	i2cGetErr
  22              		.thumb
  23              		.thumb_func
  24              		.type	i2cGetErr, %function
  25              	i2cGetErr:
  26              	.LFB63:
  27              		.file 1 "../../os/various/i2cGetErr.c"
  28              		.loc 1 12 0
  29              		.cfi_startproc
  30              		@ args = 0, pretend = 0, frame = 0
  31              		@ frame_needed = 0, uses_anonymous_args = 0
  32              	.LVL0:
  33 0000 38B5     		push	{r3, r4, r5, lr}
  34              	.LCFI0:
  35              		.cfi_def_cfa_offset 16
  36              		.cfi_offset 3, -16
  37              		.cfi_offset 4, -12
  38              		.cfi_offset 5, -8
  39              		.cfi_offset 14, -4
  40              		.loc 1 12 0
  41 0002 0C46     		mov	r4, r1
  42 0004 0546     		mov	r5, r0
  43              		.loc 1 13 0
  44 0006 3049     		ldr	r1, .L13
  45              	.LVL1:
  46 0008 2046     		mov	r0, r4
  47              	.LVL2:
  48 000a FFF7FEFF 		bl	chprintf
  49              	.LVL3:
  50              		.loc 1 15 0
  51 000e 2846     		mov	r0, r5
  52 0010 FFF7FEFF 		bl	i2cGetErrors
  53              	.LVL4:
  54              		.loc 1 17 0
  55 0014 0138     		subs	r0, r0, #1
  56              	.LVL5:
  57 0016 3F28     		cmp	r0, #63
ARM GAS  /tmp/ccevaafS.s 			page 2


  58 0018 33D8     		bhi	.L2
  59 001a DFE800F0 		tbb	[pc, r0]
  60              	.L10:
  61 001e 37       		.byte	(.L3-.L10)/2
  62 001f 3C       		.byte	(.L4-.L10)/2
  63 0020 32       		.byte	(.L2-.L10)/2
  64 0021 41       		.byte	(.L5-.L10)/2
  65 0022 32       		.byte	(.L2-.L10)/2
  66 0023 32       		.byte	(.L2-.L10)/2
  67 0024 32       		.byte	(.L2-.L10)/2
  68 0025 46       		.byte	(.L6-.L10)/2
  69 0026 32       		.byte	(.L2-.L10)/2
  70 0027 32       		.byte	(.L2-.L10)/2
  71 0028 32       		.byte	(.L2-.L10)/2
  72 0029 32       		.byte	(.L2-.L10)/2
  73 002a 32       		.byte	(.L2-.L10)/2
  74 002b 32       		.byte	(.L2-.L10)/2
  75 002c 32       		.byte	(.L2-.L10)/2
  76 002d 4B       		.byte	(.L7-.L10)/2
  77 002e 32       		.byte	(.L2-.L10)/2
  78 002f 32       		.byte	(.L2-.L10)/2
  79 0030 32       		.byte	(.L2-.L10)/2
  80 0031 32       		.byte	(.L2-.L10)/2
  81 0032 32       		.byte	(.L2-.L10)/2
  82 0033 32       		.byte	(.L2-.L10)/2
  83 0034 32       		.byte	(.L2-.L10)/2
  84 0035 32       		.byte	(.L2-.L10)/2
  85 0036 32       		.byte	(.L2-.L10)/2
  86 0037 32       		.byte	(.L2-.L10)/2
  87 0038 32       		.byte	(.L2-.L10)/2
  88 0039 32       		.byte	(.L2-.L10)/2
  89 003a 32       		.byte	(.L2-.L10)/2
  90 003b 32       		.byte	(.L2-.L10)/2
  91 003c 32       		.byte	(.L2-.L10)/2
  92 003d 50       		.byte	(.L8-.L10)/2
  93 003e 32       		.byte	(.L2-.L10)/2
  94 003f 32       		.byte	(.L2-.L10)/2
  95 0040 32       		.byte	(.L2-.L10)/2
  96 0041 32       		.byte	(.L2-.L10)/2
  97 0042 32       		.byte	(.L2-.L10)/2
  98 0043 32       		.byte	(.L2-.L10)/2
  99 0044 32       		.byte	(.L2-.L10)/2
 100 0045 32       		.byte	(.L2-.L10)/2
 101 0046 32       		.byte	(.L2-.L10)/2
 102 0047 32       		.byte	(.L2-.L10)/2
 103 0048 32       		.byte	(.L2-.L10)/2
 104 0049 32       		.byte	(.L2-.L10)/2
 105 004a 32       		.byte	(.L2-.L10)/2
 106 004b 32       		.byte	(.L2-.L10)/2
 107 004c 32       		.byte	(.L2-.L10)/2
 108 004d 32       		.byte	(.L2-.L10)/2
 109 004e 32       		.byte	(.L2-.L10)/2
 110 004f 32       		.byte	(.L2-.L10)/2
 111 0050 32       		.byte	(.L2-.L10)/2
 112 0051 32       		.byte	(.L2-.L10)/2
 113 0052 32       		.byte	(.L2-.L10)/2
 114 0053 32       		.byte	(.L2-.L10)/2
ARM GAS  /tmp/ccevaafS.s 			page 3


 115 0054 32       		.byte	(.L2-.L10)/2
 116 0055 32       		.byte	(.L2-.L10)/2
 117 0056 32       		.byte	(.L2-.L10)/2
 118 0057 32       		.byte	(.L2-.L10)/2
 119 0058 32       		.byte	(.L2-.L10)/2
 120 0059 32       		.byte	(.L2-.L10)/2
 121 005a 32       		.byte	(.L2-.L10)/2
 122 005b 32       		.byte	(.L2-.L10)/2
 123 005c 32       		.byte	(.L2-.L10)/2
 124 005d 20       		.byte	(.L9-.L10)/2
 125              		.align	1
 126              	.L9:
 127              		.loc 1 44 0
 128 005e 2046     		mov	r0, r4
 129              	.LVL6:
 130 0060 1A49     		ldr	r1, .L13+4
 131 0062 FFF7FEFF 		bl	chprintf
 132              	.LVL7:
 133              	.L11:
 134              		.loc 1 52 0
 135 0066 1A49     		ldr	r1, .L13+8
 136 0068 1A48     		ldr	r0, .L13+12
 137 006a FFF7FEFF 		bl	chprintf
 138              	.LVL8:
 139              		.loc 1 53 0
 140 006e 4FF47A70 		mov	r0, #1000
 141 0072 FFF7FEFF 		bl	chThdSleep
 142              	.LVL9:
 143              		.loc 1 54 0
 144 0076 1748     		ldr	r0, .L13+12
 145 0078 1749     		ldr	r1, .L13+16
 146              		.loc 1 55 0
 147 007a BDE83840 		pop	{r3, r4, r5, lr}
 148              		.loc 1 54 0
 149 007e FFF7FEBF 		b	chprintf
 150              	.LVL10:
 151              	.L2:
 152              		.loc 1 48 0
 153 0082 2046     		mov	r0, r4
 154              	.LVL11:
 155 0084 1549     		ldr	r1, .L13+20
 156 0086 FFF7FEFF 		bl	chprintf
 157              	.LVL12:
 158              		.loc 1 49 0
 159 008a ECE7     		b	.L11
 160              	.LVL13:
 161              	.L3:
 162              		.loc 1 20 0
 163 008c 2046     		mov	r0, r4
 164              	.LVL14:
 165 008e 1449     		ldr	r1, .L13+24
 166 0090 FFF7FEFF 		bl	chprintf
 167              	.LVL15:
 168              		.loc 1 21 0
 169 0094 E7E7     		b	.L11
 170              	.LVL16:
 171              	.L4:
ARM GAS  /tmp/ccevaafS.s 			page 4


 172              		.loc 1 24 0
 173 0096 2046     		mov	r0, r4
 174              	.LVL17:
 175 0098 1249     		ldr	r1, .L13+28
 176 009a FFF7FEFF 		bl	chprintf
 177              	.LVL18:
 178              		.loc 1 25 0
 179 009e E2E7     		b	.L11
 180              	.LVL19:
 181              	.L5:
 182              		.loc 1 28 0
 183 00a0 2046     		mov	r0, r4
 184              	.LVL20:
 185 00a2 1149     		ldr	r1, .L13+32
 186 00a4 FFF7FEFF 		bl	chprintf
 187              	.LVL21:
 188              		.loc 1 29 0
 189 00a8 DDE7     		b	.L11
 190              	.LVL22:
 191              	.L6:
 192              		.loc 1 32 0
 193 00aa 2046     		mov	r0, r4
 194              	.LVL23:
 195 00ac 0F49     		ldr	r1, .L13+36
 196 00ae FFF7FEFF 		bl	chprintf
 197              	.LVL24:
 198              		.loc 1 33 0
 199 00b2 D8E7     		b	.L11
 200              	.LVL25:
 201              	.L7:
 202              		.loc 1 36 0
 203 00b4 2046     		mov	r0, r4
 204              	.LVL26:
 205 00b6 0E49     		ldr	r1, .L13+40
 206 00b8 FFF7FEFF 		bl	chprintf
 207              	.LVL27:
 208              		.loc 1 37 0
 209 00bc D3E7     		b	.L11
 210              	.LVL28:
 211              	.L8:
 212              		.loc 1 40 0
 213 00be 2046     		mov	r0, r4
 214              	.LVL29:
 215 00c0 0C49     		ldr	r1, .L13+44
 216 00c2 FFF7FEFF 		bl	chprintf
 217              	.LVL30:
 218              		.loc 1 41 0
 219 00c6 CEE7     		b	.L11
 220              	.L14:
 221              		.align	2
 222              	.L13:
 223 00c8 00000000 		.word	.LC0
 224 00cc C0000000 		.word	.LC7
 225 00d0 D8000000 		.word	.LC9
 226 00d4 00000000 		.word	SD2
 227 00d8 04010000 		.word	.LC10
 228 00dc D0000000 		.word	.LC8
ARM GAS  /tmp/ccevaafS.s 			page 5


 229 00e0 44000000 		.word	.LC1
 230 00e4 50000000 		.word	.LC2
 231 00e8 64000000 		.word	.LC3
 232 00ec 7C000000 		.word	.LC4
 233 00f0 90000000 		.word	.LC5
 234 00f4 AC000000 		.word	.LC6
 235              		.cfi_endproc
 236              	.LFE63:
 237              		.size	i2cGetErr, .-i2cGetErr
 238 00f8 AFF30080 		.section	.rodata.str1.4,"aMS",%progbits,1
 238      AFF30080 
 239              		.align	2
 240              	.LC0:
 241 0000 57656C6C 		.ascii	"Well, this is embarassing :'( - something is wrong "
 241      2C207468 
 241      69732069 
 241      7320656D 
 241      62617261 
 242 0033 77697468 		.ascii	"with i2c...\015\012\000"
 242      20693263 
 242      2E2E2E0D 
 242      0A00
 243 0041 000000   		.space	3
 244              	.LC1:
 245 0044 42757320 		.ascii	"Bus error\015\012\000"
 245      6572726F 
 245      720D0A00 
 246              	.LC2:
 247 0050 41726269 		.ascii	"Arbitration lost\015\012\000"
 247      74726174 
 247      696F6E20 
 247      6C6F7374 
 247      0D0A00
 248 0063 00       		.space	1
 249              	.LC3:
 250 0064 41636B6E 		.ascii	"Acknowledge failure\015\012\000"
 250      6F776C65 
 250      64676520 
 250      6661696C 
 250      7572650D 
 251 007a 0000     		.space	2
 252              	.LC4:
 253 007c 4F766572 		.ascii	"Overrun/Underrun\015\012\000"
 253      72756E2F 
 253      556E6465 
 253      7272756E 
 253      0D0A00
 254 008f 00       		.space	1
 255              	.LC5:
 256 0090 50454320 		.ascii	"PEC error in reception\015\012\000"
 256      6572726F 
 256      7220696E 
 256      20726563 
 256      65707469 
 257 00a9 000000   		.space	3
 258              	.LC6:
 259 00ac 48617264 		.ascii	"Hardware timeout\015\012\000"
ARM GAS  /tmp/ccevaafS.s 			page 6


 259      77617265 
 259      2074696D 
 259      656F7574 
 259      0D0A00
 260 00bf 00       		.space	1
 261              	.LC7:
 262 00c0 534D4275 		.ascii	"SMBus altert\015\012\000"
 262      7320616C 
 262      74657274 
 262      0D0A00
 263 00cf 00       		.space	1
 264              	.LC8:
 265 00d0 5754463F 		.ascii	"WTF?\015\012\000"
 265      0D0A00
 266 00d7 00       		.space	1
 267              	.LC9:
 268 00d8 446F2079 		.ascii	"Do you have everthig connected correctly?\015\012\000"
 268      6F752068 
 268      61766520 
 268      65766572 
 268      74686967 
 269              	.LC10:
 270 0104 41726520 		.ascii	"Are you sure that you haven't the data and clock pi"
 270      796F7520 
 270      73757265 
 270      20746861 
 270      7420796F 
 271 0137 6E732073 		.ascii	"ns set as outputs? ;)\015\012\000"
 271      65742061 
 271      73206F75 
 271      74707574 
 271      733F203B 
 272 014f 00       		.text
 273              	.Letext0:
 274              		.file 2 "/usr/bin/../lib/gcc/arm-none-eabi/4.7.4/include/stddef.h"
 275              		.file 3 "/usr/bin/../lib/gcc/arm-none-eabi/4.7.4/../../../../arm-none-eabi/include/stdint.h"
 276              		.file 4 "../../os/ports/GCC/ARMCMx/chtypes.h"
 277              		.file 5 "../../os/kernel/include/chlists.h"
 278              		.file 6 "../../os/kernel/include/chthreads.h"
 279              		.file 7 "../../os/ports/GCC/ARMCMx/chcore_v7m.h"
 280              		.file 8 "../../os/kernel/include/chmtx.h"
 281              		.file 9 "../../os/kernel/include/chevents.h"
 282              		.file 10 "../../os/kernel/include/chqueues.h"
 283              		.file 11 "../../os/kernel/include/chstreams.h"
 284              		.file 12 "../../os/hal/platforms/STM32F1xx/stm32f10x.h"
 285              		.file 13 "../../os/hal/platforms/STM32F1xx/stm32_dma.h"
 286              		.file 14 "../../os/hal/include/i2c.h"
 287              		.file 15 "../../os/hal/platforms/STM32/I2Cv1/i2c_lld.h"
 288              		.file 16 "../../os/hal/include/serial.h"
 289              		.file 17 "../../os/ports/common/ARMCMx/CMSIS/include/core_cm3.h"
 290              		.file 18 "../../os/hal/platforms/STM32/USARTv1/serial_lld.h"
 291              		.file 19 "../../os/various/chprintf.h"