ARM GAS  /tmp/ccS9r29S.s 			page 1


   1              		.syntax unified
   2              		.cpu cortex-m3
   3              		.fpu softvfp
   4              		.eabi_attribute 20, 1
   5              		.eabi_attribute 21, 1
   6              		.eabi_attribute 23, 3
   7              		.eabi_attribute 24, 1
   8              		.eabi_attribute 25, 1
   9              		.eabi_attribute 26, 1
  10              		.eabi_attribute 30, 2
  11              		.eabi_attribute 34, 1
  12              		.eabi_attribute 18, 4
  13              		.thumb
  14              		.file	"IMU01A.c"
  15              		.text
  16              	.Ltext0:
  17              		.cfi_sections	.debug_frame
  18              		.section	.text.accInit,"ax",%progbits
  19              		.align	2
  20              		.p2align 4,,15
  21              		.global	accInit
  22              		.thumb
  23              		.thumb_func
  24              		.type	accInit, %function
  25              	accInit:
  26              	.LFB63:
  27              		.file 1 "../../os/various/IMU01A.c"
  28              		.loc 1 16 0
  29              		.cfi_startproc
  30              		@ args = 0, pretend = 0, frame = 8
  31              		@ frame_needed = 0, uses_anonymous_args = 0
  32              	.LVL0:
  33 0000 30B5     		push	{r4, r5, lr}
  34              	.LCFI0:
  35              		.cfi_def_cfa_offset 12
  36              		.cfi_offset 4, -12
  37              		.cfi_offset 5, -8
  38              		.cfi_offset 14, -4
  39              		.loc 1 20 0
  40 0002 2A23     		movs	r3, #42
  41              		.loc 1 16 0
  42 0004 87B0     		sub	sp, sp, #28
  43              	.LCFI1:
  44              		.cfi_def_cfa_offset 40
  45              		.loc 1 16 0
  46 0006 0D46     		mov	r5, r1
  47              		.loc 1 21 0
  48 0008 0121     		movs	r1, #1
  49              	.LVL1:
  50              		.loc 1 16 0
  51 000a 0446     		mov	r4, r0
  52              		.loc 1 20 0
  53 000c 8DF81030 		strb	r3, [sp, #16]
  54              		.loc 1 21 0
  55 0010 8DF81110 		strb	r1, [sp, #17]
  56              		.loc 1 22 0
  57 0014 FFF7FEFF 		bl	i2cAcquireBus
ARM GAS  /tmp/ccS9r29S.s 			page 2


  58              	.LVL2:
  59              		.loc 1 23 0
  60 0018 0020     		movs	r0, #0
  61 001a 0422     		movs	r2, #4
  62 001c 0090     		str	r0, [sp, #0]
  63 001e 0190     		str	r0, [sp, #4]
  64 0020 0292     		str	r2, [sp, #8]
  65 0022 2946     		mov	r1, r5
  66 0024 2046     		mov	r0, r4
  67 0026 04AA     		add	r2, sp, #16
  68 0028 0223     		movs	r3, #2
  69 002a FFF7FEFF 		bl	i2cMasterTransmitTimeout
  70              	.LVL3:
  71 002e 0546     		mov	r5, r0
  72              	.LVL4:
  73              		.loc 1 24 0
  74 0030 2046     		mov	r0, r4
  75              	.LVL5:
  76 0032 FFF7FEFF 		bl	i2cReleaseBus
  77              	.LVL6:
  78              		.loc 1 25 0
  79 0036 1DB1     		cbz	r5, .L1
  80              		.loc 1 25 0 is_stmt 0 discriminator 1
  81 0038 2046     		mov	r0, r4
  82 003a 0249     		ldr	r1, .L7
  83 003c FFF7FEFF 		bl	i2cGetErr
  84              	.LVL7:
  85              	.L1:
  86              		.loc 1 26 0 is_stmt 1
  87 0040 07B0     		add	sp, sp, #28
  88 0042 30BD     		pop	{r4, r5, pc}
  89              	.L8:
  90              		.align	2
  91              	.L7:
  92 0044 00000000 		.word	SD2
  93              		.cfi_endproc
  94              	.LFE63:
  95              		.size	accInit, .-accInit
  96 0048 AFF30080 		.section	.text.accRead,"ax",%progbits
  96      AFF30080 
  97              		.align	2
  98              		.p2align 4,,15
  99              		.global	accRead
 100              		.thumb
 101              		.thumb_func
 102              		.type	accRead, %function
 103              	accRead:
 104              	.LFB64:
 105              		.loc 1 30 0
 106              		.cfi_startproc
 107              		@ args = 4, pretend = 0, frame = 16
 108              		@ frame_needed = 0, uses_anonymous_args = 0
 109              	.LVL8:
 110 0000 2DE9F043 		push	{r4, r5, r6, r7, r8, r9, lr}
 111              	.LCFI2:
 112              		.cfi_def_cfa_offset 28
 113              		.cfi_offset 4, -28
ARM GAS  /tmp/ccS9r29S.s 			page 3


 114              		.cfi_offset 5, -24
 115              		.cfi_offset 6, -20
 116              		.cfi_offset 7, -16
 117              		.cfi_offset 8, -12
 118              		.cfi_offset 9, -8
 119              		.cfi_offset 14, -4
 120 0004 89B0     		sub	sp, sp, #36
 121              	.LCFI3:
 122              		.cfi_def_cfa_offset 64
 123              		.loc 1 35 0
 124 0006 08AC     		add	r4, sp, #32
 125 0008 0126     		movs	r6, #1
 126              		.loc 1 30 0
 127 000a 0546     		mov	r5, r0
 128 000c 8946     		mov	r9, r1
 129              		.loc 1 35 0
 130 000e 04F8086D 		strb	r6, [r4, #-8]!
 131              		.loc 1 30 0
 132 0012 9046     		mov	r8, r2
 133 0014 1F46     		mov	r7, r3
 134              		.loc 1 36 0
 135 0016 FFF7FEFF 		bl	i2cAcquireBus
 136              	.LVL9:
 137              		.loc 1 37 0
 138 001a 04AB     		add	r3, sp, #16
 139 001c 0620     		movs	r0, #6
 140 001e 0421     		movs	r1, #4
 141 0020 0093     		str	r3, [sp, #0]
 142 0022 0190     		str	r0, [sp, #4]
 143 0024 0291     		str	r1, [sp, #8]
 144 0026 2246     		mov	r2, r4
 145 0028 2846     		mov	r0, r5
 146 002a 4946     		mov	r1, r9
 147 002c 3346     		mov	r3, r6
 148 002e FFF7FEFF 		bl	i2cMasterTransmitTimeout
 149              	.LVL10:
 150 0032 0446     		mov	r4, r0
 151              	.LVL11:
 152              		.loc 1 38 0
 153 0034 2846     		mov	r0, r5
 154              	.LVL12:
 155 0036 FFF7FEFF 		bl	i2cReleaseBus
 156              	.LVL13:
 157              		.loc 1 39 0
 158 003a 1CB1     		cbz	r4, .L10
 159              		.loc 1 39 0 is_stmt 0 discriminator 1
 160 003c 2846     		mov	r0, r5
 161 003e 0E49     		ldr	r1, .L14
 162 0040 FFF7FEFF 		bl	i2cGetErr
 163              	.LVL14:
 164              	.L10:
 165              		.loc 1 43 0 is_stmt 1
 166 0044 9DF81520 		ldrb	r2, [sp, #21]	@ zero_extendqisi2
 167 0048 9DF81400 		ldrb	r0, [sp, #20]	@ zero_extendqisi2
 168              		.loc 1 41 0
 169 004c 9DF81050 		ldrb	r5, [sp, #16]	@ zero_extendqisi2
 170              	.LVL15:
ARM GAS  /tmp/ccS9r29S.s 			page 4


 171 0050 9DF81110 		ldrb	r1, [sp, #17]	@ zero_extendqisi2
 172              		.loc 1 42 0
 173 0054 9DF81240 		ldrb	r4, [sp, #18]	@ zero_extendqisi2
 174              	.LVL16:
 175 0058 9DF81330 		ldrb	r3, [sp, #19]	@ zero_extendqisi2
 176              		.loc 1 43 0
 177 005c 42EA0020 		orr	r0, r2, r0, lsl #8
 178 0060 109A     		ldr	r2, [sp, #64]
 179              		.loc 1 41 0
 180 0062 41EA0521 		orr	r1, r1, r5, lsl #8
 181              		.loc 1 42 0
 182 0066 43EA0423 		orr	r3, r3, r4, lsl #8
 183              		.loc 1 41 0
 184 006a A8F80010 		strh	r1, [r8, #0]	@ movhi
 185              		.loc 1 42 0
 186 006e 3B80     		strh	r3, [r7, #0]	@ movhi
 187              		.loc 1 43 0
 188 0070 1080     		strh	r0, [r2, #0]	@ movhi
 189              		.loc 1 44 0
 190 0072 09B0     		add	sp, sp, #36
 191 0074 BDE8F083 		pop	{r4, r5, r6, r7, r8, r9, pc}
 192              	.L15:
 193              		.align	2
 194              	.L14:
 195 0078 00000000 		.word	SD2
 196              		.cfi_endproc
 197              	.LFE64:
 198              		.size	accRead, .-accRead
 199 007c AFF30080 		.section	.text.gyroInit,"ax",%progbits
 200              		.align	2
 201              		.p2align 4,,15
 202              		.global	gyroInit
 203              		.thumb
 204              		.thumb_func
 205              		.type	gyroInit, %function
 206              	gyroInit:
 207              	.LFB65:
 208              		.loc 1 48 0
 209              		.cfi_startproc
 210              		@ args = 0, pretend = 0, frame = 8
 211              		@ frame_needed = 0, uses_anonymous_args = 0
 212              	.LVL17:
 213 0000 70B5     		push	{r4, r5, r6, lr}
 214              	.LCFI4:
 215              		.cfi_def_cfa_offset 16
 216              		.cfi_offset 4, -16
 217              		.cfi_offset 5, -12
 218              		.cfi_offset 6, -8
 219              		.cfi_offset 14, -4
 220              		.loc 1 52 0
 221 0002 2023     		movs	r3, #32
 222              		.loc 1 48 0
 223 0004 86B0     		sub	sp, sp, #24
 224              	.LCFI5:
 225              		.cfi_def_cfa_offset 40
 226              		.loc 1 48 0
 227 0006 0D46     		mov	r5, r1
ARM GAS  /tmp/ccS9r29S.s 			page 5


 228              		.loc 1 53 0
 229 0008 FF21     		movs	r1, #255
 230              	.LVL18:
 231              		.loc 1 48 0
 232 000a 0446     		mov	r4, r0
 233              		.loc 1 52 0
 234 000c 8DF81030 		strb	r3, [sp, #16]
 235              		.loc 1 53 0
 236 0010 8DF81110 		strb	r1, [sp, #17]
 237              		.loc 1 54 0
 238 0014 FFF7FEFF 		bl	i2cAcquireBus
 239              	.LVL19:
 240              		.loc 1 55 0
 241 0018 0020     		movs	r0, #0
 242 001a 0422     		movs	r2, #4
 243 001c 0090     		str	r0, [sp, #0]
 244 001e 0190     		str	r0, [sp, #4]
 245 0020 0292     		str	r2, [sp, #8]
 246 0022 2046     		mov	r0, r4
 247 0024 2946     		mov	r1, r5
 248 0026 04AA     		add	r2, sp, #16
 249 0028 0223     		movs	r3, #2
 250 002a FFF7FEFF 		bl	i2cMasterTransmitTimeout
 251              	.LVL20:
 252 002e 0646     		mov	r6, r0
 253              	.LVL21:
 254              		.loc 1 56 0
 255 0030 2046     		mov	r0, r4
 256              	.LVL22:
 257 0032 FFF7FEFF 		bl	i2cReleaseBus
 258              	.LVL23:
 259              		.loc 1 57 0
 260 0036 F6B9     		cbnz	r6, .L25
 261              	.L17:
 262              		.loc 1 59 0
 263 0038 2E23     		movs	r3, #46
 264              		.loc 1 60 0
 265 003a 4021     		movs	r1, #64
 266              		.loc 1 61 0
 267 003c 2046     		mov	r0, r4
 268              		.loc 1 59 0
 269 003e 8DF81030 		strb	r3, [sp, #16]
 270              		.loc 1 60 0
 271 0042 8DF81110 		strb	r1, [sp, #17]
 272              		.loc 1 61 0
 273 0046 FFF7FEFF 		bl	i2cAcquireBus
 274              	.LVL24:
 275              		.loc 1 62 0
 276 004a 0020     		movs	r0, #0
 277 004c 0422     		movs	r2, #4
 278 004e 0090     		str	r0, [sp, #0]
 279 0050 0190     		str	r0, [sp, #4]
 280 0052 0292     		str	r2, [sp, #8]
 281 0054 2946     		mov	r1, r5
 282 0056 2046     		mov	r0, r4
 283 0058 04AA     		add	r2, sp, #16
 284 005a 0223     		movs	r3, #2
ARM GAS  /tmp/ccS9r29S.s 			page 6


 285 005c FFF7FEFF 		bl	i2cMasterTransmitTimeout
 286              	.LVL25:
 287 0060 0546     		mov	r5, r0
 288              	.LVL26:
 289              		.loc 1 63 0
 290 0062 2046     		mov	r0, r4
 291              	.LVL27:
 292 0064 FFF7FEFF 		bl	i2cReleaseBus
 293              	.LVL28:
 294              		.loc 1 64 0
 295 0068 1DB1     		cbz	r5, .L16
 296              		.loc 1 64 0 is_stmt 0 discriminator 1
 297 006a 2046     		mov	r0, r4
 298 006c 0449     		ldr	r1, .L26
 299 006e FFF7FEFF 		bl	i2cGetErr
 300              	.LVL29:
 301              	.L16:
 302              		.loc 1 65 0 is_stmt 1
 303 0072 06B0     		add	sp, sp, #24
 304 0074 70BD     		pop	{r4, r5, r6, pc}
 305              	.LVL30:
 306              	.L25:
 307              		.loc 1 57 0 discriminator 1
 308 0076 2046     		mov	r0, r4
 309 0078 0149     		ldr	r1, .L26
 310 007a FFF7FEFF 		bl	i2cGetErr
 311              	.LVL31:
 312 007e DBE7     		b	.L17
 313              	.L27:
 314              		.align	2
 315              	.L26:
 316 0080 00000000 		.word	SD2
 317              		.cfi_endproc
 318              	.LFE65:
 319              		.size	gyroInit, .-gyroInit
 320 0084 AFF30080 		.section	.text.gyroRead,"ax",%progbits
 320      AFF30080 
 320      AFF30080 
 321              		.align	2
 322              		.p2align 4,,15
 323              		.global	gyroRead
 324              		.thumb
 325              		.thumb_func
 326              		.type	gyroRead, %function
 327              	gyroRead:
 328              	.LFB66:
 329              		.loc 1 69 0
 330              		.cfi_startproc
 331              		@ args = 4, pretend = 0, frame = 16
 332              		@ frame_needed = 0, uses_anonymous_args = 0
 333              	.LVL32:
 334 0000 2DE9F041 		push	{r4, r5, r6, r7, r8, lr}
 335              	.LCFI6:
 336              		.cfi_def_cfa_offset 24
 337              		.cfi_offset 4, -24
 338              		.cfi_offset 5, -20
 339              		.cfi_offset 6, -16
ARM GAS  /tmp/ccS9r29S.s 			page 7


 340              		.cfi_offset 7, -12
 341              		.cfi_offset 8, -8
 342              		.cfi_offset 14, -4
 343 0004 88B0     		sub	sp, sp, #32
 344              	.LCFI7:
 345              		.cfi_def_cfa_offset 56
 346              		.loc 1 74 0
 347 0006 08AC     		add	r4, sp, #32
 348              		.loc 1 69 0
 349 0008 1E46     		mov	r6, r3
 350              		.loc 1 74 0
 351 000a 2823     		movs	r3, #40
 352              	.LVL33:
 353              		.loc 1 69 0
 354 000c 0546     		mov	r5, r0
 355              		.loc 1 74 0
 356 000e 04F8083D 		strb	r3, [r4, #-8]!
 357              		.loc 1 69 0
 358 0012 8846     		mov	r8, r1
 359 0014 1746     		mov	r7, r2
 360              		.loc 1 75 0
 361 0016 FFF7FEFF 		bl	i2cAcquireBus
 362              	.LVL34:
 363              		.loc 1 76 0
 364 001a 04A8     		add	r0, sp, #16
 365 001c 0621     		movs	r1, #6
 366 001e 0422     		movs	r2, #4
 367 0020 0090     		str	r0, [sp, #0]
 368 0022 0191     		str	r1, [sp, #4]
 369 0024 0292     		str	r2, [sp, #8]
 370 0026 2846     		mov	r0, r5
 371 0028 2246     		mov	r2, r4
 372 002a 4146     		mov	r1, r8
 373 002c 0123     		movs	r3, #1
 374 002e FFF7FEFF 		bl	i2cMasterTransmitTimeout
 375              	.LVL35:
 376 0032 0446     		mov	r4, r0
 377              	.LVL36:
 378              		.loc 1 77 0
 379 0034 2846     		mov	r0, r5
 380              	.LVL37:
 381 0036 FFF7FEFF 		bl	i2cReleaseBus
 382              	.LVL38:
 383              		.loc 1 78 0
 384 003a 1CB1     		cbz	r4, .L29
 385              		.loc 1 78 0 is_stmt 0 discriminator 1
 386 003c 2846     		mov	r0, r5
 387 003e 0E49     		ldr	r1, .L33
 388 0040 FFF7FEFF 		bl	i2cGetErr
 389              	.LVL39:
 390              	.L29:
 391              		.loc 1 82 0 is_stmt 1
 392 0044 9DF81520 		ldrb	r2, [sp, #21]	@ zero_extendqisi2
 393 0048 9DF81400 		ldrb	r0, [sp, #20]	@ zero_extendqisi2
 394              		.loc 1 80 0
 395 004c 9DF81050 		ldrb	r5, [sp, #16]	@ zero_extendqisi2
 396              	.LVL40:
ARM GAS  /tmp/ccS9r29S.s 			page 8


 397 0050 9DF81110 		ldrb	r1, [sp, #17]	@ zero_extendqisi2
 398              		.loc 1 81 0
 399 0054 9DF81240 		ldrb	r4, [sp, #18]	@ zero_extendqisi2
 400              	.LVL41:
 401 0058 9DF81330 		ldrb	r3, [sp, #19]	@ zero_extendqisi2
 402              		.loc 1 82 0
 403 005c 42EA0020 		orr	r0, r2, r0, lsl #8
 404 0060 0E9A     		ldr	r2, [sp, #56]
 405              		.loc 1 80 0
 406 0062 41EA0521 		orr	r1, r1, r5, lsl #8
 407              		.loc 1 81 0
 408 0066 43EA0423 		orr	r3, r3, r4, lsl #8
 409              		.loc 1 80 0
 410 006a 3980     		strh	r1, [r7, #0]	@ movhi
 411              		.loc 1 81 0
 412 006c 3380     		strh	r3, [r6, #0]	@ movhi
 413              		.loc 1 82 0
 414 006e 1080     		strh	r0, [r2, #0]	@ movhi
 415              		.loc 1 83 0
 416 0070 08B0     		add	sp, sp, #32
 417 0072 BDE8F081 		pop	{r4, r5, r6, r7, r8, pc}
 418              	.L34:
 419 0076 00BF     		.align	2
 420              	.L33:
 421 0078 00000000 		.word	SD2
 422              		.cfi_endproc
 423              	.LFE66:
 424              		.size	gyroRead, .-gyroRead
 425 007c AFF30080 		.section	.text.tempRead,"ax",%progbits
 426              		.align	2
 427              		.p2align 4,,15
 428              		.global	tempRead
 429              		.thumb
 430              		.thumb_func
 431              		.type	tempRead, %function
 432              	tempRead:
 433              	.LFB67:
 434              		.loc 1 87 0
 435              		.cfi_startproc
 436              		@ args = 0, pretend = 0, frame = 16
 437              		@ frame_needed = 0, uses_anonymous_args = 0
 438              	.LVL42:
 439 0000 F0B5     		push	{r4, r5, r6, r7, lr}
 440              	.LCFI8:
 441              		.cfi_def_cfa_offset 20
 442              		.cfi_offset 4, -20
 443              		.cfi_offset 5, -16
 444              		.cfi_offset 6, -12
 445              		.cfi_offset 7, -8
 446              		.cfi_offset 14, -4
 447 0002 89B0     		sub	sp, sp, #36
 448              	.LCFI9:
 449              		.cfi_def_cfa_offset 56
 450              		.loc 1 92 0
 451 0004 08AC     		add	r4, sp, #32
 452 0006 2623     		movs	r3, #38
 453              		.loc 1 87 0
ARM GAS  /tmp/ccS9r29S.s 			page 9


 454 0008 0546     		mov	r5, r0
 455              		.loc 1 92 0
 456 000a 04F8083D 		strb	r3, [r4, #-8]!
 457              		.loc 1 87 0
 458 000e 0F46     		mov	r7, r1
 459 0010 1646     		mov	r6, r2
 460              		.loc 1 93 0
 461 0012 FFF7FEFF 		bl	i2cAcquireBus
 462              	.LVL43:
 463              		.loc 1 94 0
 464 0016 04A8     		add	r0, sp, #16
 465 0018 0621     		movs	r1, #6
 466 001a 0422     		movs	r2, #4
 467 001c 0090     		str	r0, [sp, #0]
 468 001e 0191     		str	r1, [sp, #4]
 469 0020 0292     		str	r2, [sp, #8]
 470 0022 2846     		mov	r0, r5
 471 0024 2246     		mov	r2, r4
 472 0026 3946     		mov	r1, r7
 473 0028 0123     		movs	r3, #1
 474 002a FFF7FEFF 		bl	i2cMasterTransmitTimeout
 475              	.LVL44:
 476 002e 0446     		mov	r4, r0
 477              	.LVL45:
 478              		.loc 1 95 0
 479 0030 2846     		mov	r0, r5
 480              	.LVL46:
 481 0032 FFF7FEFF 		bl	i2cReleaseBus
 482              	.LVL47:
 483              		.loc 1 96 0
 484 0036 1CB1     		cbz	r4, .L36
 485              		.loc 1 96 0 is_stmt 0 discriminator 1
 486 0038 2846     		mov	r0, r5
 487 003a 0449     		ldr	r1, .L40
 488 003c FFF7FEFF 		bl	i2cGetErr
 489              	.LVL48:
 490              	.L36:
 491              		.loc 1 98 0 is_stmt 1
 492 0040 9DF81030 		ldrb	r3, [sp, #16]	@ zero_extendqisi2
 493 0044 3370     		strb	r3, [r6, #0]
 494              		.loc 1 99 0
 495 0046 09B0     		add	sp, sp, #36
 496 0048 F0BD     		pop	{r4, r5, r6, r7, pc}
 497              	.L41:
 498 004a 00BF     		.align	2
 499              	.L40:
 500 004c 00000000 		.word	SD2
 501              		.cfi_endproc
 502              	.LFE67:
 503              		.size	tempRead, .-tempRead
 504              		.text
 505              	.Letext0:
 506              		.file 2 "/usr/bin/../lib/gcc/arm-none-eabi/4.7.4/include/stddef.h"
 507              		.file 3 "/usr/bin/../lib/gcc/arm-none-eabi/4.7.4/../../../../arm-none-eabi/include/stdint.h"
 508              		.file 4 "../../os/ports/GCC/ARMCMx/chtypes.h"
 509              		.file 5 "../../os/kernel/include/chlists.h"
 510              		.file 6 "../../os/kernel/include/chthreads.h"
ARM GAS  /tmp/ccS9r29S.s 			page 10


 511              		.file 7 "../../os/ports/GCC/ARMCMx/chcore_v7m.h"
 512              		.file 8 "../../os/kernel/include/chmtx.h"
 513              		.file 9 "../../os/kernel/include/chevents.h"
 514              		.file 10 "../../os/kernel/include/chqueues.h"
 515              		.file 11 "../../os/hal/platforms/STM32F1xx/stm32f10x.h"
 516              		.file 12 "../../os/hal/platforms/STM32F1xx/stm32_dma.h"
 517              		.file 13 "../../os/hal/include/i2c.h"
 518              		.file 14 "../../os/hal/platforms/STM32/I2Cv1/i2c_lld.h"
 519              		.file 15 "../../os/hal/include/serial.h"
 520              		.file 16 "../../os/various/i2cGetErr.h"
 521              		.file 17 "../../os/ports/common/ARMCMx/CMSIS/include/core_cm3.h"
 522              		.file 18 "../../os/hal/platforms/STM32/USARTv1/serial_lld.h"
 523              		.section	.debug_info,"",%progbits
 524              	.Ldebug_info0:
 525 0000 EB110000 		.4byte	0x11eb
 526 0004 0200     		.2byte	0x2
 527 0006 00000000 		.4byte	.Ldebug_abbrev0
 528 000a 04       		.byte	0x4
 529 000b 01       		.uleb128 0x1
 530 000c 65010000 		.4byte	.LASF174
 531 0010 01       		.byte	0x1
 532 0011 D5060000 		.4byte	.LASF175
 533 0015 52000000 		.4byte	.LASF176
 534 0019 00000000 		.4byte	.Ldebug_ranges0+0
 535 001d 00000000 		.4byte	0
 536 0021 00000000 		.4byte	0
 537 0025 00000000 		.4byte	.Ldebug_line0
 538 0029 02       		.uleb128 0x2
 539 002a 04       		.byte	0x4
 540 002b 05       		.byte	0x5
 541 002c 696E7400 		.ascii	"int\000"
 542 0030 03       		.uleb128 0x3
 543 0031 2F000000 		.4byte	.LASF2
 544 0035 02       		.byte	0x2
 545 0036 D5       		.byte	0xd5
 546 0037 3B000000 		.4byte	0x3b
 547 003b 04       		.uleb128 0x4
 548 003c 04       		.byte	0x4
 549 003d 07       		.byte	0x7
 550 003e 67020000 		.4byte	.LASF0
 551 0042 04       		.uleb128 0x4
 552 0043 01       		.byte	0x1
 553 0044 06       		.byte	0x6
 554 0045 31010000 		.4byte	.LASF1
 555 0049 03       		.uleb128 0x3
 556 004a 95060000 		.4byte	.LASF3
 557 004e 03       		.byte	0x3
 558 004f 2A       		.byte	0x2a
 559 0050 54000000 		.4byte	0x54
 560 0054 04       		.uleb128 0x4
 561 0055 01       		.byte	0x1
 562 0056 08       		.byte	0x8
 563 0057 F3040000 		.4byte	.LASF4
 564 005b 03       		.uleb128 0x3
 565 005c 0E070000 		.4byte	.LASF5
 566 0060 03       		.byte	0x3
 567 0061 35       		.byte	0x35
ARM GAS  /tmp/ccS9r29S.s 			page 11


 568 0062 66000000 		.4byte	0x66
 569 0066 04       		.uleb128 0x4
 570 0067 02       		.byte	0x2
 571 0068 05       		.byte	0x5
 572 0069 5F030000 		.4byte	.LASF6
 573 006d 03       		.uleb128 0x3
 574 006e 74020000 		.4byte	.LASF7
 575 0072 03       		.byte	0x3
 576 0073 36       		.byte	0x36
 577 0074 78000000 		.4byte	0x78
 578 0078 04       		.uleb128 0x4
 579 0079 02       		.byte	0x2
 580 007a 07       		.byte	0x7
 581 007b F4020000 		.4byte	.LASF8
 582 007f 03       		.uleb128 0x3
 583 0080 EB040000 		.4byte	.LASF9
 584 0084 03       		.byte	0x3
 585 0085 4F       		.byte	0x4f
 586 0086 8A000000 		.4byte	0x8a
 587 008a 04       		.uleb128 0x4
 588 008b 04       		.byte	0x4
 589 008c 05       		.byte	0x5
 590 008d C3010000 		.4byte	.LASF10
 591 0091 03       		.uleb128 0x3
 592 0092 C3050000 		.4byte	.LASF11
 593 0096 03       		.byte	0x3
 594 0097 50       		.byte	0x50
 595 0098 9C000000 		.4byte	0x9c
 596 009c 04       		.uleb128 0x4
 597 009d 04       		.byte	0x4
 598 009e 07       		.byte	0x7
 599 009f F1050000 		.4byte	.LASF12
 600 00a3 04       		.uleb128 0x4
 601 00a4 08       		.byte	0x8
 602 00a5 05       		.byte	0x5
 603 00a6 23010000 		.4byte	.LASF13
 604 00aa 03       		.uleb128 0x3
 605 00ab 3D000000 		.4byte	.LASF14
 606 00af 03       		.byte	0x3
 607 00b0 78       		.byte	0x78
 608 00b1 B5000000 		.4byte	0xb5
 609 00b5 04       		.uleb128 0x4
 610 00b6 08       		.byte	0x8
 611 00b7 07       		.byte	0x7
 612 00b8 A2000000 		.4byte	.LASF15
 613 00bc 04       		.uleb128 0x4
 614 00bd 01       		.byte	0x1
 615 00be 02       		.byte	0x2
 616 00bf E5040000 		.4byte	.LASF16
 617 00c3 03       		.uleb128 0x3
 618 00c4 3F030000 		.4byte	.LASF17
 619 00c8 04       		.byte	0x4
 620 00c9 25       		.byte	0x25
 621 00ca 49000000 		.4byte	0x49
 622 00ce 03       		.uleb128 0x3
 623 00cf CC010000 		.4byte	.LASF18
 624 00d3 04       		.byte	0x4
ARM GAS  /tmp/ccS9r29S.s 			page 12


 625 00d4 26       		.byte	0x26
 626 00d5 49000000 		.4byte	0x49
 627 00d9 03       		.uleb128 0x3
 628 00da 65040000 		.4byte	.LASF19
 629 00de 04       		.byte	0x4
 630 00df 27       		.byte	0x27
 631 00e0 49000000 		.4byte	0x49
 632 00e4 03       		.uleb128 0x3
 633 00e5 5B010000 		.4byte	.LASF20
 634 00e9 04       		.byte	0x4
 635 00ea 28       		.byte	0x28
 636 00eb 49000000 		.4byte	0x49
 637 00ef 03       		.uleb128 0x3
 638 00f0 C4040000 		.4byte	.LASF21
 639 00f4 04       		.byte	0x4
 640 00f5 29       		.byte	0x29
 641 00f6 91000000 		.4byte	0x91
 642 00fa 03       		.uleb128 0x3
 643 00fb 1D030000 		.4byte	.LASF22
 644 00ff 04       		.byte	0x4
 645 0100 2A       		.byte	0x2a
 646 0101 7F000000 		.4byte	0x7f
 647 0105 03       		.uleb128 0x3
 648 0106 53030000 		.4byte	.LASF23
 649 010a 04       		.byte	0x4
 650 010b 2C       		.byte	0x2c
 651 010c 91000000 		.4byte	0x91
 652 0110 03       		.uleb128 0x3
 653 0111 52060000 		.4byte	.LASF24
 654 0115 04       		.byte	0x4
 655 0116 2D       		.byte	0x2d
 656 0117 91000000 		.4byte	0x91
 657 011b 03       		.uleb128 0x3
 658 011c 1B060000 		.4byte	.LASF25
 659 0120 04       		.byte	0x4
 660 0121 2E       		.byte	0x2e
 661 0122 91000000 		.4byte	0x91
 662 0126 03       		.uleb128 0x3
 663 0127 4E020000 		.4byte	.LASF26
 664 012b 05       		.byte	0x5
 665 012c 23       		.byte	0x23
 666 012d 31010000 		.4byte	0x131
 667 0131 05       		.uleb128 0x5
 668 0132 4E020000 		.4byte	.LASF26
 669 0136 4C       		.byte	0x4c
 670 0137 06       		.byte	0x6
 671 0138 57       		.byte	0x57
 672 0139 64020000 		.4byte	0x264
 673 013d 06       		.uleb128 0x6
 674 013e 60050000 		.4byte	.LASF27
 675 0142 06       		.byte	0x6
 676 0143 58       		.byte	0x58
 677 0144 89020000 		.4byte	0x289
 678 0148 02       		.byte	0x2
 679 0149 23       		.byte	0x23
 680 014a 00       		.uleb128 0
 681 014b 06       		.uleb128 0x6
ARM GAS  /tmp/ccS9r29S.s 			page 13


 682 014c 9F040000 		.4byte	.LASF28
 683 0150 06       		.byte	0x6
 684 0151 5A       		.byte	0x5a
 685 0152 89020000 		.4byte	0x289
 686 0156 02       		.byte	0x2
 687 0157 23       		.byte	0x23
 688 0158 04       		.uleb128 0x4
 689 0159 06       		.uleb128 0x6
 690 015a F3000000 		.4byte	.LASF29
 691 015e 06       		.byte	0x6
 692 015f 5C       		.byte	0x5c
 693 0160 EF000000 		.4byte	0xef
 694 0164 02       		.byte	0x2
 695 0165 23       		.byte	0x23
 696 0166 08       		.uleb128 0x8
 697 0167 06       		.uleb128 0x6
 698 0168 1E070000 		.4byte	.LASF30
 699 016c 06       		.byte	0x6
 700 016d 5D       		.byte	0x5d
 701 016e 62030000 		.4byte	0x362
 702 0172 02       		.byte	0x2
 703 0173 23       		.byte	0x23
 704 0174 0C       		.uleb128 0xc
 705 0175 06       		.uleb128 0x6
 706 0176 09020000 		.4byte	.LASF31
 707 017a 06       		.byte	0x6
 708 017b 5F       		.byte	0x5f
 709 017c 89020000 		.4byte	0x289
 710 0180 02       		.byte	0x2
 711 0181 23       		.byte	0x23
 712 0182 10       		.uleb128 0x10
 713 0183 06       		.uleb128 0x6
 714 0184 EF030000 		.4byte	.LASF32
 715 0188 06       		.byte	0x6
 716 0189 60       		.byte	0x60
 717 018a 89020000 		.4byte	0x289
 718 018e 02       		.byte	0x2
 719 018f 23       		.byte	0x23
 720 0190 14       		.uleb128 0x14
 721 0191 06       		.uleb128 0x6
 722 0192 64060000 		.4byte	.LASF33
 723 0196 06       		.byte	0x6
 724 0197 67       		.byte	0x67
 725 0198 8F040000 		.4byte	0x48f
 726 019c 02       		.byte	0x2
 727 019d 23       		.byte	0x23
 728 019e 18       		.uleb128 0x18
 729 019f 06       		.uleb128 0x6
 730 01a0 18040000 		.4byte	.LASF34
 731 01a4 06       		.byte	0x6
 732 01a5 6D       		.byte	0x6d
 733 01a6 A1040000 		.4byte	0x4a1
 734 01aa 02       		.byte	0x2
 735 01ab 23       		.byte	0x23
 736 01ac 1C       		.uleb128 0x1c
 737 01ad 06       		.uleb128 0x6
 738 01ae 47050000 		.4byte	.LASF35
ARM GAS  /tmp/ccS9r29S.s 			page 14


 739 01b2 06       		.byte	0x6
 740 01b3 72       		.byte	0x72
 741 01b4 CE000000 		.4byte	0xce
 742 01b8 02       		.byte	0x2
 743 01b9 23       		.byte	0x23
 744 01ba 20       		.uleb128 0x20
 745 01bb 06       		.uleb128 0x6
 746 01bc 67050000 		.4byte	.LASF36
 747 01c0 06       		.byte	0x6
 748 01c1 76       		.byte	0x76
 749 01c2 C3000000 		.4byte	0xc3
 750 01c6 02       		.byte	0x2
 751 01c7 23       		.byte	0x23
 752 01c8 21       		.uleb128 0x21
 753 01c9 06       		.uleb128 0x6
 754 01ca DC010000 		.4byte	.LASF37
 755 01ce 06       		.byte	0x6
 756 01cf 7B       		.byte	0x7b
 757 01d0 D9000000 		.4byte	0xd9
 758 01d4 02       		.byte	0x2
 759 01d5 23       		.byte	0x23
 760 01d6 22       		.uleb128 0x22
 761 01d7 06       		.uleb128 0x6
 762 01d8 4F050000 		.4byte	.LASF38
 763 01dc 06       		.byte	0x6
 764 01dd 81       		.byte	0x81
 765 01de E4000000 		.4byte	0xe4
 766 01e2 02       		.byte	0x2
 767 01e3 23       		.byte	0x23
 768 01e4 23       		.uleb128 0x23
 769 01e5 06       		.uleb128 0x6
 770 01e6 F4010000 		.4byte	.LASF39
 771 01ea 06       		.byte	0x6
 772 01eb 88       		.byte	0x88
 773 01ec 91030000 		.4byte	0x391
 774 01f0 02       		.byte	0x2
 775 01f1 23       		.byte	0x23
 776 01f2 24       		.uleb128 0x24
 777 01f3 07       		.uleb128 0x7
 778 01f4 705F7500 		.ascii	"p_u\000"
 779 01f8 06       		.byte	0x6
 780 01f9 AD       		.byte	0xad
 781 01fa 5A040000 		.4byte	0x45a
 782 01fe 02       		.byte	0x2
 783 01ff 23       		.byte	0x23
 784 0200 28       		.uleb128 0x28
 785 0201 06       		.uleb128 0x6
 786 0202 24070000 		.4byte	.LASF40
 787 0206 06       		.byte	0x6
 788 0207 B2       		.byte	0xb2
 789 0208 B1020000 		.4byte	0x2b1
 790 020c 02       		.byte	0x2
 791 020d 23       		.byte	0x23
 792 020e 2C       		.uleb128 0x2c
 793 020f 06       		.uleb128 0x6
 794 0210 A9020000 		.4byte	.LASF41
 795 0214 06       		.byte	0x6
ARM GAS  /tmp/ccS9r29S.s 			page 15


 796 0215 B8       		.byte	0xb8
 797 0216 8F020000 		.4byte	0x28f
 798 021a 02       		.byte	0x2
 799 021b 23       		.byte	0x23
 800 021c 30       		.uleb128 0x30
 801 021d 06       		.uleb128 0x6
 802 021e CF060000 		.4byte	.LASF42
 803 0222 06       		.byte	0x6
 804 0223 BC       		.byte	0xbc
 805 0224 FA000000 		.4byte	0xfa
 806 0228 02       		.byte	0x2
 807 0229 23       		.byte	0x23
 808 022a 38       		.uleb128 0x38
 809 022b 06       		.uleb128 0x6
 810 022c A4050000 		.4byte	.LASF43
 811 0230 06       		.byte	0x6
 812 0231 C2       		.byte	0xc2
 813 0232 05010000 		.4byte	0x105
 814 0236 02       		.byte	0x2
 815 0237 23       		.byte	0x23
 816 0238 3C       		.uleb128 0x3c
 817 0239 06       		.uleb128 0x6
 818 023a 32050000 		.4byte	.LASF44
 819 023e 06       		.byte	0x6
 820 023f C9       		.byte	0xc9
 821 0240 A7040000 		.4byte	0x4a7
 822 0244 02       		.byte	0x2
 823 0245 23       		.byte	0x23
 824 0246 40       		.uleb128 0x40
 825 0247 06       		.uleb128 0x6
 826 0248 25060000 		.4byte	.LASF45
 827 024c 06       		.byte	0x6
 828 024d CD       		.byte	0xcd
 829 024e EF000000 		.4byte	0xef
 830 0252 02       		.byte	0x2
 831 0253 23       		.byte	0x23
 832 0254 44       		.uleb128 0x44
 833 0255 06       		.uleb128 0x6
 834 0256 4B010000 		.4byte	.LASF46
 835 025a 06       		.byte	0x6
 836 025b D3       		.byte	0xd3
 837 025c C7020000 		.4byte	0x2c7
 838 0260 02       		.byte	0x2
 839 0261 23       		.byte	0x23
 840 0262 48       		.uleb128 0x48
 841 0263 00       		.byte	0
 842 0264 08       		.uleb128 0x8
 843 0265 08       		.byte	0x8
 844 0266 05       		.byte	0x5
 845 0267 5A       		.byte	0x5a
 846 0268 89020000 		.4byte	0x289
 847 026c 06       		.uleb128 0x6
 848 026d 60050000 		.4byte	.LASF27
 849 0271 05       		.byte	0x5
 850 0272 5B       		.byte	0x5b
 851 0273 89020000 		.4byte	0x289
 852 0277 02       		.byte	0x2
ARM GAS  /tmp/ccS9r29S.s 			page 16


 853 0278 23       		.byte	0x23
 854 0279 00       		.uleb128 0
 855 027a 06       		.uleb128 0x6
 856 027b 9F040000 		.4byte	.LASF28
 857 027f 05       		.byte	0x5
 858 0280 5D       		.byte	0x5d
 859 0281 89020000 		.4byte	0x289
 860 0285 02       		.byte	0x2
 861 0286 23       		.byte	0x23
 862 0287 04       		.uleb128 0x4
 863 0288 00       		.byte	0
 864 0289 09       		.uleb128 0x9
 865 028a 04       		.byte	0x4
 866 028b 26010000 		.4byte	0x126
 867 028f 03       		.uleb128 0x3
 868 0290 01040000 		.4byte	.LASF47
 869 0294 05       		.byte	0x5
 870 0295 5F       		.byte	0x5f
 871 0296 64020000 		.4byte	0x264
 872 029a 08       		.uleb128 0x8
 873 029b 04       		.byte	0x4
 874 029c 05       		.byte	0x5
 875 029d 64       		.byte	0x64
 876 029e B1020000 		.4byte	0x2b1
 877 02a2 06       		.uleb128 0x6
 878 02a3 60050000 		.4byte	.LASF27
 879 02a7 05       		.byte	0x5
 880 02a8 66       		.byte	0x66
 881 02a9 89020000 		.4byte	0x289
 882 02ad 02       		.byte	0x2
 883 02ae 23       		.byte	0x23
 884 02af 00       		.uleb128 0
 885 02b0 00       		.byte	0
 886 02b1 03       		.uleb128 0x3
 887 02b2 47030000 		.4byte	.LASF48
 888 02b6 05       		.byte	0x5
 889 02b7 69       		.byte	0x69
 890 02b8 9A020000 		.4byte	0x29a
 891 02bc 03       		.uleb128 0x3
 892 02bd 33020000 		.4byte	.LASF49
 893 02c1 07       		.byte	0x7
 894 02c2 DE       		.byte	0xde
 895 02c3 C7020000 		.4byte	0x2c7
 896 02c7 0A       		.uleb128 0xa
 897 02c8 04       		.byte	0x4
 898 02c9 03       		.uleb128 0x3
 899 02ca 80030000 		.4byte	.LASF50
 900 02ce 07       		.byte	0x7
 901 02cf E4       		.byte	0xe4
 902 02d0 AA000000 		.4byte	0xaa
 903 02d4 0B       		.uleb128 0xb
 904 02d5 42060000 		.4byte	.LASF51
 905 02d9 24       		.byte	0x24
 906 02da 07       		.byte	0x7
 907 02db 0501     		.2byte	0x105
 908 02dd 62030000 		.4byte	0x362
 909 02e1 0C       		.uleb128 0xc
ARM GAS  /tmp/ccS9r29S.s 			page 17


 910 02e2 723400   		.ascii	"r4\000"
 911 02e5 07       		.byte	0x7
 912 02e6 1801     		.2byte	0x118
 913 02e8 BC020000 		.4byte	0x2bc
 914 02ec 02       		.byte	0x2
 915 02ed 23       		.byte	0x23
 916 02ee 00       		.uleb128 0
 917 02ef 0C       		.uleb128 0xc
 918 02f0 723500   		.ascii	"r5\000"
 919 02f3 07       		.byte	0x7
 920 02f4 1901     		.2byte	0x119
 921 02f6 BC020000 		.4byte	0x2bc
 922 02fa 02       		.byte	0x2
 923 02fb 23       		.byte	0x23
 924 02fc 04       		.uleb128 0x4
 925 02fd 0C       		.uleb128 0xc
 926 02fe 723600   		.ascii	"r6\000"
 927 0301 07       		.byte	0x7
 928 0302 1A01     		.2byte	0x11a
 929 0304 BC020000 		.4byte	0x2bc
 930 0308 02       		.byte	0x2
 931 0309 23       		.byte	0x23
 932 030a 08       		.uleb128 0x8
 933 030b 0C       		.uleb128 0xc
 934 030c 723700   		.ascii	"r7\000"
 935 030f 07       		.byte	0x7
 936 0310 1B01     		.2byte	0x11b
 937 0312 BC020000 		.4byte	0x2bc
 938 0316 02       		.byte	0x2
 939 0317 23       		.byte	0x23
 940 0318 0C       		.uleb128 0xc
 941 0319 0C       		.uleb128 0xc
 942 031a 723800   		.ascii	"r8\000"
 943 031d 07       		.byte	0x7
 944 031e 1C01     		.2byte	0x11c
 945 0320 BC020000 		.4byte	0x2bc
 946 0324 02       		.byte	0x2
 947 0325 23       		.byte	0x23
 948 0326 10       		.uleb128 0x10
 949 0327 0C       		.uleb128 0xc
 950 0328 723900   		.ascii	"r9\000"
 951 032b 07       		.byte	0x7
 952 032c 1D01     		.2byte	0x11d
 953 032e BC020000 		.4byte	0x2bc
 954 0332 02       		.byte	0x2
 955 0333 23       		.byte	0x23
 956 0334 14       		.uleb128 0x14
 957 0335 0C       		.uleb128 0xc
 958 0336 72313000 		.ascii	"r10\000"
 959 033a 07       		.byte	0x7
 960 033b 1E01     		.2byte	0x11e
 961 033d BC020000 		.4byte	0x2bc
 962 0341 02       		.byte	0x2
 963 0342 23       		.byte	0x23
 964 0343 18       		.uleb128 0x18
 965 0344 0C       		.uleb128 0xc
 966 0345 72313100 		.ascii	"r11\000"
ARM GAS  /tmp/ccS9r29S.s 			page 18


 967 0349 07       		.byte	0x7
 968 034a 1F01     		.2byte	0x11f
 969 034c BC020000 		.4byte	0x2bc
 970 0350 02       		.byte	0x2
 971 0351 23       		.byte	0x23
 972 0352 1C       		.uleb128 0x1c
 973 0353 0C       		.uleb128 0xc
 974 0354 6C7200   		.ascii	"lr\000"
 975 0357 07       		.byte	0x7
 976 0358 2001     		.2byte	0x120
 977 035a BC020000 		.4byte	0x2bc
 978 035e 02       		.byte	0x2
 979 035f 23       		.byte	0x23
 980 0360 20       		.uleb128 0x20
 981 0361 00       		.byte	0
 982 0362 0B       		.uleb128 0xb
 983 0363 3A060000 		.4byte	.LASF52
 984 0367 04       		.byte	0x4
 985 0368 07       		.byte	0x7
 986 0369 2A01     		.2byte	0x12a
 987 036b 7F030000 		.4byte	0x37f
 988 036f 0C       		.uleb128 0xc
 989 0370 72313300 		.ascii	"r13\000"
 990 0374 07       		.byte	0x7
 991 0375 2B01     		.2byte	0x12b
 992 0377 7F030000 		.4byte	0x37f
 993 037b 02       		.byte	0x2
 994 037c 23       		.byte	0x23
 995 037d 00       		.uleb128 0
 996 037e 00       		.byte	0
 997 037f 09       		.uleb128 0x9
 998 0380 04       		.byte	0x4
 999 0381 D4020000 		.4byte	0x2d4
 1000 0385 0D       		.uleb128 0xd
 1001 0386 91000000 		.4byte	0x91
 1002 038a 04       		.uleb128 0x4
 1003 038b 04       		.byte	0x4
 1004 038c 07       		.byte	0x7
 1005 038d B4030000 		.4byte	.LASF53
 1006 0391 0D       		.uleb128 0xd
 1007 0392 1B010000 		.4byte	0x11b
 1008 0396 05       		.uleb128 0x5
 1009 0397 C7030000 		.4byte	.LASF54
 1010 039b 10       		.byte	0x10
 1011 039c 08       		.byte	0x8
 1012 039d 25       		.byte	0x25
 1013 039e CD030000 		.4byte	0x3cd
 1014 03a2 06       		.uleb128 0x6
 1015 03a3 53010000 		.4byte	.LASF55
 1016 03a7 08       		.byte	0x8
 1017 03a8 26       		.byte	0x26
 1018 03a9 8F020000 		.4byte	0x28f
 1019 03ad 02       		.byte	0x2
 1020 03ae 23       		.byte	0x23
 1021 03af 00       		.uleb128 0
 1022 03b0 06       		.uleb128 0x6
 1023 03b1 16070000 		.4byte	.LASF56
ARM GAS  /tmp/ccS9r29S.s 			page 19


 1024 03b5 08       		.byte	0x8
 1025 03b6 28       		.byte	0x28
 1026 03b7 89020000 		.4byte	0x289
 1027 03bb 02       		.byte	0x2
 1028 03bc 23       		.byte	0x23
 1029 03bd 08       		.uleb128 0x8
 1030 03be 06       		.uleb128 0x6
 1031 03bf 14060000 		.4byte	.LASF57
 1032 03c3 08       		.byte	0x8
 1033 03c4 2A       		.byte	0x2a
 1034 03c5 CD030000 		.4byte	0x3cd
 1035 03c9 02       		.byte	0x2
 1036 03ca 23       		.byte	0x23
 1037 03cb 0C       		.uleb128 0xc
 1038 03cc 00       		.byte	0
 1039 03cd 09       		.uleb128 0x9
 1040 03ce 04       		.byte	0x4
 1041 03cf 96030000 		.4byte	0x396
 1042 03d3 03       		.uleb128 0x3
 1043 03d4 C7030000 		.4byte	.LASF54
 1044 03d8 08       		.byte	0x8
 1045 03d9 2C       		.byte	0x2c
 1046 03da 96030000 		.4byte	0x396
 1047 03de 03       		.uleb128 0x3
 1048 03df B2060000 		.4byte	.LASF58
 1049 03e3 09       		.byte	0x9
 1050 03e4 25       		.byte	0x25
 1051 03e5 E9030000 		.4byte	0x3e9
 1052 03e9 05       		.uleb128 0x5
 1053 03ea B2060000 		.4byte	.LASF58
 1054 03ee 10       		.byte	0x10
 1055 03ef 09       		.byte	0x9
 1056 03f0 2A       		.byte	0x2a
 1057 03f1 2E040000 		.4byte	0x42e
 1058 03f5 06       		.uleb128 0x6
 1059 03f6 6F050000 		.4byte	.LASF59
 1060 03fa 09       		.byte	0x9
 1061 03fb 2B       		.byte	0x2b
 1062 03fc 2E040000 		.4byte	0x42e
 1063 0400 02       		.byte	0x2
 1064 0401 23       		.byte	0x23
 1065 0402 00       		.uleb128 0
 1066 0403 06       		.uleb128 0x6
 1067 0404 14050000 		.4byte	.LASF60
 1068 0408 09       		.byte	0x9
 1069 0409 2E       		.byte	0x2e
 1070 040a 89020000 		.4byte	0x289
 1071 040e 02       		.byte	0x2
 1072 040f 23       		.byte	0x23
 1073 0410 04       		.uleb128 0x4
 1074 0411 06       		.uleb128 0x6
 1075 0412 E7030000 		.4byte	.LASF61
 1076 0416 09       		.byte	0x9
 1077 0417 30       		.byte	0x30
 1078 0418 05010000 		.4byte	0x105
 1079 041c 02       		.byte	0x2
 1080 041d 23       		.byte	0x23
ARM GAS  /tmp/ccS9r29S.s 			page 20


 1081 041e 08       		.uleb128 0x8
 1082 041f 06       		.uleb128 0x6
 1083 0420 29050000 		.4byte	.LASF62
 1084 0424 09       		.byte	0x9
 1085 0425 33       		.byte	0x33
 1086 0426 10010000 		.4byte	0x110
 1087 042a 02       		.byte	0x2
 1088 042b 23       		.byte	0x23
 1089 042c 0C       		.uleb128 0xc
 1090 042d 00       		.byte	0
 1091 042e 09       		.uleb128 0x9
 1092 042f 04       		.byte	0x4
 1093 0430 DE030000 		.4byte	0x3de
 1094 0434 05       		.uleb128 0x5
 1095 0435 55020000 		.4byte	.LASF63
 1096 0439 04       		.byte	0x4
 1097 043a 09       		.byte	0x9
 1098 043b 3A       		.byte	0x3a
 1099 043c 4F040000 		.4byte	0x44f
 1100 0440 06       		.uleb128 0x6
 1101 0441 C7060000 		.4byte	.LASF64
 1102 0445 09       		.byte	0x9
 1103 0446 3B       		.byte	0x3b
 1104 0447 2E040000 		.4byte	0x42e
 1105 044b 02       		.byte	0x2
 1106 044c 23       		.byte	0x23
 1107 044d 00       		.uleb128 0
 1108 044e 00       		.byte	0
 1109 044f 03       		.uleb128 0x3
 1110 0450 55020000 		.4byte	.LASF63
 1111 0454 09       		.byte	0x9
 1112 0455 3E       		.byte	0x3e
 1113 0456 34040000 		.4byte	0x434
 1114 045a 0E       		.uleb128 0xe
 1115 045b 04       		.byte	0x4
 1116 045c 06       		.byte	0x6
 1117 045d 8F       		.byte	0x8f
 1118 045e 8F040000 		.4byte	0x48f
 1119 0462 0F       		.uleb128 0xf
 1120 0463 36000000 		.4byte	.LASF65
 1121 0467 06       		.byte	0x6
 1122 0468 96       		.byte	0x96
 1123 0469 FA000000 		.4byte	0xfa
 1124 046d 0F       		.uleb128 0xf
 1125 046e C8000000 		.4byte	.LASF66
 1126 0472 06       		.byte	0x6
 1127 0473 9D       		.byte	0x9d
 1128 0474 FA000000 		.4byte	0xfa
 1129 0478 0F       		.uleb128 0xf
 1130 0479 C0060000 		.4byte	.LASF67
 1131 047d 06       		.byte	0x6
 1132 047e A4       		.byte	0xa4
 1133 047f C7020000 		.4byte	0x2c7
 1134 0483 0F       		.uleb128 0xf
 1135 0484 59050000 		.4byte	.LASF68
 1136 0488 06       		.byte	0x6
 1137 0489 AB       		.byte	0xab
ARM GAS  /tmp/ccS9r29S.s 			page 21


 1138 048a 05010000 		.4byte	0x105
 1139 048e 00       		.byte	0
 1140 048f 09       		.uleb128 0x9
 1141 0490 04       		.byte	0x4
 1142 0491 95040000 		.4byte	0x495
 1143 0495 10       		.uleb128 0x10
 1144 0496 9A040000 		.4byte	0x49a
 1145 049a 04       		.uleb128 0x4
 1146 049b 01       		.byte	0x1
 1147 049c 08       		.byte	0x8
 1148 049d 08060000 		.4byte	.LASF69
 1149 04a1 09       		.uleb128 0x9
 1150 04a2 04       		.byte	0x4
 1151 04a3 C9020000 		.4byte	0x2c9
 1152 04a7 09       		.uleb128 0x9
 1153 04a8 04       		.byte	0x4
 1154 04a9 D3030000 		.4byte	0x3d3
 1155 04ad 09       		.uleb128 0x9
 1156 04ae 04       		.byte	0x4
 1157 04af B3040000 		.4byte	0x4b3
 1158 04b3 11       		.uleb128 0x11
 1159 04b4 01       		.byte	0x1
 1160 04b5 FA000000 		.4byte	0xfa
 1161 04b9 C3040000 		.4byte	0x4c3
 1162 04bd 12       		.uleb128 0x12
 1163 04be C7020000 		.4byte	0x2c7
 1164 04c2 00       		.byte	0
 1165 04c3 03       		.uleb128 0x3
 1166 04c4 73030000 		.4byte	.LASF70
 1167 04c8 0A       		.byte	0xa
 1168 04c9 30       		.byte	0x30
 1169 04ca CE040000 		.4byte	0x4ce
 1170 04ce 05       		.uleb128 0x5
 1171 04cf 73030000 		.4byte	.LASF70
 1172 04d3 24       		.byte	0x24
 1173 04d4 0A       		.byte	0xa
 1174 04d5 3E       		.byte	0x3e
 1175 04d6 4B050000 		.4byte	0x54b
 1176 04da 06       		.uleb128 0x6
 1177 04db 19010000 		.4byte	.LASF71
 1178 04df 0A       		.byte	0xa
 1179 04e0 3F       		.byte	0x3f
 1180 04e1 8F020000 		.4byte	0x28f
 1181 04e5 02       		.byte	0x2
 1182 04e6 23       		.byte	0x23
 1183 04e7 00       		.uleb128 0
 1184 04e8 06       		.uleb128 0x6
 1185 04e9 BD030000 		.4byte	.LASF72
 1186 04ed 0A       		.byte	0xa
 1187 04ee 40       		.byte	0x40
 1188 04ef 30000000 		.4byte	0x30
 1189 04f3 02       		.byte	0x2
 1190 04f4 23       		.byte	0x23
 1191 04f5 08       		.uleb128 0x8
 1192 04f6 06       		.uleb128 0x6
 1193 04f7 E3010000 		.4byte	.LASF73
 1194 04fb 0A       		.byte	0xa
ARM GAS  /tmp/ccS9r29S.s 			page 22


 1195 04fc 41       		.byte	0x41
 1196 04fd 6E050000 		.4byte	0x56e
 1197 0501 02       		.byte	0x2
 1198 0502 23       		.byte	0x23
 1199 0503 0C       		.uleb128 0xc
 1200 0504 06       		.uleb128 0x6
 1201 0505 5E060000 		.4byte	.LASF74
 1202 0509 0A       		.byte	0xa
 1203 050a 42       		.byte	0x42
 1204 050b 6E050000 		.4byte	0x56e
 1205 050f 02       		.byte	0x2
 1206 0510 23       		.byte	0x23
 1207 0511 10       		.uleb128 0x10
 1208 0512 06       		.uleb128 0x6
 1209 0513 EC010000 		.4byte	.LASF75
 1210 0517 0A       		.byte	0xa
 1211 0518 44       		.byte	0x44
 1212 0519 6E050000 		.4byte	0x56e
 1213 051d 02       		.byte	0x2
 1214 051e 23       		.byte	0x23
 1215 051f 14       		.uleb128 0x14
 1216 0520 06       		.uleb128 0x6
 1217 0521 CC040000 		.4byte	.LASF76
 1218 0525 0A       		.byte	0xa
 1219 0526 45       		.byte	0x45
 1220 0527 6E050000 		.4byte	0x56e
 1221 052b 02       		.byte	0x2
 1222 052c 23       		.byte	0x23
 1223 052d 18       		.uleb128 0x18
 1224 052e 06       		.uleb128 0x6
 1225 052f 84060000 		.4byte	.LASF77
 1226 0533 0A       		.byte	0xa
 1227 0534 46       		.byte	0x46
 1228 0535 4B050000 		.4byte	0x54b
 1229 0539 02       		.byte	0x2
 1230 053a 23       		.byte	0x23
 1231 053b 1C       		.uleb128 0x1c
 1232 053c 06       		.uleb128 0x6
 1233 053d 07070000 		.4byte	.LASF78
 1234 0541 0A       		.byte	0xa
 1235 0542 47       		.byte	0x47
 1236 0543 C7020000 		.4byte	0x2c7
 1237 0547 02       		.byte	0x2
 1238 0548 23       		.byte	0x23
 1239 0549 20       		.uleb128 0x20
 1240 054a 00       		.byte	0
 1241 054b 03       		.uleb128 0x3
 1242 054c 69030000 		.4byte	.LASF79
 1243 0550 0A       		.byte	0xa
 1244 0551 33       		.byte	0x33
 1245 0552 56050000 		.4byte	0x556
 1246 0556 09       		.uleb128 0x9
 1247 0557 04       		.byte	0x4
 1248 0558 5C050000 		.4byte	0x55c
 1249 055c 13       		.uleb128 0x13
 1250 055d 01       		.byte	0x1
 1251 055e 68050000 		.4byte	0x568
ARM GAS  /tmp/ccS9r29S.s 			page 23


 1252 0562 12       		.uleb128 0x12
 1253 0563 68050000 		.4byte	0x568
 1254 0567 00       		.byte	0
 1255 0568 09       		.uleb128 0x9
 1256 0569 04       		.byte	0x4
 1257 056a C3040000 		.4byte	0x4c3
 1258 056e 09       		.uleb128 0x9
 1259 056f 04       		.byte	0x4
 1260 0570 49000000 		.4byte	0x49
 1261 0574 03       		.uleb128 0x3
 1262 0575 9D060000 		.4byte	.LASF80
 1263 0579 0A       		.byte	0xa
 1264 057a 7B       		.byte	0x7b
 1265 057b C3040000 		.4byte	0x4c3
 1266 057f 03       		.uleb128 0x3
 1267 0580 46000000 		.4byte	.LASF81
 1268 0584 0A       		.byte	0xa
 1269 0585 EE       		.byte	0xee
 1270 0586 C3040000 		.4byte	0x4c3
 1271 058a 11       		.uleb128 0x11
 1272 058b 01       		.byte	0x1
 1273 058c 30000000 		.4byte	0x30
 1274 0590 A4050000 		.4byte	0x5a4
 1275 0594 12       		.uleb128 0x12
 1276 0595 C7020000 		.4byte	0x2c7
 1277 0599 12       		.uleb128 0x12
 1278 059a A4050000 		.4byte	0x5a4
 1279 059e 12       		.uleb128 0x12
 1280 059f 30000000 		.4byte	0x30
 1281 05a3 00       		.byte	0
 1282 05a4 09       		.uleb128 0x9
 1283 05a5 04       		.byte	0x4
 1284 05a6 AA050000 		.4byte	0x5aa
 1285 05aa 10       		.uleb128 0x10
 1286 05ab 49000000 		.4byte	0x49
 1287 05af 09       		.uleb128 0x9
 1288 05b0 04       		.byte	0x4
 1289 05b1 8A050000 		.4byte	0x58a
 1290 05b5 11       		.uleb128 0x11
 1291 05b6 01       		.byte	0x1
 1292 05b7 30000000 		.4byte	0x30
 1293 05bb CF050000 		.4byte	0x5cf
 1294 05bf 12       		.uleb128 0x12
 1295 05c0 C7020000 		.4byte	0x2c7
 1296 05c4 12       		.uleb128 0x12
 1297 05c5 6E050000 		.4byte	0x56e
 1298 05c9 12       		.uleb128 0x12
 1299 05ca 30000000 		.4byte	0x30
 1300 05ce 00       		.byte	0
 1301 05cf 09       		.uleb128 0x9
 1302 05d0 04       		.byte	0x4
 1303 05d1 B5050000 		.4byte	0x5b5
 1304 05d5 11       		.uleb128 0x11
 1305 05d6 01       		.byte	0x1
 1306 05d7 FA000000 		.4byte	0xfa
 1307 05db EA050000 		.4byte	0x5ea
 1308 05df 12       		.uleb128 0x12
ARM GAS  /tmp/ccS9r29S.s 			page 24


 1309 05e0 C7020000 		.4byte	0x2c7
 1310 05e4 12       		.uleb128 0x12
 1311 05e5 49000000 		.4byte	0x49
 1312 05e9 00       		.byte	0
 1313 05ea 09       		.uleb128 0x9
 1314 05eb 04       		.byte	0x4
 1315 05ec D5050000 		.4byte	0x5d5
 1316 05f0 0D       		.uleb128 0xd
 1317 05f1 6D000000 		.4byte	0x6d
 1318 05f5 0D       		.uleb128 0xd
 1319 05f6 7F000000 		.4byte	0x7f
 1320 05fa 14       		.uleb128 0x14
 1321 05fb 10       		.byte	0x10
 1322 05fc 0B       		.byte	0xb
 1323 05fd 2D03     		.2byte	0x32d
 1324 05ff 40060000 		.4byte	0x640
 1325 0603 0C       		.uleb128 0xc
 1326 0604 43435200 		.ascii	"CCR\000"
 1327 0608 0B       		.byte	0xb
 1328 0609 2F03     		.2byte	0x32f
 1329 060b 85030000 		.4byte	0x385
 1330 060f 02       		.byte	0x2
 1331 0610 23       		.byte	0x23
 1332 0611 00       		.uleb128 0
 1333 0612 15       		.uleb128 0x15
 1334 0613 79060000 		.4byte	.LASF82
 1335 0617 0B       		.byte	0xb
 1336 0618 3003     		.2byte	0x330
 1337 061a 85030000 		.4byte	0x385
 1338 061e 02       		.byte	0x2
 1339 061f 23       		.byte	0x23
 1340 0620 04       		.uleb128 0x4
 1341 0621 15       		.uleb128 0x15
 1342 0622 9D020000 		.4byte	.LASF83
 1343 0626 0B       		.byte	0xb
 1344 0627 3103     		.2byte	0x331
 1345 0629 85030000 		.4byte	0x385
 1346 062d 02       		.byte	0x2
 1347 062e 23       		.byte	0x23
 1348 062f 08       		.uleb128 0x8
 1349 0630 15       		.uleb128 0x15
 1350 0631 7F060000 		.4byte	.LASF84
 1351 0635 0B       		.byte	0xb
 1352 0636 3203     		.2byte	0x332
 1353 0638 85030000 		.4byte	0x385
 1354 063c 02       		.byte	0x2
 1355 063d 23       		.byte	0x23
 1356 063e 0C       		.uleb128 0xc
 1357 063f 00       		.byte	0
 1358 0640 16       		.uleb128 0x16
 1359 0641 43040000 		.4byte	.LASF85
 1360 0645 0B       		.byte	0xb
 1361 0646 3303     		.2byte	0x333
 1362 0648 FA050000 		.4byte	0x5fa
 1363 064c 14       		.uleb128 0x14
 1364 064d 24       		.byte	0x24
 1365 064e 0B       		.byte	0xb
ARM GAS  /tmp/ccS9r29S.s 			page 25


 1366 064f 1304     		.2byte	0x413
 1367 0651 63070000 		.4byte	0x763
 1368 0655 0C       		.uleb128 0xc
 1369 0656 43523100 		.ascii	"CR1\000"
 1370 065a 0B       		.byte	0xb
 1371 065b 1504     		.2byte	0x415
 1372 065d F0050000 		.4byte	0x5f0
 1373 0661 02       		.byte	0x2
 1374 0662 23       		.byte	0x23
 1375 0663 00       		.uleb128 0
 1376 0664 15       		.uleb128 0x15
 1377 0665 6D040000 		.4byte	.LASF86
 1378 0669 0B       		.byte	0xb
 1379 066a 1604     		.2byte	0x416
 1380 066c 6D000000 		.4byte	0x6d
 1381 0670 02       		.byte	0x2
 1382 0671 23       		.byte	0x23
 1383 0672 02       		.uleb128 0x2
 1384 0673 0C       		.uleb128 0xc
 1385 0674 43523200 		.ascii	"CR2\000"
 1386 0678 0B       		.byte	0xb
 1387 0679 1704     		.2byte	0x417
 1388 067b F0050000 		.4byte	0x5f0
 1389 067f 02       		.byte	0x2
 1390 0680 23       		.byte	0x23
 1391 0681 04       		.uleb128 0x4
 1392 0682 15       		.uleb128 0x15
 1393 0683 77040000 		.4byte	.LASF87
 1394 0687 0B       		.byte	0xb
 1395 0688 1804     		.2byte	0x418
 1396 068a 6D000000 		.4byte	0x6d
 1397 068e 02       		.byte	0x2
 1398 068f 23       		.byte	0x23
 1399 0690 06       		.uleb128 0x6
 1400 0691 15       		.uleb128 0x15
 1401 0692 A8060000 		.4byte	.LASF88
 1402 0696 0B       		.byte	0xb
 1403 0697 1904     		.2byte	0x419
 1404 0699 F0050000 		.4byte	0x5f0
 1405 069d 02       		.byte	0x2
 1406 069e 23       		.byte	0x23
 1407 069f 08       		.uleb128 0x8
 1408 06a0 15       		.uleb128 0x15
 1409 06a1 81040000 		.4byte	.LASF89
 1410 06a5 0B       		.byte	0xb
 1411 06a6 1A04     		.2byte	0x41a
 1412 06a8 6D000000 		.4byte	0x6d
 1413 06ac 02       		.byte	0x2
 1414 06ad 23       		.byte	0x23
 1415 06ae 0A       		.uleb128 0xa
 1416 06af 15       		.uleb128 0x15
 1417 06b0 AD060000 		.4byte	.LASF90
 1418 06b4 0B       		.byte	0xb
 1419 06b5 1B04     		.2byte	0x41b
 1420 06b7 F0050000 		.4byte	0x5f0
 1421 06bb 02       		.byte	0x2
 1422 06bc 23       		.byte	0x23
ARM GAS  /tmp/ccS9r29S.s 			page 26


 1423 06bd 0C       		.uleb128 0xc
 1424 06be 15       		.uleb128 0x15
 1425 06bf 8B040000 		.4byte	.LASF91
 1426 06c3 0B       		.byte	0xb
 1427 06c4 1C04     		.2byte	0x41c
 1428 06c6 6D000000 		.4byte	0x6d
 1429 06ca 02       		.byte	0x2
 1430 06cb 23       		.byte	0x23
 1431 06cc 0E       		.uleb128 0xe
 1432 06cd 0C       		.uleb128 0xc
 1433 06ce 445200   		.ascii	"DR\000"
 1434 06d1 0B       		.byte	0xb
 1435 06d2 1D04     		.2byte	0x41d
 1436 06d4 F0050000 		.4byte	0x5f0
 1437 06d8 02       		.byte	0x2
 1438 06d9 23       		.byte	0x23
 1439 06da 10       		.uleb128 0x10
 1440 06db 15       		.uleb128 0x15
 1441 06dc 95040000 		.4byte	.LASF92
 1442 06e0 0B       		.byte	0xb
 1443 06e1 1E04     		.2byte	0x41e
 1444 06e3 6D000000 		.4byte	0x6d
 1445 06e7 02       		.byte	0x2
 1446 06e8 23       		.byte	0x23
 1447 06e9 12       		.uleb128 0x12
 1448 06ea 0C       		.uleb128 0xc
 1449 06eb 53523100 		.ascii	"SR1\000"
 1450 06ef 0B       		.byte	0xb
 1451 06f0 1F04     		.2byte	0x41f
 1452 06f2 F0050000 		.4byte	0x5f0
 1453 06f6 02       		.byte	0x2
 1454 06f7 23       		.byte	0x23
 1455 06f8 14       		.uleb128 0x14
 1456 06f9 15       		.uleb128 0x15
 1457 06fa B9050000 		.4byte	.LASF93
 1458 06fe 0B       		.byte	0xb
 1459 06ff 2004     		.2byte	0x420
 1460 0701 6D000000 		.4byte	0x6d
 1461 0705 02       		.byte	0x2
 1462 0706 23       		.byte	0x23
 1463 0707 16       		.uleb128 0x16
 1464 0708 0C       		.uleb128 0xc
 1465 0709 53523200 		.ascii	"SR2\000"
 1466 070d 0B       		.byte	0xb
 1467 070e 2104     		.2byte	0x421
 1468 0710 F0050000 		.4byte	0x5f0
 1469 0714 02       		.byte	0x2
 1470 0715 23       		.byte	0x23
 1471 0716 18       		.uleb128 0x18
 1472 0717 15       		.uleb128 0x15
 1473 0718 A6040000 		.4byte	.LASF94
 1474 071c 0B       		.byte	0xb
 1475 071d 2204     		.2byte	0x422
 1476 071f 6D000000 		.4byte	0x6d
 1477 0723 02       		.byte	0x2
 1478 0724 23       		.byte	0x23
 1479 0725 1A       		.uleb128 0x1a
ARM GAS  /tmp/ccS9r29S.s 			page 27


 1480 0726 0C       		.uleb128 0xc
 1481 0727 43435200 		.ascii	"CCR\000"
 1482 072b 0B       		.byte	0xb
 1483 072c 2304     		.2byte	0x423
 1484 072e F0050000 		.4byte	0x5f0
 1485 0732 02       		.byte	0x2
 1486 0733 23       		.byte	0x23
 1487 0734 1C       		.uleb128 0x1c
 1488 0735 15       		.uleb128 0x15
 1489 0736 B0040000 		.4byte	.LASF95
 1490 073a 0B       		.byte	0xb
 1491 073b 2404     		.2byte	0x424
 1492 073d 6D000000 		.4byte	0x6d
 1493 0741 02       		.byte	0x2
 1494 0742 23       		.byte	0x23
 1495 0743 1E       		.uleb128 0x1e
 1496 0744 15       		.uleb128 0x15
 1497 0745 9C000000 		.4byte	.LASF96
 1498 0749 0B       		.byte	0xb
 1499 074a 2504     		.2byte	0x425
 1500 074c F0050000 		.4byte	0x5f0
 1501 0750 02       		.byte	0x2
 1502 0751 23       		.byte	0x23
 1503 0752 20       		.uleb128 0x20
 1504 0753 15       		.uleb128 0x15
 1505 0754 BA040000 		.4byte	.LASF97
 1506 0758 0B       		.byte	0xb
 1507 0759 2604     		.2byte	0x426
 1508 075b 6D000000 		.4byte	0x6d
 1509 075f 02       		.byte	0x2
 1510 0760 23       		.byte	0x23
 1511 0761 22       		.uleb128 0x22
 1512 0762 00       		.byte	0
 1513 0763 16       		.uleb128 0x16
 1514 0764 EF060000 		.4byte	.LASF98
 1515 0768 0B       		.byte	0xb
 1516 0769 2704     		.2byte	0x427
 1517 076b 4C060000 		.4byte	0x64c
 1518 076f 14       		.uleb128 0x14
 1519 0770 1C       		.byte	0x1c
 1520 0771 0B       		.byte	0xb
 1521 0772 E104     		.2byte	0x4e1
 1522 0774 49080000 		.4byte	0x849
 1523 0778 0C       		.uleb128 0xc
 1524 0779 535200   		.ascii	"SR\000"
 1525 077c 0B       		.byte	0xb
 1526 077d E304     		.2byte	0x4e3
 1527 077f F0050000 		.4byte	0x5f0
 1528 0783 02       		.byte	0x2
 1529 0784 23       		.byte	0x23
 1530 0785 00       		.uleb128 0
 1531 0786 15       		.uleb128 0x15
 1532 0787 6D040000 		.4byte	.LASF86
 1533 078b 0B       		.byte	0xb
 1534 078c E404     		.2byte	0x4e4
 1535 078e 6D000000 		.4byte	0x6d
 1536 0792 02       		.byte	0x2
ARM GAS  /tmp/ccS9r29S.s 			page 28


 1537 0793 23       		.byte	0x23
 1538 0794 02       		.uleb128 0x2
 1539 0795 0C       		.uleb128 0xc
 1540 0796 445200   		.ascii	"DR\000"
 1541 0799 0B       		.byte	0xb
 1542 079a E504     		.2byte	0x4e5
 1543 079c F0050000 		.4byte	0x5f0
 1544 07a0 02       		.byte	0x2
 1545 07a1 23       		.byte	0x23
 1546 07a2 04       		.uleb128 0x4
 1547 07a3 15       		.uleb128 0x15
 1548 07a4 77040000 		.4byte	.LASF87
 1549 07a8 0B       		.byte	0xb
 1550 07a9 E604     		.2byte	0x4e6
 1551 07ab 6D000000 		.4byte	0x6d
 1552 07af 02       		.byte	0x2
 1553 07b0 23       		.byte	0x23
 1554 07b1 06       		.uleb128 0x6
 1555 07b2 0C       		.uleb128 0xc
 1556 07b3 42525200 		.ascii	"BRR\000"
 1557 07b7 0B       		.byte	0xb
 1558 07b8 E704     		.2byte	0x4e7
 1559 07ba F0050000 		.4byte	0x5f0
 1560 07be 02       		.byte	0x2
 1561 07bf 23       		.byte	0x23
 1562 07c0 08       		.uleb128 0x8
 1563 07c1 15       		.uleb128 0x15
 1564 07c2 81040000 		.4byte	.LASF89
 1565 07c6 0B       		.byte	0xb
 1566 07c7 E804     		.2byte	0x4e8
 1567 07c9 6D000000 		.4byte	0x6d
 1568 07cd 02       		.byte	0x2
 1569 07ce 23       		.byte	0x23
 1570 07cf 0A       		.uleb128 0xa
 1571 07d0 0C       		.uleb128 0xc
 1572 07d1 43523100 		.ascii	"CR1\000"
 1573 07d5 0B       		.byte	0xb
 1574 07d6 E904     		.2byte	0x4e9
 1575 07d8 F0050000 		.4byte	0x5f0
 1576 07dc 02       		.byte	0x2
 1577 07dd 23       		.byte	0x23
 1578 07de 0C       		.uleb128 0xc
 1579 07df 15       		.uleb128 0x15
 1580 07e0 8B040000 		.4byte	.LASF91
 1581 07e4 0B       		.byte	0xb
 1582 07e5 EA04     		.2byte	0x4ea
 1583 07e7 6D000000 		.4byte	0x6d
 1584 07eb 02       		.byte	0x2
 1585 07ec 23       		.byte	0x23
 1586 07ed 0E       		.uleb128 0xe
 1587 07ee 0C       		.uleb128 0xc
 1588 07ef 43523200 		.ascii	"CR2\000"
 1589 07f3 0B       		.byte	0xb
 1590 07f4 EB04     		.2byte	0x4eb
 1591 07f6 F0050000 		.4byte	0x5f0
 1592 07fa 02       		.byte	0x2
 1593 07fb 23       		.byte	0x23
ARM GAS  /tmp/ccS9r29S.s 			page 29


 1594 07fc 10       		.uleb128 0x10
 1595 07fd 15       		.uleb128 0x15
 1596 07fe 95040000 		.4byte	.LASF92
 1597 0802 0B       		.byte	0xb
 1598 0803 EC04     		.2byte	0x4ec
 1599 0805 6D000000 		.4byte	0x6d
 1600 0809 02       		.byte	0x2
 1601 080a 23       		.byte	0x23
 1602 080b 12       		.uleb128 0x12
 1603 080c 0C       		.uleb128 0xc
 1604 080d 43523300 		.ascii	"CR3\000"
 1605 0811 0B       		.byte	0xb
 1606 0812 ED04     		.2byte	0x4ed
 1607 0814 F0050000 		.4byte	0x5f0
 1608 0818 02       		.byte	0x2
 1609 0819 23       		.byte	0x23
 1610 081a 14       		.uleb128 0x14
 1611 081b 15       		.uleb128 0x15
 1612 081c B9050000 		.4byte	.LASF93
 1613 0820 0B       		.byte	0xb
 1614 0821 EE04     		.2byte	0x4ee
 1615 0823 6D000000 		.4byte	0x6d
 1616 0827 02       		.byte	0x2
 1617 0828 23       		.byte	0x23
 1618 0829 16       		.uleb128 0x16
 1619 082a 15       		.uleb128 0x15
 1620 082b 46010000 		.4byte	.LASF99
 1621 082f 0B       		.byte	0xb
 1622 0830 EF04     		.2byte	0x4ef
 1623 0832 F0050000 		.4byte	0x5f0
 1624 0836 02       		.byte	0x2
 1625 0837 23       		.byte	0x23
 1626 0838 18       		.uleb128 0x18
 1627 0839 15       		.uleb128 0x15
 1628 083a A6040000 		.4byte	.LASF94
 1629 083e 0B       		.byte	0xb
 1630 083f F004     		.2byte	0x4f0
 1631 0841 6D000000 		.4byte	0x6d
 1632 0845 02       		.byte	0x2
 1633 0846 23       		.byte	0x23
 1634 0847 1A       		.uleb128 0x1a
 1635 0848 00       		.byte	0
 1636 0849 16       		.uleb128 0x16
 1637 084a 2A030000 		.4byte	.LASF100
 1638 084e 0B       		.byte	0xb
 1639 084f F104     		.2byte	0x4f1
 1640 0851 6F070000 		.4byte	0x76f
 1641 0855 08       		.uleb128 0x8
 1642 0856 0C       		.byte	0xc
 1643 0857 0C       		.byte	0xc
 1644 0858 C1       		.byte	0xc1
 1645 0859 A4080000 		.4byte	0x8a4
 1646 085d 06       		.uleb128 0x6
 1647 085e 91050000 		.4byte	.LASF101
 1648 0862 0C       		.byte	0xc
 1649 0863 C2       		.byte	0xc2
 1650 0864 A4080000 		.4byte	0x8a4
ARM GAS  /tmp/ccS9r29S.s 			page 30


 1651 0868 02       		.byte	0x2
 1652 0869 23       		.byte	0x23
 1653 086a 00       		.uleb128 0
 1654 086b 06       		.uleb128 0x6
 1655 086c 60040000 		.4byte	.LASF102
 1656 0870 0C       		.byte	0xc
 1657 0871 C3       		.byte	0xc3
 1658 0872 AA080000 		.4byte	0x8aa
 1659 0876 02       		.byte	0x2
 1660 0877 23       		.byte	0x23
 1661 0878 04       		.uleb128 0x4
 1662 0879 06       		.uleb128 0x6
 1663 087a CB020000 		.4byte	.LASF103
 1664 087e 0C       		.byte	0xc
 1665 087f C4       		.byte	0xc4
 1666 0880 49000000 		.4byte	0x49
 1667 0884 02       		.byte	0x2
 1668 0885 23       		.byte	0x23
 1669 0886 08       		.uleb128 0x8
 1670 0887 06       		.uleb128 0x6
 1671 0888 3C020000 		.4byte	.LASF104
 1672 088c 0C       		.byte	0xc
 1673 088d C6       		.byte	0xc6
 1674 088e 49000000 		.4byte	0x49
 1675 0892 02       		.byte	0x2
 1676 0893 23       		.byte	0x23
 1677 0894 09       		.uleb128 0x9
 1678 0895 06       		.uleb128 0x6
 1679 0896 D1000000 		.4byte	.LASF105
 1680 089a 0C       		.byte	0xc
 1681 089b C7       		.byte	0xc7
 1682 089c 49000000 		.4byte	0x49
 1683 08a0 02       		.byte	0x2
 1684 08a1 23       		.byte	0x23
 1685 08a2 0A       		.uleb128 0xa
 1686 08a3 00       		.byte	0
 1687 08a4 09       		.uleb128 0x9
 1688 08a5 04       		.byte	0x4
 1689 08a6 40060000 		.4byte	0x640
 1690 08aa 09       		.uleb128 0x9
 1691 08ab 04       		.byte	0x4
 1692 08ac 85030000 		.4byte	0x385
 1693 08b0 03       		.uleb128 0x3
 1694 08b1 01050000 		.4byte	.LASF106
 1695 08b5 0C       		.byte	0xc
 1696 08b6 C8       		.byte	0xc8
 1697 08b7 55080000 		.4byte	0x855
 1698 08bb 11       		.uleb128 0x11
 1699 08bc 01       		.byte	0x1
 1700 08bd FA000000 		.4byte	0xfa
 1701 08c1 D5080000 		.4byte	0x8d5
 1702 08c5 12       		.uleb128 0x12
 1703 08c6 C7020000 		.4byte	0x2c7
 1704 08ca 12       		.uleb128 0x12
 1705 08cb 49000000 		.4byte	0x49
 1706 08cf 12       		.uleb128 0x12
 1707 08d0 1B010000 		.4byte	0x11b
ARM GAS  /tmp/ccS9r29S.s 			page 31


 1708 08d4 00       		.byte	0
 1709 08d5 09       		.uleb128 0x9
 1710 08d6 04       		.byte	0x4
 1711 08d7 BB080000 		.4byte	0x8bb
 1712 08db 11       		.uleb128 0x11
 1713 08dc 01       		.byte	0x1
 1714 08dd FA000000 		.4byte	0xfa
 1715 08e1 F0080000 		.4byte	0x8f0
 1716 08e5 12       		.uleb128 0x12
 1717 08e6 C7020000 		.4byte	0x2c7
 1718 08ea 12       		.uleb128 0x12
 1719 08eb 1B010000 		.4byte	0x11b
 1720 08ef 00       		.byte	0
 1721 08f0 09       		.uleb128 0x9
 1722 08f1 04       		.byte	0x4
 1723 08f2 DB080000 		.4byte	0x8db
 1724 08f6 11       		.uleb128 0x11
 1725 08f7 01       		.byte	0x1
 1726 08f8 30000000 		.4byte	0x30
 1727 08fc 15090000 		.4byte	0x915
 1728 0900 12       		.uleb128 0x12
 1729 0901 C7020000 		.4byte	0x2c7
 1730 0905 12       		.uleb128 0x12
 1731 0906 A4050000 		.4byte	0x5a4
 1732 090a 12       		.uleb128 0x12
 1733 090b 30000000 		.4byte	0x30
 1734 090f 12       		.uleb128 0x12
 1735 0910 1B010000 		.4byte	0x11b
 1736 0914 00       		.byte	0
 1737 0915 09       		.uleb128 0x9
 1738 0916 04       		.byte	0x4
 1739 0917 F6080000 		.4byte	0x8f6
 1740 091b 11       		.uleb128 0x11
 1741 091c 01       		.byte	0x1
 1742 091d 30000000 		.4byte	0x30
 1743 0921 3A090000 		.4byte	0x93a
 1744 0925 12       		.uleb128 0x12
 1745 0926 C7020000 		.4byte	0x2c7
 1746 092a 12       		.uleb128 0x12
 1747 092b 6E050000 		.4byte	0x56e
 1748 092f 12       		.uleb128 0x12
 1749 0930 30000000 		.4byte	0x30
 1750 0934 12       		.uleb128 0x12
 1751 0935 1B010000 		.4byte	0x11b
 1752 0939 00       		.byte	0
 1753 093a 09       		.uleb128 0x9
 1754 093b 04       		.byte	0x4
 1755 093c 1B090000 		.4byte	0x91b
 1756 0940 17       		.uleb128 0x17
 1757 0941 01       		.byte	0x1
 1758 0942 0D       		.byte	0xd
 1759 0943 53       		.byte	0x53
 1760 0944 6D090000 		.4byte	0x96d
 1761 0948 18       		.uleb128 0x18
 1762 0949 3C050000 		.4byte	.LASF107
 1763 094d 00       		.sleb128 0
 1764 094e 18       		.uleb128 0x18
ARM GAS  /tmp/ccS9r29S.s 			page 32


 1765 094f 96030000 		.4byte	.LASF108
 1766 0953 01       		.sleb128 1
 1767 0954 18       		.uleb128 0x18
 1768 0955 30060000 		.4byte	.LASF109
 1769 0959 02       		.sleb128 2
 1770 095a 18       		.uleb128 0x18
 1771 095b FB010000 		.4byte	.LASF110
 1772 095f 03       		.sleb128 3
 1773 0960 18       		.uleb128 0x18
 1774 0961 E3050000 		.4byte	.LASF111
 1775 0965 04       		.sleb128 4
 1776 0966 18       		.uleb128 0x18
 1777 0967 99050000 		.4byte	.LASF112
 1778 096b 05       		.sleb128 5
 1779 096c 00       		.byte	0
 1780 096d 03       		.uleb128 0x3
 1781 096e 24000000 		.4byte	.LASF113
 1782 0972 0D       		.byte	0xd
 1783 0973 5A       		.byte	0x5a
 1784 0974 40090000 		.4byte	0x940
 1785 0978 16       		.uleb128 0x16
 1786 0979 AE010000 		.4byte	.LASF114
 1787 097d 0E       		.byte	0xe
 1788 097e 3501     		.2byte	0x135
 1789 0980 6D000000 		.4byte	0x6d
 1790 0984 16       		.uleb128 0x16
 1791 0985 D4040000 		.4byte	.LASF115
 1792 0989 0E       		.byte	0xe
 1793 098a 3A01     		.2byte	0x13a
 1794 098c 91000000 		.4byte	0x91
 1795 0990 19       		.uleb128 0x19
 1796 0991 01       		.byte	0x1
 1797 0992 0E       		.byte	0xe
 1798 0993 3F01     		.2byte	0x13f
 1799 0995 AC090000 		.4byte	0x9ac
 1800 0999 18       		.uleb128 0x18
 1801 099a 23040000 		.4byte	.LASF116
 1802 099e 01       		.sleb128 1
 1803 099f 18       		.uleb128 0x18
 1804 09a0 E0020000 		.4byte	.LASF117
 1805 09a4 02       		.sleb128 2
 1806 09a5 18       		.uleb128 0x18
 1807 09a6 21020000 		.4byte	.LASF118
 1808 09aa 03       		.sleb128 3
 1809 09ab 00       		.byte	0
 1810 09ac 16       		.uleb128 0x16
 1811 09ad FB060000 		.4byte	.LASF119
 1812 09b1 0E       		.byte	0xe
 1813 09b2 4301     		.2byte	0x143
 1814 09b4 90090000 		.4byte	0x990
 1815 09b8 19       		.uleb128 0x19
 1816 09b9 01       		.byte	0x1
 1817 09ba 0E       		.byte	0xe
 1818 09bb 4801     		.2byte	0x148
 1819 09bd D4090000 		.4byte	0x9d4
 1820 09c1 18       		.uleb128 0x18
 1821 09c2 00000000 		.4byte	.LASF120
ARM GAS  /tmp/ccS9r29S.s 			page 33


 1822 09c6 01       		.sleb128 1
 1823 09c7 18       		.uleb128 0x18
 1824 09c8 7F050000 		.4byte	.LASF121
 1825 09cc 02       		.sleb128 2
 1826 09cd 18       		.uleb128 0x18
 1827 09ce 2E040000 		.4byte	.LASF122
 1828 09d2 03       		.sleb128 3
 1829 09d3 00       		.byte	0
 1830 09d4 16       		.uleb128 0x16
 1831 09d5 15000000 		.4byte	.LASF123
 1832 09d9 0E       		.byte	0xe
 1833 09da 4C01     		.2byte	0x14c
 1834 09dc B8090000 		.4byte	0x9b8
 1835 09e0 14       		.uleb128 0x14
 1836 09e1 0C       		.byte	0xc
 1837 09e2 0E       		.byte	0xe
 1838 09e3 5101     		.2byte	0x151
 1839 09e5 170A0000 		.4byte	0xa17
 1840 09e9 15       		.uleb128 0x15
 1841 09ea 46020000 		.4byte	.LASF124
 1842 09ee 0E       		.byte	0xe
 1843 09ef 5201     		.2byte	0x152
 1844 09f1 AC090000 		.4byte	0x9ac
 1845 09f5 02       		.byte	0x2
 1846 09f6 23       		.byte	0x23
 1847 09f7 00       		.uleb128 0
 1848 09f8 15       		.uleb128 0x15
 1849 09f9 11030000 		.4byte	.LASF125
 1850 09fd 0E       		.byte	0xe
 1851 09fe 5301     		.2byte	0x153
 1852 0a00 91000000 		.4byte	0x91
 1853 0a04 02       		.byte	0x2
 1854 0a05 23       		.byte	0x23
 1855 0a06 04       		.uleb128 0x4
 1856 0a07 15       		.uleb128 0x15
 1857 0a08 D4030000 		.4byte	.LASF126
 1858 0a0c 0E       		.byte	0xe
 1859 0a0d 5601     		.2byte	0x156
 1860 0a0f D4090000 		.4byte	0x9d4
 1861 0a13 02       		.byte	0x2
 1862 0a14 23       		.byte	0x23
 1863 0a15 08       		.uleb128 0x8
 1864 0a16 00       		.byte	0
 1865 0a17 16       		.uleb128 0x16
 1866 0a18 F7030000 		.4byte	.LASF127
 1867 0a1c 0E       		.byte	0xe
 1868 0a1d 5801     		.2byte	0x158
 1869 0a1f E0090000 		.4byte	0x9e0
 1870 0a23 16       		.uleb128 0x16
 1871 0a24 07030000 		.4byte	.LASF128
 1872 0a28 0E       		.byte	0xe
 1873 0a29 5D01     		.2byte	0x15d
 1874 0a2b 2F0A0000 		.4byte	0xa2f
 1875 0a2f 0B       		.uleb128 0xb
 1876 0a30 07030000 		.4byte	.LASF128
 1877 0a34 38       		.byte	0x38
 1878 0a35 0E       		.byte	0xe
ARM GAS  /tmp/ccS9r29S.s 			page 34


 1879 0a36 6201     		.2byte	0x162
 1880 0a38 E20A0000 		.4byte	0xae2
 1881 0a3c 15       		.uleb128 0x15
 1882 0a3d B8010000 		.4byte	.LASF129
 1883 0a41 0E       		.byte	0xe
 1884 0a42 6601     		.2byte	0x166
 1885 0a44 6D090000 		.4byte	0x96d
 1886 0a48 02       		.byte	0x2
 1887 0a49 23       		.byte	0x23
 1888 0a4a 00       		.uleb128 0
 1889 0a4b 15       		.uleb128 0x15
 1890 0a4c 0D060000 		.4byte	.LASF130
 1891 0a50 0E       		.byte	0xe
 1892 0a51 6A01     		.2byte	0x16a
 1893 0a53 E20A0000 		.4byte	0xae2
 1894 0a57 02       		.byte	0x2
 1895 0a58 23       		.byte	0x23
 1896 0a59 04       		.uleb128 0x4
 1897 0a5a 15       		.uleb128 0x15
 1898 0a5b CD030000 		.4byte	.LASF131
 1899 0a5f 0E       		.byte	0xe
 1900 0a60 6E01     		.2byte	0x16e
 1901 0a62 84090000 		.4byte	0x984
 1902 0a66 02       		.byte	0x2
 1903 0a67 23       		.byte	0x23
 1904 0a68 08       		.uleb128 0x8
 1905 0a69 15       		.uleb128 0x15
 1906 0a6a DF040000 		.4byte	.LASF132
 1907 0a6e 0E       		.byte	0xe
 1908 0a6f 7401     		.2byte	0x174
 1909 0a71 D3030000 		.4byte	0x3d3
 1910 0a75 02       		.byte	0x2
 1911 0a76 23       		.byte	0x23
 1912 0a77 0C       		.uleb128 0xc
 1913 0a78 15       		.uleb128 0x15
 1914 0a79 D5010000 		.4byte	.LASF133
 1915 0a7d 0E       		.byte	0xe
 1916 0a7e 8001     		.2byte	0x180
 1917 0a80 89020000 		.4byte	0x289
 1918 0a84 02       		.byte	0x2
 1919 0a85 23       		.byte	0x23
 1920 0a86 1C       		.uleb128 0x1c
 1921 0a87 15       		.uleb128 0x15
 1922 0a88 B9000000 		.4byte	.LASF134
 1923 0a8c 0E       		.byte	0xe
 1924 0a8d 8401     		.2byte	0x184
 1925 0a8f 78090000 		.4byte	0x978
 1926 0a93 02       		.byte	0x2
 1927 0a94 23       		.byte	0x23
 1928 0a95 20       		.uleb128 0x20
 1929 0a96 15       		.uleb128 0x15
 1930 0a97 11020000 		.4byte	.LASF135
 1931 0a9b 0E       		.byte	0xe
 1932 0a9c 8801     		.2byte	0x188
 1933 0a9e 91000000 		.4byte	0x91
 1934 0aa2 02       		.byte	0x2
 1935 0aa3 23       		.byte	0x23
ARM GAS  /tmp/ccS9r29S.s 			page 35


 1936 0aa4 24       		.uleb128 0x24
 1937 0aa5 15       		.uleb128 0x15
 1938 0aa6 0E040000 		.4byte	.LASF136
 1939 0aaa 0E       		.byte	0xe
 1940 0aab 8C01     		.2byte	0x18c
 1941 0aad 91000000 		.4byte	0x91
 1942 0ab1 02       		.byte	0x2
 1943 0ab2 23       		.byte	0x23
 1944 0ab3 28       		.uleb128 0x28
 1945 0ab4 15       		.uleb128 0x15
 1946 0ab5 0F000000 		.4byte	.LASF137
 1947 0ab9 0E       		.byte	0xe
 1948 0aba 9001     		.2byte	0x190
 1949 0abc ED0A0000 		.4byte	0xaed
 1950 0ac0 02       		.byte	0x2
 1951 0ac1 23       		.byte	0x23
 1952 0ac2 2C       		.uleb128 0x2c
 1953 0ac3 15       		.uleb128 0x15
 1954 0ac4 1B020000 		.4byte	.LASF138
 1955 0ac8 0E       		.byte	0xe
 1956 0ac9 9401     		.2byte	0x194
 1957 0acb ED0A0000 		.4byte	0xaed
 1958 0acf 02       		.byte	0x2
 1959 0ad0 23       		.byte	0x23
 1960 0ad1 30       		.uleb128 0x30
 1961 0ad2 0C       		.uleb128 0xc
 1962 0ad3 69326300 		.ascii	"i2c\000"
 1963 0ad7 0E       		.byte	0xe
 1964 0ad8 9801     		.2byte	0x198
 1965 0ada F80A0000 		.4byte	0xaf8
 1966 0ade 02       		.byte	0x2
 1967 0adf 23       		.byte	0x23
 1968 0ae0 34       		.uleb128 0x34
 1969 0ae1 00       		.byte	0
 1970 0ae2 09       		.uleb128 0x9
 1971 0ae3 04       		.byte	0x4
 1972 0ae4 E80A0000 		.4byte	0xae8
 1973 0ae8 10       		.uleb128 0x10
 1974 0ae9 170A0000 		.4byte	0xa17
 1975 0aed 09       		.uleb128 0x9
 1976 0aee 04       		.byte	0x4
 1977 0aef F30A0000 		.4byte	0xaf3
 1978 0af3 10       		.uleb128 0x10
 1979 0af4 B0080000 		.4byte	0x8b0
 1980 0af8 09       		.uleb128 0x9
 1981 0af9 04       		.byte	0x4
 1982 0afa 63070000 		.4byte	0x763
 1983 0afe 17       		.uleb128 0x17
 1984 0aff 01       		.byte	0x1
 1985 0b00 0F       		.byte	0xf
 1986 0b01 5D       		.byte	0x5d
 1987 0b02 190B0000 		.4byte	0xb19
 1988 0b06 18       		.uleb128 0x18
 1989 0b07 AF050000 		.4byte	.LASF139
 1990 0b0b 00       		.sleb128 0
 1991 0b0c 18       		.uleb128 0x18
 1992 0b0d 77050000 		.4byte	.LASF140
ARM GAS  /tmp/ccS9r29S.s 			page 36


 1993 0b11 01       		.sleb128 1
 1994 0b12 18       		.uleb128 0x18
 1995 0b13 49060000 		.4byte	.LASF141
 1996 0b17 02       		.sleb128 2
 1997 0b18 00       		.byte	0
 1998 0b19 03       		.uleb128 0x3
 1999 0b1a CC050000 		.4byte	.LASF142
 2000 0b1e 0F       		.byte	0xf
 2001 0b1f 61       		.byte	0x61
 2002 0b20 FE0A0000 		.4byte	0xafe
 2003 0b24 03       		.uleb128 0x3
 2004 0b25 D6050000 		.4byte	.LASF143
 2005 0b29 0F       		.byte	0xf
 2006 0b2a 66       		.byte	0x66
 2007 0b2b 2F0B0000 		.4byte	0xb2f
 2008 0b2f 05       		.uleb128 0x5
 2009 0b30 D6050000 		.4byte	.LASF143
 2010 0b34 78       		.byte	0x78
 2011 0b35 0F       		.byte	0xf
 2012 0b36 80       		.byte	0x80
 2013 0b37 AA0B0000 		.4byte	0xbaa
 2014 0b3b 07       		.uleb128 0x7
 2015 0b3c 766D7400 		.ascii	"vmt\000"
 2016 0b40 0F       		.byte	0xf
 2017 0b41 82       		.byte	0x82
 2018 0b42 270C0000 		.4byte	0xc27
 2019 0b46 02       		.byte	0x2
 2020 0b47 23       		.byte	0x23
 2021 0b48 00       		.uleb128 0
 2022 0b49 06       		.uleb128 0x6
 2023 0b4a DA020000 		.4byte	.LASF144
 2024 0b4e 0F       		.byte	0xf
 2025 0b4f 83       		.byte	0x83
 2026 0b50 4F040000 		.4byte	0x44f
 2027 0b54 02       		.byte	0x2
 2028 0b55 23       		.byte	0x23
 2029 0b56 04       		.uleb128 0x4
 2030 0b57 06       		.uleb128 0x6
 2031 0b58 B8010000 		.4byte	.LASF129
 2032 0b5c 0F       		.byte	0xf
 2033 0b5d 83       		.byte	0x83
 2034 0b5e 190B0000 		.4byte	0xb19
 2035 0b62 02       		.byte	0x2
 2036 0b63 23       		.byte	0x23
 2037 0b64 08       		.uleb128 0x8
 2038 0b65 06       		.uleb128 0x6
 2039 0b66 A2020000 		.4byte	.LASF145
 2040 0b6a 0F       		.byte	0xf
 2041 0b6b 83       		.byte	0x83
 2042 0b6c 74050000 		.4byte	0x574
 2043 0b70 02       		.byte	0x2
 2044 0b71 23       		.byte	0x23
 2045 0b72 0C       		.uleb128 0xc
 2046 0b73 06       		.uleb128 0x6
 2047 0b74 23030000 		.4byte	.LASF146
 2048 0b78 0F       		.byte	0xf
 2049 0b79 83       		.byte	0x83
ARM GAS  /tmp/ccS9r29S.s 			page 37


 2050 0b7a 7F050000 		.4byte	0x57f
 2051 0b7e 02       		.byte	0x2
 2052 0b7f 23       		.byte	0x23
 2053 0b80 30       		.uleb128 0x30
 2054 0b81 07       		.uleb128 0x7
 2055 0b82 696200   		.ascii	"ib\000"
 2056 0b85 0F       		.byte	0xf
 2057 0b86 83       		.byte	0x83
 2058 0b87 320C0000 		.4byte	0xc32
 2059 0b8b 02       		.byte	0x2
 2060 0b8c 23       		.byte	0x23
 2061 0b8d 54       		.uleb128 0x54
 2062 0b8e 07       		.uleb128 0x7
 2063 0b8f 6F6200   		.ascii	"ob\000"
 2064 0b92 0F       		.byte	0xf
 2065 0b93 83       		.byte	0x83
 2066 0b94 320C0000 		.4byte	0xc32
 2067 0b98 02       		.byte	0x2
 2068 0b99 23       		.byte	0x23
 2069 0b9a 64       		.uleb128 0x64
 2070 0b9b 06       		.uleb128 0x6
 2071 0b9c 61020000 		.4byte	.LASF147
 2072 0ba0 0F       		.byte	0xf
 2073 0ba1 83       		.byte	0x83
 2074 0ba2 420C0000 		.4byte	0xc42
 2075 0ba6 02       		.byte	0x2
 2076 0ba7 23       		.byte	0x23
 2077 0ba8 74       		.uleb128 0x74
 2078 0ba9 00       		.byte	0
 2079 0baa 05       		.uleb128 0x5
 2080 0bab 7D020000 		.4byte	.LASF148
 2081 0baf 20       		.byte	0x20
 2082 0bb0 0F       		.byte	0xf
 2083 0bb1 75       		.byte	0x75
 2084 0bb2 270C0000 		.4byte	0xc27
 2085 0bb6 06       		.uleb128 0x6
 2086 0bb7 8B030000 		.4byte	.LASF149
 2087 0bbb 0F       		.byte	0xf
 2088 0bbc 76       		.byte	0x76
 2089 0bbd AF050000 		.4byte	0x5af
 2090 0bc1 02       		.byte	0x2
 2091 0bc2 23       		.byte	0x23
 2092 0bc3 00       		.uleb128 0
 2093 0bc4 06       		.uleb128 0x6
 2094 0bc5 03060000 		.4byte	.LASF150
 2095 0bc9 0F       		.byte	0xf
 2096 0bca 76       		.byte	0x76
 2097 0bcb CF050000 		.4byte	0x5cf
 2098 0bcf 02       		.byte	0x2
 2099 0bd0 23       		.byte	0x23
 2100 0bd1 04       		.uleb128 0x4
 2101 0bd2 07       		.uleb128 0x7
 2102 0bd3 70757400 		.ascii	"put\000"
 2103 0bd7 0F       		.byte	0xf
 2104 0bd8 76       		.byte	0x76
 2105 0bd9 EA050000 		.4byte	0x5ea
 2106 0bdd 02       		.byte	0x2
ARM GAS  /tmp/ccS9r29S.s 			page 38


 2107 0bde 23       		.byte	0x23
 2108 0bdf 08       		.uleb128 0x8
 2109 0be0 07       		.uleb128 0x7
 2110 0be1 67657400 		.ascii	"get\000"
 2111 0be5 0F       		.byte	0xf
 2112 0be6 76       		.byte	0x76
 2113 0be7 AD040000 		.4byte	0x4ad
 2114 0beb 02       		.byte	0x2
 2115 0bec 23       		.byte	0x23
 2116 0bed 0C       		.uleb128 0xc
 2117 0bee 06       		.uleb128 0x6
 2118 0bef 91030000 		.4byte	.LASF151
 2119 0bf3 0F       		.byte	0xf
 2120 0bf4 76       		.byte	0x76
 2121 0bf5 D5080000 		.4byte	0x8d5
 2122 0bf9 02       		.byte	0x2
 2123 0bfa 23       		.byte	0x23
 2124 0bfb 10       		.uleb128 0x10
 2125 0bfc 06       		.uleb128 0x6
 2126 0bfd C6020000 		.4byte	.LASF152
 2127 0c01 0F       		.byte	0xf
 2128 0c02 76       		.byte	0x76
 2129 0c03 F0080000 		.4byte	0x8f0
 2130 0c07 02       		.byte	0x2
 2131 0c08 23       		.byte	0x23
 2132 0c09 14       		.uleb128 0x14
 2133 0c0a 06       		.uleb128 0x6
 2134 0c0b 38030000 		.4byte	.LASF153
 2135 0c0f 0F       		.byte	0xf
 2136 0c10 76       		.byte	0x76
 2137 0c11 15090000 		.4byte	0x915
 2138 0c15 02       		.byte	0x2
 2139 0c16 23       		.byte	0x23
 2140 0c17 18       		.uleb128 0x18
 2141 0c18 06       		.uleb128 0x6
 2142 0c19 13010000 		.4byte	.LASF154
 2143 0c1d 0F       		.byte	0xf
 2144 0c1e 76       		.byte	0x76
 2145 0c1f 3A090000 		.4byte	0x93a
 2146 0c23 02       		.byte	0x2
 2147 0c24 23       		.byte	0x23
 2148 0c25 1C       		.uleb128 0x1c
 2149 0c26 00       		.byte	0
 2150 0c27 09       		.uleb128 0x9
 2151 0c28 04       		.byte	0x4
 2152 0c29 2D0C0000 		.4byte	0xc2d
 2153 0c2d 10       		.uleb128 0x10
 2154 0c2e AA0B0000 		.4byte	0xbaa
 2155 0c32 1A       		.uleb128 0x1a
 2156 0c33 49000000 		.4byte	0x49
 2157 0c37 420C0000 		.4byte	0xc42
 2158 0c3b 1B       		.uleb128 0x1b
 2159 0c3c 8A030000 		.4byte	0x38a
 2160 0c40 0F       		.byte	0xf
 2161 0c41 00       		.byte	0
 2162 0c42 09       		.uleb128 0x9
 2163 0c43 04       		.byte	0x4
ARM GAS  /tmp/ccS9r29S.s 			page 39


 2164 0c44 49080000 		.4byte	0x849
 2165 0c48 1C       		.uleb128 0x1c
 2166 0c49 01       		.byte	0x1
 2167 0c4a 8D020000 		.4byte	.LASF157
 2168 0c4e 01       		.byte	0x1
 2169 0c4f 0F       		.byte	0xf
 2170 0c50 01       		.byte	0x1
 2171 0c51 00000000 		.4byte	.LFB63
 2172 0c55 48000000 		.4byte	.LFE63
 2173 0c59 00000000 		.4byte	.LLST0
 2174 0c5d 01       		.byte	0x1
 2175 0c5e 0D0D0000 		.4byte	0xd0d
 2176 0c62 1D       		.uleb128 0x1d
 2177 0c63 DF030000 		.4byte	.LASF155
 2178 0c67 01       		.byte	0x1
 2179 0c68 0F       		.byte	0xf
 2180 0c69 0D0D0000 		.4byte	0xd0d
 2181 0c6d 2C000000 		.4byte	.LLST1
 2182 0c71 1D       		.uleb128 0x1d
 2183 0c72 B9000000 		.4byte	.LASF134
 2184 0c76 01       		.byte	0x1
 2185 0c77 0F       		.byte	0xf
 2186 0c78 49000000 		.4byte	0x49
 2187 0c7c 4A000000 		.4byte	.LLST2
 2188 0c80 1E       		.uleb128 0x1e
 2189 0c81 D2020000 		.4byte	.LASF156
 2190 0c85 01       		.byte	0x1
 2191 0c86 11       		.byte	0x11
 2192 0c87 130D0000 		.4byte	0xd13
 2193 0c8b 02       		.byte	0x2
 2194 0c8c 91       		.byte	0x91
 2195 0c8d 68       		.sleb128 -24
 2196 0c8e 1F       		.uleb128 0x1f
 2197 0c8f 6D736700 		.ascii	"msg\000"
 2198 0c93 01       		.byte	0x1
 2199 0c94 12       		.byte	0x12
 2200 0c95 FA000000 		.4byte	0xfa
 2201 0c99 6B000000 		.4byte	.LLST3
 2202 0c9d 20       		.uleb128 0x20
 2203 0c9e 18000000 		.4byte	.LVL2
 2204 0ca2 71110000 		.4byte	0x1171
 2205 0ca6 B10C0000 		.4byte	0xcb1
 2206 0caa 21       		.uleb128 0x21
 2207 0cab 01       		.byte	0x1
 2208 0cac 50       		.byte	0x50
 2209 0cad 02       		.byte	0x2
 2210 0cae 74       		.byte	0x74
 2211 0caf 00       		.sleb128 0
 2212 0cb0 00       		.byte	0
 2213 0cb1 20       		.uleb128 0x20
 2214 0cb2 2E000000 		.4byte	.LVL3
 2215 0cb6 85110000 		.4byte	0x1185
 2216 0cba E80C0000 		.4byte	0xce8
 2217 0cbe 21       		.uleb128 0x21
 2218 0cbf 01       		.byte	0x1
 2219 0cc0 53       		.byte	0x53
 2220 0cc1 01       		.byte	0x1
ARM GAS  /tmp/ccS9r29S.s 			page 40


 2221 0cc2 32       		.byte	0x32
 2222 0cc3 21       		.uleb128 0x21
 2223 0cc4 01       		.byte	0x1
 2224 0cc5 52       		.byte	0x52
 2225 0cc6 02       		.byte	0x2
 2226 0cc7 91       		.byte	0x91
 2227 0cc8 68       		.sleb128 -24
 2228 0cc9 21       		.uleb128 0x21
 2229 0cca 01       		.byte	0x1
 2230 0ccb 51       		.byte	0x51
 2231 0ccc 02       		.byte	0x2
 2232 0ccd 75       		.byte	0x75
 2233 0cce 00       		.sleb128 0
 2234 0ccf 21       		.uleb128 0x21
 2235 0cd0 01       		.byte	0x1
 2236 0cd1 50       		.byte	0x50
 2237 0cd2 02       		.byte	0x2
 2238 0cd3 74       		.byte	0x74
 2239 0cd4 00       		.sleb128 0
 2240 0cd5 21       		.uleb128 0x21
 2241 0cd6 02       		.byte	0x2
 2242 0cd7 7D       		.byte	0x7d
 2243 0cd8 08       		.sleb128 8
 2244 0cd9 01       		.byte	0x1
 2245 0cda 34       		.byte	0x34
 2246 0cdb 21       		.uleb128 0x21
 2247 0cdc 02       		.byte	0x2
 2248 0cdd 7D       		.byte	0x7d
 2249 0cde 04       		.sleb128 4
 2250 0cdf 01       		.byte	0x1
 2251 0ce0 30       		.byte	0x30
 2252 0ce1 21       		.uleb128 0x21
 2253 0ce2 02       		.byte	0x2
 2254 0ce3 7D       		.byte	0x7d
 2255 0ce4 00       		.sleb128 0
 2256 0ce5 01       		.byte	0x1
 2257 0ce6 30       		.byte	0x30
 2258 0ce7 00       		.byte	0
 2259 0ce8 20       		.uleb128 0x20
 2260 0ce9 36000000 		.4byte	.LVL6
 2261 0ced BB110000 		.4byte	0x11bb
 2262 0cf1 FC0C0000 		.4byte	0xcfc
 2263 0cf5 21       		.uleb128 0x21
 2264 0cf6 01       		.byte	0x1
 2265 0cf7 50       		.byte	0x50
 2266 0cf8 02       		.byte	0x2
 2267 0cf9 74       		.byte	0x74
 2268 0cfa 00       		.sleb128 0
 2269 0cfb 00       		.byte	0
 2270 0cfc 22       		.uleb128 0x22
 2271 0cfd 40000000 		.4byte	.LVL7
 2272 0d01 CF110000 		.4byte	0x11cf
 2273 0d05 21       		.uleb128 0x21
 2274 0d06 01       		.byte	0x1
 2275 0d07 50       		.byte	0x50
 2276 0d08 02       		.byte	0x2
 2277 0d09 74       		.byte	0x74
ARM GAS  /tmp/ccS9r29S.s 			page 41


 2278 0d0a 00       		.sleb128 0
 2279 0d0b 00       		.byte	0
 2280 0d0c 00       		.byte	0
 2281 0d0d 09       		.uleb128 0x9
 2282 0d0e 04       		.byte	0x4
 2283 0d0f 230A0000 		.4byte	0xa23
 2284 0d13 1A       		.uleb128 0x1a
 2285 0d14 49000000 		.4byte	0x49
 2286 0d18 230D0000 		.4byte	0xd23
 2287 0d1c 1B       		.uleb128 0x1b
 2288 0d1d 8A030000 		.4byte	0x38a
 2289 0d21 07       		.byte	0x7
 2290 0d22 00       		.byte	0
 2291 0d23 1C       		.uleb128 0x1c
 2292 0d24 01       		.byte	0x1
 2293 0d25 8D060000 		.4byte	.LASF158
 2294 0d29 01       		.byte	0x1
 2295 0d2a 1D       		.byte	0x1d
 2296 0d2b 01       		.byte	0x1
 2297 0d2c 00000000 		.4byte	.LFB64
 2298 0d30 7C000000 		.4byte	.LFE64
 2299 0d34 89000000 		.4byte	.LLST4
 2300 0d38 01       		.byte	0x1
 2301 0d39 240E0000 		.4byte	0xe24
 2302 0d3d 1D       		.uleb128 0x1d
 2303 0d3e DF030000 		.4byte	.LASF155
 2304 0d42 01       		.byte	0x1
 2305 0d43 1D       		.byte	0x1d
 2306 0d44 0D0D0000 		.4byte	0xd0d
 2307 0d48 B6000000 		.4byte	.LLST5
 2308 0d4c 1D       		.uleb128 0x1d
 2309 0d4d B9000000 		.4byte	.LASF134
 2310 0d51 01       		.byte	0x1
 2311 0d52 1D       		.byte	0x1d
 2312 0d53 49000000 		.4byte	0x49
 2313 0d57 E2000000 		.4byte	.LLST6
 2314 0d5b 1D       		.uleb128 0x1d
 2315 0d5c B4020000 		.4byte	.LASF159
 2316 0d60 01       		.byte	0x1
 2317 0d61 1D       		.byte	0x1d
 2318 0d62 240E0000 		.4byte	0xe24
 2319 0d66 03010000 		.4byte	.LLST7
 2320 0d6a 1D       		.uleb128 0x1d
 2321 0d6b BA020000 		.4byte	.LASF160
 2322 0d6f 01       		.byte	0x1
 2323 0d70 1D       		.byte	0x1d
 2324 0d71 240E0000 		.4byte	0xe24
 2325 0d75 21010000 		.4byte	.LLST8
 2326 0d79 23       		.uleb128 0x23
 2327 0d7a C0020000 		.4byte	.LASF161
 2328 0d7e 01       		.byte	0x1
 2329 0d7f 1D       		.byte	0x1d
 2330 0d80 240E0000 		.4byte	0xe24
 2331 0d84 02       		.byte	0x2
 2332 0d85 91       		.byte	0x91
 2333 0d86 00       		.sleb128 0
 2334 0d87 1E       		.uleb128 0x1e
ARM GAS  /tmp/ccS9r29S.s 			page 42


 2335 0d88 D2020000 		.4byte	.LASF156
 2336 0d8c 01       		.byte	0x1
 2337 0d8d 1F       		.byte	0x1f
 2338 0d8e 130D0000 		.4byte	0xd13
 2339 0d92 02       		.byte	0x2
 2340 0d93 91       		.byte	0x91
 2341 0d94 58       		.sleb128 -40
 2342 0d95 1E       		.uleb128 0x1e
 2343 0d96 95020000 		.4byte	.LASF162
 2344 0d9a 01       		.byte	0x1
 2345 0d9b 20       		.byte	0x20
 2346 0d9c 2A0E0000 		.4byte	0xe2a
 2347 0da0 02       		.byte	0x2
 2348 0da1 91       		.byte	0x91
 2349 0da2 50       		.sleb128 -48
 2350 0da3 1F       		.uleb128 0x1f
 2351 0da4 6D736700 		.ascii	"msg\000"
 2352 0da8 01       		.byte	0x1
 2353 0da9 21       		.byte	0x21
 2354 0daa FA000000 		.4byte	0xfa
 2355 0dae 3F010000 		.4byte	.LLST9
 2356 0db2 20       		.uleb128 0x20
 2357 0db3 1A000000 		.4byte	.LVL9
 2358 0db7 71110000 		.4byte	0x1171
 2359 0dbb C60D0000 		.4byte	0xdc6
 2360 0dbf 21       		.uleb128 0x21
 2361 0dc0 01       		.byte	0x1
 2362 0dc1 50       		.byte	0x50
 2363 0dc2 02       		.byte	0x2
 2364 0dc3 75       		.byte	0x75
 2365 0dc4 00       		.sleb128 0
 2366 0dc5 00       		.byte	0
 2367 0dc6 20       		.uleb128 0x20
 2368 0dc7 32000000 		.4byte	.LVL10
 2369 0dcb 85110000 		.4byte	0x1185
 2370 0dcf FF0D0000 		.4byte	0xdff
 2371 0dd3 21       		.uleb128 0x21
 2372 0dd4 01       		.byte	0x1
 2373 0dd5 53       		.byte	0x53
 2374 0dd6 02       		.byte	0x2
 2375 0dd7 76       		.byte	0x76
 2376 0dd8 00       		.sleb128 0
 2377 0dd9 21       		.uleb128 0x21
 2378 0dda 01       		.byte	0x1
 2379 0ddb 52       		.byte	0x52
 2380 0ddc 02       		.byte	0x2
 2381 0ddd 74       		.byte	0x74
 2382 0dde 00       		.sleb128 0
 2383 0ddf 21       		.uleb128 0x21
 2384 0de0 01       		.byte	0x1
 2385 0de1 51       		.byte	0x51
 2386 0de2 02       		.byte	0x2
 2387 0de3 79       		.byte	0x79
 2388 0de4 00       		.sleb128 0
 2389 0de5 21       		.uleb128 0x21
 2390 0de6 01       		.byte	0x1
 2391 0de7 50       		.byte	0x50
ARM GAS  /tmp/ccS9r29S.s 			page 43


 2392 0de8 02       		.byte	0x2
 2393 0de9 75       		.byte	0x75
 2394 0dea 00       		.sleb128 0
 2395 0deb 21       		.uleb128 0x21
 2396 0dec 02       		.byte	0x2
 2397 0ded 7D       		.byte	0x7d
 2398 0dee 08       		.sleb128 8
 2399 0def 01       		.byte	0x1
 2400 0df0 34       		.byte	0x34
 2401 0df1 21       		.uleb128 0x21
 2402 0df2 02       		.byte	0x2
 2403 0df3 7D       		.byte	0x7d
 2404 0df4 04       		.sleb128 4
 2405 0df5 01       		.byte	0x1
 2406 0df6 36       		.byte	0x36
 2407 0df7 21       		.uleb128 0x21
 2408 0df8 02       		.byte	0x2
 2409 0df9 7D       		.byte	0x7d
 2410 0dfa 00       		.sleb128 0
 2411 0dfb 02       		.byte	0x2
 2412 0dfc 91       		.byte	0x91
 2413 0dfd 50       		.sleb128 -48
 2414 0dfe 00       		.byte	0
 2415 0dff 20       		.uleb128 0x20
 2416 0e00 3A000000 		.4byte	.LVL13
 2417 0e04 BB110000 		.4byte	0x11bb
 2418 0e08 130E0000 		.4byte	0xe13
 2419 0e0c 21       		.uleb128 0x21
 2420 0e0d 01       		.byte	0x1
 2421 0e0e 50       		.byte	0x50
 2422 0e0f 02       		.byte	0x2
 2423 0e10 75       		.byte	0x75
 2424 0e11 00       		.sleb128 0
 2425 0e12 00       		.byte	0
 2426 0e13 22       		.uleb128 0x22
 2427 0e14 44000000 		.4byte	.LVL14
 2428 0e18 CF110000 		.4byte	0x11cf
 2429 0e1c 21       		.uleb128 0x21
 2430 0e1d 01       		.byte	0x1
 2431 0e1e 50       		.byte	0x50
 2432 0e1f 02       		.byte	0x2
 2433 0e20 75       		.byte	0x75
 2434 0e21 00       		.sleb128 0
 2435 0e22 00       		.byte	0
 2436 0e23 00       		.byte	0
 2437 0e24 09       		.uleb128 0x9
 2438 0e25 04       		.byte	0x4
 2439 0e26 5B000000 		.4byte	0x5b
 2440 0e2a 1A       		.uleb128 0x1a
 2441 0e2b 49000000 		.4byte	0x49
 2442 0e2f 3A0E0000 		.4byte	0xe3a
 2443 0e33 1B       		.uleb128 0x1b
 2444 0e34 8A030000 		.4byte	0x38a
 2445 0e38 05       		.byte	0x5
 2446 0e39 00       		.byte	0
 2447 0e3a 1C       		.uleb128 0x1c
 2448 0e3b 01       		.byte	0x1
ARM GAS  /tmp/ccS9r29S.s 			page 44


 2449 0e3c 57040000 		.4byte	.LASF163
 2450 0e40 01       		.byte	0x1
 2451 0e41 2F       		.byte	0x2f
 2452 0e42 01       		.byte	0x1
 2453 0e43 00000000 		.4byte	.LFB65
 2454 0e47 84000000 		.4byte	.LFE65
 2455 0e4b 5D010000 		.4byte	.LLST10
 2456 0e4f 01       		.byte	0x1
 2457 0e50 720F0000 		.4byte	0xf72
 2458 0e54 1D       		.uleb128 0x1d
 2459 0e55 DF030000 		.4byte	.LASF155
 2460 0e59 01       		.byte	0x1
 2461 0e5a 2F       		.byte	0x2f
 2462 0e5b 0D0D0000 		.4byte	0xd0d
 2463 0e5f 89010000 		.4byte	.LLST11
 2464 0e63 1D       		.uleb128 0x1d
 2465 0e64 B9000000 		.4byte	.LASF134
 2466 0e68 01       		.byte	0x1
 2467 0e69 2F       		.byte	0x2f
 2468 0e6a 49000000 		.4byte	0x49
 2469 0e6e A7010000 		.4byte	.LLST12
 2470 0e72 1E       		.uleb128 0x1e
 2471 0e73 D2020000 		.4byte	.LASF156
 2472 0e77 01       		.byte	0x1
 2473 0e78 31       		.byte	0x31
 2474 0e79 130D0000 		.4byte	0xd13
 2475 0e7d 02       		.byte	0x2
 2476 0e7e 91       		.byte	0x91
 2477 0e7f 68       		.sleb128 -24
 2478 0e80 1F       		.uleb128 0x1f
 2479 0e81 6D736700 		.ascii	"msg\000"
 2480 0e85 01       		.byte	0x1
 2481 0e86 32       		.byte	0x32
 2482 0e87 FA000000 		.4byte	0xfa
 2483 0e8b C8010000 		.4byte	.LLST13
 2484 0e8f 20       		.uleb128 0x20
 2485 0e90 18000000 		.4byte	.LVL19
 2486 0e94 71110000 		.4byte	0x1171
 2487 0e98 A30E0000 		.4byte	0xea3
 2488 0e9c 21       		.uleb128 0x21
 2489 0e9d 01       		.byte	0x1
 2490 0e9e 50       		.byte	0x50
 2491 0e9f 02       		.byte	0x2
 2492 0ea0 74       		.byte	0x74
 2493 0ea1 00       		.sleb128 0
 2494 0ea2 00       		.byte	0
 2495 0ea3 20       		.uleb128 0x20
 2496 0ea4 2E000000 		.4byte	.LVL20
 2497 0ea8 85110000 		.4byte	0x1185
 2498 0eac DA0E0000 		.4byte	0xeda
 2499 0eb0 21       		.uleb128 0x21
 2500 0eb1 01       		.byte	0x1
 2501 0eb2 53       		.byte	0x53
 2502 0eb3 01       		.byte	0x1
 2503 0eb4 32       		.byte	0x32
 2504 0eb5 21       		.uleb128 0x21
 2505 0eb6 01       		.byte	0x1
ARM GAS  /tmp/ccS9r29S.s 			page 45


 2506 0eb7 52       		.byte	0x52
 2507 0eb8 02       		.byte	0x2
 2508 0eb9 91       		.byte	0x91
 2509 0eba 68       		.sleb128 -24
 2510 0ebb 21       		.uleb128 0x21
 2511 0ebc 01       		.byte	0x1
 2512 0ebd 51       		.byte	0x51
 2513 0ebe 02       		.byte	0x2
 2514 0ebf 75       		.byte	0x75
 2515 0ec0 00       		.sleb128 0
 2516 0ec1 21       		.uleb128 0x21
 2517 0ec2 01       		.byte	0x1
 2518 0ec3 50       		.byte	0x50
 2519 0ec4 02       		.byte	0x2
 2520 0ec5 74       		.byte	0x74
 2521 0ec6 00       		.sleb128 0
 2522 0ec7 21       		.uleb128 0x21
 2523 0ec8 02       		.byte	0x2
 2524 0ec9 7D       		.byte	0x7d
 2525 0eca 08       		.sleb128 8
 2526 0ecb 01       		.byte	0x1
 2527 0ecc 34       		.byte	0x34
 2528 0ecd 21       		.uleb128 0x21
 2529 0ece 02       		.byte	0x2
 2530 0ecf 7D       		.byte	0x7d
 2531 0ed0 04       		.sleb128 4
 2532 0ed1 01       		.byte	0x1
 2533 0ed2 30       		.byte	0x30
 2534 0ed3 21       		.uleb128 0x21
 2535 0ed4 02       		.byte	0x2
 2536 0ed5 7D       		.byte	0x7d
 2537 0ed6 00       		.sleb128 0
 2538 0ed7 01       		.byte	0x1
 2539 0ed8 30       		.byte	0x30
 2540 0ed9 00       		.byte	0
 2541 0eda 20       		.uleb128 0x20
 2542 0edb 36000000 		.4byte	.LVL23
 2543 0edf BB110000 		.4byte	0x11bb
 2544 0ee3 EE0E0000 		.4byte	0xeee
 2545 0ee7 21       		.uleb128 0x21
 2546 0ee8 01       		.byte	0x1
 2547 0ee9 50       		.byte	0x50
 2548 0eea 02       		.byte	0x2
 2549 0eeb 74       		.byte	0x74
 2550 0eec 00       		.sleb128 0
 2551 0eed 00       		.byte	0
 2552 0eee 20       		.uleb128 0x20
 2553 0eef 4A000000 		.4byte	.LVL24
 2554 0ef3 71110000 		.4byte	0x1171
 2555 0ef7 020F0000 		.4byte	0xf02
 2556 0efb 21       		.uleb128 0x21
 2557 0efc 01       		.byte	0x1
 2558 0efd 50       		.byte	0x50
 2559 0efe 02       		.byte	0x2
 2560 0eff 74       		.byte	0x74
 2561 0f00 00       		.sleb128 0
 2562 0f01 00       		.byte	0
ARM GAS  /tmp/ccS9r29S.s 			page 46


 2563 0f02 20       		.uleb128 0x20
 2564 0f03 60000000 		.4byte	.LVL25
 2565 0f07 85110000 		.4byte	0x1185
 2566 0f0b 390F0000 		.4byte	0xf39
 2567 0f0f 21       		.uleb128 0x21
 2568 0f10 01       		.byte	0x1
 2569 0f11 53       		.byte	0x53
 2570 0f12 01       		.byte	0x1
 2571 0f13 32       		.byte	0x32
 2572 0f14 21       		.uleb128 0x21
 2573 0f15 01       		.byte	0x1
 2574 0f16 52       		.byte	0x52
 2575 0f17 02       		.byte	0x2
 2576 0f18 91       		.byte	0x91
 2577 0f19 68       		.sleb128 -24
 2578 0f1a 21       		.uleb128 0x21
 2579 0f1b 01       		.byte	0x1
 2580 0f1c 51       		.byte	0x51
 2581 0f1d 02       		.byte	0x2
 2582 0f1e 75       		.byte	0x75
 2583 0f1f 00       		.sleb128 0
 2584 0f20 21       		.uleb128 0x21
 2585 0f21 01       		.byte	0x1
 2586 0f22 50       		.byte	0x50
 2587 0f23 02       		.byte	0x2
 2588 0f24 74       		.byte	0x74
 2589 0f25 00       		.sleb128 0
 2590 0f26 21       		.uleb128 0x21
 2591 0f27 02       		.byte	0x2
 2592 0f28 7D       		.byte	0x7d
 2593 0f29 08       		.sleb128 8
 2594 0f2a 01       		.byte	0x1
 2595 0f2b 34       		.byte	0x34
 2596 0f2c 21       		.uleb128 0x21
 2597 0f2d 02       		.byte	0x2
 2598 0f2e 7D       		.byte	0x7d
 2599 0f2f 04       		.sleb128 4
 2600 0f30 01       		.byte	0x1
 2601 0f31 30       		.byte	0x30
 2602 0f32 21       		.uleb128 0x21
 2603 0f33 02       		.byte	0x2
 2604 0f34 7D       		.byte	0x7d
 2605 0f35 00       		.sleb128 0
 2606 0f36 01       		.byte	0x1
 2607 0f37 30       		.byte	0x30
 2608 0f38 00       		.byte	0
 2609 0f39 20       		.uleb128 0x20
 2610 0f3a 68000000 		.4byte	.LVL28
 2611 0f3e BB110000 		.4byte	0x11bb
 2612 0f42 4D0F0000 		.4byte	0xf4d
 2613 0f46 21       		.uleb128 0x21
 2614 0f47 01       		.byte	0x1
 2615 0f48 50       		.byte	0x50
 2616 0f49 02       		.byte	0x2
 2617 0f4a 74       		.byte	0x74
 2618 0f4b 00       		.sleb128 0
 2619 0f4c 00       		.byte	0
ARM GAS  /tmp/ccS9r29S.s 			page 47


 2620 0f4d 20       		.uleb128 0x20
 2621 0f4e 72000000 		.4byte	.LVL29
 2622 0f52 CF110000 		.4byte	0x11cf
 2623 0f56 610F0000 		.4byte	0xf61
 2624 0f5a 21       		.uleb128 0x21
 2625 0f5b 01       		.byte	0x1
 2626 0f5c 50       		.byte	0x50
 2627 0f5d 02       		.byte	0x2
 2628 0f5e 74       		.byte	0x74
 2629 0f5f 00       		.sleb128 0
 2630 0f60 00       		.byte	0
 2631 0f61 22       		.uleb128 0x22
 2632 0f62 7E000000 		.4byte	.LVL31
 2633 0f66 CF110000 		.4byte	0x11cf
 2634 0f6a 21       		.uleb128 0x21
 2635 0f6b 01       		.byte	0x1
 2636 0f6c 50       		.byte	0x50
 2637 0f6d 02       		.byte	0x2
 2638 0f6e 74       		.byte	0x74
 2639 0f6f 00       		.sleb128 0
 2640 0f70 00       		.byte	0
 2641 0f71 00       		.byte	0
 2642 0f72 1C       		.uleb128 0x1c
 2643 0f73 01       		.byte	0x1
 2644 0f74 3D010000 		.4byte	.LASF164
 2645 0f78 01       		.byte	0x1
 2646 0f79 44       		.byte	0x44
 2647 0f7a 01       		.byte	0x1
 2648 0f7b 00000000 		.4byte	.LFB66
 2649 0f7f 7C000000 		.4byte	.LFE66
 2650 0f83 07020000 		.4byte	.LLST14
 2651 0f87 01       		.byte	0x1
 2652 0f88 72100000 		.4byte	0x1072
 2653 0f8c 1D       		.uleb128 0x1d
 2654 0f8d DF030000 		.4byte	.LASF155
 2655 0f91 01       		.byte	0x1
 2656 0f92 44       		.byte	0x44
 2657 0f93 0D0D0000 		.4byte	0xd0d
 2658 0f97 33020000 		.4byte	.LLST15
 2659 0f9b 1D       		.uleb128 0x1d
 2660 0f9c B9000000 		.4byte	.LASF134
 2661 0fa0 01       		.byte	0x1
 2662 0fa1 44       		.byte	0x44
 2663 0fa2 49000000 		.4byte	0x49
 2664 0fa6 5F020000 		.4byte	.LLST16
 2665 0faa 1D       		.uleb128 0x1d
 2666 0fab 9F030000 		.4byte	.LASF165
 2667 0faf 01       		.byte	0x1
 2668 0fb0 44       		.byte	0x44
 2669 0fb1 240E0000 		.4byte	0xe24
 2670 0fb5 80020000 		.4byte	.LLST17
 2671 0fb9 1D       		.uleb128 0x1d
 2672 0fba A6030000 		.4byte	.LASF166
 2673 0fbe 01       		.byte	0x1
 2674 0fbf 44       		.byte	0x44
 2675 0fc0 240E0000 		.4byte	0xe24
 2676 0fc4 9E020000 		.4byte	.LLST18
ARM GAS  /tmp/ccS9r29S.s 			page 48


 2677 0fc8 23       		.uleb128 0x23
 2678 0fc9 AD030000 		.4byte	.LASF167
 2679 0fcd 01       		.byte	0x1
 2680 0fce 44       		.byte	0x44
 2681 0fcf 240E0000 		.4byte	0xe24
 2682 0fd3 02       		.byte	0x2
 2683 0fd4 91       		.byte	0x91
 2684 0fd5 00       		.sleb128 0
 2685 0fd6 1E       		.uleb128 0x1e
 2686 0fd7 D2020000 		.4byte	.LASF156
 2687 0fdb 01       		.byte	0x1
 2688 0fdc 46       		.byte	0x46
 2689 0fdd 130D0000 		.4byte	0xd13
 2690 0fe1 02       		.byte	0x2
 2691 0fe2 91       		.byte	0x91
 2692 0fe3 60       		.sleb128 -32
 2693 0fe4 1E       		.uleb128 0x1e
 2694 0fe5 95020000 		.4byte	.LASF162
 2695 0fe9 01       		.byte	0x1
 2696 0fea 47       		.byte	0x47
 2697 0feb 2A0E0000 		.4byte	0xe2a
 2698 0fef 02       		.byte	0x2
 2699 0ff0 91       		.byte	0x91
 2700 0ff1 58       		.sleb128 -40
 2701 0ff2 1F       		.uleb128 0x1f
 2702 0ff3 6D736700 		.ascii	"msg\000"
 2703 0ff7 01       		.byte	0x1
 2704 0ff8 48       		.byte	0x48
 2705 0ff9 FA000000 		.4byte	0xfa
 2706 0ffd BC020000 		.4byte	.LLST19
 2707 1001 20       		.uleb128 0x20
 2708 1002 1A000000 		.4byte	.LVL34
 2709 1006 71110000 		.4byte	0x1171
 2710 100a 15100000 		.4byte	0x1015
 2711 100e 21       		.uleb128 0x21
 2712 100f 01       		.byte	0x1
 2713 1010 50       		.byte	0x50
 2714 1011 02       		.byte	0x2
 2715 1012 75       		.byte	0x75
 2716 1013 00       		.sleb128 0
 2717 1014 00       		.byte	0
 2718 1015 20       		.uleb128 0x20
 2719 1016 32000000 		.4byte	.LVL35
 2720 101a 85110000 		.4byte	0x1185
 2721 101e 4D100000 		.4byte	0x104d
 2722 1022 21       		.uleb128 0x21
 2723 1023 01       		.byte	0x1
 2724 1024 53       		.byte	0x53
 2725 1025 01       		.byte	0x1
 2726 1026 31       		.byte	0x31
 2727 1027 21       		.uleb128 0x21
 2728 1028 01       		.byte	0x1
 2729 1029 52       		.byte	0x52
 2730 102a 02       		.byte	0x2
 2731 102b 74       		.byte	0x74
 2732 102c 00       		.sleb128 0
 2733 102d 21       		.uleb128 0x21
ARM GAS  /tmp/ccS9r29S.s 			page 49


 2734 102e 01       		.byte	0x1
 2735 102f 51       		.byte	0x51
 2736 1030 02       		.byte	0x2
 2737 1031 78       		.byte	0x78
 2738 1032 00       		.sleb128 0
 2739 1033 21       		.uleb128 0x21
 2740 1034 01       		.byte	0x1
 2741 1035 50       		.byte	0x50
 2742 1036 02       		.byte	0x2
 2743 1037 75       		.byte	0x75
 2744 1038 00       		.sleb128 0
 2745 1039 21       		.uleb128 0x21
 2746 103a 02       		.byte	0x2
 2747 103b 7D       		.byte	0x7d
 2748 103c 08       		.sleb128 8
 2749 103d 01       		.byte	0x1
 2750 103e 34       		.byte	0x34
 2751 103f 21       		.uleb128 0x21
 2752 1040 02       		.byte	0x2
 2753 1041 7D       		.byte	0x7d
 2754 1042 04       		.sleb128 4
 2755 1043 01       		.byte	0x1
 2756 1044 36       		.byte	0x36
 2757 1045 21       		.uleb128 0x21
 2758 1046 02       		.byte	0x2
 2759 1047 7D       		.byte	0x7d
 2760 1048 00       		.sleb128 0
 2761 1049 02       		.byte	0x2
 2762 104a 91       		.byte	0x91
 2763 104b 58       		.sleb128 -40
 2764 104c 00       		.byte	0
 2765 104d 20       		.uleb128 0x20
 2766 104e 3A000000 		.4byte	.LVL38
 2767 1052 BB110000 		.4byte	0x11bb
 2768 1056 61100000 		.4byte	0x1061
 2769 105a 21       		.uleb128 0x21
 2770 105b 01       		.byte	0x1
 2771 105c 50       		.byte	0x50
 2772 105d 02       		.byte	0x2
 2773 105e 75       		.byte	0x75
 2774 105f 00       		.sleb128 0
 2775 1060 00       		.byte	0
 2776 1061 22       		.uleb128 0x22
 2777 1062 44000000 		.4byte	.LVL39
 2778 1066 CF110000 		.4byte	0x11cf
 2779 106a 21       		.uleb128 0x21
 2780 106b 01       		.byte	0x1
 2781 106c 50       		.byte	0x50
 2782 106d 02       		.byte	0x2
 2783 106e 75       		.byte	0x75
 2784 106f 00       		.sleb128 0
 2785 1070 00       		.byte	0
 2786 1071 00       		.byte	0
 2787 1072 1C       		.uleb128 0x1c
 2788 1073 01       		.byte	0x1
 2789 1074 20050000 		.4byte	.LASF168
 2790 1078 01       		.byte	0x1
ARM GAS  /tmp/ccS9r29S.s 			page 50


 2791 1079 56       		.byte	0x56
 2792 107a 01       		.byte	0x1
 2793 107b 00000000 		.4byte	.LFB67
 2794 107f 50000000 		.4byte	.LFE67
 2795 1083 DA020000 		.4byte	.LLST20
 2796 1087 01       		.byte	0x1
 2797 1088 55110000 		.4byte	0x1155
 2798 108c 1D       		.uleb128 0x1d
 2799 108d DF030000 		.4byte	.LASF155
 2800 1091 01       		.byte	0x1
 2801 1092 56       		.byte	0x56
 2802 1093 0D0D0000 		.4byte	0xd0d
 2803 1097 06030000 		.4byte	.LLST21
 2804 109b 1D       		.uleb128 0x1d
 2805 109c B9000000 		.4byte	.LASF134
 2806 10a0 01       		.byte	0x1
 2807 10a1 56       		.byte	0x56
 2808 10a2 49000000 		.4byte	0x49
 2809 10a6 24030000 		.4byte	.LLST22
 2810 10aa 1D       		.uleb128 0x1d
 2811 10ab BE010000 		.4byte	.LASF169
 2812 10af 01       		.byte	0x1
 2813 10b0 56       		.byte	0x56
 2814 10b1 6E050000 		.4byte	0x56e
 2815 10b5 45030000 		.4byte	.LLST23
 2816 10b9 1E       		.uleb128 0x1e
 2817 10ba D2020000 		.4byte	.LASF156
 2818 10be 01       		.byte	0x1
 2819 10bf 58       		.byte	0x58
 2820 10c0 130D0000 		.4byte	0xd13
 2821 10c4 02       		.byte	0x2
 2822 10c5 91       		.byte	0x91
 2823 10c6 60       		.sleb128 -32
 2824 10c7 1E       		.uleb128 0x1e
 2825 10c8 95020000 		.4byte	.LASF162
 2826 10cc 01       		.byte	0x1
 2827 10cd 59       		.byte	0x59
 2828 10ce 2A0E0000 		.4byte	0xe2a
 2829 10d2 02       		.byte	0x2
 2830 10d3 91       		.byte	0x91
 2831 10d4 58       		.sleb128 -40
 2832 10d5 1F       		.uleb128 0x1f
 2833 10d6 6D736700 		.ascii	"msg\000"
 2834 10da 01       		.byte	0x1
 2835 10db 5A       		.byte	0x5a
 2836 10dc FA000000 		.4byte	0xfa
 2837 10e0 63030000 		.4byte	.LLST24
 2838 10e4 20       		.uleb128 0x20
 2839 10e5 16000000 		.4byte	.LVL43
 2840 10e9 71110000 		.4byte	0x1171
 2841 10ed F8100000 		.4byte	0x10f8
 2842 10f1 21       		.uleb128 0x21
 2843 10f2 01       		.byte	0x1
 2844 10f3 50       		.byte	0x50
 2845 10f4 02       		.byte	0x2
 2846 10f5 75       		.byte	0x75
 2847 10f6 00       		.sleb128 0
ARM GAS  /tmp/ccS9r29S.s 			page 51


 2848 10f7 00       		.byte	0
 2849 10f8 20       		.uleb128 0x20
 2850 10f9 2E000000 		.4byte	.LVL44
 2851 10fd 85110000 		.4byte	0x1185
 2852 1101 30110000 		.4byte	0x1130
 2853 1105 21       		.uleb128 0x21
 2854 1106 01       		.byte	0x1
 2855 1107 53       		.byte	0x53
 2856 1108 01       		.byte	0x1
 2857 1109 31       		.byte	0x31
 2858 110a 21       		.uleb128 0x21
 2859 110b 01       		.byte	0x1
 2860 110c 52       		.byte	0x52
 2861 110d 02       		.byte	0x2
 2862 110e 74       		.byte	0x74
 2863 110f 00       		.sleb128 0
 2864 1110 21       		.uleb128 0x21
 2865 1111 01       		.byte	0x1
 2866 1112 51       		.byte	0x51
 2867 1113 02       		.byte	0x2
 2868 1114 77       		.byte	0x77
 2869 1115 00       		.sleb128 0
 2870 1116 21       		.uleb128 0x21
 2871 1117 01       		.byte	0x1
 2872 1118 50       		.byte	0x50
 2873 1119 02       		.byte	0x2
 2874 111a 75       		.byte	0x75
 2875 111b 00       		.sleb128 0
 2876 111c 21       		.uleb128 0x21
 2877 111d 02       		.byte	0x2
 2878 111e 7D       		.byte	0x7d
 2879 111f 08       		.sleb128 8
 2880 1120 01       		.byte	0x1
 2881 1121 34       		.byte	0x34
 2882 1122 21       		.uleb128 0x21
 2883 1123 02       		.byte	0x2
 2884 1124 7D       		.byte	0x7d
 2885 1125 04       		.sleb128 4
 2886 1126 01       		.byte	0x1
 2887 1127 36       		.byte	0x36
 2888 1128 21       		.uleb128 0x21
 2889 1129 02       		.byte	0x2
 2890 112a 7D       		.byte	0x7d
 2891 112b 00       		.sleb128 0
 2892 112c 02       		.byte	0x2
 2893 112d 91       		.byte	0x91
 2894 112e 58       		.sleb128 -40
 2895 112f 00       		.byte	0
 2896 1130 20       		.uleb128 0x20
 2897 1131 36000000 		.4byte	.LVL47
 2898 1135 BB110000 		.4byte	0x11bb
 2899 1139 44110000 		.4byte	0x1144
 2900 113d 21       		.uleb128 0x21
 2901 113e 01       		.byte	0x1
 2902 113f 50       		.byte	0x50
 2903 1140 02       		.byte	0x2
 2904 1141 75       		.byte	0x75
ARM GAS  /tmp/ccS9r29S.s 			page 52


 2905 1142 00       		.sleb128 0
 2906 1143 00       		.byte	0
 2907 1144 22       		.uleb128 0x22
 2908 1145 40000000 		.4byte	.LVL48
 2909 1149 CF110000 		.4byte	0x11cf
 2910 114d 21       		.uleb128 0x21
 2911 114e 01       		.byte	0x1
 2912 114f 50       		.byte	0x50
 2913 1150 02       		.byte	0x2
 2914 1151 75       		.byte	0x75
 2915 1152 00       		.sleb128 0
 2916 1153 00       		.byte	0
 2917 1154 00       		.byte	0
 2918 1155 24       		.uleb128 0x24
 2919 1156 E6000000 		.4byte	.LASF170
 2920 115a 11       		.byte	0x11
 2921 115b 0706     		.2byte	0x607
 2922 115d F5050000 		.4byte	0x5f5
 2923 1161 01       		.byte	0x1
 2924 1162 01       		.byte	0x1
 2925 1163 25       		.uleb128 0x25
 2926 1164 53443200 		.ascii	"SD2\000"
 2927 1168 12       		.byte	0x12
 2928 1169 1201     		.2byte	0x112
 2929 116b 240B0000 		.4byte	0xb24
 2930 116f 01       		.byte	0x1
 2931 1170 01       		.byte	0x1
 2932 1171 26       		.uleb128 0x26
 2933 1172 01       		.byte	0x1
 2934 1173 6B060000 		.4byte	.LASF171
 2935 1177 0D       		.byte	0xd
 2936 1178 87       		.byte	0x87
 2937 1179 01       		.byte	0x1
 2938 117a 01       		.byte	0x1
 2939 117b 85110000 		.4byte	0x1185
 2940 117f 12       		.uleb128 0x12
 2941 1180 0D0D0000 		.4byte	0xd0d
 2942 1184 00       		.byte	0
 2943 1185 27       		.uleb128 0x27
 2944 1186 01       		.byte	0x1
 2945 1187 FA000000 		.4byte	.LASF177
 2946 118b 0D       		.byte	0xd
 2947 118c 7D       		.byte	0x7d
 2948 118d 01       		.byte	0x1
 2949 118e FA000000 		.4byte	0xfa
 2950 1192 01       		.byte	0x1
 2951 1193 BB110000 		.4byte	0x11bb
 2952 1197 12       		.uleb128 0x12
 2953 1198 0D0D0000 		.4byte	0xd0d
 2954 119c 12       		.uleb128 0x12
 2955 119d 78090000 		.4byte	0x978
 2956 11a1 12       		.uleb128 0x12
 2957 11a2 A4050000 		.4byte	0x5a4
 2958 11a6 12       		.uleb128 0x12
 2959 11a7 30000000 		.4byte	0x30
 2960 11ab 12       		.uleb128 0x12
 2961 11ac 6E050000 		.4byte	0x56e
ARM GAS  /tmp/ccS9r29S.s 			page 53


 2962 11b0 12       		.uleb128 0x12
 2963 11b1 30000000 		.4byte	0x30
 2964 11b5 12       		.uleb128 0x12
 2965 11b6 1B010000 		.4byte	0x11b
 2966 11ba 00       		.byte	0
 2967 11bb 26       		.uleb128 0x26
 2968 11bc 01       		.byte	0x1
 2969 11bd D8000000 		.4byte	.LASF172
 2970 11c1 0D       		.byte	0xd
 2971 11c2 88       		.byte	0x88
 2972 11c3 01       		.byte	0x1
 2973 11c4 01       		.byte	0x1
 2974 11c5 CF110000 		.4byte	0x11cf
 2975 11c9 12       		.uleb128 0x12
 2976 11ca 0D0D0000 		.4byte	0xd0d
 2977 11ce 00       		.byte	0
 2978 11cf 26       		.uleb128 0x26
 2979 11d0 01       		.byte	0x1
 2980 11d1 BE000000 		.4byte	.LASF173
 2981 11d5 10       		.byte	0x10
 2982 11d6 07       		.byte	0x7
 2983 11d7 01       		.byte	0x1
 2984 11d8 01       		.byte	0x1
 2985 11d9 E8110000 		.4byte	0x11e8
 2986 11dd 12       		.uleb128 0x12
 2987 11de 0D0D0000 		.4byte	0xd0d
 2988 11e2 12       		.uleb128 0x12
 2989 11e3 E8110000 		.4byte	0x11e8
 2990 11e7 00       		.byte	0
 2991 11e8 09       		.uleb128 0x9
 2992 11e9 04       		.byte	0x4
 2993 11ea 240B0000 		.4byte	0xb24
 2994 11ee 00       		.byte	0
 2995              		.section	.debug_abbrev,"",%progbits
 2996              	.Ldebug_abbrev0:
 2997 0000 01       		.uleb128 0x1
 2998 0001 11       		.uleb128 0x11
 2999 0002 01       		.byte	0x1
 3000 0003 25       		.uleb128 0x25
 3001 0004 0E       		.uleb128 0xe
 3002 0005 13       		.uleb128 0x13
 3003 0006 0B       		.uleb128 0xb
 3004 0007 03       		.uleb128 0x3
 3005 0008 0E       		.uleb128 0xe
 3006 0009 1B       		.uleb128 0x1b
 3007 000a 0E       		.uleb128 0xe
 3008 000b 55       		.uleb128 0x55
 3009 000c 06       		.uleb128 0x6
 3010 000d 11       		.uleb128 0x11
 3011 000e 01       		.uleb128 0x1
 3012 000f 52       		.uleb128 0x52
 3013 0010 01       		.uleb128 0x1
 3014 0011 10       		.uleb128 0x10
 3015 0012 06       		.uleb128 0x6
 3016 0013 00       		.byte	0
 3017 0014 00       		.byte	0
 3018 0015 02       		.uleb128 0x2
ARM GAS  /tmp/ccS9r29S.s 			page 54


 3019 0016 24       		.uleb128 0x24
 3020 0017 00       		.byte	0
 3021 0018 0B       		.uleb128 0xb
 3022 0019 0B       		.uleb128 0xb
 3023 001a 3E       		.uleb128 0x3e
 3024 001b 0B       		.uleb128 0xb
 3025 001c 03       		.uleb128 0x3
 3026 001d 08       		.uleb128 0x8
 3027 001e 00       		.byte	0
 3028 001f 00       		.byte	0
 3029 0020 03       		.uleb128 0x3
 3030 0021 16       		.uleb128 0x16
 3031 0022 00       		.byte	0
 3032 0023 03       		.uleb128 0x3
 3033 0024 0E       		.uleb128 0xe
 3034 0025 3A       		.uleb128 0x3a
 3035 0026 0B       		.uleb128 0xb
 3036 0027 3B       		.uleb128 0x3b
 3037 0028 0B       		.uleb128 0xb
 3038 0029 49       		.uleb128 0x49
 3039 002a 13       		.uleb128 0x13
 3040 002b 00       		.byte	0
 3041 002c 00       		.byte	0
 3042 002d 04       		.uleb128 0x4
 3043 002e 24       		.uleb128 0x24
 3044 002f 00       		.byte	0
 3045 0030 0B       		.uleb128 0xb
 3046 0031 0B       		.uleb128 0xb
 3047 0032 3E       		.uleb128 0x3e
 3048 0033 0B       		.uleb128 0xb
 3049 0034 03       		.uleb128 0x3
 3050 0035 0E       		.uleb128 0xe
 3051 0036 00       		.byte	0
 3052 0037 00       		.byte	0
 3053 0038 05       		.uleb128 0x5
 3054 0039 13       		.uleb128 0x13
 3055 003a 01       		.byte	0x1
 3056 003b 03       		.uleb128 0x3
 3057 003c 0E       		.uleb128 0xe
 3058 003d 0B       		.uleb128 0xb
 3059 003e 0B       		.uleb128 0xb
 3060 003f 3A       		.uleb128 0x3a
 3061 0040 0B       		.uleb128 0xb
 3062 0041 3B       		.uleb128 0x3b
 3063 0042 0B       		.uleb128 0xb
 3064 0043 01       		.uleb128 0x1
 3065 0044 13       		.uleb128 0x13
 3066 0045 00       		.byte	0
 3067 0046 00       		.byte	0
 3068 0047 06       		.uleb128 0x6
 3069 0048 0D       		.uleb128 0xd
 3070 0049 00       		.byte	0
 3071 004a 03       		.uleb128 0x3
 3072 004b 0E       		.uleb128 0xe
 3073 004c 3A       		.uleb128 0x3a
 3074 004d 0B       		.uleb128 0xb
 3075 004e 3B       		.uleb128 0x3b
ARM GAS  /tmp/ccS9r29S.s 			page 55


 3076 004f 0B       		.uleb128 0xb
 3077 0050 49       		.uleb128 0x49
 3078 0051 13       		.uleb128 0x13
 3079 0052 38       		.uleb128 0x38
 3080 0053 0A       		.uleb128 0xa
 3081 0054 00       		.byte	0
 3082 0055 00       		.byte	0
 3083 0056 07       		.uleb128 0x7
 3084 0057 0D       		.uleb128 0xd
 3085 0058 00       		.byte	0
 3086 0059 03       		.uleb128 0x3
 3087 005a 08       		.uleb128 0x8
 3088 005b 3A       		.uleb128 0x3a
 3089 005c 0B       		.uleb128 0xb
 3090 005d 3B       		.uleb128 0x3b
 3091 005e 0B       		.uleb128 0xb
 3092 005f 49       		.uleb128 0x49
 3093 0060 13       		.uleb128 0x13
 3094 0061 38       		.uleb128 0x38
 3095 0062 0A       		.uleb128 0xa
 3096 0063 00       		.byte	0
 3097 0064 00       		.byte	0
 3098 0065 08       		.uleb128 0x8
 3099 0066 13       		.uleb128 0x13
 3100 0067 01       		.byte	0x1
 3101 0068 0B       		.uleb128 0xb
 3102 0069 0B       		.uleb128 0xb
 3103 006a 3A       		.uleb128 0x3a
 3104 006b 0B       		.uleb128 0xb
 3105 006c 3B       		.uleb128 0x3b
 3106 006d 0B       		.uleb128 0xb
 3107 006e 01       		.uleb128 0x1
 3108 006f 13       		.uleb128 0x13
 3109 0070 00       		.byte	0
 3110 0071 00       		.byte	0
 3111 0072 09       		.uleb128 0x9
 3112 0073 0F       		.uleb128 0xf
 3113 0074 00       		.byte	0
 3114 0075 0B       		.uleb128 0xb
 3115 0076 0B       		.uleb128 0xb
 3116 0077 49       		.uleb128 0x49
 3117 0078 13       		.uleb128 0x13
 3118 0079 00       		.byte	0
 3119 007a 00       		.byte	0
 3120 007b 0A       		.uleb128 0xa
 3121 007c 0F       		.uleb128 0xf
 3122 007d 00       		.byte	0
 3123 007e 0B       		.uleb128 0xb
 3124 007f 0B       		.uleb128 0xb
 3125 0080 00       		.byte	0
 3126 0081 00       		.byte	0
 3127 0082 0B       		.uleb128 0xb
 3128 0083 13       		.uleb128 0x13
 3129 0084 01       		.byte	0x1
 3130 0085 03       		.uleb128 0x3
 3131 0086 0E       		.uleb128 0xe
 3132 0087 0B       		.uleb128 0xb
ARM GAS  /tmp/ccS9r29S.s 			page 56


 3133 0088 0B       		.uleb128 0xb
 3134 0089 3A       		.uleb128 0x3a
 3135 008a 0B       		.uleb128 0xb
 3136 008b 3B       		.uleb128 0x3b
 3137 008c 05       		.uleb128 0x5
 3138 008d 01       		.uleb128 0x1
 3139 008e 13       		.uleb128 0x13
 3140 008f 00       		.byte	0
 3141 0090 00       		.byte	0
 3142 0091 0C       		.uleb128 0xc
 3143 0092 0D       		.uleb128 0xd
 3144 0093 00       		.byte	0
 3145 0094 03       		.uleb128 0x3
 3146 0095 08       		.uleb128 0x8
 3147 0096 3A       		.uleb128 0x3a
 3148 0097 0B       		.uleb128 0xb
 3149 0098 3B       		.uleb128 0x3b
 3150 0099 05       		.uleb128 0x5
 3151 009a 49       		.uleb128 0x49
 3152 009b 13       		.uleb128 0x13
 3153 009c 38       		.uleb128 0x38
 3154 009d 0A       		.uleb128 0xa
 3155 009e 00       		.byte	0
 3156 009f 00       		.byte	0
 3157 00a0 0D       		.uleb128 0xd
 3158 00a1 35       		.uleb128 0x35
 3159 00a2 00       		.byte	0
 3160 00a3 49       		.uleb128 0x49
 3161 00a4 13       		.uleb128 0x13
 3162 00a5 00       		.byte	0
 3163 00a6 00       		.byte	0
 3164 00a7 0E       		.uleb128 0xe
 3165 00a8 17       		.uleb128 0x17
 3166 00a9 01       		.byte	0x1
 3167 00aa 0B       		.uleb128 0xb
 3168 00ab 0B       		.uleb128 0xb
 3169 00ac 3A       		.uleb128 0x3a
 3170 00ad 0B       		.uleb128 0xb
 3171 00ae 3B       		.uleb128 0x3b
 3172 00af 0B       		.uleb128 0xb
 3173 00b0 01       		.uleb128 0x1
 3174 00b1 13       		.uleb128 0x13
 3175 00b2 00       		.byte	0
 3176 00b3 00       		.byte	0
 3177 00b4 0F       		.uleb128 0xf
 3178 00b5 0D       		.uleb128 0xd
 3179 00b6 00       		.byte	0
 3180 00b7 03       		.uleb128 0x3
 3181 00b8 0E       		.uleb128 0xe
 3182 00b9 3A       		.uleb128 0x3a
 3183 00ba 0B       		.uleb128 0xb
 3184 00bb 3B       		.uleb128 0x3b
 3185 00bc 0B       		.uleb128 0xb
 3186 00bd 49       		.uleb128 0x49
 3187 00be 13       		.uleb128 0x13
 3188 00bf 00       		.byte	0
 3189 00c0 00       		.byte	0
ARM GAS  /tmp/ccS9r29S.s 			page 57


 3190 00c1 10       		.uleb128 0x10
 3191 00c2 26       		.uleb128 0x26
 3192 00c3 00       		.byte	0
 3193 00c4 49       		.uleb128 0x49
 3194 00c5 13       		.uleb128 0x13
 3195 00c6 00       		.byte	0
 3196 00c7 00       		.byte	0
 3197 00c8 11       		.uleb128 0x11
 3198 00c9 15       		.uleb128 0x15
 3199 00ca 01       		.byte	0x1
 3200 00cb 27       		.uleb128 0x27
 3201 00cc 0C       		.uleb128 0xc
 3202 00cd 49       		.uleb128 0x49
 3203 00ce 13       		.uleb128 0x13
 3204 00cf 01       		.uleb128 0x1
 3205 00d0 13       		.uleb128 0x13
 3206 00d1 00       		.byte	0
 3207 00d2 00       		.byte	0
 3208 00d3 12       		.uleb128 0x12
 3209 00d4 05       		.uleb128 0x5
 3210 00d5 00       		.byte	0
 3211 00d6 49       		.uleb128 0x49
 3212 00d7 13       		.uleb128 0x13
 3213 00d8 00       		.byte	0
 3214 00d9 00       		.byte	0
 3215 00da 13       		.uleb128 0x13
 3216 00db 15       		.uleb128 0x15
 3217 00dc 01       		.byte	0x1
 3218 00dd 27       		.uleb128 0x27
 3219 00de 0C       		.uleb128 0xc
 3220 00df 01       		.uleb128 0x1
 3221 00e0 13       		.uleb128 0x13
 3222 00e1 00       		.byte	0
 3223 00e2 00       		.byte	0
 3224 00e3 14       		.uleb128 0x14
 3225 00e4 13       		.uleb128 0x13
 3226 00e5 01       		.byte	0x1
 3227 00e6 0B       		.uleb128 0xb
 3228 00e7 0B       		.uleb128 0xb
 3229 00e8 3A       		.uleb128 0x3a
 3230 00e9 0B       		.uleb128 0xb
 3231 00ea 3B       		.uleb128 0x3b
 3232 00eb 05       		.uleb128 0x5
 3233 00ec 01       		.uleb128 0x1
 3234 00ed 13       		.uleb128 0x13
 3235 00ee 00       		.byte	0
 3236 00ef 00       		.byte	0
 3237 00f0 15       		.uleb128 0x15
 3238 00f1 0D       		.uleb128 0xd
 3239 00f2 00       		.byte	0
 3240 00f3 03       		.uleb128 0x3
 3241 00f4 0E       		.uleb128 0xe
 3242 00f5 3A       		.uleb128 0x3a
 3243 00f6 0B       		.uleb128 0xb
 3244 00f7 3B       		.uleb128 0x3b
 3245 00f8 05       		.uleb128 0x5
 3246 00f9 49       		.uleb128 0x49
ARM GAS  /tmp/ccS9r29S.s 			page 58


 3247 00fa 13       		.uleb128 0x13
 3248 00fb 38       		.uleb128 0x38
 3249 00fc 0A       		.uleb128 0xa
 3250 00fd 00       		.byte	0
 3251 00fe 00       		.byte	0
 3252 00ff 16       		.uleb128 0x16
 3253 0100 16       		.uleb128 0x16
 3254 0101 00       		.byte	0
 3255 0102 03       		.uleb128 0x3
 3256 0103 0E       		.uleb128 0xe
 3257 0104 3A       		.uleb128 0x3a
 3258 0105 0B       		.uleb128 0xb
 3259 0106 3B       		.uleb128 0x3b
 3260 0107 05       		.uleb128 0x5
 3261 0108 49       		.uleb128 0x49
 3262 0109 13       		.uleb128 0x13
 3263 010a 00       		.byte	0
 3264 010b 00       		.byte	0
 3265 010c 17       		.uleb128 0x17
 3266 010d 04       		.uleb128 0x4
 3267 010e 01       		.byte	0x1
 3268 010f 0B       		.uleb128 0xb
 3269 0110 0B       		.uleb128 0xb
 3270 0111 3A       		.uleb128 0x3a
 3271 0112 0B       		.uleb128 0xb
 3272 0113 3B       		.uleb128 0x3b
 3273 0114 0B       		.uleb128 0xb
 3274 0115 01       		.uleb128 0x1
 3275 0116 13       		.uleb128 0x13
 3276 0117 00       		.byte	0
 3277 0118 00       		.byte	0
 3278 0119 18       		.uleb128 0x18
 3279 011a 28       		.uleb128 0x28
 3280 011b 00       		.byte	0
 3281 011c 03       		.uleb128 0x3
 3282 011d 0E       		.uleb128 0xe
 3283 011e 1C       		.uleb128 0x1c
 3284 011f 0D       		.uleb128 0xd
 3285 0120 00       		.byte	0
 3286 0121 00       		.byte	0
 3287 0122 19       		.uleb128 0x19
 3288 0123 04       		.uleb128 0x4
 3289 0124 01       		.byte	0x1
 3290 0125 0B       		.uleb128 0xb
 3291 0126 0B       		.uleb128 0xb
 3292 0127 3A       		.uleb128 0x3a
 3293 0128 0B       		.uleb128 0xb
 3294 0129 3B       		.uleb128 0x3b
 3295 012a 05       		.uleb128 0x5
 3296 012b 01       		.uleb128 0x1
 3297 012c 13       		.uleb128 0x13
 3298 012d 00       		.byte	0
 3299 012e 00       		.byte	0
 3300 012f 1A       		.uleb128 0x1a
 3301 0130 01       		.uleb128 0x1
 3302 0131 01       		.byte	0x1
 3303 0132 49       		.uleb128 0x49
ARM GAS  /tmp/ccS9r29S.s 			page 59


 3304 0133 13       		.uleb128 0x13
 3305 0134 01       		.uleb128 0x1
 3306 0135 13       		.uleb128 0x13
 3307 0136 00       		.byte	0
 3308 0137 00       		.byte	0
 3309 0138 1B       		.uleb128 0x1b
 3310 0139 21       		.uleb128 0x21
 3311 013a 00       		.byte	0
 3312 013b 49       		.uleb128 0x49
 3313 013c 13       		.uleb128 0x13
 3314 013d 2F       		.uleb128 0x2f
 3315 013e 0B       		.uleb128 0xb
 3316 013f 00       		.byte	0
 3317 0140 00       		.byte	0
 3318 0141 1C       		.uleb128 0x1c
 3319 0142 2E       		.uleb128 0x2e
 3320 0143 01       		.byte	0x1
 3321 0144 3F       		.uleb128 0x3f
 3322 0145 0C       		.uleb128 0xc
 3323 0146 03       		.uleb128 0x3
 3324 0147 0E       		.uleb128 0xe
 3325 0148 3A       		.uleb128 0x3a
 3326 0149 0B       		.uleb128 0xb
 3327 014a 3B       		.uleb128 0x3b
 3328 014b 0B       		.uleb128 0xb
 3329 014c 27       		.uleb128 0x27
 3330 014d 0C       		.uleb128 0xc
 3331 014e 11       		.uleb128 0x11
 3332 014f 01       		.uleb128 0x1
 3333 0150 12       		.uleb128 0x12
 3334 0151 01       		.uleb128 0x1
 3335 0152 40       		.uleb128 0x40
 3336 0153 06       		.uleb128 0x6
 3337 0154 9742     		.uleb128 0x2117
 3338 0156 0C       		.uleb128 0xc
 3339 0157 01       		.uleb128 0x1
 3340 0158 13       		.uleb128 0x13
 3341 0159 00       		.byte	0
 3342 015a 00       		.byte	0
 3343 015b 1D       		.uleb128 0x1d
 3344 015c 05       		.uleb128 0x5
 3345 015d 00       		.byte	0
 3346 015e 03       		.uleb128 0x3
 3347 015f 0E       		.uleb128 0xe
 3348 0160 3A       		.uleb128 0x3a
 3349 0161 0B       		.uleb128 0xb
 3350 0162 3B       		.uleb128 0x3b
 3351 0163 0B       		.uleb128 0xb
 3352 0164 49       		.uleb128 0x49
 3353 0165 13       		.uleb128 0x13
 3354 0166 02       		.uleb128 0x2
 3355 0167 06       		.uleb128 0x6
 3356 0168 00       		.byte	0
 3357 0169 00       		.byte	0
 3358 016a 1E       		.uleb128 0x1e
 3359 016b 34       		.uleb128 0x34
 3360 016c 00       		.byte	0
ARM GAS  /tmp/ccS9r29S.s 			page 60


 3361 016d 03       		.uleb128 0x3
 3362 016e 0E       		.uleb128 0xe
 3363 016f 3A       		.uleb128 0x3a
 3364 0170 0B       		.uleb128 0xb
 3365 0171 3B       		.uleb128 0x3b
 3366 0172 0B       		.uleb128 0xb
 3367 0173 49       		.uleb128 0x49
 3368 0174 13       		.uleb128 0x13
 3369 0175 02       		.uleb128 0x2
 3370 0176 0A       		.uleb128 0xa
 3371 0177 00       		.byte	0
 3372 0178 00       		.byte	0
 3373 0179 1F       		.uleb128 0x1f
 3374 017a 34       		.uleb128 0x34
 3375 017b 00       		.byte	0
 3376 017c 03       		.uleb128 0x3
 3377 017d 08       		.uleb128 0x8
 3378 017e 3A       		.uleb128 0x3a
 3379 017f 0B       		.uleb128 0xb
 3380 0180 3B       		.uleb128 0x3b
 3381 0181 0B       		.uleb128 0xb
 3382 0182 49       		.uleb128 0x49
 3383 0183 13       		.uleb128 0x13
 3384 0184 02       		.uleb128 0x2
 3385 0185 06       		.uleb128 0x6
 3386 0186 00       		.byte	0
 3387 0187 00       		.byte	0
 3388 0188 20       		.uleb128 0x20
 3389 0189 898201   		.uleb128 0x4109
 3390 018c 01       		.byte	0x1
 3391 018d 11       		.uleb128 0x11
 3392 018e 01       		.uleb128 0x1
 3393 018f 31       		.uleb128 0x31
 3394 0190 13       		.uleb128 0x13
 3395 0191 01       		.uleb128 0x1
 3396 0192 13       		.uleb128 0x13
 3397 0193 00       		.byte	0
 3398 0194 00       		.byte	0
 3399 0195 21       		.uleb128 0x21
 3400 0196 8A8201   		.uleb128 0x410a
 3401 0199 00       		.byte	0
 3402 019a 02       		.uleb128 0x2
 3403 019b 0A       		.uleb128 0xa
 3404 019c 9142     		.uleb128 0x2111
 3405 019e 0A       		.uleb128 0xa
 3406 019f 00       		.byte	0
 3407 01a0 00       		.byte	0
 3408 01a1 22       		.uleb128 0x22
 3409 01a2 898201   		.uleb128 0x4109
 3410 01a5 01       		.byte	0x1
 3411 01a6 11       		.uleb128 0x11
 3412 01a7 01       		.uleb128 0x1
 3413 01a8 31       		.uleb128 0x31
 3414 01a9 13       		.uleb128 0x13
 3415 01aa 00       		.byte	0
 3416 01ab 00       		.byte	0
 3417 01ac 23       		.uleb128 0x23
ARM GAS  /tmp/ccS9r29S.s 			page 61


 3418 01ad 05       		.uleb128 0x5
 3419 01ae 00       		.byte	0
 3420 01af 03       		.uleb128 0x3
 3421 01b0 0E       		.uleb128 0xe
 3422 01b1 3A       		.uleb128 0x3a
 3423 01b2 0B       		.uleb128 0xb
 3424 01b3 3B       		.uleb128 0x3b
 3425 01b4 0B       		.uleb128 0xb
 3426 01b5 49       		.uleb128 0x49
 3427 01b6 13       		.uleb128 0x13
 3428 01b7 02       		.uleb128 0x2
 3429 01b8 0A       		.uleb128 0xa
 3430 01b9 00       		.byte	0
 3431 01ba 00       		.byte	0
 3432 01bb 24       		.uleb128 0x24
 3433 01bc 34       		.uleb128 0x34
 3434 01bd 00       		.byte	0
 3435 01be 03       		.uleb128 0x3
 3436 01bf 0E       		.uleb128 0xe
 3437 01c0 3A       		.uleb128 0x3a
 3438 01c1 0B       		.uleb128 0xb
 3439 01c2 3B       		.uleb128 0x3b
 3440 01c3 05       		.uleb128 0x5
 3441 01c4 49       		.uleb128 0x49
 3442 01c5 13       		.uleb128 0x13
 3443 01c6 3F       		.uleb128 0x3f
 3444 01c7 0C       		.uleb128 0xc
 3445 01c8 3C       		.uleb128 0x3c
 3446 01c9 0C       		.uleb128 0xc
 3447 01ca 00       		.byte	0
 3448 01cb 00       		.byte	0
 3449 01cc 25       		.uleb128 0x25
 3450 01cd 34       		.uleb128 0x34
 3451 01ce 00       		.byte	0
 3452 01cf 03       		.uleb128 0x3
 3453 01d0 08       		.uleb128 0x8
 3454 01d1 3A       		.uleb128 0x3a
 3455 01d2 0B       		.uleb128 0xb
 3456 01d3 3B       		.uleb128 0x3b
 3457 01d4 05       		.uleb128 0x5
 3458 01d5 49       		.uleb128 0x49
 3459 01d6 13       		.uleb128 0x13
 3460 01d7 3F       		.uleb128 0x3f
 3461 01d8 0C       		.uleb128 0xc
 3462 01d9 3C       		.uleb128 0x3c
 3463 01da 0C       		.uleb128 0xc
 3464 01db 00       		.byte	0
 3465 01dc 00       		.byte	0
 3466 01dd 26       		.uleb128 0x26
 3467 01de 2E       		.uleb128 0x2e
 3468 01df 01       		.byte	0x1
 3469 01e0 3F       		.uleb128 0x3f
 3470 01e1 0C       		.uleb128 0xc
 3471 01e2 03       		.uleb128 0x3
 3472 01e3 0E       		.uleb128 0xe
 3473 01e4 3A       		.uleb128 0x3a
 3474 01e5 0B       		.uleb128 0xb
ARM GAS  /tmp/ccS9r29S.s 			page 62


 3475 01e6 3B       		.uleb128 0x3b
 3476 01e7 0B       		.uleb128 0xb
 3477 01e8 27       		.uleb128 0x27
 3478 01e9 0C       		.uleb128 0xc
 3479 01ea 3C       		.uleb128 0x3c
 3480 01eb 0C       		.uleb128 0xc
 3481 01ec 01       		.uleb128 0x1
 3482 01ed 13       		.uleb128 0x13
 3483 01ee 00       		.byte	0
 3484 01ef 00       		.byte	0
 3485 01f0 27       		.uleb128 0x27
 3486 01f1 2E       		.uleb128 0x2e
 3487 01f2 01       		.byte	0x1
 3488 01f3 3F       		.uleb128 0x3f
 3489 01f4 0C       		.uleb128 0xc
 3490 01f5 03       		.uleb128 0x3
 3491 01f6 0E       		.uleb128 0xe
 3492 01f7 3A       		.uleb128 0x3a
 3493 01f8 0B       		.uleb128 0xb
 3494 01f9 3B       		.uleb128 0x3b
 3495 01fa 0B       		.uleb128 0xb
 3496 01fb 27       		.uleb128 0x27
 3497 01fc 0C       		.uleb128 0xc
 3498 01fd 49       		.uleb128 0x49
 3499 01fe 13       		.uleb128 0x13
 3500 01ff 3C       		.uleb128 0x3c
 3501 0200 0C       		.uleb128 0xc
 3502 0201 01       		.uleb128 0x1
 3503 0202 13       		.uleb128 0x13
 3504 0203 00       		.byte	0
 3505 0204 00       		.byte	0
 3506 0205 00       		.byte	0
 3507              		.section	.debug_loc,"",%progbits
 3508              	.Ldebug_loc0:
 3509              	.LLST0:
 3510 0000 00000000 		.4byte	.LFB63
 3511 0004 02000000 		.4byte	.LCFI0
 3512 0008 0200     		.2byte	0x2
 3513 000a 7D       		.byte	0x7d
 3514 000b 00       		.sleb128 0
 3515 000c 02000000 		.4byte	.LCFI0
 3516 0010 06000000 		.4byte	.LCFI1
 3517 0014 0200     		.2byte	0x2
 3518 0016 7D       		.byte	0x7d
 3519 0017 0C       		.sleb128 12
 3520 0018 06000000 		.4byte	.LCFI1
 3521 001c 48000000 		.4byte	.LFE63
 3522 0020 0200     		.2byte	0x2
 3523 0022 7D       		.byte	0x7d
 3524 0023 28       		.sleb128 40
 3525 0024 00000000 		.4byte	0
 3526 0028 00000000 		.4byte	0
 3527              	.LLST1:
 3528 002c 00000000 		.4byte	.LVL0
 3529 0030 17000000 		.4byte	.LVL2-1
 3530 0034 0100     		.2byte	0x1
 3531 0036 50       		.byte	0x50
ARM GAS  /tmp/ccS9r29S.s 			page 63


 3532 0037 17000000 		.4byte	.LVL2-1
 3533 003b 48000000 		.4byte	.LFE63
 3534 003f 0100     		.2byte	0x1
 3535 0041 54       		.byte	0x54
 3536 0042 00000000 		.4byte	0
 3537 0046 00000000 		.4byte	0
 3538              	.LLST2:
 3539 004a 00000000 		.4byte	.LVL0
 3540 004e 0A000000 		.4byte	.LVL1
 3541 0052 0100     		.2byte	0x1
 3542 0054 51       		.byte	0x51
 3543 0055 0A000000 		.4byte	.LVL1
 3544 0059 48000000 		.4byte	.LFE63
 3545 005d 0400     		.2byte	0x4
 3546 005f F3       		.byte	0xf3
 3547 0060 01       		.uleb128 0x1
 3548 0061 51       		.byte	0x51
 3549 0062 9F       		.byte	0x9f
 3550 0063 00000000 		.4byte	0
 3551 0067 00000000 		.4byte	0
 3552              	.LLST3:
 3553 006b 30000000 		.4byte	.LVL4
 3554 006f 32000000 		.4byte	.LVL5
 3555 0073 0100     		.2byte	0x1
 3556 0075 50       		.byte	0x50
 3557 0076 32000000 		.4byte	.LVL5
 3558 007a 48000000 		.4byte	.LFE63
 3559 007e 0100     		.2byte	0x1
 3560 0080 55       		.byte	0x55
 3561 0081 00000000 		.4byte	0
 3562 0085 00000000 		.4byte	0
 3563              	.LLST4:
 3564 0089 00000000 		.4byte	.LFB64
 3565 008d 04000000 		.4byte	.LCFI2
 3566 0091 0200     		.2byte	0x2
 3567 0093 7D       		.byte	0x7d
 3568 0094 00       		.sleb128 0
 3569 0095 04000000 		.4byte	.LCFI2
 3570 0099 06000000 		.4byte	.LCFI3
 3571 009d 0200     		.2byte	0x2
 3572 009f 7D       		.byte	0x7d
 3573 00a0 1C       		.sleb128 28
 3574 00a1 06000000 		.4byte	.LCFI3
 3575 00a5 7C000000 		.4byte	.LFE64
 3576 00a9 0300     		.2byte	0x3
 3577 00ab 7D       		.byte	0x7d
 3578 00ac C000     		.sleb128 64
 3579 00ae 00000000 		.4byte	0
 3580 00b2 00000000 		.4byte	0
 3581              	.LLST5:
 3582 00b6 00000000 		.4byte	.LVL8
 3583 00ba 19000000 		.4byte	.LVL9-1
 3584 00be 0100     		.2byte	0x1
 3585 00c0 50       		.byte	0x50
 3586 00c1 19000000 		.4byte	.LVL9-1
 3587 00c5 50000000 		.4byte	.LVL15
 3588 00c9 0100     		.2byte	0x1
ARM GAS  /tmp/ccS9r29S.s 			page 64


 3589 00cb 55       		.byte	0x55
 3590 00cc 50000000 		.4byte	.LVL15
 3591 00d0 7C000000 		.4byte	.LFE64
 3592 00d4 0400     		.2byte	0x4
 3593 00d6 F3       		.byte	0xf3
 3594 00d7 01       		.uleb128 0x1
 3595 00d8 50       		.byte	0x50
 3596 00d9 9F       		.byte	0x9f
 3597 00da 00000000 		.4byte	0
 3598 00de 00000000 		.4byte	0
 3599              	.LLST6:
 3600 00e2 00000000 		.4byte	.LVL8
 3601 00e6 19000000 		.4byte	.LVL9-1
 3602 00ea 0100     		.2byte	0x1
 3603 00ec 51       		.byte	0x51
 3604 00ed 19000000 		.4byte	.LVL9-1
 3605 00f1 7C000000 		.4byte	.LFE64
 3606 00f5 0400     		.2byte	0x4
 3607 00f7 F3       		.byte	0xf3
 3608 00f8 01       		.uleb128 0x1
 3609 00f9 51       		.byte	0x51
 3610 00fa 9F       		.byte	0x9f
 3611 00fb 00000000 		.4byte	0
 3612 00ff 00000000 		.4byte	0
 3613              	.LLST7:
 3614 0103 00000000 		.4byte	.LVL8
 3615 0107 19000000 		.4byte	.LVL9-1
 3616 010b 0100     		.2byte	0x1
 3617 010d 52       		.byte	0x52
 3618 010e 19000000 		.4byte	.LVL9-1
 3619 0112 7C000000 		.4byte	.LFE64
 3620 0116 0100     		.2byte	0x1
 3621 0118 58       		.byte	0x58
 3622 0119 00000000 		.4byte	0
 3623 011d 00000000 		.4byte	0
 3624              	.LLST8:
 3625 0121 00000000 		.4byte	.LVL8
 3626 0125 19000000 		.4byte	.LVL9-1
 3627 0129 0100     		.2byte	0x1
 3628 012b 53       		.byte	0x53
 3629 012c 19000000 		.4byte	.LVL9-1
 3630 0130 7C000000 		.4byte	.LFE64
 3631 0134 0100     		.2byte	0x1
 3632 0136 57       		.byte	0x57
 3633 0137 00000000 		.4byte	0
 3634 013b 00000000 		.4byte	0
 3635              	.LLST9:
 3636 013f 34000000 		.4byte	.LVL11
 3637 0143 36000000 		.4byte	.LVL12
 3638 0147 0100     		.2byte	0x1
 3639 0149 50       		.byte	0x50
 3640 014a 36000000 		.4byte	.LVL12
 3641 014e 58000000 		.4byte	.LVL16
 3642 0152 0100     		.2byte	0x1
 3643 0154 54       		.byte	0x54
 3644 0155 00000000 		.4byte	0
 3645 0159 00000000 		.4byte	0
ARM GAS  /tmp/ccS9r29S.s 			page 65


 3646              	.LLST10:
 3647 015d 00000000 		.4byte	.LFB65
 3648 0161 02000000 		.4byte	.LCFI4
 3649 0165 0200     		.2byte	0x2
 3650 0167 7D       		.byte	0x7d
 3651 0168 00       		.sleb128 0
 3652 0169 02000000 		.4byte	.LCFI4
 3653 016d 06000000 		.4byte	.LCFI5
 3654 0171 0200     		.2byte	0x2
 3655 0173 7D       		.byte	0x7d
 3656 0174 10       		.sleb128 16
 3657 0175 06000000 		.4byte	.LCFI5
 3658 0179 84000000 		.4byte	.LFE65
 3659 017d 0200     		.2byte	0x2
 3660 017f 7D       		.byte	0x7d
 3661 0180 28       		.sleb128 40
 3662 0181 00000000 		.4byte	0
 3663 0185 00000000 		.4byte	0
 3664              	.LLST11:
 3665 0189 00000000 		.4byte	.LVL17
 3666 018d 17000000 		.4byte	.LVL19-1
 3667 0191 0100     		.2byte	0x1
 3668 0193 50       		.byte	0x50
 3669 0194 17000000 		.4byte	.LVL19-1
 3670 0198 84000000 		.4byte	.LFE65
 3671 019c 0100     		.2byte	0x1
 3672 019e 54       		.byte	0x54
 3673 019f 00000000 		.4byte	0
 3674 01a3 00000000 		.4byte	0
 3675              	.LLST12:
 3676 01a7 00000000 		.4byte	.LVL17
 3677 01ab 0A000000 		.4byte	.LVL18
 3678 01af 0100     		.2byte	0x1
 3679 01b1 51       		.byte	0x51
 3680 01b2 0A000000 		.4byte	.LVL18
 3681 01b6 84000000 		.4byte	.LFE65
 3682 01ba 0400     		.2byte	0x4
 3683 01bc F3       		.byte	0xf3
 3684 01bd 01       		.uleb128 0x1
 3685 01be 51       		.byte	0x51
 3686 01bf 9F       		.byte	0x9f
 3687 01c0 00000000 		.4byte	0
 3688 01c4 00000000 		.4byte	0
 3689              	.LLST13:
 3690 01c8 30000000 		.4byte	.LVL21
 3691 01cc 32000000 		.4byte	.LVL22
 3692 01d0 0100     		.2byte	0x1
 3693 01d2 50       		.byte	0x50
 3694 01d3 32000000 		.4byte	.LVL22
 3695 01d7 62000000 		.4byte	.LVL26
 3696 01db 0100     		.2byte	0x1
 3697 01dd 56       		.byte	0x56
 3698 01de 62000000 		.4byte	.LVL26
 3699 01e2 64000000 		.4byte	.LVL27
 3700 01e6 0100     		.2byte	0x1
 3701 01e8 50       		.byte	0x50
 3702 01e9 64000000 		.4byte	.LVL27
ARM GAS  /tmp/ccS9r29S.s 			page 66


 3703 01ed 76000000 		.4byte	.LVL30
 3704 01f1 0100     		.2byte	0x1
 3705 01f3 55       		.byte	0x55
 3706 01f4 76000000 		.4byte	.LVL30
 3707 01f8 84000000 		.4byte	.LFE65
 3708 01fc 0100     		.2byte	0x1
 3709 01fe 56       		.byte	0x56
 3710 01ff 00000000 		.4byte	0
 3711 0203 00000000 		.4byte	0
 3712              	.LLST14:
 3713 0207 00000000 		.4byte	.LFB66
 3714 020b 04000000 		.4byte	.LCFI6
 3715 020f 0200     		.2byte	0x2
 3716 0211 7D       		.byte	0x7d
 3717 0212 00       		.sleb128 0
 3718 0213 04000000 		.4byte	.LCFI6
 3719 0217 06000000 		.4byte	.LCFI7
 3720 021b 0200     		.2byte	0x2
 3721 021d 7D       		.byte	0x7d
 3722 021e 18       		.sleb128 24
 3723 021f 06000000 		.4byte	.LCFI7
 3724 0223 7C000000 		.4byte	.LFE66
 3725 0227 0200     		.2byte	0x2
 3726 0229 7D       		.byte	0x7d
 3727 022a 38       		.sleb128 56
 3728 022b 00000000 		.4byte	0
 3729 022f 00000000 		.4byte	0
 3730              	.LLST15:
 3731 0233 00000000 		.4byte	.LVL32
 3732 0237 19000000 		.4byte	.LVL34-1
 3733 023b 0100     		.2byte	0x1
 3734 023d 50       		.byte	0x50
 3735 023e 19000000 		.4byte	.LVL34-1
 3736 0242 50000000 		.4byte	.LVL40
 3737 0246 0100     		.2byte	0x1
 3738 0248 55       		.byte	0x55
 3739 0249 50000000 		.4byte	.LVL40
 3740 024d 7C000000 		.4byte	.LFE66
 3741 0251 0400     		.2byte	0x4
 3742 0253 F3       		.byte	0xf3
 3743 0254 01       		.uleb128 0x1
 3744 0255 50       		.byte	0x50
 3745 0256 9F       		.byte	0x9f
 3746 0257 00000000 		.4byte	0
 3747 025b 00000000 		.4byte	0
 3748              	.LLST16:
 3749 025f 00000000 		.4byte	.LVL32
 3750 0263 19000000 		.4byte	.LVL34-1
 3751 0267 0100     		.2byte	0x1
 3752 0269 51       		.byte	0x51
 3753 026a 19000000 		.4byte	.LVL34-1
 3754 026e 7C000000 		.4byte	.LFE66
 3755 0272 0400     		.2byte	0x4
 3756 0274 F3       		.byte	0xf3
 3757 0275 01       		.uleb128 0x1
 3758 0276 51       		.byte	0x51
 3759 0277 9F       		.byte	0x9f
ARM GAS  /tmp/ccS9r29S.s 			page 67


 3760 0278 00000000 		.4byte	0
 3761 027c 00000000 		.4byte	0
 3762              	.LLST17:
 3763 0280 00000000 		.4byte	.LVL32
 3764 0284 19000000 		.4byte	.LVL34-1
 3765 0288 0100     		.2byte	0x1
 3766 028a 52       		.byte	0x52
 3767 028b 19000000 		.4byte	.LVL34-1
 3768 028f 7C000000 		.4byte	.LFE66
 3769 0293 0100     		.2byte	0x1
 3770 0295 57       		.byte	0x57
 3771 0296 00000000 		.4byte	0
 3772 029a 00000000 		.4byte	0
 3773              	.LLST18:
 3774 029e 00000000 		.4byte	.LVL32
 3775 02a2 0C000000 		.4byte	.LVL33
 3776 02a6 0100     		.2byte	0x1
 3777 02a8 53       		.byte	0x53
 3778 02a9 0C000000 		.4byte	.LVL33
 3779 02ad 7C000000 		.4byte	.LFE66
 3780 02b1 0100     		.2byte	0x1
 3781 02b3 56       		.byte	0x56
 3782 02b4 00000000 		.4byte	0
 3783 02b8 00000000 		.4byte	0
 3784              	.LLST19:
 3785 02bc 34000000 		.4byte	.LVL36
 3786 02c0 36000000 		.4byte	.LVL37
 3787 02c4 0100     		.2byte	0x1
 3788 02c6 50       		.byte	0x50
 3789 02c7 36000000 		.4byte	.LVL37
 3790 02cb 58000000 		.4byte	.LVL41
 3791 02cf 0100     		.2byte	0x1
 3792 02d1 54       		.byte	0x54
 3793 02d2 00000000 		.4byte	0
 3794 02d6 00000000 		.4byte	0
 3795              	.LLST20:
 3796 02da 00000000 		.4byte	.LFB67
 3797 02de 02000000 		.4byte	.LCFI8
 3798 02e2 0200     		.2byte	0x2
 3799 02e4 7D       		.byte	0x7d
 3800 02e5 00       		.sleb128 0
 3801 02e6 02000000 		.4byte	.LCFI8
 3802 02ea 04000000 		.4byte	.LCFI9
 3803 02ee 0200     		.2byte	0x2
 3804 02f0 7D       		.byte	0x7d
 3805 02f1 14       		.sleb128 20
 3806 02f2 04000000 		.4byte	.LCFI9
 3807 02f6 50000000 		.4byte	.LFE67
 3808 02fa 0200     		.2byte	0x2
 3809 02fc 7D       		.byte	0x7d
 3810 02fd 38       		.sleb128 56
 3811 02fe 00000000 		.4byte	0
 3812 0302 00000000 		.4byte	0
 3813              	.LLST21:
 3814 0306 00000000 		.4byte	.LVL42
 3815 030a 15000000 		.4byte	.LVL43-1
 3816 030e 0100     		.2byte	0x1
ARM GAS  /tmp/ccS9r29S.s 			page 68


 3817 0310 50       		.byte	0x50
 3818 0311 15000000 		.4byte	.LVL43-1
 3819 0315 50000000 		.4byte	.LFE67
 3820 0319 0100     		.2byte	0x1
 3821 031b 55       		.byte	0x55
 3822 031c 00000000 		.4byte	0
 3823 0320 00000000 		.4byte	0
 3824              	.LLST22:
 3825 0324 00000000 		.4byte	.LVL42
 3826 0328 15000000 		.4byte	.LVL43-1
 3827 032c 0100     		.2byte	0x1
 3828 032e 51       		.byte	0x51
 3829 032f 15000000 		.4byte	.LVL43-1
 3830 0333 50000000 		.4byte	.LFE67
 3831 0337 0400     		.2byte	0x4
 3832 0339 F3       		.byte	0xf3
 3833 033a 01       		.uleb128 0x1
 3834 033b 51       		.byte	0x51
 3835 033c 9F       		.byte	0x9f
 3836 033d 00000000 		.4byte	0
 3837 0341 00000000 		.4byte	0
 3838              	.LLST23:
 3839 0345 00000000 		.4byte	.LVL42
 3840 0349 15000000 		.4byte	.LVL43-1
 3841 034d 0100     		.2byte	0x1
 3842 034f 52       		.byte	0x52
 3843 0350 15000000 		.4byte	.LVL43-1
 3844 0354 50000000 		.4byte	.LFE67
 3845 0358 0100     		.2byte	0x1
 3846 035a 56       		.byte	0x56
 3847 035b 00000000 		.4byte	0
 3848 035f 00000000 		.4byte	0
 3849              	.LLST24:
 3850 0363 30000000 		.4byte	.LVL45
 3851 0367 32000000 		.4byte	.LVL46
 3852 036b 0100     		.2byte	0x1
 3853 036d 50       		.byte	0x50
 3854 036e 32000000 		.4byte	.LVL46
 3855 0372 50000000 		.4byte	.LFE67
 3856 0376 0100     		.2byte	0x1
 3857 0378 54       		.byte	0x54
 3858 0379 00000000 		.4byte	0
 3859 037d 00000000 		.4byte	0
 3860              		.section	.debug_aranges,"",%progbits
 3861 0000 3C000000 		.4byte	0x3c
 3862 0004 0200     		.2byte	0x2
 3863 0006 00000000 		.4byte	.Ldebug_info0
 3864 000a 04       		.byte	0x4
 3865 000b 00       		.byte	0
 3866 000c 0000     		.2byte	0
 3867 000e 0000     		.2byte	0
 3868 0010 00000000 		.4byte	.LFB63
 3869 0014 48000000 		.4byte	.LFE63-.LFB63
 3870 0018 00000000 		.4byte	.LFB64
 3871 001c 7C000000 		.4byte	.LFE64-.LFB64
 3872 0020 00000000 		.4byte	.LFB65
 3873 0024 84000000 		.4byte	.LFE65-.LFB65
ARM GAS  /tmp/ccS9r29S.s 			page 69


 3874 0028 00000000 		.4byte	.LFB66
 3875 002c 7C000000 		.4byte	.LFE66-.LFB66
 3876 0030 00000000 		.4byte	.LFB67
 3877 0034 50000000 		.4byte	.LFE67-.LFB67
 3878 0038 00000000 		.4byte	0
 3879 003c 00000000 		.4byte	0
 3880              		.section	.debug_ranges,"",%progbits
 3881              	.Ldebug_ranges0:
 3882 0000 00000000 		.4byte	.LFB63
 3883 0004 48000000 		.4byte	.LFE63
 3884 0008 00000000 		.4byte	.LFB64
 3885 000c 7C000000 		.4byte	.LFE64
 3886 0010 00000000 		.4byte	.LFB65
 3887 0014 84000000 		.4byte	.LFE65
 3888 0018 00000000 		.4byte	.LFB66
 3889 001c 7C000000 		.4byte	.LFE66
 3890 0020 00000000 		.4byte	.LFB67
 3891 0024 50000000 		.4byte	.LFE67
 3892 0028 00000000 		.4byte	0
 3893 002c 00000000 		.4byte	0
 3894              		.section	.debug_line,"",%progbits
 3895              	.Ldebug_line0:
 3896 0000 38030000 		.section	.debug_str,"MS",%progbits,1
 3896      02006A02 
 3896      00000201 
 3896      FB0E0D00 
 3896      01010101 
 3897              	.LASF120:
 3898 0000 5354445F 		.ascii	"STD_DUTY_CYCLE\000"
 3898      44555459 
 3898      5F435943 
 3898      4C4500
 3899              	.LASF137:
 3900 000f 646D6172 		.ascii	"dmarx\000"
 3900      7800
 3901              	.LASF123:
 3902 0015 69326364 		.ascii	"i2cdutycycle_t\000"
 3902      75747963 
 3902      79636C65 
 3902      5F7400
 3903              	.LASF113:
 3904 0024 69326373 		.ascii	"i2cstate_t\000"
 3904      74617465 
 3904      5F7400
 3905              	.LASF2:
 3906 002f 73697A65 		.ascii	"size_t\000"
 3906      5F7400
 3907              	.LASF65:
 3908 0036 7264796D 		.ascii	"rdymsg\000"
 3908      736700
 3909              	.LASF14:
 3910 003d 75696E74 		.ascii	"uint64_t\000"
 3910      36345F74 
 3910      00
 3911              	.LASF81:
 3912 0046 4F757470 		.ascii	"OutputQueue\000"
 3912      75745175 
ARM GAS  /tmp/ccS9r29S.s 			page 70


 3912      65756500 
 3913              	.LASF176:
 3914 0052 2F686F6D 		.ascii	"/home/ondra6ak/Documents/ARM/mlab-ChibiOS-RT/demos/"
 3914      652F6F6E 
 3914      64726136 
 3914      616B2F44 
 3914      6F63756D 
 3915 0085 53544D33 		.ascii	"STM32F107RxT01A-IMU01A\000"
 3915      32463130 
 3915      37527854 
 3915      3031412D 
 3915      494D5530 
 3916              	.LASF96:
 3917 009c 54524953 		.ascii	"TRISE\000"
 3917      4500
 3918              	.LASF15:
 3919 00a2 6C6F6E67 		.ascii	"long long unsigned int\000"
 3919      206C6F6E 
 3919      6720756E 
 3919      7369676E 
 3919      65642069 
 3920              	.LASF134:
 3921 00b9 61646472 		.ascii	"addr\000"
 3921      00
 3922              	.LASF173:
 3923 00be 69326347 		.ascii	"i2cGetErr\000"
 3923      65744572 
 3923      7200
 3924              	.LASF66:
 3925 00c8 65786974 		.ascii	"exitcode\000"
 3925      636F6465 
 3925      00
 3926              	.LASF105:
 3927 00d1 76656374 		.ascii	"vector\000"
 3927      6F7200
 3928              	.LASF172:
 3929 00d8 69326352 		.ascii	"i2cReleaseBus\000"
 3929      656C6561 
 3929      73654275 
 3929      7300
 3930              	.LASF170:
 3931 00e6 49544D5F 		.ascii	"ITM_RxBuffer\000"
 3931      52784275 
 3931      66666572 
 3931      00
 3932              	.LASF29:
 3933 00f3 705F7072 		.ascii	"p_prio\000"
 3933      696F00
 3934              	.LASF177:
 3935 00fa 6932634D 		.ascii	"i2cMasterTransmitTimeout\000"
 3935      61737465 
 3935      72547261 
 3935      6E736D69 
 3935      7454696D 
 3936              	.LASF154:
 3937 0113 72656164 		.ascii	"readt\000"
 3937      7400
ARM GAS  /tmp/ccS9r29S.s 			page 71


 3938              	.LASF71:
 3939 0119 715F7761 		.ascii	"q_waiting\000"
 3939      6974696E 
 3939      6700
 3940              	.LASF13:
 3941 0123 6C6F6E67 		.ascii	"long long int\000"
 3941      206C6F6E 
 3941      6720696E 
 3941      7400
 3942              	.LASF1:
 3943 0131 7369676E 		.ascii	"signed char\000"
 3943      65642063 
 3943      68617200 
 3944              	.LASF164:
 3945 013d 6779726F 		.ascii	"gyroRead\000"
 3945      52656164 
 3945      00
 3946              	.LASF99:
 3947 0146 47545052 		.ascii	"GTPR\000"
 3947      00
 3948              	.LASF46:
 3949 014b 705F6D70 		.ascii	"p_mpool\000"
 3949      6F6F6C00 
 3950              	.LASF55:
 3951 0153 6D5F7175 		.ascii	"m_queue\000"
 3951      65756500 
 3952              	.LASF20:
 3953 015b 74736C69 		.ascii	"tslices_t\000"
 3953      6365735F 
 3953      7400
 3954              	.LASF174:
 3955 0165 474E5520 		.ascii	"GNU C 4.7.4 20130913 (release) [ARM/embedded-4_7-br"
 3955      4320342E 
 3955      372E3420 
 3955      32303133 
 3955      30393133 
 3956 0198 616E6368 		.ascii	"anch revision 202601]\000"
 3956      20726576 
 3956      6973696F 
 3956      6E203230 
 3956      32363031 
 3957              	.LASF114:
 3958 01ae 69326361 		.ascii	"i2caddr_t\000"
 3958      6464725F 
 3958      7400
 3959              	.LASF129:
 3960 01b8 73746174 		.ascii	"state\000"
 3960      6500
 3961              	.LASF169:
 3962 01be 74656D70 		.ascii	"temp\000"
 3962      00
 3963              	.LASF10:
 3964 01c3 6C6F6E67 		.ascii	"long int\000"
 3964      20696E74 
 3964      00
 3965              	.LASF18:
 3966 01cc 74737461 		.ascii	"tstate_t\000"
ARM GAS  /tmp/ccS9r29S.s 			page 72


 3966      74655F74 
 3966      00
 3967              	.LASF133:
 3968 01d5 74687265 		.ascii	"thread\000"
 3968      616400
 3969              	.LASF37:
 3970 01dc 705F7265 		.ascii	"p_refs\000"
 3970      667300
 3971              	.LASF73:
 3972 01e3 715F6275 		.ascii	"q_buffer\000"
 3972      66666572 
 3972      00
 3973              	.LASF75:
 3974 01ec 715F7772 		.ascii	"q_wrptr\000"
 3974      70747200 
 3975              	.LASF39:
 3976 01f4 705F7469 		.ascii	"p_time\000"
 3976      6D6500
 3977              	.LASF110:
 3978 01fb 4932435F 		.ascii	"I2C_ACTIVE_TX\000"
 3978      41435449 
 3978      56455F54 
 3978      5800
 3979              	.LASF31:
 3980 0209 705F6E65 		.ascii	"p_newer\000"
 3980      77657200 
 3981              	.LASF135:
 3982 0211 7278646D 		.ascii	"rxdmamode\000"
 3982      616D6F64 
 3982      6500
 3983              	.LASF138:
 3984 021b 646D6174 		.ascii	"dmatx\000"
 3984      7800
 3985              	.LASF118:
 3986 0221 4F504D4F 		.ascii	"OPMODE_SMBUS_HOST\000"
 3986      44455F53 
 3986      4D425553 
 3986      5F484F53 
 3986      5400
 3987              	.LASF49:
 3988 0233 72656761 		.ascii	"regarm_t\000"
 3988      726D5F74 
 3988      00
 3989              	.LASF104:
 3990 023c 73656C66 		.ascii	"selfindex\000"
 3990      696E6465 
 3990      7800
 3991              	.LASF124:
 3992 0246 6F705F6D 		.ascii	"op_mode\000"
 3992      6F646500 
 3993              	.LASF26:
 3994 024e 54687265 		.ascii	"Thread\000"
 3994      616400
 3995              	.LASF63:
 3996 0255 4576656E 		.ascii	"EventSource\000"
 3996      74536F75 
 3996      72636500 
ARM GAS  /tmp/ccS9r29S.s 			page 73


 3997              	.LASF147:
 3998 0261 75736172 		.ascii	"usart\000"
 3998      7400
 3999              	.LASF0:
 4000 0267 756E7369 		.ascii	"unsigned int\000"
 4000      676E6564 
 4000      20696E74 
 4000      00
 4001              	.LASF7:
 4002 0274 75696E74 		.ascii	"uint16_t\000"
 4002      31365F74 
 4002      00
 4003              	.LASF148:
 4004 027d 53657269 		.ascii	"SerialDriverVMT\000"
 4004      616C4472 
 4004      69766572 
 4004      564D5400 
 4005              	.LASF157:
 4006 028d 61636349 		.ascii	"accInit\000"
 4006      6E697400 
 4007              	.LASF162:
 4008 0295 72785F64 		.ascii	"rx_data\000"
 4008      61746100 
 4009              	.LASF83:
 4010 029d 43504152 		.ascii	"CPAR\000"
 4010      00
 4011              	.LASF145:
 4012 02a2 69717565 		.ascii	"iqueue\000"
 4012      756500
 4013              	.LASF41:
 4014 02a9 705F6D73 		.ascii	"p_msgqueue\000"
 4014      67717565 
 4014      756500
 4015              	.LASF159:
 4016 02b4 6163635F 		.ascii	"acc_x\000"
 4016      7800
 4017              	.LASF160:
 4018 02ba 6163635F 		.ascii	"acc_y\000"
 4018      7900
 4019              	.LASF161:
 4020 02c0 6163635F 		.ascii	"acc_z\000"
 4020      7A00
 4021              	.LASF152:
 4022 02c6 67657474 		.ascii	"gett\000"
 4022      00
 4023              	.LASF103:
 4024 02cb 69736869 		.ascii	"ishift\000"
 4024      667400
 4025              	.LASF156:
 4026 02d2 74785F64 		.ascii	"tx_data\000"
 4026      61746100 
 4027              	.LASF144:
 4028 02da 6576656E 		.ascii	"event\000"
 4028      7400
 4029              	.LASF117:
 4030 02e0 4F504D4F 		.ascii	"OPMODE_SMBUS_DEVICE\000"
 4030      44455F53 
ARM GAS  /tmp/ccS9r29S.s 			page 74


 4030      4D425553 
 4030      5F444556 
 4030      49434500 
 4031              	.LASF8:
 4032 02f4 73686F72 		.ascii	"short unsigned int\000"
 4032      7420756E 
 4032      7369676E 
 4032      65642069 
 4032      6E7400
 4033              	.LASF128:
 4034 0307 49324344 		.ascii	"I2CDriver\000"
 4034      72697665 
 4034      7200
 4035              	.LASF125:
 4036 0311 636C6F63 		.ascii	"clock_speed\000"
 4036      6B5F7370 
 4036      65656400 
 4037              	.LASF22:
 4038 031d 6D73675F 		.ascii	"msg_t\000"
 4038      7400
 4039              	.LASF146:
 4040 0323 6F717565 		.ascii	"oqueue\000"
 4040      756500
 4041              	.LASF100:
 4042 032a 55534152 		.ascii	"USART_TypeDef\000"
 4042      545F5479 
 4042      70654465 
 4042      6600
 4043              	.LASF153:
 4044 0338 77726974 		.ascii	"writet\000"
 4044      657400
 4045              	.LASF17:
 4046 033f 746D6F64 		.ascii	"tmode_t\000"
 4046      655F7400 
 4047              	.LASF48:
 4048 0347 54687265 		.ascii	"ThreadsList\000"
 4048      6164734C 
 4048      69737400 
 4049              	.LASF23:
 4050 0353 6576656E 		.ascii	"eventmask_t\000"
 4050      746D6173 
 4050      6B5F7400 
 4051              	.LASF6:
 4052 035f 73686F72 		.ascii	"short int\000"
 4052      7420696E 
 4052      7400
 4053              	.LASF79:
 4054 0369 716E6F74 		.ascii	"qnotify_t\000"
 4054      6966795F 
 4054      7400
 4055              	.LASF70:
 4056 0373 47656E65 		.ascii	"GenericQueue\000"
 4056      72696351 
 4056      75657565 
 4056      00
 4057              	.LASF50:
 4058 0380 73746B61 		.ascii	"stkalign_t\000"
ARM GAS  /tmp/ccS9r29S.s 			page 75


 4058      6C69676E 
 4058      5F7400
 4059              	.LASF149:
 4060 038b 77726974 		.ascii	"write\000"
 4060      6500
 4061              	.LASF151:
 4062 0391 70757474 		.ascii	"putt\000"
 4062      00
 4063              	.LASF108:
 4064 0396 4932435F 		.ascii	"I2C_STOP\000"
 4064      53544F50 
 4064      00
 4065              	.LASF165:
 4066 039f 6779726F 		.ascii	"gyro_x\000"
 4066      5F7800
 4067              	.LASF166:
 4068 03a6 6779726F 		.ascii	"gyro_y\000"
 4068      5F7900
 4069              	.LASF167:
 4070 03ad 6779726F 		.ascii	"gyro_z\000"
 4070      5F7A00
 4071              	.LASF53:
 4072 03b4 73697A65 		.ascii	"sizetype\000"
 4072      74797065 
 4072      00
 4073              	.LASF72:
 4074 03bd 715F636F 		.ascii	"q_counter\000"
 4074      756E7465 
 4074      7200
 4075              	.LASF54:
 4076 03c7 4D757465 		.ascii	"Mutex\000"
 4076      7800
 4077              	.LASF131:
 4078 03cd 6572726F 		.ascii	"errors\000"
 4078      727300
 4079              	.LASF126:
 4080 03d4 64757479 		.ascii	"duty_cycle\000"
 4080      5F637963 
 4080      6C6500
 4081              	.LASF155:
 4082 03df 6932635F 		.ascii	"i2c_drv\000"
 4082      64727600 
 4083              	.LASF61:
 4084 03e7 656C5F6D 		.ascii	"el_mask\000"
 4084      61736B00 
 4085              	.LASF32:
 4086 03ef 705F6F6C 		.ascii	"p_older\000"
 4086      64657200 
 4087              	.LASF127:
 4088 03f7 49324343 		.ascii	"I2CConfig\000"
 4088      6F6E6669 
 4088      6700
 4089              	.LASF47:
 4090 0401 54687265 		.ascii	"ThreadsQueue\000"
 4090      61647351 
 4090      75657565 
 4090      00
ARM GAS  /tmp/ccS9r29S.s 			page 76


 4091              	.LASF136:
 4092 040e 7478646D 		.ascii	"txdmamode\000"
 4092      616D6F64 
 4092      6500
 4093              	.LASF34:
 4094 0418 705F7374 		.ascii	"p_stklimit\000"
 4094      6B6C696D 
 4094      697400
 4095              	.LASF116:
 4096 0423 4F504D4F 		.ascii	"OPMODE_I2C\000"
 4096      44455F49 
 4096      324300
 4097              	.LASF122:
 4098 042e 46415354 		.ascii	"FAST_DUTY_CYCLE_16_9\000"
 4098      5F445554 
 4098      595F4359 
 4098      434C455F 
 4098      31365F39 
 4099              	.LASF85:
 4100 0443 444D415F 		.ascii	"DMA_Channel_TypeDef\000"
 4100      4368616E 
 4100      6E656C5F 
 4100      54797065 
 4100      44656600 
 4101              	.LASF163:
 4102 0457 6779726F 		.ascii	"gyroInit\000"
 4102      496E6974 
 4102      00
 4103              	.LASF102:
 4104 0460 69666372 		.ascii	"ifcr\000"
 4104      00
 4105              	.LASF19:
 4106 0465 74726566 		.ascii	"trefs_t\000"
 4106      735F7400 
 4107              	.LASF86:
 4108 046d 52455345 		.ascii	"RESERVED0\000"
 4108      52564544 
 4108      3000
 4109              	.LASF87:
 4110 0477 52455345 		.ascii	"RESERVED1\000"
 4110      52564544 
 4110      3100
 4111              	.LASF89:
 4112 0481 52455345 		.ascii	"RESERVED2\000"
 4112      52564544 
 4112      3200
 4113              	.LASF91:
 4114 048b 52455345 		.ascii	"RESERVED3\000"
 4114      52564544 
 4114      3300
 4115              	.LASF92:
 4116 0495 52455345 		.ascii	"RESERVED4\000"
 4116      52564544 
 4116      3400
 4117              	.LASF28:
 4118 049f 705F7072 		.ascii	"p_prev\000"
 4118      657600
ARM GAS  /tmp/ccS9r29S.s 			page 77


 4119              	.LASF94:
 4120 04a6 52455345 		.ascii	"RESERVED6\000"
 4120      52564544 
 4120      3600
 4121              	.LASF95:
 4122 04b0 52455345 		.ascii	"RESERVED7\000"
 4122      52564544 
 4122      3700
 4123              	.LASF97:
 4124 04ba 52455345 		.ascii	"RESERVED8\000"
 4124      52564544 
 4124      3800
 4125              	.LASF21:
 4126 04c4 74707269 		.ascii	"tprio_t\000"
 4126      6F5F7400 
 4127              	.LASF76:
 4128 04cc 715F7264 		.ascii	"q_rdptr\000"
 4128      70747200 
 4129              	.LASF115:
 4130 04d4 69326366 		.ascii	"i2cflags_t\000"
 4130      6C616773 
 4130      5F7400
 4131              	.LASF132:
 4132 04df 6D757465 		.ascii	"mutex\000"
 4132      7800
 4133              	.LASF16:
 4134 04e5 5F426F6F 		.ascii	"_Bool\000"
 4134      6C00
 4135              	.LASF9:
 4136 04eb 696E7433 		.ascii	"int32_t\000"
 4136      325F7400 
 4137              	.LASF4:
 4138 04f3 756E7369 		.ascii	"unsigned char\000"
 4138      676E6564 
 4138      20636861 
 4138      7200
 4139              	.LASF106:
 4140 0501 73746D33 		.ascii	"stm32_dma_stream_t\000"
 4140      325F646D 
 4140      615F7374 
 4140      7265616D 
 4140      5F7400
 4141              	.LASF60:
 4142 0514 656C5F6C 		.ascii	"el_listener\000"
 4142      69737465 
 4142      6E657200 
 4143              	.LASF168:
 4144 0520 74656D70 		.ascii	"tempRead\000"
 4144      52656164 
 4144      00
 4145              	.LASF62:
 4146 0529 656C5F66 		.ascii	"el_flags\000"
 4146      6C616773 
 4146      00
 4147              	.LASF44:
 4148 0532 705F6D74 		.ascii	"p_mtxlist\000"
 4148      786C6973 
ARM GAS  /tmp/ccS9r29S.s 			page 78


 4148      7400
 4149              	.LASF107:
 4150 053c 4932435F 		.ascii	"I2C_UNINIT\000"
 4150      554E494E 
 4150      495400
 4151              	.LASF35:
 4152 0547 705F7374 		.ascii	"p_state\000"
 4152      61746500 
 4153              	.LASF38:
 4154 054f 705F7072 		.ascii	"p_preempt\000"
 4154      65656D70 
 4154      7400
 4155              	.LASF68:
 4156 0559 65776D61 		.ascii	"ewmask\000"
 4156      736B00
 4157              	.LASF27:
 4158 0560 705F6E65 		.ascii	"p_next\000"
 4158      787400
 4159              	.LASF36:
 4160 0567 705F666C 		.ascii	"p_flags\000"
 4160      61677300 
 4161              	.LASF59:
 4162 056f 656C5F6E 		.ascii	"el_next\000"
 4162      65787400 
 4163              	.LASF140:
 4164 0577 53445F53 		.ascii	"SD_STOP\000"
 4164      544F5000 
 4165              	.LASF121:
 4166 057f 46415354 		.ascii	"FAST_DUTY_CYCLE_2\000"
 4166      5F445554 
 4166      595F4359 
 4166      434C455F 
 4166      3200
 4167              	.LASF101:
 4168 0591 6368616E 		.ascii	"channel\000"
 4168      6E656C00 
 4169              	.LASF112:
 4170 0599 4932435F 		.ascii	"I2C_LOCKED\000"
 4170      4C4F434B 
 4170      454400
 4171              	.LASF43:
 4172 05a4 705F6570 		.ascii	"p_epending\000"
 4172      656E6469 
 4172      6E6700
 4173              	.LASF139:
 4174 05af 53445F55 		.ascii	"SD_UNINIT\000"
 4174      4E494E49 
 4174      5400
 4175              	.LASF93:
 4176 05b9 52455345 		.ascii	"RESERVED5\000"
 4176      52564544 
 4176      3500
 4177              	.LASF11:
 4178 05c3 75696E74 		.ascii	"uint32_t\000"
 4178      33325F74 
 4178      00
 4179              	.LASF142:
ARM GAS  /tmp/ccS9r29S.s 			page 79


 4180 05cc 73647374 		.ascii	"sdstate_t\000"
 4180      6174655F 
 4180      7400
 4181              	.LASF143:
 4182 05d6 53657269 		.ascii	"SerialDriver\000"
 4182      616C4472 
 4182      69766572 
 4182      00
 4183              	.LASF111:
 4184 05e3 4932435F 		.ascii	"I2C_ACTIVE_RX\000"
 4184      41435449 
 4184      56455F52 
 4184      5800
 4185              	.LASF12:
 4186 05f1 6C6F6E67 		.ascii	"long unsigned int\000"
 4186      20756E73 
 4186      69676E65 
 4186      6420696E 
 4186      7400
 4187              	.LASF150:
 4188 0603 72656164 		.ascii	"read\000"
 4188      00
 4189              	.LASF69:
 4190 0608 63686172 		.ascii	"char\000"
 4190      00
 4191              	.LASF130:
 4192 060d 636F6E66 		.ascii	"config\000"
 4192      696700
 4193              	.LASF57:
 4194 0614 6D5F6E65 		.ascii	"m_next\000"
 4194      787400
 4195              	.LASF25:
 4196 061b 73797374 		.ascii	"systime_t\000"
 4196      696D655F 
 4196      7400
 4197              	.LASF45:
 4198 0625 705F7265 		.ascii	"p_realprio\000"
 4198      616C7072 
 4198      696F00
 4199              	.LASF109:
 4200 0630 4932435F 		.ascii	"I2C_READY\000"
 4200      52454144 
 4200      5900
 4201              	.LASF52:
 4202 063a 636F6E74 		.ascii	"context\000"
 4202      65787400 
 4203              	.LASF51:
 4204 0642 696E7463 		.ascii	"intctx\000"
 4204      747800
 4205              	.LASF141:
 4206 0649 53445F52 		.ascii	"SD_READY\000"
 4206      45414459 
 4206      00
 4207              	.LASF24:
 4208 0652 666C6167 		.ascii	"flagsmask_t\000"
 4208      736D6173 
 4208      6B5F7400 
ARM GAS  /tmp/ccS9r29S.s 			page 80


 4209              	.LASF74:
 4210 065e 715F746F 		.ascii	"q_top\000"
 4210      7000
 4211              	.LASF33:
 4212 0664 705F6E61 		.ascii	"p_name\000"
 4212      6D6500
 4213              	.LASF171:
 4214 066b 69326341 		.ascii	"i2cAcquireBus\000"
 4214      63717569 
 4214      72654275 
 4214      7300
 4215              	.LASF82:
 4216 0679 434E4454 		.ascii	"CNDTR\000"
 4216      5200
 4217              	.LASF84:
 4218 067f 434D4152 		.ascii	"CMAR\000"
 4218      00
 4219              	.LASF77:
 4220 0684 715F6E6F 		.ascii	"q_notify\000"
 4220      74696679 
 4220      00
 4221              	.LASF158:
 4222 068d 61636352 		.ascii	"accRead\000"
 4222      65616400 
 4223              	.LASF3:
 4224 0695 75696E74 		.ascii	"uint8_t\000"
 4224      385F7400 
 4225              	.LASF80:
 4226 069d 496E7075 		.ascii	"InputQueue\000"
 4226      74517565 
 4226      756500
 4227              	.LASF88:
 4228 06a8 4F415231 		.ascii	"OAR1\000"
 4228      00
 4229              	.LASF90:
 4230 06ad 4F415232 		.ascii	"OAR2\000"
 4230      00
 4231              	.LASF58:
 4232 06b2 4576656E 		.ascii	"EventListener\000"
 4232      744C6973 
 4232      74656E65 
 4232      7200
 4233              	.LASF67:
 4234 06c0 77746F62 		.ascii	"wtobjp\000"
 4234      6A7000
 4235              	.LASF64:
 4236 06c7 65735F6E 		.ascii	"es_next\000"
 4236      65787400 
 4237              	.LASF42:
 4238 06cf 705F6D73 		.ascii	"p_msg\000"
 4238      6700
 4239              	.LASF175:
 4240 06d5 2E2E2F2E 		.ascii	"../../os/various/IMU01A.c\000"
 4240      2E2F6F73 
 4240      2F766172 
 4240      696F7573 
 4240      2F494D55 
ARM GAS  /tmp/ccS9r29S.s 			page 81


 4241              	.LASF98:
 4242 06ef 4932435F 		.ascii	"I2C_TypeDef\000"
 4242      54797065 
 4242      44656600 
 4243              	.LASF119:
 4244 06fb 6932636F 		.ascii	"i2copmode_t\000"
 4244      706D6F64 
 4244      655F7400 
 4245              	.LASF78:
 4246 0707 715F6C69 		.ascii	"q_link\000"
 4246      6E6B00
 4247              	.LASF5:
 4248 070e 696E7431 		.ascii	"int16_t\000"
 4248      365F7400 
 4249              	.LASF56:
 4250 0716 6D5F6F77 		.ascii	"m_owner\000"
 4250      6E657200 
 4251              	.LASF30:
 4252 071e 705F6374 		.ascii	"p_ctx\000"
 4252      7800
 4253              	.LASF40:
 4254 0724 705F7761 		.ascii	"p_waiting\000"
 4254      6974696E 
 4254      6700
 4255              		.ident	"GCC: (GNU Tools for ARM Embedded Processors) 4.7.4 20130913 (release) [ARM/embedded-4_7-br
ARM GAS  /tmp/ccS9r29S.s 			page 82


DEFINED SYMBOLS
                            *ABS*:00000000 IMU01A.c
     /tmp/ccS9r29S.s:19     .text.accInit:00000000 $t
     /tmp/ccS9r29S.s:25     .text.accInit:00000000 accInit
     /tmp/ccS9r29S.s:92     .text.accInit:00000044 $d
     /tmp/ccS9r29S.s:97     .text.accRead:00000000 $t
     /tmp/ccS9r29S.s:103    .text.accRead:00000000 accRead
     /tmp/ccS9r29S.s:195    .text.accRead:00000078 $d
     /tmp/ccS9r29S.s:200    .text.gyroInit:00000000 $t
     /tmp/ccS9r29S.s:206    .text.gyroInit:00000000 gyroInit
     /tmp/ccS9r29S.s:316    .text.gyroInit:00000080 $d
     /tmp/ccS9r29S.s:321    .text.gyroRead:00000000 $t
     /tmp/ccS9r29S.s:327    .text.gyroRead:00000000 gyroRead
     /tmp/ccS9r29S.s:421    .text.gyroRead:00000078 $d
     /tmp/ccS9r29S.s:426    .text.tempRead:00000000 $t
     /tmp/ccS9r29S.s:432    .text.tempRead:00000000 tempRead
     /tmp/ccS9r29S.s:500    .text.tempRead:0000004c $d
                     .debug_frame:00000010 $d
     /tmp/ccS9r29S.s:96     .text.accInit:00000048 $t
     /tmp/ccS9r29S.s:199    .text.accRead:0000007c $t
     /tmp/ccS9r29S.s:320    .text.gyroInit:00000084 $t
     /tmp/ccS9r29S.s:425    .text.gyroRead:0000007c $t

UNDEFINED SYMBOLS
i2cAcquireBus
i2cMasterTransmitTimeout
i2cReleaseBus
i2cGetErr
SD2
