ARM GAS  /tmp/ccS9r29S.s 			page 1


   1              		.syntax unified
   2              		.cpu cortex-m3
   3              		.fpu softvfp
   4              		.eabi_attribute 20, 1
   5              		.eabi_attribute 21, 1
   6              		.eabi_attribute 23, 3
   7              		.eabi_attribute 24, 1
   8              		.eabi_attribute 25, 1
   9              		.eabi_attribute 26, 1
  10              		.eabi_attribute 30, 2
  11              		.eabi_attribute 34, 1
  12              		.eabi_attribute 18, 4
  13              		.thumb
  14              		.file	"IMU01A.c"
  15              		.text
  16              	.Ltext0:
  17              		.cfi_sections	.debug_frame
  18              		.section	.text.accInit,"ax",%progbits
  19              		.align	2
  20              		.p2align 4,,15
  21              		.global	accInit
  22              		.thumb
  23              		.thumb_func
  24              		.type	accInit, %function
  25              	accInit:
  26              	.LFB63:
  27              		.file 1 "../../os/various/IMU01A.c"
  28              		.loc 1 16 0
  29              		.cfi_startproc
  30              		@ args = 0, pretend = 0, frame = 8
  31              		@ frame_needed = 0, uses_anonymous_args = 0
  32              	.LVL0:
  33 0000 30B5     		push	{r4, r5, lr}
  34              	.LCFI0:
  35              		.cfi_def_cfa_offset 12
  36              		.cfi_offset 4, -12
  37              		.cfi_offset 5, -8
  38              		.cfi_offset 14, -4
  39              		.loc 1 20 0
  40 0002 2A23     		movs	r3, #42
  41              		.loc 1 16 0
  42 0004 87B0     		sub	sp, sp, #28
  43              	.LCFI1:
  44              		.cfi_def_cfa_offset 40
  45              		.loc 1 16 0
  46 0006 0D46     		mov	r5, r1
  47              		.loc 1 21 0
  48 0008 0121     		movs	r1, #1
  49              	.LVL1:
  50              		.loc 1 16 0
  51 000a 0446     		mov	r4, r0
  52              		.loc 1 20 0
  53 000c 8DF81030 		strb	r3, [sp, #16]
  54              		.loc 1 21 0
  55 0010 8DF81110 		strb	r1, [sp, #17]
  56              		.loc 1 22 0
  57 0014 FFF7FEFF 		bl	i2cAcquireBus
ARM GAS  /tmp/ccS9r29S.s 			page 2


  58              	.LVL2:
  59              		.loc 1 23 0
  60 0018 0020     		movs	r0, #0
  61 001a 0422     		movs	r2, #4
  62 001c 0090     		str	r0, [sp, #0]
  63 001e 0190     		str	r0, [sp, #4]
  64 0020 0292     		str	r2, [sp, #8]
  65 0022 2946     		mov	r1, r5
  66 0024 2046     		mov	r0, r4
  67 0026 04AA     		add	r2, sp, #16
  68 0028 0223     		movs	r3, #2
  69 002a FFF7FEFF 		bl	i2cMasterTransmitTimeout
  70              	.LVL3:
  71 002e 0546     		mov	r5, r0
  72              	.LVL4:
  73              		.loc 1 24 0
  74 0030 2046     		mov	r0, r4
  75              	.LVL5:
  76 0032 FFF7FEFF 		bl	i2cReleaseBus
  77              	.LVL6:
  78              		.loc 1 25 0
  79 0036 1DB1     		cbz	r5, .L1
  80              		.loc 1 25 0 is_stmt 0 discriminator 1
  81 0038 2046     		mov	r0, r4
  82 003a 0249     		ldr	r1, .L7
  83 003c FFF7FEFF 		bl	i2cGetErr
  84              	.LVL7:
  85              	.L1:
  86              		.loc 1 26 0 is_stmt 1
  87 0040 07B0     		add	sp, sp, #28
  88 0042 30BD     		pop	{r4, r5, pc}
  89              	.L8:
  90              		.align	2
  91              	.L7:
  92 0044 00000000 		.word	SD2
  93              		.cfi_endproc
  94              	.LFE63:
  95              		.size	accInit, .-accInit
  96 0048 AFF30080 		.section	.text.accRead,"ax",%progbits
  96      AFF30080 
  97              		.align	2
  98              		.p2align 4,,15
  99              		.global	accRead
 100              		.thumb
 101              		.thumb_func
 102              		.type	accRead, %function
 103              	accRead:
 104              	.LFB64:
 105              		.loc 1 30 0
 106              		.cfi_startproc
 107              		@ args = 4, pretend = 0, frame = 16
 108              		@ frame_needed = 0, uses_anonymous_args = 0
 109              	.LVL8:
 110 0000 2DE9F043 		push	{r4, r5, r6, r7, r8, r9, lr}
 111              	.LCFI2:
 112              		.cfi_def_cfa_offset 28
 113              		.cfi_offset 4, -28
ARM GAS  /tmp/ccS9r29S.s 			page 3


 114              		.cfi_offset 5, -24
 115              		.cfi_offset 6, -20
 116              		.cfi_offset 7, -16
 117              		.cfi_offset 8, -12
 118              		.cfi_offset 9, -8
 119              		.cfi_offset 14, -4
 120 0004 89B0     		sub	sp, sp, #36
 121              	.LCFI3:
 122              		.cfi_def_cfa_offset 64
 123              		.loc 1 35 0
 124 0006 08AC     		add	r4, sp, #32
 125 0008 0126     		movs	r6, #1
 126              		.loc 1 30 0
 127 000a 0546     		mov	r5, r0
 128 000c 8946     		mov	r9, r1
 129              		.loc 1 35 0
 130 000e 04F8086D 		strb	r6, [r4, #-8]!
 131              		.loc 1 30 0
 132 0012 9046     		mov	r8, r2
 133 0014 1F46     		mov	r7, r3
 134              		.loc 1 36 0
 135 0016 FFF7FEFF 		bl	i2cAcquireBus
 136              	.LVL9:
 137              		.loc 1 37 0
 138 001a 04AB     		add	r3, sp, #16
 139 001c 0620     		movs	r0, #6
 140 001e 0421     		movs	r1, #4
 141 0020 0093     		str	r3, [sp, #0]
 142 0022 0190     		str	r0, [sp, #4]
 143 0024 0291     		str	r1, [sp, #8]
 144 0026 2246     		mov	r2, r4
 145 0028 2846     		mov	r0, r5
 146 002a 4946     		mov	r1, r9
 147 002c 3346     		mov	r3, r6
 148 002e FFF7FEFF 		bl	i2cMasterTransmitTimeout
 149              	.LVL10:
 150 0032 0446     		mov	r4, r0
 151              	.LVL11:
 152              		.loc 1 38 0
 153 0034 2846     		mov	r0, r5
 154              	.LVL12:
 155 0036 FFF7FEFF 		bl	i2cReleaseBus
 156              	.LVL13:
 157              		.loc 1 39 0
 158 003a 1CB1     		cbz	r4, .L10
 159              		.loc 1 39 0 is_stmt 0 discriminator 1
 160 003c 2846     		mov	r0, r5
 161 003e 0E49     		ldr	r1, .L14
 162 0040 FFF7FEFF 		bl	i2cGetErr
 163              	.LVL14:
 164              	.L10:
 165              		.loc 1 43 0 is_stmt 1
 166 0044 9DF81520 		ldrb	r2, [sp, #21]	@ zero_extendqisi2
 167 0048 9DF81400 		ldrb	r0, [sp, #20]	@ zero_extendqisi2
 168              		.loc 1 41 0
 169 004c 9DF81050 		ldrb	r5, [sp, #16]	@ zero_extendqisi2
 170              	.LVL15:
ARM GAS  /tmp/ccS9r29S.s 			page 4


 171 0050 9DF81110 		ldrb	r1, [sp, #17]	@ zero_extendqisi2
 172              		.loc 1 42 0
 173 0054 9DF81240 		ldrb	r4, [sp, #18]	@ zero_extendqisi2
 174              	.LVL16:
 175 0058 9DF81330 		ldrb	r3, [sp, #19]	@ zero_extendqisi2
 176              		.loc 1 43 0
 177 005c 42EA0020 		orr	r0, r2, r0, lsl #8
 178 0060 109A     		ldr	r2, [sp, #64]
 179              		.loc 1 41 0
 180 0062 41EA0521 		orr	r1, r1, r5, lsl #8
 181              		.loc 1 42 0
 182 0066 43EA0423 		orr	r3, r3, r4, lsl #8
 183              		.loc 1 41 0
 184 006a A8F80010 		strh	r1, [r8, #0]	@ movhi
 185              		.loc 1 42 0
 186 006e 3B80     		strh	r3, [r7, #0]	@ movhi
 187              		.loc 1 43 0
 188 0070 1080     		strh	r0, [r2, #0]	@ movhi
 189              		.loc 1 44 0
 190 0072 09B0     		add	sp, sp, #36
 191 0074 BDE8F083 		pop	{r4, r5, r6, r7, r8, r9, pc}
 192              	.L15:
 193              		.align	2
 194              	.L14:
 195 0078 00000000 		.word	SD2
 196              		.cfi_endproc
 197              	.LFE64:
 198              		.size	accRead, .-accRead
 199 007c AFF30080 		.section	.text.gyroInit,"ax",%progbits
 200              		.align	2
 201              		.p2align 4,,15
 202              		.global	gyroInit
 203              		.thumb
 204              		.thumb_func
 205              		.type	gyroInit, %function
 206              	gyroInit:
 207              	.LFB65:
 208              		.loc 1 48 0
 209              		.cfi_startproc
 210              		@ args = 0, pretend = 0, frame = 8
 211              		@ frame_needed = 0, uses_anonymous_args = 0
 212              	.LVL17:
 213 0000 70B5     		push	{r4, r5, r6, lr}
 214              	.LCFI4:
 215              		.cfi_def_cfa_offset 16
 216              		.cfi_offset 4, -16
 217              		.cfi_offset 5, -12
 218              		.cfi_offset 6, -8
 219              		.cfi_offset 14, -4
 220              		.loc 1 52 0
 221 0002 2023     		movs	r3, #32
 222              		.loc 1 48 0
 223 0004 86B0     		sub	sp, sp, #24
 224              	.LCFI5:
 225              		.cfi_def_cfa_offset 40
 226              		.loc 1 48 0
 227 0006 0D46     		mov	r5, r1
ARM GAS  /tmp/ccS9r29S.s 			page 5


 228              		.loc 1 53 0
 229 0008 FF21     		movs	r1, #255
 230              	.LVL18:
 231              		.loc 1 48 0
 232 000a 0446     		mov	r4, r0
 233              		.loc 1 52 0
 234 000c 8DF81030 		strb	r3, [sp, #16]
 235              		.loc 1 53 0
 236 0010 8DF81110 		strb	r1, [sp, #17]
 237              		.loc 1 54 0
 238 0014 FFF7FEFF 		bl	i2cAcquireBus
 239              	.LVL19:
 240              		.loc 1 55 0
 241 0018 0020     		movs	r0, #0
 242 001a 0422     		movs	r2, #4
 243 001c 0090     		str	r0, [sp, #0]
 244 001e 0190     		str	r0, [sp, #4]
 245 0020 0292     		str	r2, [sp, #8]
 246 0022 2046     		mov	r0, r4
 247 0024 2946     		mov	r1, r5
 248 0026 04AA     		add	r2, sp, #16
 249 0028 0223     		movs	r3, #2
 250 002a FFF7FEFF 		bl	i2cMasterTransmitTimeout
 251              	.LVL20:
 252 002e 0646     		mov	r6, r0
 253              	.LVL21:
 254              		.loc 1 56 0
 255 0030 2046     		mov	r0, r4
 256              	.LVL22:
 257 0032 FFF7FEFF 		bl	i2cReleaseBus
 258              	.LVL23:
 259              		.loc 1 57 0
 260 0036 F6B9     		cbnz	r6, .L25
 261              	.L17:
 262              		.loc 1 59 0
 263 0038 2E23     		movs	r3, #46
 264              		.loc 1 60 0
 265 003a 4021     		movs	r1, #64
 266              		.loc 1 61 0
 267 003c 2046     		mov	r0, r4
 268              		.loc 1 59 0
 269 003e 8DF81030 		strb	r3, [sp, #16]
 270              		.loc 1 60 0
 271 0042 8DF81110 		strb	r1, [sp, #17]
 272              		.loc 1 61 0
 273 0046 FFF7FEFF 		bl	i2cAcquireBus
 274              	.LVL24:
 275              		.loc 1 62 0
 276 004a 0020     		movs	r0, #0
 277 004c 0422     		movs	r2, #4
 278 004e 0090     		str	r0, [sp, #0]
 279 0050 0190     		str	r0, [sp, #4]
 280 0052 0292     		str	r2, [sp, #8]
 281 0054 2946     		mov	r1, r5
 282 0056 2046     		mov	r0, r4
 283 0058 04AA     		add	r2, sp, #16
 284 005a 0223     		movs	r3, #2
ARM GAS  /tmp/ccS9r29S.s 			page 6


 285 005c FFF7FEFF 		bl	i2cMasterTransmitTimeout
 286              	.LVL25:
 287 0060 0546     		mov	r5, r0
 288              	.LVL26:
 289              		.loc 1 63 0
 290 0062 2046     		mov	r0, r4
 291              	.LVL27:
 292 0064 FFF7FEFF 		bl	i2cReleaseBus
 293              	.LVL28:
 294              		.loc 1 64 0
 295 0068 1DB1     		cbz	r5, .L16
 296              		.loc 1 64 0 is_stmt 0 discriminator 1
 297 006a 2046     		mov	r0, r4
 298 006c 0449     		ldr	r1, .L26
 299 006e FFF7FEFF 		bl	i2cGetErr
 300              	.LVL29:
 301              	.L16:
 302              		.loc 1 65 0 is_stmt 1
 303 0072 06B0     		add	sp, sp, #24
 304 0074 70BD     		pop	{r4, r5, r6, pc}
 305              	.LVL30:
 306              	.L25:
 307              		.loc 1 57 0 discriminator 1
 308 0076 2046     		mov	r0, r4
 309 0078 0149     		ldr	r1, .L26
 310 007a FFF7FEFF 		bl	i2cGetErr
 311              	.LVL31:
 312 007e DBE7     		b	.L17
 313              	.L27:
 314              		.align	2
 315              	.L26:
 316 0080 00000000 		.word	SD2
 317              		.cfi_endproc
 318              	.LFE65:
 319              		.size	gyroInit, .-gyroInit
 320 0084 AFF30080 		.section	.text.gyroRead,"ax",%progbits
 320      AFF30080 
 320      AFF30080 
 321              		.align	2
 322              		.p2align 4,,15
 323              		.global	gyroRead
 324              		.thumb
 325              		.thumb_func
 326              		.type	gyroRead, %function
 327              	gyroRead:
 328              	.LFB66:
 329              		.loc 1 69 0
 330              		.cfi_startproc
 331              		@ args = 4, pretend = 0, frame = 16
 332              		@ frame_needed = 0, uses_anonymous_args = 0
 333              	.LVL32:
 334 0000 2DE9F041 		push	{r4, r5, r6, r7, r8, lr}
 335              	.LCFI6:
 336              		.cfi_def_cfa_offset 24
 337              		.cfi_offset 4, -24
 338              		.cfi_offset 5, -20
 339              		.cfi_offset 6, -16
ARM GAS  /tmp/ccS9r29S.s 			page 7


 340              		.cfi_offset 7, -12
 341              		.cfi_offset 8, -8
 342              		.cfi_offset 14, -4
 343 0004 88B0     		sub	sp, sp, #32
 344              	.LCFI7:
 345              		.cfi_def_cfa_offset 56
 346              		.loc 1 74 0
 347 0006 08AC     		add	r4, sp, #32
 348              		.loc 1 69 0
 349 0008 1E46     		mov	r6, r3
 350              		.loc 1 74 0
 351 000a 2823     		movs	r3, #40
 352              	.LVL33:
 353              		.loc 1 69 0
 354 000c 0546     		mov	r5, r0
 355              		.loc 1 74 0
 356 000e 04F8083D 		strb	r3, [r4, #-8]!
 357              		.loc 1 69 0
 358 0012 8846     		mov	r8, r1
 359 0014 1746     		mov	r7, r2
 360              		.loc 1 75 0
 361 0016 FFF7FEFF 		bl	i2cAcquireBus
 362              	.LVL34:
 363              		.loc 1 76 0
 364 001a 04A8     		add	r0, sp, #16
 365 001c 0621     		movs	r1, #6
 366 001e 0422     		movs	r2, #4
 367 0020 0090     		str	r0, [sp, #0]
 368 0022 0191     		str	r1, [sp, #4]
 369 0024 0292     		str	r2, [sp, #8]
 370 0026 2846     		mov	r0, r5
 371 0028 2246     		mov	r2, r4
 372 002a 4146     		mov	r1, r8
 373 002c 0123     		movs	r3, #1
 374 002e FFF7FEFF 		bl	i2cMasterTransmitTimeout
 375              	.LVL35:
 376 0032 0446     		mov	r4, r0
 377              	.LVL36:
 378              		.loc 1 77 0
 379 0034 2846     		mov	r0, r5
 380              	.LVL37:
 381 0036 FFF7FEFF 		bl	i2cReleaseBus
 382              	.LVL38:
 383              		.loc 1 78 0
 384 003a 1CB1     		cbz	r4, .L29
 385              		.loc 1 78 0 is_stmt 0 discriminator 1
 386 003c 2846     		mov	r0, r5
 387 003e 0E49     		ldr	r1, .L33
 388 0040 FFF7FEFF 		bl	i2cGetErr
 389              	.LVL39:
 390              	.L29:
 391              		.loc 1 82 0 is_stmt 1
 392 0044 9DF81520 		ldrb	r2, [sp, #21]	@ zero_extendqisi2
 393 0048 9DF81400 		ldrb	r0, [sp, #20]	@ zero_extendqisi2
 394              		.loc 1 80 0
 395 004c 9DF81050 		ldrb	r5, [sp, #16]	@ zero_extendqisi2
 396              	.LVL40:
ARM GAS  /tmp/ccS9r29S.s 			page 8


 397 0050 9DF81110 		ldrb	r1, [sp, #17]	@ zero_extendqisi2
 398              		.loc 1 81 0
 399 0054 9DF81240 		ldrb	r4, [sp, #18]	@ zero_extendqisi2
 400              	.LVL41:
 401 0058 9DF81330 		ldrb	r3, [sp, #19]	@ zero_extendqisi2
 402              		.loc 1 82 0
 403 005c 42EA0020 		orr	r0, r2, r0, lsl #8
 404 0060 0E9A     		ldr	r2, [sp, #56]
 405              		.loc 1 80 0
 406 0062 41EA0521 		orr	r1, r1, r5, lsl #8
 407              		.loc 1 81 0
 408 0066 43EA0423 		orr	r3, r3, r4, lsl #8
 409              		.loc 1 80 0
 410 006a 3980     		strh	r1, [r7, #0]	@ movhi
 411              		.loc 1 81 0
 412 006c 3380     		strh	r3, [r6, #0]	@ movhi
 413              		.loc 1 82 0
 414 006e 1080     		strh	r0, [r2, #0]	@ movhi
 415              		.loc 1 83 0
 416 0070 08B0     		add	sp, sp, #32
 417 0072 BDE8F081 		pop	{r4, r5, r6, r7, r8, pc}
 418              	.L34:
 419 0076 00BF     		.align	2
 420              	.L33:
 421 0078 00000000 		.word	SD2
 422              		.cfi_endproc
 423              	.LFE66:
 424              		.size	gyroRead, .-gyroRead
 425 007c AFF30080 		.section	.text.tempRead,"ax",%progbits
 426              		.align	2
 427              		.p2align 4,,15
 428              		.global	tempRead
 429              		.thumb
 430              		.thumb_func
 431              		.type	tempRead, %function
 432              	tempRead:
 433              	.LFB67:
 434              		.loc 1 87 0
 435              		.cfi_startproc
 436              		@ args = 0, pretend = 0, frame = 16
 437              		@ frame_needed = 0, uses_anonymous_args = 0
 438              	.LVL42:
 439 0000 F0B5     		push	{r4, r5, r6, r7, lr}
 440              	.LCFI8:
 441              		.cfi_def_cfa_offset 20
 442              		.cfi_offset 4, -20
 443              		.cfi_offset 5, -16
 444              		.cfi_offset 6, -12
 445              		.cfi_offset 7, -8
 446              		.cfi_offset 14, -4
 447 0002 89B0     		sub	sp, sp, #36
 448              	.LCFI9:
 449              		.cfi_def_cfa_offset 56
 450              		.loc 1 92 0
 451 0004 08AC     		add	r4, sp, #32
 452 0006 2623     		movs	r3, #38
 453              		.loc 1 87 0
ARM GAS  /tmp/ccS9r29S.s 			page 9


 454 0008 0546     		mov	r5, r0
 455              		.loc 1 92 0
 456 000a 04F8083D 		strb	r3, [r4, #-8]!
 457              		.loc 1 87 0
 458 000e 0F46     		mov	r7, r1
 459 0010 1646     		mov	r6, r2
 460              		.loc 1 93 0
 461 0012 FFF7FEFF 		bl	i2cAcquireBus
 462              	.LVL43:
 463              		.loc 1 94 0
 464 0016 04A8     		add	r0, sp, #16
 465 0018 0621     		movs	r1, #6
 466 001a 0422     		movs	r2, #4
 467 001c 0090     		str	r0, [sp, #0]
 468 001e 0191     		str	r1, [sp, #4]
 469 0020 0292     		str	r2, [sp, #8]
 470 0022 2846     		mov	r0, r5
 471 0024 2246     		mov	r2, r4
 472 0026 3946     		mov	r1, r7
 473 0028 0123     		movs	r3, #1
 474 002a FFF7FEFF 		bl	i2cMasterTransmitTimeout
 475              	.LVL44:
 476 002e 0446     		mov	r4, r0
 477              	.LVL45:
 478              		.loc 1 95 0
 479 0030 2846     		mov	r0, r5
 480              	.LVL46:
 481 0032 FFF7FEFF 		bl	i2cReleaseBus
 482              	.LVL47:
 483              		.loc 1 96 0
 484 0036 1CB1     		cbz	r4, .L36
 485              		.loc 1 96 0 is_stmt 0 discriminator 1
 486 0038 2846     		mov	r0, r5
 487 003a 0449     		ldr	r1, .L40
 488 003c FFF7FEFF 		bl	i2cGetErr
 489              	.LVL48:
 490              	.L36:
 491              		.loc 1 98 0 is_stmt 1
 492 0040 9DF81030 		ldrb	r3, [sp, #16]	@ zero_extendqisi2
 493 0044 3370     		strb	r3, [r6, #0]
 494              		.loc 1 99 0
 495 0046 09B0     		add	sp, sp, #36
 496 0048 F0BD     		pop	{r4, r5, r6, r7, pc}
 497              	.L41:
 498 004a 00BF     		.align	2
 499              	.L40:
 500 004c 00000000 		.word	SD2
 501              		.cfi_endproc
 502              	.LFE67:
 503              		.size	tempRead, .-tempRead
 504              		.text
 505              	.Letext0:
 506              		.file 2 "/usr/bin/../lib/gcc/arm-none-eabi/4.7.4/include/stddef.h"
 507              		.file 3 "/usr/bin/../lib/gcc/arm-none-eabi/4.7.4/../../../../arm-none-eabi/include/stdint.h"
 508              		.file 4 "../../os/ports/GCC/ARMCMx/chtypes.h"
 509              		.file 5 "../../os/kernel/include/chlists.h"
 510              		.file 6 "../../os/kernel/include/chthreads.h"
ARM GAS  /tmp/ccS9r29S.s 			page 10


 511              		.file 7 "../../os/ports/GCC/ARMCMx/chcore_v7m.h"
 512              		.file 8 "../../os/kernel/include/chmtx.h"
 513              		.file 9 "../../os/kernel/include/chevents.h"
 514              		.file 10 "../../os/kernel/include/chqueues.h"
 515              		.file 11 "../../os/hal/platforms/STM32F1xx/stm32f10x.h"
 516              		.file 12 "../../os/hal/platforms/STM32F1xx/stm32_dma.h"
 517              		.file 13 "../../os/hal/include/i2c.h"
 518              		.file 14 "../../os/hal/platforms/STM32/I2Cv1/i2c_lld.h"
 519              		.file 15 "../../os/hal/include/serial.h"
 520              		.file 16 "../../os/various/i2cGetErr.h"
 521              		.file 17 "../../os/ports/common/ARMCMx/CMSIS/include/core_cm3.h"
 522              		.file 18 "../../os/hal/platforms/STM32/USARTv1/serial_lld.h"