ARM GAS  /tmp/ccZbUS3V.s 			page 1


   1              		.syntax unified
   2              		.cpu cortex-m3
   3              		.fpu softvfp
   4              		.eabi_attribute 20, 1
   5              		.eabi_attribute 21, 1
   6              		.eabi_attribute 23, 3
   7              		.eabi_attribute 24, 1
   8              		.eabi_attribute 25, 1
   9              		.eabi_attribute 26, 1
  10              		.eabi_attribute 30, 2
  11              		.eabi_attribute 34, 1
  12              		.eabi_attribute 18, 4
  13              		.thumb
  14              		.file	"main.c"
  15              		.text
  16              	.Ltext0:
  17              		.cfi_sections	.debug_frame
  18              		.section	.text.gyroDemo,"ax",%progbits
  19              		.align	2
  20              		.p2align 4,,15
  21              		.thumb
  22              		.thumb_func
  23              		.type	gyroDemo, %function
  24              	gyroDemo:
  25              	.LFB64:
  26              		.file 1 "main.c"
  27              		.loc 1 41 0
  28              		.cfi_startproc
  29              		@ args = 0, pretend = 0, frame = 16
  30              		@ frame_needed = 0, uses_anonymous_args = 0
  31              	.LVL0:
  32 0000 30B5     		push	{r4, r5, lr}
  33              	.LCFI0:
  34              		.cfi_def_cfa_offset 12
  35              		.cfi_offset 4, -12
  36              		.cfi_offset 5, -8
  37              		.cfi_offset 14, -4
  38              		.loc 1 47 0
  39 0002 2848     		ldr	r0, .L4
  40              	.LVL1:
  41              		.loc 1 41 0
  42 0004 87B0     		sub	sp, sp, #28
  43              	.LCFI1:
  44              		.cfi_def_cfa_offset 40
  45              		.loc 1 47 0
  46 0006 6821     		movs	r1, #104
  47 0008 FFF7FEFF 		bl	gyroInit
  48              	.LVL2:
  49              		.loc 1 48 0
  50 000c 2548     		ldr	r0, .L4
  51 000e 1C21     		movs	r1, #28
  52 0010 FFF7FEFF 		bl	accInit
  53              	.LVL3:
  54 0014 0DF11605 		add	r5, sp, #22
  55 0018 04AC     		add	r4, sp, #16
  56              	.LVL4:
  57              	.L2:
ARM GAS  /tmp/ccZbUS3V.s 			page 2


  58              		.loc 1 53 0 discriminator 1
  59 001a 05AB     		add	r3, sp, #20
  60 001c 0DF11202 		add	r2, sp, #18
  61 0020 6821     		movs	r1, #104
  62 0022 0095     		str	r5, [sp, #0]
  63 0024 1F48     		ldr	r0, .L4
  64 0026 FFF7FEFF 		bl	gyroRead
  65              	.LVL5:
  66              		.loc 1 54 0 discriminator 1
  67 002a 0DF10B02 		add	r2, sp, #11
  68 002e 6821     		movs	r1, #104
  69 0030 1C48     		ldr	r0, .L4
  70 0032 FFF7FEFF 		bl	tempRead
  71              	.LVL6:
  72              		.loc 1 56 0 discriminator 1
  73 0036 0DF10E03 		add	r3, sp, #14
  74 003a 03AA     		add	r2, sp, #12
  75 003c 1C21     		movs	r1, #28
  76 003e 0094     		str	r4, [sp, #0]
  77 0040 1848     		ldr	r0, .L4
  78 0042 FFF7FEFF 		bl	accRead
  79              	.LVL7:
  80              		.loc 1 58 0 discriminator 1
  81 0046 BDF91220 		ldrsh	r2, [sp, #18]
  82 004a 1748     		ldr	r0, .L4+4
  83 004c 1749     		ldr	r1, .L4+8
  84 004e FFF7FEFF 		bl	chprintf
  85              	.LVL8:
  86              		.loc 1 59 0 discriminator 1
  87 0052 BDF91420 		ldrsh	r2, [sp, #20]
  88 0056 1448     		ldr	r0, .L4+4
  89 0058 1549     		ldr	r1, .L4+12
  90 005a FFF7FEFF 		bl	chprintf
  91              	.LVL9:
  92              		.loc 1 60 0 discriminator 1
  93 005e BDF91620 		ldrsh	r2, [sp, #22]
  94 0062 1148     		ldr	r0, .L4+4
  95 0064 1349     		ldr	r1, .L4+16
  96 0066 FFF7FEFF 		bl	chprintf
  97              	.LVL10:
  98              		.loc 1 61 0 discriminator 1
  99 006a 9DF80B20 		ldrb	r2, [sp, #11]	@ zero_extendqisi2
 100 006e 0E48     		ldr	r0, .L4+4
 101 0070 1149     		ldr	r1, .L4+20
 102 0072 FFF7FEFF 		bl	chprintf
 103              	.LVL11:
 104              		.loc 1 64 0 discriminator 1
 105 0076 BDF90C20 		ldrsh	r2, [sp, #12]
 106 007a 0B48     		ldr	r0, .L4+4
 107 007c 0F49     		ldr	r1, .L4+24
 108 007e FFF7FEFF 		bl	chprintf
 109              	.LVL12:
 110              		.loc 1 65 0 discriminator 1
 111 0082 BDF90E20 		ldrsh	r2, [sp, #14]
 112 0086 0848     		ldr	r0, .L4+4
 113 0088 0D49     		ldr	r1, .L4+28
 114 008a FFF7FEFF 		bl	chprintf
ARM GAS  /tmp/ccZbUS3V.s 			page 3


 115              	.LVL13:
 116              		.loc 1 66 0 discriminator 1
 117 008e 0648     		ldr	r0, .L4+4
 118 0090 0C49     		ldr	r1, .L4+32
 119 0092 BDF91020 		ldrsh	r2, [sp, #16]
 120 0096 FFF7FEFF 		bl	chprintf
 121              	.LVL14:
 122              		.loc 1 67 0 discriminator 1
 123 009a 0348     		ldr	r0, .L4+4
 124 009c 0A49     		ldr	r1, .L4+36
 125 009e FFF7FEFF 		bl	chprintf
 126              	.LVL15:
 127 00a2 BAE7     		b	.L2
 128              	.L5:
 129              		.align	2
 130              	.L4:
 131 00a4 00000000 		.word	I2CD2
 132 00a8 00000000 		.word	SD2
 133 00ac 00000000 		.word	.LC0
 134 00b0 10000000 		.word	.LC1
 135 00b4 20000000 		.word	.LC2
 136 00b8 30000000 		.word	.LC3
 137 00bc 3C000000 		.word	.LC4
 138 00c0 48000000 		.word	.LC5
 139 00c4 54000000 		.word	.LC6
 140 00c8 60000000 		.word	.LC7
 141              		.cfi_endproc
 142              	.LFE64:
 143              		.size	gyroDemo, .-gyroDemo
 144 00cc AFF30080 		.section	.text.heartBeat,"ax",%progbits
 145              		.align	2
 146              		.p2align 4,,15
 147              		.thumb
 148              		.thumb_func
 149              		.type	heartBeat, %function
 150              	heartBeat:
 151              	.LFB63:
 152              		.loc 1 25 0
 153              		.cfi_startproc
 154              		@ args = 0, pretend = 0, frame = 0
 155              		@ frame_needed = 0, uses_anonymous_args = 0
 156              	.LVL16:
 157 0000 10B5     		push	{r4, lr}
 158              	.LCFI2:
 159              		.cfi_def_cfa_offset 8
 160              		.cfi_offset 4, -8
 161              		.cfi_offset 14, -4
 162              		.loc 1 26 0
 163 0002 0D48     		ldr	r0, .L8
 164              	.LVL17:
 165 0004 0D49     		ldr	r1, .L8+4
 166 0006 FFF7FEFF 		bl	chprintf
 167              	.LVL18:
 168              		.loc 1 28 0
 169 000a 4FF44063 		mov	r3, #3072
 170 000e C4F20103 		movt	r3, 16385
 171 0012 4FF48072 		mov	r2, #256
ARM GAS  /tmp/ccZbUS3V.s 			page 4


 172              		.loc 1 29 0
 173 0016 8020     		movs	r0, #128
 174              		.loc 1 28 0
 175 0018 1A61     		str	r2, [r3, #16]
 176              		.loc 1 32 0
 177 001a 1C46     		mov	r4, r3
 178              		.loc 1 29 0
 179 001c 5861     		str	r0, [r3, #20]
 180              	.L7:
 181              		.loc 1 32 0 discriminator 1
 182 001e E168     		ldr	r1, [r4, #12]
 183              		.loc 1 34 0 discriminator 1
 184 0020 FA20     		movs	r0, #250
 185              		.loc 1 32 0 discriminator 1
 186 0022 81F48073 		eor	r3, r1, #256
 187 0026 E360     		str	r3, [r4, #12]
 188              		.loc 1 33 0 discriminator 1
 189 0028 E268     		ldr	r2, [r4, #12]
 190 002a 82F08001 		eor	r1, r2, #128
 191 002e E160     		str	r1, [r4, #12]
 192              		.loc 1 34 0 discriminator 1
 193 0030 FFF7FEFF 		bl	chThdSleep
 194              	.LVL19:
 195 0034 F3E7     		b	.L7
 196              	.L9:
 197 0036 00BF     		.align	2
 198              	.L8:
 199 0038 00000000 		.word	SD2
 200 003c 64000000 		.word	.LC8
 201              		.cfi_endproc
 202              	.LFE63:
 203              		.size	heartBeat, .-heartBeat
 204              		.section	.text.startup.main,"ax",%progbits
 205              		.align	2
 206              		.p2align 4,,15
 207              		.global	main
 208              		.thumb
 209              		.thumb_func
 210              		.type	main, %function
 211              	main:
 212              	.LFB65:
 213              		.loc 1 73 0
 214              		.cfi_startproc
 215              		@ args = 0, pretend = 0, frame = 0
 216              		@ frame_needed = 0, uses_anonymous_args = 0
 217 0000 10B5     		push	{r4, lr}
 218              	.LCFI3:
 219              		.cfi_def_cfa_offset 8
 220              		.cfi_offset 4, -8
 221              		.cfi_offset 14, -4
 222 0002 82B0     		sub	sp, sp, #8
 223              	.LCFI4:
 224              		.cfi_def_cfa_offset 16
 225              		.loc 1 74 0
 226 0004 FFF7FEFF 		bl	halInit
 227              	.LVL20:
 228              		.loc 1 75 0
ARM GAS  /tmp/ccZbUS3V.s 			page 5


 229 0008 FFF7FEFF 		bl	chSysInit
 230              	.LVL21:
 231              		.loc 1 77 0
 232 000c 40F20000 		movw	r0, #:lower16:SD2
 233 0010 0021     		movs	r1, #0
 234 0012 C0F20000 		movt	r0, #:upper16:SD2
 235 0016 FFF7FEFF 		bl	sdStart
 236              	.LVL22:
 237              		.loc 1 80 0
 238 001a 4FF44064 		mov	r4, #3072
 239              		.loc 1 78 0
 240 001e 40F20000 		movw	r0, #:lower16:I2CD2
 241 0022 40F20001 		movw	r1, #:lower16:.LANCHOR0
 242              		.loc 1 80 0
 243 0026 C4F20104 		movt	r4, 16385
 244              		.loc 1 78 0
 245 002a C0F20000 		movt	r0, #:upper16:I2CD2
 246 002e C0F20001 		movt	r1, #:upper16:.LANCHOR0
 247 0032 FFF7FEFF 		bl	i2cStart
 248              	.LVL23:
 249              		.loc 1 80 0
 250 0036 1122     		movs	r2, #17
 251 0038 2046     		mov	r0, r4
 252 003a 4FF48061 		mov	r1, #1024
 253 003e FFF7FEFF 		bl	_pal_lld_setgroupmode
 254              	.LVL24:
 255              		.loc 1 81 0
 256 0042 1122     		movs	r2, #17
 257 0044 2046     		mov	r0, r4
 258 0046 4FF40061 		mov	r1, #2048
 259 004a FFF7FEFF 		bl	_pal_lld_setgroupmode
 260              	.LVL25:
 261              		.loc 1 82 0
 262 004e 6420     		movs	r0, #100
 263 0050 FFF7FEFF 		bl	chThdSleep
 264              	.LVL26:
 265              		.loc 1 84 0
 266 0054 0024     		movs	r4, #0
 267 0056 40F20003 		movw	r3, #:lower16:heartBeat
 268 005a 40F20000 		movw	r0, #:lower16:.LANCHOR1
 269 005e D021     		movs	r1, #208
 270 0060 4022     		movs	r2, #64
 271 0062 C0F20003 		movt	r3, #:upper16:heartBeat
 272 0066 0094     		str	r4, [sp, #0]
 273 0068 C0F20000 		movt	r0, #:upper16:.LANCHOR1
 274 006c FFF7FEFF 		bl	chThdCreateStatic
 275              	.LVL27:
 276              		.loc 1 85 0
 277 0070 40F20000 		movw	r0, #:lower16:.LANCHOR2
 278 0074 40F20003 		movw	r3, #:lower16:gyroDemo
 279 0078 0094     		str	r4, [sp, #0]
 280 007a 4FF4D871 		mov	r1, #432
 281 007e 4022     		movs	r2, #64
 282 0080 C0F20003 		movt	r3, #:upper16:gyroDemo
 283 0084 C0F20000 		movt	r0, #:upper16:.LANCHOR2
 284 0088 FFF7FEFF 		bl	chThdCreateStatic
 285              	.LVL28:
ARM GAS  /tmp/ccZbUS3V.s 			page 6


 286              		.loc 1 86 0
 287 008c 2046     		mov	r0, r4
 288 008e 02B0     		add	sp, sp, #8
 289 0090 10BD     		pop	{r4, pc}
 290              		.cfi_endproc
 291              	.LFE65:
 292              		.size	main, .-main
 293 0092 00BFAFF3 		.section	.rodata.i2cCfg,"a",%progbits
 293      0080AFF3 
 293      0080AFF3 
 293      0080
 294              		.align	2
 295              		.set	.LANCHOR0,. + 0
 296              		.type	i2cCfg, %object
 297              		.size	i2cCfg, 12
 298              	i2cCfg:
 299 0000 01       		.byte	1
 300 0001 000000   		.space	3
 301 0004 801A0600 		.word	400000
 302 0008 02       		.byte	2
 303 0009 000000   		.space	3
 304              		.section	.rodata.str1.4,"aMS",%progbits,1
 305              		.align	2
 306              	.LC0:
 307 0000 25642067 		.ascii	"%d gyroX    \000"
 307      79726F58 
 307      20202020 
 307      00
 308 000d 000000   		.space	3
 309              	.LC1:
 310 0010 25642067 		.ascii	"%d gyroY    \000"
 310      79726F59 
 310      20202020 
 310      00
 311 001d 000000   		.space	3
 312              	.LC2:
 313 0020 25642067 		.ascii	"%d gyroZ    \000"
 313      79726F5A 
 313      20202020 
 313      00
 314 002d 000000   		.space	3
 315              	.LC3:
 316 0030 25642054 		.ascii	"%d T    \000"
 316      20202020 
 316      00
 317 0039 000000   		.space	3
 318              	.LC4:
 319 003c 25642061 		.ascii	"%d accX    \000"
 319      63635820 
 319      20202000 
 320              	.LC5:
 321 0048 25642061 		.ascii	"%d accY    \000"
 321      63635920 
 321      20202000 
 322              	.LC6:
 323 0054 25642061 		.ascii	"%d accZ    \000"
 323      63635A20 
ARM GAS  /tmp/ccZbUS3V.s 			page 7


 323      20202000 
 324              	.LC7:
 325 0060 0A0D00   		.ascii	"\012\015\000"
 326 0063 00       		.space	1
 327              	.LC8:
 328 0064 0A0D4865 		.ascii	"\012\015Hello world!\012\015\000"
 328      6C6C6F20 
 328      776F726C 
 328      64210A0D 
 328      00
 329 0075 000000   		.section	.bss.heartWrkArea,"aw",%nobits
 330              		.align	3
 331              		.set	.LANCHOR1,. + 0
 332              		.type	heartWrkArea, %object
 333              		.size	heartWrkArea, 208
 334              	heartWrkArea:
 335 0000 00000000 		.space	208
 335      00000000 
 335      00000000 
 335      00000000 
 335      00000000 
 336              		.section	.bss.gyroDemoWrkArea,"aw",%nobits
 337              		.align	3
 338              		.set	.LANCHOR2,. + 0
 339              		.type	gyroDemoWrkArea, %object
 340              		.size	gyroDemoWrkArea, 432
 341              	gyroDemoWrkArea:
 342 0000 00000000 		.space	432
 342      00000000 
 342      00000000 
 342      00000000 
 342      00000000 
 343              		.text
 344              	.Letext0:
 345              		.file 2 "/usr/bin/../lib/gcc/arm-none-eabi/4.7.4/include/stddef.h"
 346              		.file 3 "/usr/bin/../lib/gcc/arm-none-eabi/4.7.4/../../../../arm-none-eabi/include/stdint.h"
 347              		.file 4 "../../os/ports/GCC/ARMCMx/chtypes.h"
 348              		.file 5 "../../os/kernel/include/chlists.h"
 349              		.file 6 "../../os/kernel/include/chthreads.h"
 350              		.file 7 "../../os/ports/GCC/ARMCMx/chcore_v7m.h"
 351              		.file 8 "../../os/kernel/include/chmtx.h"
 352              		.file 9 "../../os/kernel/include/chevents.h"
 353              		.file 10 "../../os/kernel/include/chqueues.h"
 354              		.file 11 "../../os/kernel/include/chstreams.h"
 355              		.file 12 "../../os/hal/platforms/STM32F1xx/stm32f10x.h"
 356              		.file 13 "../../os/hal/platforms/STM32F1xx/stm32_dma.h"
 357              		.file 14 "../../os/hal/platforms/STM32/GPIOv1/pal_lld.h"
 358              		.file 15 "../../os/hal/include/i2c.h"
 359              		.file 16 "../../os/hal/platforms/STM32/I2Cv1/i2c_lld.h"
 360              		.file 17 "../../os/hal/include/serial.h"
 361              		.file 18 "../../os/hal/platforms/STM32/USARTv1/serial_lld.h"
 362              		.file 19 "../../os/ports/common/ARMCMx/CMSIS/include/core_cm3.h"
 363              		.file 20 "../../os/various/IMU01A.h"
 364              		.file 21 "../../os/various/chprintf.h"
 365              		.file 22 "../../os/hal/include/hal.h"
 366              		.file 23 "../../os/kernel/include/chsys.h"