ARM GAS  /tmp/cc1GwMDc.s 			page 1


   1              		.syntax unified
   2              		.cpu cortex-m3
   3              		.fpu softvfp
   4              		.eabi_attribute 20, 1
   5              		.eabi_attribute 21, 1
   6              		.eabi_attribute 23, 3
   7              		.eabi_attribute 24, 1
   8              		.eabi_attribute 25, 1
   9              		.eabi_attribute 26, 1
  10              		.eabi_attribute 30, 2
  11              		.eabi_attribute 34, 1
  12              		.eabi_attribute 18, 4
  13              		.thumb
  14              		.file	"chprintf.c"
  15              		.text
  16              	.Ltext0:
  17              		.cfi_sections	.debug_frame
  18              		.section	.text.long_to_string_with_divisor,"ax",%progbits
  19              		.align	2
  20              		.p2align 4,,15
  21              		.thumb
  22              		.thumb_func
  23              		.type	long_to_string_with_divisor, %function
  24              	long_to_string_with_divisor:
  25              	.LFB7:
  26              		.file 1 "../../os/various/chprintf.c"
  27              		.loc 1 39 0
  28              		.cfi_startproc
  29              		@ args = 0, pretend = 0, frame = 0
  30              		@ frame_needed = 0, uses_anonymous_args = 0
  31              		@ link register save eliminated.
  32              	.LVL0:
  33 0000 F0B4     		push	{r4, r5, r6, r7}
  34              	.LCFI0:
  35              		.cfi_def_cfa_offset 16
  36              		.cfi_offset 4, -16
  37              		.cfi_offset 5, -12
  38              		.cfi_offset 6, -8
  39              		.cfi_offset 7, -4
  40              		.loc 1 46 0
  41 0002 002B     		cmp	r3, #0
  42 0004 08BF     		it	eq
  43 0006 0B46     		moveq	r3, r1
  44              	.LVL1:
  45              		.loc 1 39 0
  46 0008 0746     		mov	r7, r0
  47              	.LVL2:
  48              		.loc 1 51 0
  49 000a 00F10B0C 		add	ip, r0, #11
  50              	.LVL3:
  51              		.loc 1 36 0
  52 000e 00F10A05 		add	r5, r0, #10
  53              	.LVL4:
  54              	.L4:
  55              		.loc 1 53 0
  56 0012 B1FBF2F6 		udiv	r6, r1, r2
  57 0016 02FB1611 		mls	r1, r2, r6, r1
ARM GAS  /tmp/cc1GwMDc.s 			page 2


  58              	.LVL5:
  59              		.loc 1 54 0
  60 001a 01F13004 		add	r4, r1, #48
  61              	.LVL6:
  62              		.loc 1 55 0
  63 001e 392C     		cmp	r4, #57
  64              		.loc 1 56 0
  65 0020 C8BF     		it	gt
  66 0022 01F13704 		addgt	r4, r1, #55
  67              	.LVL7:
  68              		.loc 1 57 0
  69 0026 E4B2     		uxtb	r4, r4
  70              	.LVL8:
  71              		.loc 1 59 0
  72 0028 B3FBF2F3 		udiv	r3, r3, r2
  73              	.LVL9:
  74              		.loc 1 57 0
  75 002c 2846     		mov	r0, r5
  76              	.LVL10:
  77              		.loc 1 58 0
  78 002e 3146     		mov	r1, r6
  79              	.LVL11:
  80              		.loc 1 57 0
  81 0030 05F80149 		strb	r4, [r5], #-1
  82              	.LVL12:
  83              		.loc 1 59 0
  84 0034 002B     		cmp	r3, #0
  85 0036 ECD1     		bne	.L4
  86              	.LVL13:
  87              		.loc 1 61 0
  88 0038 C0EB0C03 		rsb	r3, r0, ip
  89              	.LVL14:
  90 003c F943     		mvns	r1, r7
  91              	.LVL15:
  92 003e 0246     		mov	r2, r0
  93              	.LVL16:
  94              		.loc 1 36 0
  95 0040 F818     		adds	r0, r7, r3
  96              	.LVL17:
  97 0042 4318     		adds	r3, r0, r1
  98              	.LVL18:
  99 0044 DB07     		lsls	r3, r3, #31
 100 0046 0AD5     		bpl	.L6
 101              	.LVL19:
 102              		.loc 1 63 0
 103 0048 07F8014B 		strb	r4, [r7], #1
 104              	.LVL20:
 105 004c 12F8014F 		ldrb	r4, [r2, #1]!	@ zero_extendqisi2
 106 0050 05E0     		b	.L6
 107              	.L17:
 108 0052 12F8014F 		ldrb	r4, [r2, #1]!	@ zero_extendqisi2
 109              	.LVL21:
 110 0056 7C70     		strb	r4, [r7, #1]
 111 0058 12F8014F 		ldrb	r4, [r2, #1]!	@ zero_extendqisi2
 112 005c 5F1C     		adds	r7, r3, #1
 113              	.LVL22:
 114              	.L6:
ARM GAS  /tmp/cc1GwMDc.s 			page 3


 115              		.loc 1 63 0 is_stmt 0 discriminator 1
 116 005e 3B46     		mov	r3, r7
 117 0060 03F8014B 		strb	r4, [r3], #1
 118              		.loc 1 64 0 is_stmt 1 discriminator 1
 119 0064 8342     		cmp	r3, r0
 120 0066 F4D1     		bne	.L17
 121              		.loc 1 67 0
 122 0068 F0BC     		pop	{r4, r5, r6, r7}
 123 006a 7047     		bx	lr
 124              		.cfi_endproc
 125              	.LFE7:
 126              		.size	long_to_string_with_divisor, .-long_to_string_with_divisor
 127              		.global	__aeabi_d2f
 128              		.global	__aeabi_fcmplt
 129              		.global	__aeabi_f2iz
 130              		.global	__aeabi_f2d
 131              		.global	__aeabi_i2d
 132              		.global	__aeabi_dsub
 133              		.global	__aeabi_dmul
 134              		.global	__aeabi_d2iz
 135 006c AFF30080 		.section	.text.chprintf,"ax",%progbits
 136              		.align	2
 137              		.p2align 4,,15
 138              		.global	chprintf
 139              		.thumb
 140              		.thumb_func
 141              		.type	chprintf, %function
 142              	chprintf:
 143              	.LFB10:
 144              		.loc 1 108 0
 145              		.cfi_startproc
 146              		@ args = 4, pretend = 12, frame = 48
 147              		@ frame_needed = 0, uses_anonymous_args = 1
 148              	.LVL23:
 149 0000 0EB4     		push	{r1, r2, r3}
 150              	.LCFI1:
 151              		.cfi_def_cfa_offset 12
 152              		.cfi_offset 1, -12
 153              		.cfi_offset 2, -8
 154              		.cfi_offset 3, -4
 155 0002 2DE9F04F 		push	{r4, r5, r6, r7, r8, r9, sl, fp, lr}
 156              	.LCFI2:
 157              		.cfi_def_cfa_offset 48
 158              		.cfi_offset 4, -48
 159              		.cfi_offset 5, -44
 160              		.cfi_offset 6, -40
 161              		.cfi_offset 7, -36
 162              		.cfi_offset 8, -32
 163              		.cfi_offset 9, -28
 164              		.cfi_offset 10, -24
 165              		.cfi_offset 11, -20
 166              		.cfi_offset 14, -16
 167 0006 8CB0     		sub	sp, sp, #48
 168              	.LCFI3:
 169              		.cfi_def_cfa_offset 96
 170              		.loc 1 108 0
 171 0008 15AB     		add	r3, sp, #84
ARM GAS  /tmp/cc1GwMDc.s 			page 4


 172              		.loc 1 236 0
 173 000a 0DF1190C 		add	ip, sp, #25
 174              		.loc 1 108 0
 175 000e 53F8044B 		ldr	r4, [r3], #4
 176              		.loc 1 132 0
 177 0012 0DF11808 		add	r8, sp, #24
 178              		.loc 1 236 0
 179 0016 CDF804C0 		str	ip, [sp, #4]
 180 001a C8EB0C0C 		rsb	ip, r8, ip
 181              		.loc 1 108 0
 182 001e 0646     		mov	r6, r0
 183              		.loc 1 121 0
 184 0020 0593     		str	r3, [sp, #20]
 185 0022 CDF808C0 		str	ip, [sp, #8]
 186              	.LVL24:
 187              	.L121:
 188              		.loc 1 123 0
 189 0026 2546     		mov	r5, r4
 190 0028 15F8011B 		ldrb	r1, [r5], #1	@ zero_extendqisi2
 191              	.LVL25:
 192              		.loc 1 124 0
 193 002c 59B1     		cbz	r1, .L120
 194              	.LVL26:
 195              	.L135:
 196              		.loc 1 128 0
 197 002e 2529     		cmp	r1, #37
 198 0030 0ED0     		beq	.L21
 199              		.loc 1 129 0
 200 0032 3468     		ldr	r4, [r6, #0]
 201 0034 3046     		mov	r0, r6
 202 0036 A368     		ldr	r3, [r4, #8]
 203              		.loc 1 123 0
 204 0038 2C46     		mov	r4, r5
 205 003a 2546     		mov	r5, r4
 206              	.LVL27:
 207              		.loc 1 129 0
 208 003c 9847     		blx	r3
 209              	.LVL28:
 210              		.loc 1 123 0
 211 003e 15F8011B 		ldrb	r1, [r5], #1	@ zero_extendqisi2
 212              	.LVL29:
 213              		.loc 1 124 0
 214 0042 0029     		cmp	r1, #0
 215 0044 F3D1     		bne	.L135
 216              	.LVL30:
 217              	.L120:
 218              		.loc 1 261 0
 219 0046 0CB0     		add	sp, sp, #48
 220 0048 BDE8F04F 		pop	{r4, r5, r6, r7, r8, r9, sl, fp, lr}
 221 004c 03B0     		add	sp, sp, #12
 222 004e 7047     		bx	lr
 223              	.L21:
 224              	.LVL31:
 225              		.loc 1 135 0
 226 0050 6378     		ldrb	r3, [r4, #1]	@ zero_extendqisi2
 227 0052 2D2B     		cmp	r3, #45
 228 0054 00F0CC81 		beq	.L136
ARM GAS  /tmp/cc1GwMDc.s 			page 5


 229              		.loc 1 134 0
 230 0058 4FF00009 		mov	r9, #0
 231              	.LVL32:
 232              	.L23:
 233              		.loc 1 140 0
 234 005c 2E2B     		cmp	r3, #46
 235 005e 00F0C381 		beq	.L24
 236              		.loc 1 140 0 is_stmt 0 discriminator 1
 237 0062 302B     		cmp	r3, #48
 238 0064 00F0C081 		beq	.L24
 239              		.loc 1 139 0 is_stmt 1
 240 0068 2027     		movs	r7, #32
 241              	.LVL33:
 242              	.L25:
 243              		.loc 1 142 0
 244 006a 2C46     		mov	r4, r5
 245 006c 0599     		ldr	r1, [sp, #20]
 246              		.loc 1 144 0
 247 006e 0025     		movs	r5, #0
 248              	.LVL34:
 249 0070 06E0     		b	.L28
 250              	.LVL35:
 251              	.L137:
 252              		.loc 1 150 0
 253 0072 0A78     		ldrb	r2, [r1, #0]	@ zero_extendqisi2
 254              	.LVL36:
 255 0074 0431     		adds	r1, r1, #4
 256              	.LVL37:
 257              	.L26:
 258              		.loc 1 153 0
 259 0076 05EB8505 		add	r5, r5, r5, lsl #2
 260              	.LVL38:
 261 007a 2378     		ldrb	r3, [r4, #0]	@ zero_extendqisi2
 262 007c 02EB4505 		add	r5, r2, r5, lsl #1
 263              	.LVL39:
 264              	.L28:
 265              		.loc 1 147 0
 266 0080 A3F13002 		sub	r2, r3, #48
 267 0084 D2B2     		uxtb	r2, r2
 268              		.loc 1 146 0
 269 0086 0134     		adds	r4, r4, #1
 270              	.LVL40:
 271              		.loc 1 147 0
 272 0088 092A     		cmp	r2, #9
 273 008a F4D9     		bls	.L26
 274              		.loc 1 149 0
 275 008c 2A2B     		cmp	r3, #42
 276 008e F0D0     		beq	.L137
 277              		.loc 1 156 0
 278 0090 0020     		movs	r0, #0
 279 0092 2E2B     		cmp	r3, #46
 280 0094 0591     		str	r1, [sp, #20]
 281              	.LVL41:
 282 0096 49D0     		beq	.L32
 283              	.LVL42:
 284              		.loc 1 170 0
 285 0098 6C2B     		cmp	r3, #108
ARM GAS  /tmp/cc1GwMDc.s 			page 6


 286 009a 55D0     		beq	.L33
 287              	.LVL43:
 288              	.L138:
 289              		.loc 1 170 0 is_stmt 0 discriminator 1
 290 009c 4C2B     		cmp	r3, #76
 291 009e 53D0     		beq	.L33
 292              		.loc 1 176 0 is_stmt 1
 293 00a0 A3F14101 		sub	r1, r3, #65
 294 00a4 1929     		cmp	r1, #25
 295 00a6 8CBF     		ite	hi
 296 00a8 0021     		movhi	r1, #0
 297 00aa 0121     		movls	r1, #1
 298              	.LVL44:
 299              	.L35:
 300              		.loc 1 179 0
 301 00ac A3F14402 		sub	r2, r3, #68
 302 00b0 342A     		cmp	r2, #52
 303 00b2 00F29381 		bhi	.L36
 304 00b6 DFE812F0 		tbh	[pc, r2, lsl #1]
 305              	.L44:
 306 00ba 8101     		.2byte	(.L37-.L44)/2
 307 00bc 9101     		.2byte	(.L36-.L44)/2
 308 00be 9101     		.2byte	(.L36-.L44)/2
 309 00c0 9101     		.2byte	(.L36-.L44)/2
 310 00c2 9101     		.2byte	(.L36-.L44)/2
 311 00c4 8101     		.2byte	(.L37-.L44)/2
 312 00c6 9101     		.2byte	(.L36-.L44)/2
 313 00c8 9101     		.2byte	(.L36-.L44)/2
 314 00ca 9101     		.2byte	(.L36-.L44)/2
 315 00cc 9101     		.2byte	(.L36-.L44)/2
 316 00ce 9101     		.2byte	(.L36-.L44)/2
 317 00d0 7F01     		.2byte	(.L38-.L44)/2
 318 00d2 9101     		.2byte	(.L36-.L44)/2
 319 00d4 9101     		.2byte	(.L36-.L44)/2
 320 00d6 9101     		.2byte	(.L36-.L44)/2
 321 00d8 9101     		.2byte	(.L36-.L44)/2
 322 00da 9101     		.2byte	(.L36-.L44)/2
 323 00dc 7701     		.2byte	(.L69-.L44)/2
 324 00de 9101     		.2byte	(.L36-.L44)/2
 325 00e0 9101     		.2byte	(.L36-.L44)/2
 326 00e2 6901     		.2byte	(.L40-.L44)/2
 327 00e4 9101     		.2byte	(.L36-.L44)/2
 328 00e6 9101     		.2byte	(.L36-.L44)/2
 329 00e8 9101     		.2byte	(.L36-.L44)/2
 330 00ea 9101     		.2byte	(.L36-.L44)/2
 331 00ec 9101     		.2byte	(.L36-.L44)/2
 332 00ee 9101     		.2byte	(.L36-.L44)/2
 333 00f0 9101     		.2byte	(.L36-.L44)/2
 334 00f2 9101     		.2byte	(.L36-.L44)/2
 335 00f4 9101     		.2byte	(.L36-.L44)/2
 336 00f6 9101     		.2byte	(.L36-.L44)/2
 337 00f8 2A01     		.2byte	(.L41-.L44)/2
 338 00fa 8101     		.2byte	(.L37-.L44)/2
 339 00fc 9101     		.2byte	(.L36-.L44)/2
 340 00fe E500     		.2byte	(.L42-.L44)/2
 341 0100 9101     		.2byte	(.L36-.L44)/2
 342 0102 9101     		.2byte	(.L36-.L44)/2
ARM GAS  /tmp/cc1GwMDc.s 			page 7


 343 0104 8101     		.2byte	(.L37-.L44)/2
 344 0106 9101     		.2byte	(.L36-.L44)/2
 345 0108 9101     		.2byte	(.L36-.L44)/2
 346 010a 9101     		.2byte	(.L36-.L44)/2
 347 010c 9101     		.2byte	(.L36-.L44)/2
 348 010e 9101     		.2byte	(.L36-.L44)/2
 349 0110 7F01     		.2byte	(.L38-.L44)/2
 350 0112 9101     		.2byte	(.L36-.L44)/2
 351 0114 9101     		.2byte	(.L36-.L44)/2
 352 0116 9101     		.2byte	(.L36-.L44)/2
 353 0118 4F00     		.2byte	(.L43-.L44)/2
 354 011a 9101     		.2byte	(.L36-.L44)/2
 355 011c 7701     		.2byte	(.L69-.L44)/2
 356 011e 9101     		.2byte	(.L36-.L44)/2
 357 0120 9101     		.2byte	(.L36-.L44)/2
 358 0122 6901     		.2byte	(.L40-.L44)/2
 359              	.LVL45:
 360              	.L31:
 361              		.loc 1 162 0
 362 0124 0A78     		ldrb	r2, [r1, #0]	@ zero_extendqisi2
 363              	.LVL46:
 364 0126 0431     		adds	r1, r1, #4
 365              	.LVL47:
 366              	.L30:
 367              		.loc 1 166 0
 368 0128 02EB4A00 		add	r0, r2, sl, lsl #1
 369              	.LVL48:
 370              	.L32:
 371              		.loc 1 158 0
 372 012c 14F8013B 		ldrb	r3, [r4], #1	@ zero_extendqisi2
 373              	.LVL49:
 374              		.loc 1 165 0
 375 0130 00EB800A 		add	sl, r0, r0, lsl #2
 376              		.loc 1 159 0
 377 0134 A3F13002 		sub	r2, r3, #48
 378 0138 D2B2     		uxtb	r2, r2
 379 013a 092A     		cmp	r2, #9
 380 013c F4D9     		bls	.L30
 381              		.loc 1 161 0
 382 013e 2A2B     		cmp	r3, #42
 383 0140 F0D0     		beq	.L31
 384              		.loc 1 170 0
 385 0142 6C2B     		cmp	r3, #108
 386 0144 0591     		str	r1, [sp, #20]
 387 0146 A9D1     		bne	.L138
 388              	.LVL50:
 389              	.L33:
 390              		.loc 1 172 0
 391 0148 2178     		ldrb	r1, [r4, #0]	@ zero_extendqisi2
 392 014a 0029     		cmp	r1, #0
 393 014c 00F05581 		beq	.L68
 394              	.LVL51:
 395              		.loc 1 173 0
 396 0150 0B46     		mov	r3, r1
 397 0152 0134     		adds	r4, r4, #1
 398              	.LVL52:
 399              		.loc 1 171 0
ARM GAS  /tmp/cc1GwMDc.s 			page 8


 400 0154 0121     		movs	r1, #1
 401 0156 A9E7     		b	.L35
 402              	.LVL53:
 403              	.L43:
 404              		.loc 1 186 0
 405 0158 059F     		ldr	r7, [sp, #20]
 406              		.loc 1 187 0
 407 015a AB49     		ldr	r1, .L144+8
 408              	.LVL54:
 409              		.loc 1 186 0
 410 015c 3B68     		ldr	r3, [r7, #0]
 411              	.LVL55:
 412 015e 3A1D     		adds	r2, r7, #4
 413              	.LVL56:
 414              		.loc 1 187 0
 415 0160 002B     		cmp	r3, #0
 416 0162 14BF     		ite	ne
 417 0164 9A46     		movne	sl, r3
 418 0166 8A46     		moveq	sl, r1
 419              	.LVL57:
 420              		.loc 1 190 0
 421 0168 9AF80070 		ldrb	r7, [sl, #0]	@ zero_extendqisi2
 422              		.loc 1 189 0
 423 016c 47F6FF73 		movw	r3, #32767
 424              		.loc 1 186 0
 425 0170 0592     		str	r2, [sp, #20]
 426              		.loc 1 189 0
 427 0172 0028     		cmp	r0, #0
 428 0174 08BF     		it	eq
 429 0176 1846     		moveq	r0, r3
 430              	.LVL58:
 431              		.loc 1 190 0
 432 0178 002F     		cmp	r7, #0
 433 017a 00F06581 		beq	.L72
 434 017e 9AF80170 		ldrb	r7, [sl, #1]	@ zero_extendqisi2
 435 0182 421E     		subs	r2, r0, #1
 436 0184 0AEB000B 		add	fp, sl, r0
 437 0188 02F00100 		and	r0, r2, #1
 438              		.loc 1 108 0
 439 018c 0AF10102 		add	r2, sl, #1
 440              	.LVL59:
 441              		.loc 1 190 0
 442 0190 002F     		cmp	r7, #0
 443 0192 73D0     		beq	.L122
 444 0194 9345     		cmp	fp, r2
 445 0196 1346     		mov	r3, r2
 446 0198 08D0     		beq	.L124
 447 019a 0028     		cmp	r0, #0
 448 019c 69D0     		beq	.L49
 449 019e 5178     		ldrb	r1, [r2, #1]	@ zero_extendqisi2
 450              		.loc 1 108 0
 451 01a0 0132     		adds	r2, r2, #1
 452              	.LVL60:
 453              		.loc 1 190 0
 454 01a2 0029     		cmp	r1, #0
 455 01a4 6AD0     		beq	.L122
 456 01a6 9345     		cmp	fp, r2
ARM GAS  /tmp/cc1GwMDc.s 			page 9


 457 01a8 1346     		mov	r3, r2
 458 01aa 62D1     		bne	.L49
 459              	.LVL61:
 460              	.L124:
 461 01ac CAEB0B0B 		rsb	fp, sl, fp
 462              		.loc 1 240 0
 463 01b0 CBEB0505 		rsb	r5, fp, r5
 464              	.LVL62:
 465              		.loc 1 185 0
 466 01b4 2027     		movs	r7, #32
 467              	.LVL63:
 468 01b6 25EAE575 		bic	r5, r5, r5, asr #31
 469              	.LVL64:
 470              		.loc 1 242 0
 471 01ba B9F1000F 		cmp	r9, #0
 472 01be 00F0B880 		beq	.L139
 473              	.LVL65:
 474              	.L57:
 475              		.loc 1 253 0 discriminator 1
 476 01c2 BBF1000F 		cmp	fp, #0
 477 01c6 27DD     		ble	.L63
 478              		.loc 1 254 0
 479 01c8 D146     		mov	r9, sl
 480 01ca 3068     		ldr	r0, [r6, #0]
 481 01cc 19F8011B 		ldrb	r1, [r9], #1	@ zero_extendqisi2
 482              		.loc 1 108 0
 483 01d0 D344     		add	fp, sl, fp
 484              	.LVL66:
 485 01d2 6FEA0A0E 		mvn	lr, sl
 486              		.loc 1 254 0
 487 01d6 8268     		ldr	r2, [r0, #8]
 488 01d8 3046     		mov	r0, r6
 489 01da 0BEB0E0A 		add	sl, fp, lr
 490              	.LVL67:
 491 01de 9047     		blx	r2
 492              	.LVL68:
 493              		.loc 1 253 0
 494 01e0 D945     		cmp	r9, fp
 495 01e2 0AF0010A 		and	sl, sl, #1
 496              	.LVL69:
 497 01e6 17D0     		beq	.L63
 498 01e8 BAF1000F 		cmp	sl, #0
 499 01ec 03D0     		beq	.L62
 500              	.LVL70:
 501              		.loc 1 254 0
 502 01ee 3368     		ldr	r3, [r6, #0]
 503 01f0 19F8011B 		ldrb	r1, [r9], #1	@ zero_extendqisi2
 504 01f4 0BE0     		b	.L134
 505              	.L62:
 506 01f6 3068     		ldr	r0, [r6, #0]
 507 01f8 CA46     		mov	sl, r9
 508 01fa 1AF8011B 		ldrb	r1, [sl], #1	@ zero_extendqisi2
 509 01fe 8268     		ldr	r2, [r0, #8]
 510 0200 3046     		mov	r0, r6
 511 0202 9047     		blx	r2
 512              	.LVL71:
 513 0204 3368     		ldr	r3, [r6, #0]
ARM GAS  /tmp/cc1GwMDc.s 			page 10


 514 0206 99F80110 		ldrb	r1, [r9, #1]	@ zero_extendqisi2
 515 020a 0AF10109 		add	r9, sl, #1
 516              	.L134:
 517 020e 9A68     		ldr	r2, [r3, #8]
 518 0210 3046     		mov	r0, r6
 519 0212 9047     		blx	r2
 520              	.LVL72:
 521              		.loc 1 253 0
 522 0214 D945     		cmp	r9, fp
 523 0216 EED1     		bne	.L62
 524              	.L63:
 525              	.LVL73:
 526              		.loc 1 256 0
 527 0218 002D     		cmp	r5, #0
 528 021a 3FF404AF 		beq	.L121
 529              		.loc 1 257 0
 530 021e 3168     		ldr	r1, [r6, #0]
 531 0220 6B1E     		subs	r3, r5, #1
 532 0222 8A68     		ldr	r2, [r1, #8]
 533              		.loc 1 256 0
 534 0224 1D46     		mov	r5, r3
 535              	.LVL74:
 536              		.loc 1 257 0
 537 0226 3046     		mov	r0, r6
 538 0228 3946     		mov	r1, r7
 539 022a 03F00109 		and	r9, r3, #1
 540 022e 9047     		blx	r2
 541              	.LVL75:
 542              		.loc 1 256 0
 543 0230 002D     		cmp	r5, #0
 544 0232 3FF4F8AE 		beq	.L121
 545 0236 B9F1000F 		cmp	r9, #0
 546 023a 07D0     		beq	.L82
 547              		.loc 1 257 0
 548 023c 3168     		ldr	r1, [r6, #0]
 549 023e 3046     		mov	r0, r6
 550 0240 8B68     		ldr	r3, [r1, #8]
 551 0242 3946     		mov	r1, r7
 552 0244 9847     		blx	r3
 553              	.LVL76:
 554              		.loc 1 256 0
 555 0246 013D     		subs	r5, r5, #1
 556 0248 3FF4EDAE 		beq	.L121
 557              	.L82:
 558              		.loc 1 257 0
 559 024c 3068     		ldr	r0, [r6, #0]
 560 024e 3946     		mov	r1, r7
 561 0250 8268     		ldr	r2, [r0, #8]
 562 0252 3046     		mov	r0, r6
 563 0254 9047     		blx	r2
 564              	.LVL77:
 565 0256 3168     		ldr	r1, [r6, #0]
 566              		.loc 1 258 0
 567 0258 013D     		subs	r5, r5, #1
 568              		.loc 1 257 0
 569 025a 8B68     		ldr	r3, [r1, #8]
 570 025c 3046     		mov	r0, r6
ARM GAS  /tmp/cc1GwMDc.s 			page 11


 571 025e 3946     		mov	r1, r7
 572 0260 9847     		blx	r3
 573              	.LVL78:
 574              		.loc 1 256 0
 575 0262 013D     		subs	r5, r5, #1
 576 0264 F2D1     		bne	.L82
 577 0266 DEE6     		b	.L121
 578              	.LVL79:
 579              	.L48:
 580              		.loc 1 190 0 discriminator 2
 581 0268 5178     		ldrb	r1, [r2, #1]	@ zero_extendqisi2
 582              		.loc 1 108 0 discriminator 2
 583 026a 0132     		adds	r2, r2, #1
 584              	.LVL80:
 585              		.loc 1 190 0 discriminator 2
 586 026c 31B1     		cbz	r1, .L122
 587              		.loc 1 190 0 is_stmt 0
 588 026e 9B45     		cmp	fp, r3
 589 0270 9CD0     		beq	.L124
 590              	.L49:
 591              		.loc 1 190 0 discriminator 1
 592 0272 5F78     		ldrb	r7, [r3, #1]	@ zero_extendqisi2
 593              		.loc 1 108 0 is_stmt 1 discriminator 1
 594 0274 5A1C     		adds	r2, r3, #1
 595              	.LVL81:
 596 0276 531C     		adds	r3, r2, #1
 597              		.loc 1 190 0 discriminator 1
 598 0278 002F     		cmp	r7, #0
 599 027a F5D1     		bne	.L48
 600              	.LVL82:
 601              	.L122:
 602 027c CAEB020B 		rsb	fp, sl, r2
 603              		.loc 1 185 0
 604 0280 2027     		movs	r7, #32
 605 0282 4EE0     		b	.L45
 606              	.LVL83:
 607              	.L42:
 608              		.loc 1 209 0
 609 0284 059A     		ldr	r2, [sp, #20]
 610 0286 D01D     		adds	r0, r2, #7
 611              	.LVL84:
 612 0288 20F00703 		bic	r3, r0, #7
 613              	.LVL85:
 614 028c 03F10802 		add	r2, r3, #8
 615 0290 D3E90001 		ldrd	r0, [r3]
 616 0294 0592     		str	r2, [sp, #20]
 617 0296 FFF7FEFF 		bl	__aeabi_d2f
 618              	.LVL86:
 619              		.loc 1 210 0
 620 029a 0021     		movs	r1, #0
 621              		.loc 1 209 0
 622 029c 8246     		mov	sl, r0
 623              	.LVL87:
 624              		.loc 1 210 0
 625 029e FFF7FEFF 		bl	__aeabi_fcmplt
 626              	.LVL88:
 627 02a2 0028     		cmp	r0, #0
ARM GAS  /tmp/cc1GwMDc.s 			page 12


 628 02a4 40F0C880 		bne	.L140
 629              		.loc 1 132 0
 630 02a8 C346     		mov	fp, r8
 631              	.LVL89:
 632              	.L53:
 633              	.LBB8:
 634              	.LBB9:
 635              		.loc 1 79 0
 636 02aa 5046     		mov	r0, sl
 637 02ac FFF7FEFF 		bl	__aeabi_f2iz
 638              	.LVL90:
 639 02b0 0390     		str	r0, [sp, #12]
 640              	.LVL91:
 641              		.loc 1 80 0
 642 02b2 0A22     		movs	r2, #10
 643 02b4 0023     		movs	r3, #0
 644 02b6 5846     		mov	r0, fp
 645              	.LVL92:
 646 02b8 0399     		ldr	r1, [sp, #12]
 647 02ba FFF7FEFF 		bl	long_to_string_with_divisor
 648              	.LVL93:
 649              		.loc 1 81 0
 650 02be 8446     		mov	ip, r0
 651 02c0 2E20     		movs	r0, #46
 652              	.LVL94:
 653 02c2 0CF8010B 		strb	r0, [ip], #1
 654              	.LVL95:
 655              	.LBE9:
 656              	.LBE8:
 657              		.loc 1 214 0
 658 02c6 5046     		mov	r0, sl
 659 02c8 CDF800C0 		str	ip, [sp, #0]
 660 02cc FFF7FEFF 		bl	__aeabi_f2d
 661              	.LVL96:
 662 02d0 8246     		mov	sl, r0
 663              	.LVL97:
 664              	.LBB12:
 665              	.LBB10:
 666              		.loc 1 82 0
 667 02d2 0398     		ldr	r0, [sp, #12]
 668              	.LBE10:
 669              	.LBE12:
 670              		.loc 1 214 0
 671 02d4 8B46     		mov	fp, r1
 672              	.LVL98:
 673              	.LBB13:
 674              	.LBB11:
 675              		.loc 1 82 0
 676 02d6 FFF7FEFF 		bl	__aeabi_i2d
 677              	.LVL99:
 678 02da 0246     		mov	r2, r0
 679 02dc 0B46     		mov	r3, r1
 680 02de 5046     		mov	r0, sl
 681 02e0 5946     		mov	r1, fp
 682 02e2 FFF7FEFF 		bl	__aeabi_dsub
 683              	.LVL100:
 684 02e6 46A3     		adr	r3, .L144
ARM GAS  /tmp/cc1GwMDc.s 			page 13


 685 02e8 D3E90023 		ldrd	r2, [r3]
 686 02ec FFF7FEFF 		bl	__aeabi_dmul
 687              	.LVL101:
 688 02f0 FFF7FEFF 		bl	__aeabi_d2iz
 689              	.LVL102:
 690              		.loc 1 83 0
 691 02f4 DDF800C0 		ldr	ip, [sp, #0]
 692              	.LVL103:
 693              		.loc 1 82 0
 694 02f8 0146     		mov	r1, r0
 695              		.loc 1 83 0
 696 02fa 0A22     		movs	r2, #10
 697 02fc 6046     		mov	r0, ip
 698 02fe 42F21073 		movw	r3, #10000
 699 0302 FFF7FEFF 		bl	long_to_string_with_divisor
 700              	.LVL104:
 701              	.LBE11:
 702              	.LBE13:
 703              		.loc 1 133 0
 704 0306 C246     		mov	sl, r8
 705 0308 C8EB000B 		rsb	fp, r8, r0
 706              		.loc 1 215 0
 707 030c 09E0     		b	.L45
 708              	.LVL105:
 709              	.L41:
 710              		.loc 1 182 0
 711 030e 059F     		ldr	r7, [sp, #20]
 712 0310 DDF808B0 		ldr	fp, [sp, #8]
 713 0314 3A68     		ldr	r2, [r7, #0]
 714 0316 3B1D     		adds	r3, r7, #4
 715              	.LVL106:
 716 0318 0593     		str	r3, [sp, #20]
 717 031a 8DF81820 		strb	r2, [sp, #24]
 718              	.LVL107:
 719              		.loc 1 181 0
 720 031e 2027     		movs	r7, #32
 721              		.loc 1 133 0
 722 0320 C246     		mov	sl, r8
 723              	.LVL108:
 724              	.L45:
 725              		.loc 1 240 0
 726 0322 CBEB0505 		rsb	r5, fp, r5
 727              	.LVL109:
 728 0326 25EAE575 		bic	r5, r5, r5, asr #31
 729              	.LVL110:
 730              		.loc 1 242 0
 731 032a B9F1000F 		cmp	r9, #0
 732 032e 7FF448AF 		bne	.L57
 733              	.LVL111:
 734              	.L139:
 735              		.loc 1 243 0
 736 0332 6D42     		negs	r5, r5
 737              	.LVL112:
 738              		.loc 1 244 0
 739 0334 002D     		cmp	r5, #0
 740 0336 3FF444AF 		beq	.L57
 741              		.loc 1 245 0
ARM GAS  /tmp/cc1GwMDc.s 			page 14


 742 033a 9AF80010 		ldrb	r1, [sl, #0]	@ zero_extendqisi2
 743 033e 2D29     		cmp	r1, #45
 744 0340 6FD0     		beq	.L141
 745              	.L107:
 746              		.loc 1 250 0
 747 0342 3168     		ldr	r1, [r6, #0]
 748 0344 3046     		mov	r0, r6
 749 0346 8B68     		ldr	r3, [r1, #8]
 750 0348 3946     		mov	r1, r7
 751 034a 6FEA0509 		mvn	r9, r5
 752              	.LVL113:
 753 034e 9847     		blx	r3
 754              	.LVL114:
 755              		.loc 1 251 0
 756 0350 0135     		adds	r5, r5, #1
 757              	.LVL115:
 758 0352 09F00109 		and	r9, r9, #1
 759              	.LVL116:
 760 0356 3FF434AF 		beq	.L57
 761 035a B9F1000F 		cmp	r9, #0
 762 035e 07D0     		beq	.L83
 763              	.LVL117:
 764              		.loc 1 250 0
 765 0360 3268     		ldr	r2, [r6, #0]
 766 0362 3046     		mov	r0, r6
 767 0364 9368     		ldr	r3, [r2, #8]
 768 0366 3946     		mov	r1, r7
 769 0368 9847     		blx	r3
 770              	.LVL118:
 771              		.loc 1 251 0
 772 036a 0135     		adds	r5, r5, #1
 773              	.LVL119:
 774 036c 3FF429AF 		beq	.L57
 775              	.LVL120:
 776              	.L83:
 777              		.loc 1 250 0 discriminator 1
 778 0370 3068     		ldr	r0, [r6, #0]
 779 0372 3946     		mov	r1, r7
 780 0374 8268     		ldr	r2, [r0, #8]
 781 0376 3046     		mov	r0, r6
 782 0378 9047     		blx	r2
 783              	.LVL121:
 784 037a 3168     		ldr	r1, [r6, #0]
 785              		.loc 1 251 0 discriminator 1
 786 037c 0135     		adds	r5, r5, #1
 787              	.LVL122:
 788              		.loc 1 250 0 discriminator 1
 789 037e 8B68     		ldr	r3, [r1, #8]
 790 0380 3046     		mov	r0, r6
 791 0382 3946     		mov	r1, r7
 792 0384 9847     		blx	r3
 793              	.LVL123:
 794              		.loc 1 251 0 discriminator 1
 795 0386 0135     		adds	r5, r5, #1
 796              	.LVL124:
 797 0388 F2D1     		bne	.L83
 798 038a 1AE7     		b	.L57
ARM GAS  /tmp/cc1GwMDc.s 			page 15


 799              	.LVL125:
 800              	.L40:
 801              		.loc 1 179 0
 802 038c 1022     		movs	r2, #16
 803              	.LVL126:
 804              	.L39:
 805              		.loc 1 230 0
 806 038e 059B     		ldr	r3, [sp, #20]
 807              		.loc 1 229 0
 808 0390 71B1     		cbz	r1, .L55
 809              	.L142:
 810              		.loc 1 230 0
 811 0392 191D     		adds	r1, r3, #4
 812              	.LVL127:
 813 0394 0591     		str	r1, [sp, #20]
 814 0396 1968     		ldr	r1, [r3, #0]
 815              	.LVL128:
 816              	.L56:
 817              	.LBB14:
 818              	.LBB15:
 819              		.loc 1 71 0
 820 0398 4046     		mov	r0, r8
 821 039a 0023     		movs	r3, #0
 822 039c FFF7FEFF 		bl	long_to_string_with_divisor
 823              	.LVL129:
 824              	.LBE15:
 825              	.LBE14:
 826              		.loc 1 133 0
 827 03a0 C246     		mov	sl, r8
 828 03a2 C8EB000B 		rsb	fp, r8, r0
 829              		.loc 1 234 0
 830 03a6 BCE7     		b	.L45
 831              	.LVL130:
 832              	.L69:
 833              		.loc 1 179 0
 834 03a8 0A22     		movs	r2, #10
 835              	.LVL131:
 836              		.loc 1 230 0
 837 03aa 059B     		ldr	r3, [sp, #20]
 838              		.loc 1 229 0
 839 03ac 0029     		cmp	r1, #0
 840 03ae F0D1     		bne	.L142
 841              	.L55:
 842              		.loc 1 232 0
 843 03b0 181D     		adds	r0, r3, #4
 844              	.LVL132:
 845 03b2 1968     		ldr	r1, [r3, #0]
 846              	.LVL133:
 847 03b4 0590     		str	r0, [sp, #20]
 848 03b6 EFE7     		b	.L56
 849              	.LVL134:
 850              	.L38:
 851 03b8 0822     		movs	r2, #8
 852 03ba E8E7     		b	.L39
 853              	.LVL135:
 854              	.L37:
 855              		.loc 1 198 0
ARM GAS  /tmp/cc1GwMDc.s 			page 16


 856 03bc 059B     		ldr	r3, [sp, #20]
 857              	.LVL136:
 858 03be 1A1D     		adds	r2, r3, #4
 859              	.LVL137:
 860              		.loc 1 197 0
 861 03c0 21B3     		cbz	r1, .L50
 862              		.loc 1 198 0
 863 03c2 1968     		ldr	r1, [r3, #0]
 864              	.LVL138:
 865 03c4 0592     		str	r2, [sp, #20]
 866              		.loc 1 201 0
 867 03c6 0029     		cmp	r1, #0
 868 03c8 24DB     		blt	.L143
 869              	.L73:
 870              		.loc 1 132 0
 871 03ca 4046     		mov	r0, r8
 872              	.LVL139:
 873              	.L52:
 874              	.LBB16:
 875              	.LBB17:
 876              		.loc 1 71 0
 877 03cc 0A22     		movs	r2, #10
 878 03ce 0023     		movs	r3, #0
 879 03d0 FFF7FEFF 		bl	long_to_string_with_divisor
 880              	.LVL140:
 881              	.LBE17:
 882              	.LBE16:
 883              		.loc 1 133 0
 884 03d4 C246     		mov	sl, r8
 885 03d6 C8EB000B 		rsb	fp, r8, r0
 886              		.loc 1 206 0
 887 03da A2E7     		b	.L45
 888              	.LVL141:
 889              	.L36:
 890              		.loc 1 236 0
 891 03dc 8DF81830 		strb	r3, [sp, #24]
 892              	.LVL142:
 893 03e0 DDF808B0 		ldr	fp, [sp, #8]
 894              		.loc 1 133 0
 895 03e4 C246     		mov	sl, r8
 896              		.loc 1 237 0
 897 03e6 9CE7     		b	.L45
 898              	.LVL143:
 899              	.L24:
 900 03e8 6B78     		ldrb	r3, [r5, #1]	@ zero_extendqisi2
 901              		.loc 1 142 0
 902 03ea 3027     		movs	r7, #48
 903              		.loc 1 141 0
 904 03ec 0135     		adds	r5, r5, #1
 905              	.LVL144:
 906 03ee 3CE6     		b	.L25
 907              	.LVL145:
 908              	.L136:
 909              		.loc 1 136 0
 910 03f0 A51C     		adds	r5, r4, #2
 911              	.LVL146:
 912 03f2 A378     		ldrb	r3, [r4, #2]	@ zero_extendqisi2
ARM GAS  /tmp/cc1GwMDc.s 			page 17


 913              		.loc 1 137 0
 914 03f4 4FF00109 		mov	r9, #1
 915 03f8 30E6     		b	.L23
 916              	.LVL147:
 917              	.L68:
 918              		.loc 1 171 0
 919 03fa 0121     		movs	r1, #1
 920 03fc 56E6     		b	.L35
 921              	.L145:
 922 03fe 00BF     		.align	3
 923              	.L144:
 924 0400 00000000 		.word	0
 925 0404 006AF840 		.word	1090021888
 926 0408 00000000 		.word	.LC0
 927              	.LVL148:
 928              	.L50:
 929              		.loc 1 200 0
 930 040c 1968     		ldr	r1, [r3, #0]
 931              	.LVL149:
 932 040e 0592     		str	r2, [sp, #20]
 933              		.loc 1 201 0
 934 0410 0029     		cmp	r1, #0
 935 0412 DADA     		bge	.L73
 936              	.L143:
 937              		.loc 1 202 0
 938 0414 2D20     		movs	r0, #45
 939              	.LVL150:
 940 0416 8DF81800 		strb	r0, [sp, #24]
 941              	.LVL151:
 942              		.loc 1 203 0
 943 041a 4942     		negs	r1, r1
 944              	.LVL152:
 945              		.loc 1 202 0
 946 041c 0DF11900 		add	r0, sp, #25
 947 0420 D4E7     		b	.L52
 948              	.LVL153:
 949              	.L141:
 950              		.loc 1 245 0 discriminator 1
 951 0422 302F     		cmp	r7, #48
 952 0424 8DD1     		bne	.L107
 953              		.loc 1 246 0
 954 0426 3368     		ldr	r3, [r6, #0]
 955 0428 3046     		mov	r0, r6
 956 042a 9A68     		ldr	r2, [r3, #8]
 957 042c 9047     		blx	r2
 958              	.LVL154:
 959 042e 0AF1010A 		add	sl, sl, #1
 960              	.LVL155:
 961              		.loc 1 247 0
 962 0432 0BF1FF3B 		add	fp, fp, #-1
 963              	.LVL156:
 964 0436 84E7     		b	.L107
 965              	.LVL157:
 966              	.L140:
 967              		.loc 1 211 0
 968 0438 2D21     		movs	r1, #45
 969              		.loc 1 212 0
ARM GAS  /tmp/cc1GwMDc.s 			page 18


 970 043a 0AF1004A 		add	sl, sl, #-2147483648
 971              	.LVL158:
 972              		.loc 1 211 0
 973 043e 8DF81810 		strb	r1, [sp, #24]
 974              	.LVL159:
 975 0442 0DF1190B 		add	fp, sp, #25
 976 0446 30E7     		b	.L53
 977              	.LVL160:
 978              	.L72:
 979              		.loc 1 190 0
 980 0448 BB46     		mov	fp, r7
 981              		.loc 1 185 0
 982 044a 2027     		movs	r7, #32
 983 044c 69E7     		b	.L45
 984              		.cfi_endproc
 985              	.LFE10:
 986              		.size	chprintf, .-chprintf
 987 044e 00BF     		.section	.rodata.str1.4,"aMS",%progbits,1
 988              		.align	2
 989              	.LC0:
 990 0000 286E756C 		.ascii	"(null)\000"
 990      6C2900
 991 0007 00       		.text
 992              	.Letext0:
 993              		.file 2 "/usr/bin/../lib/gcc/arm-none-eabi/4.7.4/include/stdarg.h"
 994              		.file 3 "/usr/bin/../lib/gcc/arm-none-eabi/4.7.4/include/stddef.h"
 995              		.file 4 "/usr/bin/../lib/gcc/arm-none-eabi/4.7.4/../../../../arm-none-eabi/include/stdint.h"
 996              		.file 5 "../../os/ports/GCC/ARMCMx/chtypes.h"
 997              		.file 6 "<built-in>"
 998              		.file 7 "../../os/kernel/include/chstreams.h"
 999              		.section	.debug_info,"",%progbits
 1000              	.Ldebug_info0:
 1001 0000 FF050000 		.4byte	0x5ff
 1002 0004 0200     		.2byte	0x2
 1003 0006 00000000 		.4byte	.Ldebug_abbrev0
 1004 000a 04       		.byte	0x4
 1005 000b 01       		.uleb128 0x1
 1006 000c EE000000 		.4byte	.LASF36
 1007 0010 01       		.byte	0x1
 1008 0011 62010000 		.4byte	.LASF37
 1009 0015 4A000000 		.4byte	.LASF38
 1010 0019 40000000 		.4byte	.Ldebug_ranges0+0x40
 1011 001d 00000000 		.4byte	0
 1012 0021 00000000 		.4byte	0
 1013 0025 00000000 		.4byte	.Ldebug_line0
 1014 0029 02       		.uleb128 0x2
 1015 002a 08       		.byte	0x8
 1016 002b 04       		.byte	0x4
 1017 002c 40010000 		.4byte	.LASF0
 1018 0030 03       		.uleb128 0x3
 1019 0031 04       		.byte	0x4
 1020 0032 05       		.byte	0x5
 1021 0033 696E7400 		.ascii	"int\000"
 1022 0037 02       		.uleb128 0x2
 1023 0038 04       		.byte	0x4
 1024 0039 04       		.byte	0x4
 1025 003a 92000000 		.4byte	.LASF1
ARM GAS  /tmp/cc1GwMDc.s 			page 19


 1026 003e 04       		.uleb128 0x4
 1027 003f 47010000 		.4byte	.LASF2
 1028 0043 02       		.byte	0x2
 1029 0044 28       		.byte	0x28
 1030 0045 49000000 		.4byte	0x49
 1031 0049 05       		.uleb128 0x5
 1032 004a C6010000 		.4byte	.LASF21
 1033 004e 04       		.byte	0x4
 1034 004f 06       		.byte	0x6
 1035 0050 00       		.byte	0
 1036 0051 63000000 		.4byte	0x63
 1037 0055 06       		.uleb128 0x6
 1038 0056 0D000000 		.4byte	.LASF39
 1039 005a 63000000 		.4byte	0x63
 1040 005e 02       		.byte	0x2
 1041 005f 23       		.byte	0x23
 1042 0060 00       		.uleb128 0
 1043 0061 01       		.byte	0x1
 1044 0062 00       		.byte	0
 1045 0063 07       		.uleb128 0x7
 1046 0064 04       		.byte	0x4
 1047 0065 04       		.uleb128 0x4
 1048 0066 98000000 		.4byte	.LASF3
 1049 006a 02       		.byte	0x2
 1050 006b 66       		.byte	0x66
 1051 006c 3E000000 		.4byte	0x3e
 1052 0070 04       		.uleb128 0x4
 1053 0071 00000000 		.4byte	.LASF4
 1054 0075 03       		.byte	0x3
 1055 0076 D5       		.byte	0xd5
 1056 0077 7B000000 		.4byte	0x7b
 1057 007b 02       		.uleb128 0x2
 1058 007c 04       		.byte	0x4
 1059 007d 07       		.byte	0x7
 1060 007e 1A000000 		.4byte	.LASF5
 1061 0082 02       		.uleb128 0x2
 1062 0083 01       		.byte	0x1
 1063 0084 06       		.byte	0x6
 1064 0085 1B020000 		.4byte	.LASF6
 1065 0089 04       		.uleb128 0x4
 1066 008a 8A000000 		.4byte	.LASF7
 1067 008e 04       		.byte	0x4
 1068 008f 2A       		.byte	0x2a
 1069 0090 94000000 		.4byte	0x94
 1070 0094 02       		.uleb128 0x2
 1071 0095 01       		.byte	0x1
 1072 0096 08       		.byte	0x8
 1073 0097 B5000000 		.4byte	.LASF8
 1074 009b 02       		.uleb128 0x2
 1075 009c 02       		.byte	0x2
 1076 009d 05       		.byte	0x5
 1077 009e F8010000 		.4byte	.LASF9
 1078 00a2 02       		.uleb128 0x2
 1079 00a3 02       		.byte	0x2
 1080 00a4 07       		.byte	0x7
 1081 00a5 D5000000 		.4byte	.LASF10
 1082 00a9 04       		.uleb128 0x4
ARM GAS  /tmp/cc1GwMDc.s 			page 20


 1083 00aa AE010000 		.4byte	.LASF11
 1084 00ae 04       		.byte	0x4
 1085 00af 4F       		.byte	0x4f
 1086 00b0 B4000000 		.4byte	0xb4
 1087 00b4 02       		.uleb128 0x2
 1088 00b5 04       		.byte	0x4
 1089 00b6 05       		.byte	0x5
 1090 00b7 12020000 		.4byte	.LASF12
 1091 00bb 02       		.uleb128 0x2
 1092 00bc 04       		.byte	0x4
 1093 00bd 07       		.byte	0x7
 1094 00be C3000000 		.4byte	.LASF13
 1095 00c2 02       		.uleb128 0x2
 1096 00c3 08       		.byte	0x8
 1097 00c4 05       		.byte	0x5
 1098 00c5 D0010000 		.4byte	.LASF14
 1099 00c9 02       		.uleb128 0x2
 1100 00ca 08       		.byte	0x8
 1101 00cb 07       		.byte	0x7
 1102 00cc 7E010000 		.4byte	.LASF15
 1103 00d0 04       		.uleb128 0x4
 1104 00d1 27000000 		.4byte	.LASF16
 1105 00d5 05       		.byte	0x5
 1106 00d6 24       		.byte	0x24
 1107 00d7 DB000000 		.4byte	0xdb
 1108 00db 02       		.uleb128 0x2
 1109 00dc 01       		.byte	0x1
 1110 00dd 02       		.byte	0x2
 1111 00de 2C020000 		.4byte	.LASF17
 1112 00e2 04       		.uleb128 0x4
 1113 00e3 A3010000 		.4byte	.LASF18
 1114 00e7 05       		.byte	0x5
 1115 00e8 2A       		.byte	0x2a
 1116 00e9 A9000000 		.4byte	0xa9
 1117 00ed 02       		.uleb128 0x2
 1118 00ee 04       		.byte	0x4
 1119 00ef 07       		.byte	0x7
 1120 00f0 B6010000 		.4byte	.LASF19
 1121 00f4 08       		.uleb128 0x8
 1122 00f5 04       		.byte	0x4
 1123 00f6 FA000000 		.4byte	0xfa
 1124 00fa 09       		.uleb128 0x9
 1125 00fb FF000000 		.4byte	0xff
 1126 00ff 02       		.uleb128 0x2
 1127 0100 01       		.byte	0x1
 1128 0101 08       		.byte	0x8
 1129 0102 E8010000 		.4byte	.LASF20
 1130 0106 08       		.uleb128 0x8
 1131 0107 04       		.byte	0x4
 1132 0108 0C010000 		.4byte	0x10c
 1133 010c 0A       		.uleb128 0xa
 1134 010d 01       		.byte	0x1
 1135 010e E2000000 		.4byte	0xe2
 1136 0112 1C010000 		.4byte	0x11c
 1137 0116 0B       		.uleb128 0xb
 1138 0117 63000000 		.4byte	0x63
 1139 011b 00       		.byte	0
ARM GAS  /tmp/cc1GwMDc.s 			page 21


 1140 011c 08       		.uleb128 0x8
 1141 011d 04       		.byte	0x4
 1142 011e 89000000 		.4byte	0x89
 1143 0122 05       		.uleb128 0x5
 1144 0123 32020000 		.4byte	.LASF22
 1145 0127 10       		.byte	0x10
 1146 0128 07       		.byte	0x7
 1147 0129 41       		.byte	0x41
 1148 012a 67010000 		.4byte	0x167
 1149 012e 0C       		.uleb128 0xc
 1150 012f E8000000 		.4byte	.LASF23
 1151 0133 07       		.byte	0x7
 1152 0134 42       		.byte	0x42
 1153 0135 8C010000 		.4byte	0x18c
 1154 0139 02       		.byte	0x2
 1155 013a 23       		.byte	0x23
 1156 013b 00       		.uleb128 0
 1157 013c 0C       		.uleb128 0xc
 1158 013d 56010000 		.4byte	.LASF24
 1159 0141 07       		.byte	0x7
 1160 0142 42       		.byte	0x42
 1161 0143 AC010000 		.4byte	0x1ac
 1162 0147 02       		.byte	0x2
 1163 0148 23       		.byte	0x23
 1164 0149 04       		.uleb128 0x4
 1165 014a 0D       		.uleb128 0xd
 1166 014b 70757400 		.ascii	"put\000"
 1167 014f 07       		.byte	0x7
 1168 0150 42       		.byte	0x42
 1169 0151 C7010000 		.4byte	0x1c7
 1170 0155 02       		.byte	0x2
 1171 0156 23       		.byte	0x23
 1172 0157 08       		.uleb128 0x8
 1173 0158 0D       		.uleb128 0xd
 1174 0159 67657400 		.ascii	"get\000"
 1175 015d 07       		.byte	0x7
 1176 015e 42       		.byte	0x42
 1177 015f 06010000 		.4byte	0x106
 1178 0163 02       		.byte	0x2
 1179 0164 23       		.byte	0x23
 1180 0165 0C       		.uleb128 0xc
 1181 0166 00       		.byte	0
 1182 0167 0A       		.uleb128 0xa
 1183 0168 01       		.byte	0x1
 1184 0169 70000000 		.4byte	0x70
 1185 016d 81010000 		.4byte	0x181
 1186 0171 0B       		.uleb128 0xb
 1187 0172 63000000 		.4byte	0x63
 1188 0176 0B       		.uleb128 0xb
 1189 0177 81010000 		.4byte	0x181
 1190 017b 0B       		.uleb128 0xb
 1191 017c 70000000 		.4byte	0x70
 1192 0180 00       		.byte	0
 1193 0181 08       		.uleb128 0x8
 1194 0182 04       		.byte	0x4
 1195 0183 87010000 		.4byte	0x187
 1196 0187 09       		.uleb128 0x9
ARM GAS  /tmp/cc1GwMDc.s 			page 22


 1197 0188 89000000 		.4byte	0x89
 1198 018c 08       		.uleb128 0x8
 1199 018d 04       		.byte	0x4
 1200 018e 67010000 		.4byte	0x167
 1201 0192 0A       		.uleb128 0xa
 1202 0193 01       		.byte	0x1
 1203 0194 70000000 		.4byte	0x70
 1204 0198 AC010000 		.4byte	0x1ac
 1205 019c 0B       		.uleb128 0xb
 1206 019d 63000000 		.4byte	0x63
 1207 01a1 0B       		.uleb128 0xb
 1208 01a2 1C010000 		.4byte	0x11c
 1209 01a6 0B       		.uleb128 0xb
 1210 01a7 70000000 		.4byte	0x70
 1211 01ab 00       		.byte	0
 1212 01ac 08       		.uleb128 0x8
 1213 01ad 04       		.byte	0x4
 1214 01ae 92010000 		.4byte	0x192
 1215 01b2 0A       		.uleb128 0xa
 1216 01b3 01       		.byte	0x1
 1217 01b4 E2000000 		.4byte	0xe2
 1218 01b8 C7010000 		.4byte	0x1c7
 1219 01bc 0B       		.uleb128 0xb
 1220 01bd 63000000 		.4byte	0x63
 1221 01c1 0B       		.uleb128 0xb
 1222 01c2 89000000 		.4byte	0x89
 1223 01c6 00       		.byte	0
 1224 01c7 08       		.uleb128 0x8
 1225 01c8 04       		.byte	0x4
 1226 01c9 B2010000 		.4byte	0x1b2
 1227 01cd 0E       		.uleb128 0xe
 1228 01ce 04       		.byte	0x4
 1229 01cf 07       		.byte	0x7
 1230 01d0 4A       		.byte	0x4a
 1231 01d1 E4010000 		.4byte	0x1e4
 1232 01d5 0D       		.uleb128 0xd
 1233 01d6 766D7400 		.ascii	"vmt\000"
 1234 01da 07       		.byte	0x7
 1235 01db 4C       		.byte	0x4c
 1236 01dc E4010000 		.4byte	0x1e4
 1237 01e0 02       		.byte	0x2
 1238 01e1 23       		.byte	0x23
 1239 01e2 00       		.uleb128 0
 1240 01e3 00       		.byte	0
 1241 01e4 08       		.uleb128 0x8
 1242 01e5 04       		.byte	0x4
 1243 01e6 EA010000 		.4byte	0x1ea
 1244 01ea 09       		.uleb128 0x9
 1245 01eb 22010000 		.4byte	0x122
 1246 01ef 04       		.uleb128 0x4
 1247 01f0 A0000000 		.4byte	.LASF25
 1248 01f4 07       		.byte	0x7
 1249 01f5 4E       		.byte	0x4e
 1250 01f6 CD010000 		.4byte	0x1cd
 1251 01fa 0F       		.uleb128 0xf
 1252 01fb 2E000000 		.4byte	.LASF40
 1253 01ff 01       		.byte	0x1
ARM GAS  /tmp/cc1GwMDc.s 			page 23


 1254 0200 24       		.byte	0x24
 1255 0201 01       		.byte	0x1
 1256 0202 87020000 		.4byte	0x287
 1257 0206 00000000 		.4byte	.LFB7
 1258 020a 6C000000 		.4byte	.LFE7
 1259 020e 00000000 		.4byte	.LLST0
 1260 0212 01       		.byte	0x1
 1261 0213 87020000 		.4byte	0x287
 1262 0217 10       		.uleb128 0x10
 1263 0218 7000     		.ascii	"p\000"
 1264 021a 01       		.byte	0x1
 1265 021b 24       		.byte	0x24
 1266 021c 87020000 		.4byte	0x287
 1267 0220 20000000 		.4byte	.LLST1
 1268 0224 10       		.uleb128 0x10
 1269 0225 6E756D00 		.ascii	"num\000"
 1270 0229 01       		.byte	0x1
 1271 022a 25       		.byte	0x25
 1272 022b B4000000 		.4byte	0xb4
 1273 022f 49000000 		.4byte	.LLST2
 1274 0233 11       		.uleb128 0x11
 1275 0234 9D010000 		.4byte	.LASF26
 1276 0238 01       		.byte	0x1
 1277 0239 26       		.byte	0x26
 1278 023a 7B000000 		.4byte	0x7b
 1279 023e 6A000000 		.4byte	.LLST3
 1280 0242 11       		.uleb128 0x11
 1281 0243 95010000 		.4byte	.LASF27
 1282 0247 01       		.byte	0x1
 1283 0248 27       		.byte	0x27
 1284 0249 B4000000 		.4byte	0xb4
 1285 024d 8B000000 		.4byte	.LLST4
 1286 0251 12       		.uleb128 0x12
 1287 0252 6900     		.ascii	"i\000"
 1288 0254 01       		.byte	0x1
 1289 0255 28       		.byte	0x28
 1290 0256 30000000 		.4byte	0x30
 1291 025a AC000000 		.4byte	.LLST5
 1292 025e 12       		.uleb128 0x12
 1293 025f 7100     		.ascii	"q\000"
 1294 0261 01       		.byte	0x1
 1295 0262 29       		.byte	0x29
 1296 0263 87020000 		.4byte	0x287
 1297 0267 F5000000 		.4byte	.LLST6
 1298 026b 12       		.uleb128 0x12
 1299 026c 6C00     		.ascii	"l\000"
 1300 026e 01       		.byte	0x1
 1301 026f 2A       		.byte	0x2a
 1302 0270 B4000000 		.4byte	0xb4
 1303 0274 1E010000 		.4byte	.LLST7
 1304 0278 12       		.uleb128 0x12
 1305 0279 6C6C00   		.ascii	"ll\000"
 1306 027c 01       		.byte	0x1
 1307 027d 2A       		.byte	0x2a
 1308 027e B4000000 		.4byte	0xb4
 1309 0282 47010000 		.4byte	.LLST8
 1310 0286 00       		.byte	0
ARM GAS  /tmp/cc1GwMDc.s 			page 24


 1311 0287 08       		.uleb128 0x8
 1312 0288 04       		.byte	0x4
 1313 0289 FF000000 		.4byte	0xff
 1314 028d 13       		.uleb128 0x13
 1315 028e 27020000 		.4byte	.LASF28
 1316 0292 01       		.byte	0x1
 1317 0293 45       		.byte	0x45
 1318 0294 01       		.byte	0x1
 1319 0295 87020000 		.4byte	0x287
 1320 0299 01       		.byte	0x1
 1321 029a BE020000 		.4byte	0x2be
 1322 029e 14       		.uleb128 0x14
 1323 029f 7000     		.ascii	"p\000"
 1324 02a1 01       		.byte	0x1
 1325 02a2 45       		.byte	0x45
 1326 02a3 87020000 		.4byte	0x287
 1327 02a7 14       		.uleb128 0x14
 1328 02a8 6E756D00 		.ascii	"num\000"
 1329 02ac 01       		.byte	0x1
 1330 02ad 45       		.byte	0x45
 1331 02ae B4000000 		.4byte	0xb4
 1332 02b2 15       		.uleb128 0x15
 1333 02b3 9D010000 		.4byte	.LASF26
 1334 02b7 01       		.byte	0x1
 1335 02b8 45       		.byte	0x45
 1336 02b9 7B000000 		.4byte	0x7b
 1337 02bd 00       		.byte	0
 1338 02be 13       		.uleb128 0x13
 1339 02bf A9010000 		.4byte	.LASF29
 1340 02c3 01       		.byte	0x1
 1341 02c4 4B       		.byte	0x4b
 1342 02c5 01       		.byte	0x1
 1343 02c6 87020000 		.4byte	0x287
 1344 02ca 01       		.byte	0x1
 1345 02cb F8020000 		.4byte	0x2f8
 1346 02cf 14       		.uleb128 0x14
 1347 02d0 7000     		.ascii	"p\000"
 1348 02d2 01       		.byte	0x1
 1349 02d3 4B       		.byte	0x4b
 1350 02d4 87020000 		.4byte	0x287
 1351 02d8 14       		.uleb128 0x14
 1352 02d9 6E756D00 		.ascii	"num\000"
 1353 02dd 01       		.byte	0x1
 1354 02de 4B       		.byte	0x4b
 1355 02df 29000000 		.4byte	0x29
 1356 02e3 16       		.uleb128 0x16
 1357 02e4 6C00     		.ascii	"l\000"
 1358 02e6 01       		.byte	0x1
 1359 02e7 4C       		.byte	0x4c
 1360 02e8 B4000000 		.4byte	0xb4
 1361 02ec 17       		.uleb128 0x17
 1362 02ed DE010000 		.4byte	.LASF30
 1363 02f1 01       		.byte	0x1
 1364 02f2 4D       		.byte	0x4d
 1365 02f3 BB000000 		.4byte	0xbb
 1366 02f7 00       		.byte	0
 1367 02f8 18       		.uleb128 0x18
ARM GAS  /tmp/cc1GwMDc.s 			page 25


 1368 02f9 01       		.byte	0x1
 1369 02fa 37010000 		.4byte	.LASF41
 1370 02fe 01       		.byte	0x1
 1371 02ff 6C       		.byte	0x6c
 1372 0300 01       		.byte	0x1
 1373 0301 00000000 		.4byte	.LFB10
 1374 0305 4E040000 		.4byte	.LFE10
 1375 0309 65010000 		.4byte	.LLST9
 1376 030d 01       		.byte	0x1
 1377 030e F0050000 		.4byte	0x5f0
 1378 0312 10       		.uleb128 0x10
 1379 0313 63687000 		.ascii	"chp\000"
 1380 0317 01       		.byte	0x1
 1381 0318 6C       		.byte	0x6c
 1382 0319 F0050000 		.4byte	0x5f0
 1383 031d 9E010000 		.4byte	.LLST10
 1384 0321 10       		.uleb128 0x10
 1385 0322 666D7400 		.ascii	"fmt\000"
 1386 0326 01       		.byte	0x1
 1387 0327 6C       		.byte	0x6c
 1388 0328 F4000000 		.4byte	0xf4
 1389 032c BC010000 		.4byte	.LLST11
 1390 0330 19       		.uleb128 0x19
 1391 0331 1A       		.uleb128 0x1a
 1392 0332 617000   		.ascii	"ap\000"
 1393 0335 01       		.byte	0x1
 1394 0336 6D       		.byte	0x6d
 1395 0337 65000000 		.4byte	0x65
 1396 033b 03       		.byte	0x3
 1397 033c 91       		.byte	0x91
 1398 033d B47F     		.sleb128 -76
 1399 033f 12       		.uleb128 0x12
 1400 0340 7000     		.ascii	"p\000"
 1401 0342 01       		.byte	0x1
 1402 0343 6E       		.byte	0x6e
 1403 0344 87020000 		.4byte	0x287
 1404 0348 35020000 		.4byte	.LLST12
 1405 034c 12       		.uleb128 0x12
 1406 034d 7300     		.ascii	"s\000"
 1407 034f 01       		.byte	0x1
 1408 0350 6E       		.byte	0x6e
 1409 0351 87020000 		.4byte	0x287
 1410 0355 16030000 		.4byte	.LLST13
 1411 0359 12       		.uleb128 0x12
 1412 035a 6300     		.ascii	"c\000"
 1413 035c 01       		.byte	0x1
 1414 035d 6E       		.byte	0x6e
 1415 035e FF000000 		.4byte	0xff
 1416 0362 9C030000 		.4byte	.LLST14
 1417 0366 1B       		.uleb128 0x1b
 1418 0367 5B010000 		.4byte	.LASF31
 1419 036b 01       		.byte	0x1
 1420 036c 6E       		.byte	0x6e
 1421 036d FF000000 		.4byte	0xff
 1422 0371 B0040000 		.4byte	.LLST15
 1423 0375 12       		.uleb128 0x12
 1424 0376 6900     		.ascii	"i\000"
ARM GAS  /tmp/cc1GwMDc.s 			page 26


 1425 0378 01       		.byte	0x1
 1426 0379 6F       		.byte	0x6f
 1427 037a 30000000 		.4byte	0x30
 1428 037e 53050000 		.4byte	.LLST16
 1429 0382 1B       		.uleb128 0x1b
 1430 0383 DE010000 		.4byte	.LASF30
 1431 0387 01       		.byte	0x1
 1432 0388 6F       		.byte	0x6f
 1433 0389 30000000 		.4byte	0x30
 1434 038d 89050000 		.4byte	.LLST17
 1435 0391 1B       		.uleb128 0x1b
 1436 0392 07000000 		.4byte	.LASF32
 1437 0396 01       		.byte	0x1
 1438 0397 6F       		.byte	0x6f
 1439 0398 30000000 		.4byte	0x30
 1440 039c 0F060000 		.4byte	.LLST18
 1441 03a0 1B       		.uleb128 0x1b
 1442 03a1 12000000 		.4byte	.LASF33
 1443 03a5 01       		.byte	0x1
 1444 03a6 70       		.byte	0x70
 1445 03a7 D0000000 		.4byte	0xd0
 1446 03ab C7060000 		.4byte	.LLST19
 1447 03af 1B       		.uleb128 0x1b
 1448 03b0 ED010000 		.4byte	.LASF34
 1449 03b4 01       		.byte	0x1
 1450 03b5 70       		.byte	0x70
 1451 03b6 D0000000 		.4byte	0xd0
 1452 03ba 4A070000 		.4byte	.LLST20
 1453 03be 12       		.uleb128 0x12
 1454 03bf 6C00     		.ascii	"l\000"
 1455 03c1 01       		.byte	0x1
 1456 03c2 71       		.byte	0x71
 1457 03c3 B4000000 		.4byte	0xb4
 1458 03c7 A2070000 		.4byte	.LLST21
 1459 03cb 12       		.uleb128 0x12
 1460 03cc 6600     		.ascii	"f\000"
 1461 03ce 01       		.byte	0x1
 1462 03cf 73       		.byte	0x73
 1463 03d0 37000000 		.4byte	0x37
 1464 03d4 D6070000 		.4byte	.LLST22
 1465 03d8 1C       		.uleb128 0x1c
 1466 03d9 BF010000 		.4byte	.LASF35
 1467 03dd 01       		.byte	0x1
 1468 03de 74       		.byte	0x74
 1469 03df F6050000 		.4byte	0x5f6
 1470 03e3 03       		.byte	0x3
 1471 03e4 91       		.byte	0x91
 1472 03e5 B87F     		.sleb128 -72
 1473 03e7 1D       		.uleb128 0x1d
 1474 03e8 02020000 		.4byte	.LASF42
 1475 03ec 01       		.byte	0x1
 1476 03ed E4       		.byte	0xe4
 1477 03ee 8E030000 		.4byte	.L39
 1478 03f2 1E       		.uleb128 0x1e
 1479 03f3 BE020000 		.4byte	0x2be
 1480 03f7 AA020000 		.4byte	.LBB8
 1481 03fb 00000000 		.4byte	.Ldebug_ranges0+0
ARM GAS  /tmp/cc1GwMDc.s 			page 27


 1482 03ff 01       		.byte	0x1
 1483 0400 D6       		.byte	0xd6
 1484 0401 6C040000 		.4byte	0x46c
 1485 0405 1F       		.uleb128 0x1f
 1486 0406 D8020000 		.4byte	0x2d8
 1487 040a 0A080000 		.4byte	.LLST23
 1488 040e 1F       		.uleb128 0x1f
 1489 040f CF020000 		.4byte	0x2cf
 1490 0413 22080000 		.4byte	.LLST24
 1491 0417 20       		.uleb128 0x20
 1492 0418 20000000 		.4byte	.Ldebug_ranges0+0x20
 1493 041c 21       		.uleb128 0x21
 1494 041d E3020000 		.4byte	0x2e3
 1495 0421 56080000 		.4byte	.LLST25
 1496 0425 21       		.uleb128 0x21
 1497 0426 EC020000 		.4byte	0x2ec
 1498 042a 88080000 		.4byte	.LLST26
 1499 042e 22       		.uleb128 0x22
 1500 042f BE020000 		.4byte	.LVL93
 1501 0433 FA010000 		.4byte	0x1fa
 1502 0437 54040000 		.4byte	0x454
 1503 043b 23       		.uleb128 0x23
 1504 043c 01       		.byte	0x1
 1505 043d 53       		.byte	0x53
 1506 043e 01       		.byte	0x1
 1507 043f 30       		.byte	0x30
 1508 0440 23       		.uleb128 0x23
 1509 0441 01       		.byte	0x1
 1510 0442 52       		.byte	0x52
 1511 0443 01       		.byte	0x1
 1512 0444 3A       		.byte	0x3a
 1513 0445 23       		.uleb128 0x23
 1514 0446 01       		.byte	0x1
 1515 0447 51       		.byte	0x51
 1516 0448 04       		.byte	0x4
 1517 0449 91       		.byte	0x91
 1518 044a 947F     		.sleb128 -108
 1519 044c 06       		.byte	0x6
 1520 044d 23       		.uleb128 0x23
 1521 044e 01       		.byte	0x1
 1522 044f 50       		.byte	0x50
 1523 0450 02       		.byte	0x2
 1524 0451 7B       		.byte	0x7b
 1525 0452 00       		.sleb128 0
 1526 0453 00       		.byte	0
 1527 0454 24       		.uleb128 0x24
 1528 0455 06030000 		.4byte	.LVL104
 1529 0459 FA010000 		.4byte	0x1fa
 1530 045d 23       		.uleb128 0x23
 1531 045e 01       		.byte	0x1
 1532 045f 53       		.byte	0x53
 1533 0460 03       		.byte	0x3
 1534 0461 0A       		.byte	0xa
 1535 0462 1027     		.2byte	0x2710
 1536 0464 23       		.uleb128 0x23
 1537 0465 01       		.byte	0x1
 1538 0466 52       		.byte	0x52
ARM GAS  /tmp/cc1GwMDc.s 			page 28


 1539 0467 01       		.byte	0x1
 1540 0468 3A       		.byte	0x3a
 1541 0469 00       		.byte	0
 1542 046a 00       		.byte	0
 1543 046b 00       		.byte	0
 1544 046c 25       		.uleb128 0x25
 1545 046d 8D020000 		.4byte	0x28d
 1546 0471 98030000 		.4byte	.LBB14
 1547 0475 A0030000 		.4byte	.LBE14
 1548 0479 01       		.byte	0x1
 1549 047a E9       		.byte	0xe9
 1550 047b B0040000 		.4byte	0x4b0
 1551 047f 1F       		.uleb128 0x1f
 1552 0480 B2020000 		.4byte	0x2b2
 1553 0484 A0080000 		.4byte	.LLST27
 1554 0488 1F       		.uleb128 0x1f
 1555 0489 A7020000 		.4byte	0x2a7
 1556 048d B3080000 		.4byte	.LLST28
 1557 0491 1F       		.uleb128 0x1f
 1558 0492 9E020000 		.4byte	0x29e
 1559 0496 C6080000 		.4byte	.LLST29
 1560 049a 24       		.uleb128 0x24
 1561 049b A0030000 		.4byte	.LVL129
 1562 049f FA010000 		.4byte	0x1fa
 1563 04a3 23       		.uleb128 0x23
 1564 04a4 01       		.byte	0x1
 1565 04a5 53       		.byte	0x53
 1566 04a6 01       		.byte	0x1
 1567 04a7 30       		.byte	0x30
 1568 04a8 23       		.uleb128 0x23
 1569 04a9 01       		.byte	0x1
 1570 04aa 50       		.byte	0x50
 1571 04ab 02       		.byte	0x2
 1572 04ac 78       		.byte	0x78
 1573 04ad 00       		.sleb128 0
 1574 04ae 00       		.byte	0
 1575 04af 00       		.byte	0
 1576 04b0 25       		.uleb128 0x25
 1577 04b1 8D020000 		.4byte	0x28d
 1578 04b5 CC030000 		.4byte	.LBB16
 1579 04b9 D4030000 		.4byte	.LBE16
 1580 04bd 01       		.byte	0x1
 1581 04be CD       		.byte	0xcd
 1582 04bf F3040000 		.4byte	0x4f3
 1583 04c3 1F       		.uleb128 0x1f
 1584 04c4 B2020000 		.4byte	0x2b2
 1585 04c8 D9080000 		.4byte	.LLST30
 1586 04cc 1F       		.uleb128 0x1f
 1587 04cd A7020000 		.4byte	0x2a7
 1588 04d1 ED080000 		.4byte	.LLST31
 1589 04d5 1F       		.uleb128 0x1f
 1590 04d6 9E020000 		.4byte	0x29e
 1591 04da 00090000 		.4byte	.LLST32
 1592 04de 24       		.uleb128 0x24
 1593 04df D4030000 		.4byte	.LVL140
 1594 04e3 FA010000 		.4byte	0x1fa
 1595 04e7 23       		.uleb128 0x23
ARM GAS  /tmp/cc1GwMDc.s 			page 29


 1596 04e8 01       		.byte	0x1
 1597 04e9 53       		.byte	0x53
 1598 04ea 01       		.byte	0x1
 1599 04eb 30       		.byte	0x30
 1600 04ec 23       		.uleb128 0x23
 1601 04ed 01       		.byte	0x1
 1602 04ee 52       		.byte	0x52
 1603 04ef 01       		.byte	0x1
 1604 04f0 3A       		.byte	0x3a
 1605 04f1 00       		.byte	0
 1606 04f2 00       		.byte	0
 1607 04f3 26       		.uleb128 0x26
 1608 04f4 3E000000 		.4byte	.LVL28
 1609 04f8 03050000 		.4byte	0x503
 1610 04fc 23       		.uleb128 0x23
 1611 04fd 01       		.byte	0x1
 1612 04fe 50       		.byte	0x50
 1613 04ff 02       		.byte	0x2
 1614 0500 76       		.byte	0x76
 1615 0501 00       		.sleb128 0
 1616 0502 00       		.byte	0
 1617 0503 26       		.uleb128 0x26
 1618 0504 E0010000 		.4byte	.LVL68
 1619 0508 13050000 		.4byte	0x513
 1620 050c 23       		.uleb128 0x23
 1621 050d 01       		.byte	0x1
 1622 050e 50       		.byte	0x50
 1623 050f 02       		.byte	0x2
 1624 0510 76       		.byte	0x76
 1625 0511 00       		.sleb128 0
 1626 0512 00       		.byte	0
 1627 0513 26       		.uleb128 0x26
 1628 0514 04020000 		.4byte	.LVL71
 1629 0518 23050000 		.4byte	0x523
 1630 051c 23       		.uleb128 0x23
 1631 051d 01       		.byte	0x1
 1632 051e 50       		.byte	0x50
 1633 051f 02       		.byte	0x2
 1634 0520 76       		.byte	0x76
 1635 0521 00       		.sleb128 0
 1636 0522 00       		.byte	0
 1637 0523 26       		.uleb128 0x26
 1638 0524 14020000 		.4byte	.LVL72
 1639 0528 33050000 		.4byte	0x533
 1640 052c 23       		.uleb128 0x23
 1641 052d 01       		.byte	0x1
 1642 052e 50       		.byte	0x50
 1643 052f 02       		.byte	0x2
 1644 0530 76       		.byte	0x76
 1645 0531 00       		.sleb128 0
 1646 0532 00       		.byte	0
 1647 0533 26       		.uleb128 0x26
 1648 0534 30020000 		.4byte	.LVL75
 1649 0538 49050000 		.4byte	0x549
 1650 053c 23       		.uleb128 0x23
 1651 053d 01       		.byte	0x1
 1652 053e 51       		.byte	0x51
ARM GAS  /tmp/cc1GwMDc.s 			page 30


 1653 053f 02       		.byte	0x2
 1654 0540 77       		.byte	0x77
 1655 0541 00       		.sleb128 0
 1656 0542 23       		.uleb128 0x23
 1657 0543 01       		.byte	0x1
 1658 0544 50       		.byte	0x50
 1659 0545 02       		.byte	0x2
 1660 0546 76       		.byte	0x76
 1661 0547 00       		.sleb128 0
 1662 0548 00       		.byte	0
 1663 0549 26       		.uleb128 0x26
 1664 054a 46020000 		.4byte	.LVL76
 1665 054e 5F050000 		.4byte	0x55f
 1666 0552 23       		.uleb128 0x23
 1667 0553 01       		.byte	0x1
 1668 0554 51       		.byte	0x51
 1669 0555 02       		.byte	0x2
 1670 0556 77       		.byte	0x77
 1671 0557 00       		.sleb128 0
 1672 0558 23       		.uleb128 0x23
 1673 0559 01       		.byte	0x1
 1674 055a 50       		.byte	0x50
 1675 055b 02       		.byte	0x2
 1676 055c 76       		.byte	0x76
 1677 055d 00       		.sleb128 0
 1678 055e 00       		.byte	0
 1679 055f 26       		.uleb128 0x26
 1680 0560 56020000 		.4byte	.LVL77
 1681 0564 75050000 		.4byte	0x575
 1682 0568 23       		.uleb128 0x23
 1683 0569 01       		.byte	0x1
 1684 056a 51       		.byte	0x51
 1685 056b 02       		.byte	0x2
 1686 056c 77       		.byte	0x77
 1687 056d 00       		.sleb128 0
 1688 056e 23       		.uleb128 0x23
 1689 056f 01       		.byte	0x1
 1690 0570 50       		.byte	0x50
 1691 0571 02       		.byte	0x2
 1692 0572 76       		.byte	0x76
 1693 0573 00       		.sleb128 0
 1694 0574 00       		.byte	0
 1695 0575 26       		.uleb128 0x26
 1696 0576 62020000 		.4byte	.LVL78
 1697 057a 8B050000 		.4byte	0x58b
 1698 057e 23       		.uleb128 0x23
 1699 057f 01       		.byte	0x1
 1700 0580 51       		.byte	0x51
 1701 0581 02       		.byte	0x2
 1702 0582 77       		.byte	0x77
 1703 0583 00       		.sleb128 0
 1704 0584 23       		.uleb128 0x23
 1705 0585 01       		.byte	0x1
 1706 0586 50       		.byte	0x50
 1707 0587 02       		.byte	0x2
 1708 0588 76       		.byte	0x76
 1709 0589 00       		.sleb128 0
ARM GAS  /tmp/cc1GwMDc.s 			page 31


 1710 058a 00       		.byte	0
 1711 058b 26       		.uleb128 0x26
 1712 058c 50030000 		.4byte	.LVL114
 1713 0590 A1050000 		.4byte	0x5a1
 1714 0594 23       		.uleb128 0x23
 1715 0595 01       		.byte	0x1
 1716 0596 51       		.byte	0x51
 1717 0597 02       		.byte	0x2
 1718 0598 77       		.byte	0x77
 1719 0599 00       		.sleb128 0
 1720 059a 23       		.uleb128 0x23
 1721 059b 01       		.byte	0x1
 1722 059c 50       		.byte	0x50
 1723 059d 02       		.byte	0x2
 1724 059e 76       		.byte	0x76
 1725 059f 00       		.sleb128 0
 1726 05a0 00       		.byte	0
 1727 05a1 26       		.uleb128 0x26
 1728 05a2 6A030000 		.4byte	.LVL118
 1729 05a6 B7050000 		.4byte	0x5b7
 1730 05aa 23       		.uleb128 0x23
 1731 05ab 01       		.byte	0x1
 1732 05ac 51       		.byte	0x51
 1733 05ad 02       		.byte	0x2
 1734 05ae 77       		.byte	0x77
 1735 05af 00       		.sleb128 0
 1736 05b0 23       		.uleb128 0x23
 1737 05b1 01       		.byte	0x1
 1738 05b2 50       		.byte	0x50
 1739 05b3 02       		.byte	0x2
 1740 05b4 76       		.byte	0x76
 1741 05b5 00       		.sleb128 0
 1742 05b6 00       		.byte	0
 1743 05b7 26       		.uleb128 0x26
 1744 05b8 7A030000 		.4byte	.LVL121
 1745 05bc CD050000 		.4byte	0x5cd
 1746 05c0 23       		.uleb128 0x23
 1747 05c1 01       		.byte	0x1
 1748 05c2 51       		.byte	0x51
 1749 05c3 02       		.byte	0x2
 1750 05c4 77       		.byte	0x77
 1751 05c5 00       		.sleb128 0
 1752 05c6 23       		.uleb128 0x23
 1753 05c7 01       		.byte	0x1
 1754 05c8 50       		.byte	0x50
 1755 05c9 02       		.byte	0x2
 1756 05ca 76       		.byte	0x76
 1757 05cb 00       		.sleb128 0
 1758 05cc 00       		.byte	0
 1759 05cd 26       		.uleb128 0x26
 1760 05ce 86030000 		.4byte	.LVL123
 1761 05d2 E3050000 		.4byte	0x5e3
 1762 05d6 23       		.uleb128 0x23
 1763 05d7 01       		.byte	0x1
 1764 05d8 51       		.byte	0x51
 1765 05d9 02       		.byte	0x2
 1766 05da 77       		.byte	0x77
ARM GAS  /tmp/cc1GwMDc.s 			page 32


 1767 05db 00       		.sleb128 0
 1768 05dc 23       		.uleb128 0x23
 1769 05dd 01       		.byte	0x1
 1770 05de 50       		.byte	0x50
 1771 05df 02       		.byte	0x2
 1772 05e0 76       		.byte	0x76
 1773 05e1 00       		.sleb128 0
 1774 05e2 00       		.byte	0
 1775 05e3 27       		.uleb128 0x27
 1776 05e4 2E040000 		.4byte	.LVL154
 1777 05e8 23       		.uleb128 0x23
 1778 05e9 01       		.byte	0x1
 1779 05ea 50       		.byte	0x50
 1780 05eb 02       		.byte	0x2
 1781 05ec 76       		.byte	0x76
 1782 05ed 00       		.sleb128 0
 1783 05ee 00       		.byte	0
 1784 05ef 00       		.byte	0
 1785 05f0 08       		.uleb128 0x8
 1786 05f1 04       		.byte	0x4
 1787 05f2 EF010000 		.4byte	0x1ef
 1788 05f6 28       		.uleb128 0x28
 1789 05f7 FF000000 		.4byte	0xff
 1790 05fb 29       		.uleb128 0x29
 1791 05fc ED000000 		.4byte	0xed
 1792 0600 16       		.byte	0x16
 1793 0601 00       		.byte	0
 1794 0602 00       		.byte	0
 1795              		.section	.debug_abbrev,"",%progbits
 1796              	.Ldebug_abbrev0:
 1797 0000 01       		.uleb128 0x1
 1798 0001 11       		.uleb128 0x11
 1799 0002 01       		.byte	0x1
 1800 0003 25       		.uleb128 0x25
 1801 0004 0E       		.uleb128 0xe
 1802 0005 13       		.uleb128 0x13
 1803 0006 0B       		.uleb128 0xb
 1804 0007 03       		.uleb128 0x3
 1805 0008 0E       		.uleb128 0xe
 1806 0009 1B       		.uleb128 0x1b
 1807 000a 0E       		.uleb128 0xe
 1808 000b 55       		.uleb128 0x55
 1809 000c 06       		.uleb128 0x6
 1810 000d 11       		.uleb128 0x11
 1811 000e 01       		.uleb128 0x1
 1812 000f 52       		.uleb128 0x52
 1813 0010 01       		.uleb128 0x1
 1814 0011 10       		.uleb128 0x10
 1815 0012 06       		.uleb128 0x6
 1816 0013 00       		.byte	0
 1817 0014 00       		.byte	0
 1818 0015 02       		.uleb128 0x2
 1819 0016 24       		.uleb128 0x24
 1820 0017 00       		.byte	0
 1821 0018 0B       		.uleb128 0xb
 1822 0019 0B       		.uleb128 0xb
 1823 001a 3E       		.uleb128 0x3e
ARM GAS  /tmp/cc1GwMDc.s 			page 33


 1824 001b 0B       		.uleb128 0xb
 1825 001c 03       		.uleb128 0x3
 1826 001d 0E       		.uleb128 0xe
 1827 001e 00       		.byte	0
 1828 001f 00       		.byte	0
 1829 0020 03       		.uleb128 0x3
 1830 0021 24       		.uleb128 0x24
 1831 0022 00       		.byte	0
 1832 0023 0B       		.uleb128 0xb
 1833 0024 0B       		.uleb128 0xb
 1834 0025 3E       		.uleb128 0x3e
 1835 0026 0B       		.uleb128 0xb
 1836 0027 03       		.uleb128 0x3
 1837 0028 08       		.uleb128 0x8
 1838 0029 00       		.byte	0
 1839 002a 00       		.byte	0
 1840 002b 04       		.uleb128 0x4
 1841 002c 16       		.uleb128 0x16
 1842 002d 00       		.byte	0
 1843 002e 03       		.uleb128 0x3
 1844 002f 0E       		.uleb128 0xe
 1845 0030 3A       		.uleb128 0x3a
 1846 0031 0B       		.uleb128 0xb
 1847 0032 3B       		.uleb128 0x3b
 1848 0033 0B       		.uleb128 0xb
 1849 0034 49       		.uleb128 0x49
 1850 0035 13       		.uleb128 0x13
 1851 0036 00       		.byte	0
 1852 0037 00       		.byte	0
 1853 0038 05       		.uleb128 0x5
 1854 0039 13       		.uleb128 0x13
 1855 003a 01       		.byte	0x1
 1856 003b 03       		.uleb128 0x3
 1857 003c 0E       		.uleb128 0xe
 1858 003d 0B       		.uleb128 0xb
 1859 003e 0B       		.uleb128 0xb
 1860 003f 3A       		.uleb128 0x3a
 1861 0040 0B       		.uleb128 0xb
 1862 0041 3B       		.uleb128 0x3b
 1863 0042 0B       		.uleb128 0xb
 1864 0043 01       		.uleb128 0x1
 1865 0044 13       		.uleb128 0x13
 1866 0045 00       		.byte	0
 1867 0046 00       		.byte	0
 1868 0047 06       		.uleb128 0x6
 1869 0048 0D       		.uleb128 0xd
 1870 0049 00       		.byte	0
 1871 004a 03       		.uleb128 0x3
 1872 004b 0E       		.uleb128 0xe
 1873 004c 49       		.uleb128 0x49
 1874 004d 13       		.uleb128 0x13
 1875 004e 38       		.uleb128 0x38
 1876 004f 0A       		.uleb128 0xa
 1877 0050 34       		.uleb128 0x34
 1878 0051 0C       		.uleb128 0xc
 1879 0052 00       		.byte	0
 1880 0053 00       		.byte	0
ARM GAS  /tmp/cc1GwMDc.s 			page 34


 1881 0054 07       		.uleb128 0x7
 1882 0055 0F       		.uleb128 0xf
 1883 0056 00       		.byte	0
 1884 0057 0B       		.uleb128 0xb
 1885 0058 0B       		.uleb128 0xb
 1886 0059 00       		.byte	0
 1887 005a 00       		.byte	0
 1888 005b 08       		.uleb128 0x8
 1889 005c 0F       		.uleb128 0xf
 1890 005d 00       		.byte	0
 1891 005e 0B       		.uleb128 0xb
 1892 005f 0B       		.uleb128 0xb
 1893 0060 49       		.uleb128 0x49
 1894 0061 13       		.uleb128 0x13
 1895 0062 00       		.byte	0
 1896 0063 00       		.byte	0
 1897 0064 09       		.uleb128 0x9
 1898 0065 26       		.uleb128 0x26
 1899 0066 00       		.byte	0
 1900 0067 49       		.uleb128 0x49
 1901 0068 13       		.uleb128 0x13
 1902 0069 00       		.byte	0
 1903 006a 00       		.byte	0
 1904 006b 0A       		.uleb128 0xa
 1905 006c 15       		.uleb128 0x15
 1906 006d 01       		.byte	0x1
 1907 006e 27       		.uleb128 0x27
 1908 006f 0C       		.uleb128 0xc
 1909 0070 49       		.uleb128 0x49
 1910 0071 13       		.uleb128 0x13
 1911 0072 01       		.uleb128 0x1
 1912 0073 13       		.uleb128 0x13
 1913 0074 00       		.byte	0
 1914 0075 00       		.byte	0
 1915 0076 0B       		.uleb128 0xb
 1916 0077 05       		.uleb128 0x5
 1917 0078 00       		.byte	0
 1918 0079 49       		.uleb128 0x49
 1919 007a 13       		.uleb128 0x13
 1920 007b 00       		.byte	0
 1921 007c 00       		.byte	0
 1922 007d 0C       		.uleb128 0xc
 1923 007e 0D       		.uleb128 0xd
 1924 007f 00       		.byte	0
 1925 0080 03       		.uleb128 0x3
 1926 0081 0E       		.uleb128 0xe
 1927 0082 3A       		.uleb128 0x3a
 1928 0083 0B       		.uleb128 0xb
 1929 0084 3B       		.uleb128 0x3b
 1930 0085 0B       		.uleb128 0xb
 1931 0086 49       		.uleb128 0x49
 1932 0087 13       		.uleb128 0x13
 1933 0088 38       		.uleb128 0x38
 1934 0089 0A       		.uleb128 0xa
 1935 008a 00       		.byte	0
 1936 008b 00       		.byte	0
 1937 008c 0D       		.uleb128 0xd
ARM GAS  /tmp/cc1GwMDc.s 			page 35


 1938 008d 0D       		.uleb128 0xd
 1939 008e 00       		.byte	0
 1940 008f 03       		.uleb128 0x3
 1941 0090 08       		.uleb128 0x8
 1942 0091 3A       		.uleb128 0x3a
 1943 0092 0B       		.uleb128 0xb
 1944 0093 3B       		.uleb128 0x3b
 1945 0094 0B       		.uleb128 0xb
 1946 0095 49       		.uleb128 0x49
 1947 0096 13       		.uleb128 0x13
 1948 0097 38       		.uleb128 0x38
 1949 0098 0A       		.uleb128 0xa
 1950 0099 00       		.byte	0
 1951 009a 00       		.byte	0
 1952 009b 0E       		.uleb128 0xe
 1953 009c 13       		.uleb128 0x13
 1954 009d 01       		.byte	0x1
 1955 009e 0B       		.uleb128 0xb
 1956 009f 0B       		.uleb128 0xb
 1957 00a0 3A       		.uleb128 0x3a
 1958 00a1 0B       		.uleb128 0xb
 1959 00a2 3B       		.uleb128 0x3b
 1960 00a3 0B       		.uleb128 0xb
 1961 00a4 01       		.uleb128 0x1
 1962 00a5 13       		.uleb128 0x13
 1963 00a6 00       		.byte	0
 1964 00a7 00       		.byte	0
 1965 00a8 0F       		.uleb128 0xf
 1966 00a9 2E       		.uleb128 0x2e
 1967 00aa 01       		.byte	0x1
 1968 00ab 03       		.uleb128 0x3
 1969 00ac 0E       		.uleb128 0xe
 1970 00ad 3A       		.uleb128 0x3a
 1971 00ae 0B       		.uleb128 0xb
 1972 00af 3B       		.uleb128 0x3b
 1973 00b0 0B       		.uleb128 0xb
 1974 00b1 27       		.uleb128 0x27
 1975 00b2 0C       		.uleb128 0xc
 1976 00b3 49       		.uleb128 0x49
 1977 00b4 13       		.uleb128 0x13
 1978 00b5 11       		.uleb128 0x11
 1979 00b6 01       		.uleb128 0x1
 1980 00b7 12       		.uleb128 0x12
 1981 00b8 01       		.uleb128 0x1
 1982 00b9 40       		.uleb128 0x40
 1983 00ba 06       		.uleb128 0x6
 1984 00bb 9742     		.uleb128 0x2117
 1985 00bd 0C       		.uleb128 0xc
 1986 00be 01       		.uleb128 0x1
 1987 00bf 13       		.uleb128 0x13
 1988 00c0 00       		.byte	0
 1989 00c1 00       		.byte	0
 1990 00c2 10       		.uleb128 0x10
 1991 00c3 05       		.uleb128 0x5
 1992 00c4 00       		.byte	0
 1993 00c5 03       		.uleb128 0x3
 1994 00c6 08       		.uleb128 0x8
ARM GAS  /tmp/cc1GwMDc.s 			page 36


 1995 00c7 3A       		.uleb128 0x3a
 1996 00c8 0B       		.uleb128 0xb
 1997 00c9 3B       		.uleb128 0x3b
 1998 00ca 0B       		.uleb128 0xb
 1999 00cb 49       		.uleb128 0x49
 2000 00cc 13       		.uleb128 0x13
 2001 00cd 02       		.uleb128 0x2
 2002 00ce 06       		.uleb128 0x6
 2003 00cf 00       		.byte	0
 2004 00d0 00       		.byte	0
 2005 00d1 11       		.uleb128 0x11
 2006 00d2 05       		.uleb128 0x5
 2007 00d3 00       		.byte	0
 2008 00d4 03       		.uleb128 0x3
 2009 00d5 0E       		.uleb128 0xe
 2010 00d6 3A       		.uleb128 0x3a
 2011 00d7 0B       		.uleb128 0xb
 2012 00d8 3B       		.uleb128 0x3b
 2013 00d9 0B       		.uleb128 0xb
 2014 00da 49       		.uleb128 0x49
 2015 00db 13       		.uleb128 0x13
 2016 00dc 02       		.uleb128 0x2
 2017 00dd 06       		.uleb128 0x6
 2018 00de 00       		.byte	0
 2019 00df 00       		.byte	0
 2020 00e0 12       		.uleb128 0x12
 2021 00e1 34       		.uleb128 0x34
 2022 00e2 00       		.byte	0
 2023 00e3 03       		.uleb128 0x3
 2024 00e4 08       		.uleb128 0x8
 2025 00e5 3A       		.uleb128 0x3a
 2026 00e6 0B       		.uleb128 0xb
 2027 00e7 3B       		.uleb128 0x3b
 2028 00e8 0B       		.uleb128 0xb
 2029 00e9 49       		.uleb128 0x49
 2030 00ea 13       		.uleb128 0x13
 2031 00eb 02       		.uleb128 0x2
 2032 00ec 06       		.uleb128 0x6
 2033 00ed 00       		.byte	0
 2034 00ee 00       		.byte	0
 2035 00ef 13       		.uleb128 0x13
 2036 00f0 2E       		.uleb128 0x2e
 2037 00f1 01       		.byte	0x1
 2038 00f2 03       		.uleb128 0x3
 2039 00f3 0E       		.uleb128 0xe
 2040 00f4 3A       		.uleb128 0x3a
 2041 00f5 0B       		.uleb128 0xb
 2042 00f6 3B       		.uleb128 0x3b
 2043 00f7 0B       		.uleb128 0xb
 2044 00f8 27       		.uleb128 0x27
 2045 00f9 0C       		.uleb128 0xc
 2046 00fa 49       		.uleb128 0x49
 2047 00fb 13       		.uleb128 0x13
 2048 00fc 20       		.uleb128 0x20
 2049 00fd 0B       		.uleb128 0xb
 2050 00fe 01       		.uleb128 0x1
 2051 00ff 13       		.uleb128 0x13
ARM GAS  /tmp/cc1GwMDc.s 			page 37


 2052 0100 00       		.byte	0
 2053 0101 00       		.byte	0
 2054 0102 14       		.uleb128 0x14
 2055 0103 05       		.uleb128 0x5
 2056 0104 00       		.byte	0
 2057 0105 03       		.uleb128 0x3
 2058 0106 08       		.uleb128 0x8
 2059 0107 3A       		.uleb128 0x3a
 2060 0108 0B       		.uleb128 0xb
 2061 0109 3B       		.uleb128 0x3b
 2062 010a 0B       		.uleb128 0xb
 2063 010b 49       		.uleb128 0x49
 2064 010c 13       		.uleb128 0x13
 2065 010d 00       		.byte	0
 2066 010e 00       		.byte	0
 2067 010f 15       		.uleb128 0x15
 2068 0110 05       		.uleb128 0x5
 2069 0111 00       		.byte	0
 2070 0112 03       		.uleb128 0x3
 2071 0113 0E       		.uleb128 0xe
 2072 0114 3A       		.uleb128 0x3a
 2073 0115 0B       		.uleb128 0xb
 2074 0116 3B       		.uleb128 0x3b
 2075 0117 0B       		.uleb128 0xb
 2076 0118 49       		.uleb128 0x49
 2077 0119 13       		.uleb128 0x13
 2078 011a 00       		.byte	0
 2079 011b 00       		.byte	0
 2080 011c 16       		.uleb128 0x16
 2081 011d 34       		.uleb128 0x34
 2082 011e 00       		.byte	0
 2083 011f 03       		.uleb128 0x3
 2084 0120 08       		.uleb128 0x8
 2085 0121 3A       		.uleb128 0x3a
 2086 0122 0B       		.uleb128 0xb
 2087 0123 3B       		.uleb128 0x3b
 2088 0124 0B       		.uleb128 0xb
 2089 0125 49       		.uleb128 0x49
 2090 0126 13       		.uleb128 0x13
 2091 0127 00       		.byte	0
 2092 0128 00       		.byte	0
 2093 0129 17       		.uleb128 0x17
 2094 012a 34       		.uleb128 0x34
 2095 012b 00       		.byte	0
 2096 012c 03       		.uleb128 0x3
 2097 012d 0E       		.uleb128 0xe
 2098 012e 3A       		.uleb128 0x3a
 2099 012f 0B       		.uleb128 0xb
 2100 0130 3B       		.uleb128 0x3b
 2101 0131 0B       		.uleb128 0xb
 2102 0132 49       		.uleb128 0x49
 2103 0133 13       		.uleb128 0x13
 2104 0134 00       		.byte	0
 2105 0135 00       		.byte	0
 2106 0136 18       		.uleb128 0x18
 2107 0137 2E       		.uleb128 0x2e
 2108 0138 01       		.byte	0x1
ARM GAS  /tmp/cc1GwMDc.s 			page 38


 2109 0139 3F       		.uleb128 0x3f
 2110 013a 0C       		.uleb128 0xc
 2111 013b 03       		.uleb128 0x3
 2112 013c 0E       		.uleb128 0xe
 2113 013d 3A       		.uleb128 0x3a
 2114 013e 0B       		.uleb128 0xb
 2115 013f 3B       		.uleb128 0x3b
 2116 0140 0B       		.uleb128 0xb
 2117 0141 27       		.uleb128 0x27
 2118 0142 0C       		.uleb128 0xc
 2119 0143 11       		.uleb128 0x11
 2120 0144 01       		.uleb128 0x1
 2121 0145 12       		.uleb128 0x12
 2122 0146 01       		.uleb128 0x1
 2123 0147 40       		.uleb128 0x40
 2124 0148 06       		.uleb128 0x6
 2125 0149 9642     		.uleb128 0x2116
 2126 014b 0C       		.uleb128 0xc
 2127 014c 01       		.uleb128 0x1
 2128 014d 13       		.uleb128 0x13
 2129 014e 00       		.byte	0
 2130 014f 00       		.byte	0
 2131 0150 19       		.uleb128 0x19
 2132 0151 18       		.uleb128 0x18
 2133 0152 00       		.byte	0
 2134 0153 00       		.byte	0
 2135 0154 00       		.byte	0
 2136 0155 1A       		.uleb128 0x1a
 2137 0156 34       		.uleb128 0x34
 2138 0157 00       		.byte	0
 2139 0158 03       		.uleb128 0x3
 2140 0159 08       		.uleb128 0x8
 2141 015a 3A       		.uleb128 0x3a
 2142 015b 0B       		.uleb128 0xb
 2143 015c 3B       		.uleb128 0x3b
 2144 015d 0B       		.uleb128 0xb
 2145 015e 49       		.uleb128 0x49
 2146 015f 13       		.uleb128 0x13
 2147 0160 02       		.uleb128 0x2
 2148 0161 0A       		.uleb128 0xa
 2149 0162 00       		.byte	0
 2150 0163 00       		.byte	0
 2151 0164 1B       		.uleb128 0x1b
 2152 0165 34       		.uleb128 0x34
 2153 0166 00       		.byte	0
 2154 0167 03       		.uleb128 0x3
 2155 0168 0E       		.uleb128 0xe
 2156 0169 3A       		.uleb128 0x3a
 2157 016a 0B       		.uleb128 0xb
 2158 016b 3B       		.uleb128 0x3b
 2159 016c 0B       		.uleb128 0xb
 2160 016d 49       		.uleb128 0x49
 2161 016e 13       		.uleb128 0x13
 2162 016f 02       		.uleb128 0x2
 2163 0170 06       		.uleb128 0x6
 2164 0171 00       		.byte	0
 2165 0172 00       		.byte	0
ARM GAS  /tmp/cc1GwMDc.s 			page 39


 2166 0173 1C       		.uleb128 0x1c
 2167 0174 34       		.uleb128 0x34
 2168 0175 00       		.byte	0
 2169 0176 03       		.uleb128 0x3
 2170 0177 0E       		.uleb128 0xe
 2171 0178 3A       		.uleb128 0x3a
 2172 0179 0B       		.uleb128 0xb
 2173 017a 3B       		.uleb128 0x3b
 2174 017b 0B       		.uleb128 0xb
 2175 017c 49       		.uleb128 0x49
 2176 017d 13       		.uleb128 0x13
 2177 017e 02       		.uleb128 0x2
 2178 017f 0A       		.uleb128 0xa
 2179 0180 00       		.byte	0
 2180 0181 00       		.byte	0
 2181 0182 1D       		.uleb128 0x1d
 2182 0183 0A       		.uleb128 0xa
 2183 0184 00       		.byte	0
 2184 0185 03       		.uleb128 0x3
 2185 0186 0E       		.uleb128 0xe
 2186 0187 3A       		.uleb128 0x3a
 2187 0188 0B       		.uleb128 0xb
 2188 0189 3B       		.uleb128 0x3b
 2189 018a 0B       		.uleb128 0xb
 2190 018b 11       		.uleb128 0x11
 2191 018c 01       		.uleb128 0x1
 2192 018d 00       		.byte	0
 2193 018e 00       		.byte	0
 2194 018f 1E       		.uleb128 0x1e
 2195 0190 1D       		.uleb128 0x1d
 2196 0191 01       		.byte	0x1
 2197 0192 31       		.uleb128 0x31
 2198 0193 13       		.uleb128 0x13
 2199 0194 52       		.uleb128 0x52
 2200 0195 01       		.uleb128 0x1
 2201 0196 55       		.uleb128 0x55
 2202 0197 06       		.uleb128 0x6
 2203 0198 58       		.uleb128 0x58
 2204 0199 0B       		.uleb128 0xb
 2205 019a 59       		.uleb128 0x59
 2206 019b 0B       		.uleb128 0xb
 2207 019c 01       		.uleb128 0x1
 2208 019d 13       		.uleb128 0x13
 2209 019e 00       		.byte	0
 2210 019f 00       		.byte	0
 2211 01a0 1F       		.uleb128 0x1f
 2212 01a1 05       		.uleb128 0x5
 2213 01a2 00       		.byte	0
 2214 01a3 31       		.uleb128 0x31
 2215 01a4 13       		.uleb128 0x13
 2216 01a5 02       		.uleb128 0x2
 2217 01a6 06       		.uleb128 0x6
 2218 01a7 00       		.byte	0
 2219 01a8 00       		.byte	0
 2220 01a9 20       		.uleb128 0x20
 2221 01aa 0B       		.uleb128 0xb
 2222 01ab 01       		.byte	0x1
ARM GAS  /tmp/cc1GwMDc.s 			page 40


 2223 01ac 55       		.uleb128 0x55
 2224 01ad 06       		.uleb128 0x6
 2225 01ae 00       		.byte	0
 2226 01af 00       		.byte	0
 2227 01b0 21       		.uleb128 0x21
 2228 01b1 34       		.uleb128 0x34
 2229 01b2 00       		.byte	0
 2230 01b3 31       		.uleb128 0x31
 2231 01b4 13       		.uleb128 0x13
 2232 01b5 02       		.uleb128 0x2
 2233 01b6 06       		.uleb128 0x6
 2234 01b7 00       		.byte	0
 2235 01b8 00       		.byte	0
 2236 01b9 22       		.uleb128 0x22
 2237 01ba 898201   		.uleb128 0x4109
 2238 01bd 01       		.byte	0x1
 2239 01be 11       		.uleb128 0x11
 2240 01bf 01       		.uleb128 0x1
 2241 01c0 31       		.uleb128 0x31
 2242 01c1 13       		.uleb128 0x13
 2243 01c2 01       		.uleb128 0x1
 2244 01c3 13       		.uleb128 0x13
 2245 01c4 00       		.byte	0
 2246 01c5 00       		.byte	0
 2247 01c6 23       		.uleb128 0x23
 2248 01c7 8A8201   		.uleb128 0x410a
 2249 01ca 00       		.byte	0
 2250 01cb 02       		.uleb128 0x2
 2251 01cc 0A       		.uleb128 0xa
 2252 01cd 9142     		.uleb128 0x2111
 2253 01cf 0A       		.uleb128 0xa
 2254 01d0 00       		.byte	0
 2255 01d1 00       		.byte	0
 2256 01d2 24       		.uleb128 0x24
 2257 01d3 898201   		.uleb128 0x4109
 2258 01d6 01       		.byte	0x1
 2259 01d7 11       		.uleb128 0x11
 2260 01d8 01       		.uleb128 0x1
 2261 01d9 31       		.uleb128 0x31
 2262 01da 13       		.uleb128 0x13
 2263 01db 00       		.byte	0
 2264 01dc 00       		.byte	0
 2265 01dd 25       		.uleb128 0x25
 2266 01de 1D       		.uleb128 0x1d
 2267 01df 01       		.byte	0x1
 2268 01e0 31       		.uleb128 0x31
 2269 01e1 13       		.uleb128 0x13
 2270 01e2 11       		.uleb128 0x11
 2271 01e3 01       		.uleb128 0x1
 2272 01e4 12       		.uleb128 0x12
 2273 01e5 01       		.uleb128 0x1
 2274 01e6 58       		.uleb128 0x58
 2275 01e7 0B       		.uleb128 0xb
 2276 01e8 59       		.uleb128 0x59
 2277 01e9 0B       		.uleb128 0xb
 2278 01ea 01       		.uleb128 0x1
 2279 01eb 13       		.uleb128 0x13
ARM GAS  /tmp/cc1GwMDc.s 			page 41


 2280 01ec 00       		.byte	0
 2281 01ed 00       		.byte	0
 2282 01ee 26       		.uleb128 0x26
 2283 01ef 898201   		.uleb128 0x4109
 2284 01f2 01       		.byte	0x1
 2285 01f3 11       		.uleb128 0x11
 2286 01f4 01       		.uleb128 0x1
 2287 01f5 01       		.uleb128 0x1
 2288 01f6 13       		.uleb128 0x13
 2289 01f7 00       		.byte	0
 2290 01f8 00       		.byte	0
 2291 01f9 27       		.uleb128 0x27
 2292 01fa 898201   		.uleb128 0x4109
 2293 01fd 01       		.byte	0x1
 2294 01fe 11       		.uleb128 0x11
 2295 01ff 01       		.uleb128 0x1
 2296 0200 00       		.byte	0
 2297 0201 00       		.byte	0
 2298 0202 28       		.uleb128 0x28
 2299 0203 01       		.uleb128 0x1
 2300 0204 01       		.byte	0x1
 2301 0205 49       		.uleb128 0x49
 2302 0206 13       		.uleb128 0x13
 2303 0207 00       		.byte	0
 2304 0208 00       		.byte	0
 2305 0209 29       		.uleb128 0x29
 2306 020a 21       		.uleb128 0x21
 2307 020b 00       		.byte	0
 2308 020c 49       		.uleb128 0x49
 2309 020d 13       		.uleb128 0x13
 2310 020e 2F       		.uleb128 0x2f
 2311 020f 0B       		.uleb128 0xb
 2312 0210 00       		.byte	0
 2313 0211 00       		.byte	0
 2314 0212 00       		.byte	0
 2315              		.section	.debug_loc,"",%progbits
 2316              	.Ldebug_loc0:
 2317              	.LLST0:
 2318 0000 00000000 		.4byte	.LFB7
 2319 0004 02000000 		.4byte	.LCFI0
 2320 0008 0200     		.2byte	0x2
 2321 000a 7D       		.byte	0x7d
 2322 000b 00       		.sleb128 0
 2323 000c 02000000 		.4byte	.LCFI0
 2324 0010 6C000000 		.4byte	.LFE7
 2325 0014 0200     		.2byte	0x2
 2326 0016 7D       		.byte	0x7d
 2327 0017 10       		.sleb128 16
 2328 0018 00000000 		.4byte	0
 2329 001c 00000000 		.4byte	0
 2330              	.LLST1:
 2331 0020 00000000 		.4byte	.LVL0
 2332 0024 12000000 		.4byte	.LVL4
 2333 0028 0100     		.2byte	0x1
 2334 002a 50       		.byte	0x50
 2335 002b 12000000 		.4byte	.LVL4
 2336 002f 56000000 		.4byte	.LVL21
ARM GAS  /tmp/cc1GwMDc.s 			page 42


 2337 0033 0100     		.2byte	0x1
 2338 0035 57       		.byte	0x57
 2339 0036 5E000000 		.4byte	.LVL22
 2340 003a 6C000000 		.4byte	.LFE7
 2341 003e 0100     		.2byte	0x1
 2342 0040 57       		.byte	0x57
 2343 0041 00000000 		.4byte	0
 2344 0045 00000000 		.4byte	0
 2345              	.LLST2:
 2346 0049 00000000 		.4byte	.LVL0
 2347 004d 12000000 		.4byte	.LVL4
 2348 0051 0100     		.2byte	0x1
 2349 0053 51       		.byte	0x51
 2350 0054 12000000 		.4byte	.LVL4
 2351 0058 6C000000 		.4byte	.LFE7
 2352 005c 0400     		.2byte	0x4
 2353 005e F3       		.byte	0xf3
 2354 005f 01       		.uleb128 0x1
 2355 0060 51       		.byte	0x51
 2356 0061 9F       		.byte	0x9f
 2357 0062 00000000 		.4byte	0
 2358 0066 00000000 		.4byte	0
 2359              	.LLST3:
 2360 006a 00000000 		.4byte	.LVL0
 2361 006e 40000000 		.4byte	.LVL16
 2362 0072 0100     		.2byte	0x1
 2363 0074 52       		.byte	0x52
 2364 0075 40000000 		.4byte	.LVL16
 2365 0079 6C000000 		.4byte	.LFE7
 2366 007d 0400     		.2byte	0x4
 2367 007f F3       		.byte	0xf3
 2368 0080 01       		.uleb128 0x1
 2369 0081 52       		.byte	0x52
 2370 0082 9F       		.byte	0x9f
 2371 0083 00000000 		.4byte	0
 2372 0087 00000000 		.4byte	0
 2373              	.LLST4:
 2374 008b 00000000 		.4byte	.LVL0
 2375 008f 08000000 		.4byte	.LVL1
 2376 0093 0100     		.2byte	0x1
 2377 0095 53       		.byte	0x53
 2378 0096 08000000 		.4byte	.LVL1
 2379 009a 6C000000 		.4byte	.LFE7
 2380 009e 0400     		.2byte	0x4
 2381 00a0 F3       		.byte	0xf3
 2382 00a1 01       		.uleb128 0x1
 2383 00a2 53       		.byte	0x53
 2384 00a3 9F       		.byte	0x9f
 2385 00a4 00000000 		.4byte	0
 2386 00a8 00000000 		.4byte	0
 2387              	.LLST5:
 2388 00ac 1A000000 		.4byte	.LVL5
 2389 00b0 1E000000 		.4byte	.LVL6
 2390 00b4 0100     		.2byte	0x1
 2391 00b6 51       		.byte	0x51
 2392 00b7 1E000000 		.4byte	.LVL6
 2393 00bb 28000000 		.4byte	.LVL8
ARM GAS  /tmp/cc1GwMDc.s 			page 43


 2394 00bf 0100     		.2byte	0x1
 2395 00c1 54       		.byte	0x54
 2396 00c2 38000000 		.4byte	.LVL13
 2397 00c6 3C000000 		.4byte	.LVL14
 2398 00ca 0600     		.2byte	0x6
 2399 00cc 7C       		.byte	0x7c
 2400 00cd 00       		.sleb128 0
 2401 00ce 70       		.byte	0x70
 2402 00cf 00       		.sleb128 0
 2403 00d0 1C       		.byte	0x1c
 2404 00d1 9F       		.byte	0x9f
 2405 00d2 3C000000 		.4byte	.LVL14
 2406 00d6 44000000 		.4byte	.LVL18
 2407 00da 0100     		.2byte	0x1
 2408 00dc 53       		.byte	0x53
 2409 00dd 44000000 		.4byte	.LVL18
 2410 00e1 48000000 		.4byte	.LVL19
 2411 00e5 0600     		.2byte	0x6
 2412 00e7 7C       		.byte	0x7c
 2413 00e8 00       		.sleb128 0
 2414 00e9 72       		.byte	0x72
 2415 00ea 00       		.sleb128 0
 2416 00eb 1C       		.byte	0x1c
 2417 00ec 9F       		.byte	0x9f
 2418 00ed 00000000 		.4byte	0
 2419 00f1 00000000 		.4byte	0
 2420              	.LLST6:
 2421 00f5 0E000000 		.4byte	.LVL3
 2422 00f9 12000000 		.4byte	.LVL4
 2423 00fd 0100     		.2byte	0x1
 2424 00ff 5C       		.byte	0x5c
 2425 0100 2E000000 		.4byte	.LVL10
 2426 0104 42000000 		.4byte	.LVL17
 2427 0108 0100     		.2byte	0x1
 2428 010a 50       		.byte	0x50
 2429 010b 42000000 		.4byte	.LVL17
 2430 010f 48000000 		.4byte	.LVL19
 2431 0113 0100     		.2byte	0x1
 2432 0115 52       		.byte	0x52
 2433 0116 00000000 		.4byte	0
 2434 011a 00000000 		.4byte	0
 2435              	.LLST7:
 2436 011e 0A000000 		.4byte	.LVL2
 2437 0122 1A000000 		.4byte	.LVL5
 2438 0126 0100     		.2byte	0x1
 2439 0128 51       		.byte	0x51
 2440 0129 34000000 		.4byte	.LVL12
 2441 012d 3E000000 		.4byte	.LVL15
 2442 0131 0100     		.2byte	0x1
 2443 0133 51       		.byte	0x51
 2444 0134 3E000000 		.4byte	.LVL15
 2445 0138 6C000000 		.4byte	.LFE7
 2446 013c 0100     		.2byte	0x1
 2447 013e 56       		.byte	0x56
 2448 013f 00000000 		.4byte	0
 2449 0143 00000000 		.4byte	0
 2450              	.LLST8:
ARM GAS  /tmp/cc1GwMDc.s 			page 44


 2451 0147 0A000000 		.4byte	.LVL2
 2452 014b 2C000000 		.4byte	.LVL9
 2453 014f 0100     		.2byte	0x1
 2454 0151 53       		.byte	0x53
 2455 0152 34000000 		.4byte	.LVL12
 2456 0156 3C000000 		.4byte	.LVL14
 2457 015a 0100     		.2byte	0x1
 2458 015c 53       		.byte	0x53
 2459 015d 00000000 		.4byte	0
 2460 0161 00000000 		.4byte	0
 2461              	.LLST9:
 2462 0165 00000000 		.4byte	.LFB10
 2463 0169 02000000 		.4byte	.LCFI1
 2464 016d 0200     		.2byte	0x2
 2465 016f 7D       		.byte	0x7d
 2466 0170 00       		.sleb128 0
 2467 0171 02000000 		.4byte	.LCFI1
 2468 0175 06000000 		.4byte	.LCFI2
 2469 0179 0200     		.2byte	0x2
 2470 017b 7D       		.byte	0x7d
 2471 017c 0C       		.sleb128 12
 2472 017d 06000000 		.4byte	.LCFI2
 2473 0181 08000000 		.4byte	.LCFI3
 2474 0185 0200     		.2byte	0x2
 2475 0187 7D       		.byte	0x7d
 2476 0188 30       		.sleb128 48
 2477 0189 08000000 		.4byte	.LCFI3
 2478 018d 4E040000 		.4byte	.LFE10
 2479 0191 0300     		.2byte	0x3
 2480 0193 7D       		.byte	0x7d
 2481 0194 E000     		.sleb128 96
 2482 0196 00000000 		.4byte	0
 2483 019a 00000000 		.4byte	0
 2484              	.LLST10:
 2485 019e 00000000 		.4byte	.LVL23
 2486 01a2 26000000 		.4byte	.LVL24
 2487 01a6 0100     		.2byte	0x1
 2488 01a8 50       		.byte	0x50
 2489 01a9 26000000 		.4byte	.LVL24
 2490 01ad 4E040000 		.4byte	.LFE10
 2491 01b1 0100     		.2byte	0x1
 2492 01b3 56       		.byte	0x56
 2493 01b4 00000000 		.4byte	0
 2494 01b8 00000000 		.4byte	0
 2495              	.LLST11:
 2496 01bc 00000000 		.4byte	.LVL23
 2497 01c0 26000000 		.4byte	.LVL24
 2498 01c4 0200     		.2byte	0x2
 2499 01c6 91       		.byte	0x91
 2500 01c7 74       		.sleb128 -12
 2501 01c8 26000000 		.4byte	.LVL24
 2502 01cc 2C000000 		.4byte	.LVL25
 2503 01d0 0100     		.2byte	0x1
 2504 01d2 54       		.byte	0x54
 2505 01d3 2C000000 		.4byte	.LVL25
 2506 01d7 3C000000 		.4byte	.LVL27
 2507 01db 0100     		.2byte	0x1
ARM GAS  /tmp/cc1GwMDc.s 			page 45


 2508 01dd 55       		.byte	0x55
 2509 01de 3C000000 		.4byte	.LVL27
 2510 01e2 42000000 		.4byte	.LVL29
 2511 01e6 0100     		.2byte	0x1
 2512 01e8 54       		.byte	0x54
 2513 01e9 42000000 		.4byte	.LVL29
 2514 01ed 70000000 		.4byte	.LVL34
 2515 01f1 0100     		.2byte	0x1
 2516 01f3 55       		.byte	0x55
 2517 01f4 70000000 		.4byte	.LVL34
 2518 01f8 2C010000 		.4byte	.LVL48
 2519 01fc 0100     		.2byte	0x1
 2520 01fe 54       		.byte	0x54
 2521 01ff 30010000 		.4byte	.LVL49
 2522 0203 E8030000 		.4byte	.LVL143
 2523 0207 0100     		.2byte	0x1
 2524 0209 54       		.byte	0x54
 2525 020a E8030000 		.4byte	.LVL143
 2526 020e EE030000 		.4byte	.LVL144
 2527 0212 0300     		.2byte	0x3
 2528 0214 75       		.byte	0x75
 2529 0215 01       		.sleb128 1
 2530 0216 9F       		.byte	0x9f
 2531 0217 EE030000 		.4byte	.LVL144
 2532 021b FA030000 		.4byte	.LVL147
 2533 021f 0100     		.2byte	0x1
 2534 0221 55       		.byte	0x55
 2535 0222 FA030000 		.4byte	.LVL147
 2536 0226 4E040000 		.4byte	.LFE10
 2537 022a 0100     		.2byte	0x1
 2538 022c 54       		.byte	0x54
 2539 022d 00000000 		.4byte	0
 2540 0231 00000000 		.4byte	0
 2541              	.LLST12:
 2542 0235 50000000 		.4byte	.LVL31
 2543 0239 78010000 		.4byte	.LVL58
 2544 023d 0100     		.2byte	0x1
 2545 023f 58       		.byte	0x58
 2546 0240 78010000 		.4byte	.LVL58
 2547 0244 90010000 		.4byte	.LVL59
 2548 0248 0100     		.2byte	0x1
 2549 024a 5A       		.byte	0x5a
 2550 024b 90010000 		.4byte	.LVL59
 2551 024f AC010000 		.4byte	.LVL61
 2552 0253 0100     		.2byte	0x1
 2553 0255 52       		.byte	0x52
 2554 0256 68020000 		.4byte	.LVL79
 2555 025a 6C020000 		.4byte	.LVL80
 2556 025e 0100     		.2byte	0x1
 2557 0260 52       		.byte	0x52
 2558 0261 76020000 		.4byte	.LVL81
 2559 0265 7C020000 		.4byte	.LVL82
 2560 0269 0100     		.2byte	0x1
 2561 026b 52       		.byte	0x52
 2562 026c 84020000 		.4byte	.LVL83
 2563 0270 AA020000 		.4byte	.LVL89
 2564 0274 0100     		.2byte	0x1
ARM GAS  /tmp/cc1GwMDc.s 			page 46


 2565 0276 58       		.byte	0x58
 2566 0277 AA020000 		.4byte	.LVL89
 2567 027b D6020000 		.4byte	.LVL98
 2568 027f 0100     		.2byte	0x1
 2569 0281 5B       		.byte	0x5b
 2570 0282 0E030000 		.4byte	.LVL105
 2571 0286 1E030000 		.4byte	.LVL107
 2572 028a 0100     		.2byte	0x1
 2573 028c 58       		.byte	0x58
 2574 028d 1E030000 		.4byte	.LVL107
 2575 0291 22030000 		.4byte	.LVL108
 2576 0295 0300     		.2byte	0x3
 2577 0297 91       		.byte	0x91
 2578 0298 8C7F     		.sleb128 -116
 2579 029a 8C030000 		.4byte	.LVL125
 2580 029e A0030000 		.4byte	.LVL129
 2581 02a2 0100     		.2byte	0x1
 2582 02a4 58       		.byte	0x58
 2583 02a5 A8030000 		.4byte	.LVL130
 2584 02a9 CC030000 		.4byte	.LVL139
 2585 02ad 0100     		.2byte	0x1
 2586 02af 58       		.byte	0x58
 2587 02b0 CC030000 		.4byte	.LVL139
 2588 02b4 D3030000 		.4byte	.LVL140-1
 2589 02b8 0100     		.2byte	0x1
 2590 02ba 50       		.byte	0x50
 2591 02bb DC030000 		.4byte	.LVL141
 2592 02bf E0030000 		.4byte	.LVL142
 2593 02c3 0100     		.2byte	0x1
 2594 02c5 58       		.byte	0x58
 2595 02c6 E0030000 		.4byte	.LVL142
 2596 02ca E8030000 		.4byte	.LVL143
 2597 02ce 0300     		.2byte	0x3
 2598 02d0 91       		.byte	0x91
 2599 02d1 8C7F     		.sleb128 -116
 2600 02d3 E8030000 		.4byte	.LVL143
 2601 02d7 1A040000 		.4byte	.LVL151
 2602 02db 0100     		.2byte	0x1
 2603 02dd 58       		.byte	0x58
 2604 02de 1A040000 		.4byte	.LVL151
 2605 02e2 22040000 		.4byte	.LVL153
 2606 02e6 0300     		.2byte	0x3
 2607 02e8 91       		.byte	0x91
 2608 02e9 8C7F     		.sleb128 -116
 2609 02eb 38040000 		.4byte	.LVL157
 2610 02ef 42040000 		.4byte	.LVL159
 2611 02f3 0100     		.2byte	0x1
 2612 02f5 58       		.byte	0x58
 2613 02f6 42040000 		.4byte	.LVL159
 2614 02fa 48040000 		.4byte	.LVL160
 2615 02fe 0300     		.2byte	0x3
 2616 0300 91       		.byte	0x91
 2617 0301 8C7F     		.sleb128 -116
 2618 0303 48040000 		.4byte	.LVL160
 2619 0307 4E040000 		.4byte	.LFE10
 2620 030b 0100     		.2byte	0x1
 2621 030d 5A       		.byte	0x5a
ARM GAS  /tmp/cc1GwMDc.s 			page 47


 2622 030e 00000000 		.4byte	0
 2623 0312 00000000 		.4byte	0
 2624              	.LLST13:
 2625 0316 50000000 		.4byte	.LVL31
 2626 031a 5E010000 		.4byte	.LVL55
 2627 031e 0100     		.2byte	0x1
 2628 0320 58       		.byte	0x58
 2629 0321 68010000 		.4byte	.LVL57
 2630 0325 DE010000 		.4byte	.LVL67
 2631 0329 0100     		.2byte	0x1
 2632 032b 5A       		.byte	0x5a
 2633 032c DE010000 		.4byte	.LVL67
 2634 0330 DF010000 		.4byte	.LVL68-1
 2635 0334 0400     		.2byte	0x4
 2636 0336 7E       		.byte	0x7e
 2637 0337 00       		.sleb128 0
 2638 0338 20       		.byte	0x20
 2639 0339 9F       		.byte	0x9f
 2640 033a DF010000 		.4byte	.LVL68-1
 2641 033e EE010000 		.4byte	.LVL70
 2642 0342 0300     		.2byte	0x3
 2643 0344 79       		.byte	0x79
 2644 0345 7F       		.sleb128 -1
 2645 0346 9F       		.byte	0x9f
 2646 0347 68020000 		.4byte	.LVL79
 2647 034b 84020000 		.4byte	.LVL83
 2648 034f 0100     		.2byte	0x1
 2649 0351 5A       		.byte	0x5a
 2650 0352 84020000 		.4byte	.LVL83
 2651 0356 22030000 		.4byte	.LVL108
 2652 035a 0100     		.2byte	0x1
 2653 035c 58       		.byte	0x58
 2654 035d 22030000 		.4byte	.LVL108
 2655 0361 56030000 		.4byte	.LVL116
 2656 0365 0100     		.2byte	0x1
 2657 0367 5A       		.byte	0x5a
 2658 0368 8C030000 		.4byte	.LVL125
 2659 036c 22040000 		.4byte	.LVL153
 2660 0370 0100     		.2byte	0x1
 2661 0372 58       		.byte	0x58
 2662 0373 22040000 		.4byte	.LVL153
 2663 0377 38040000 		.4byte	.LVL157
 2664 037b 0100     		.2byte	0x1
 2665 037d 5A       		.byte	0x5a
 2666 037e 38040000 		.4byte	.LVL157
 2667 0382 48040000 		.4byte	.LVL160
 2668 0386 0100     		.2byte	0x1
 2669 0388 58       		.byte	0x58
 2670 0389 48040000 		.4byte	.LVL160
 2671 038d 4E040000 		.4byte	.LFE10
 2672 0391 0100     		.2byte	0x1
 2673 0393 5A       		.byte	0x5a
 2674 0394 00000000 		.4byte	0
 2675 0398 00000000 		.4byte	0
 2676              	.LLST14:
 2677 039c 2C000000 		.4byte	.LVL25
 2678 03a0 2E000000 		.4byte	.LVL26
ARM GAS  /tmp/cc1GwMDc.s 			page 48


 2679 03a4 0200     		.2byte	0x2
 2680 03a6 74       		.byte	0x74
 2681 03a7 00       		.sleb128 0
 2682 03a8 42000000 		.4byte	.LVL29
 2683 03ac 46000000 		.4byte	.LVL30
 2684 03b0 0200     		.2byte	0x2
 2685 03b2 74       		.byte	0x74
 2686 03b3 00       		.sleb128 0
 2687 03b4 72000000 		.4byte	.LVL35
 2688 03b8 74000000 		.4byte	.LVL36
 2689 03bc 0100     		.2byte	0x1
 2690 03be 53       		.byte	0x53
 2691 03bf 74000000 		.4byte	.LVL36
 2692 03c3 76000000 		.4byte	.LVL37
 2693 03c7 0200     		.2byte	0x2
 2694 03c9 71       		.byte	0x71
 2695 03ca 00       		.sleb128 0
 2696 03cb 76000000 		.4byte	.LVL37
 2697 03cf 80000000 		.4byte	.LVL39
 2698 03d3 0100     		.2byte	0x1
 2699 03d5 52       		.byte	0x52
 2700 03d6 80000000 		.4byte	.LVL39
 2701 03da 9C000000 		.4byte	.LVL43
 2702 03de 0100     		.2byte	0x1
 2703 03e0 53       		.byte	0x53
 2704 03e1 AC000000 		.4byte	.LVL44
 2705 03e5 24010000 		.4byte	.LVL45
 2706 03e9 0100     		.2byte	0x1
 2707 03eb 53       		.byte	0x53
 2708 03ec 24010000 		.4byte	.LVL45
 2709 03f0 26010000 		.4byte	.LVL46
 2710 03f4 0200     		.2byte	0x2
 2711 03f6 74       		.byte	0x74
 2712 03f7 7F       		.sleb128 -1
 2713 03f8 26010000 		.4byte	.LVL46
 2714 03fc 28010000 		.4byte	.LVL47
 2715 0400 0200     		.2byte	0x2
 2716 0402 71       		.byte	0x71
 2717 0403 00       		.sleb128 0
 2718 0404 28010000 		.4byte	.LVL47
 2719 0408 2C010000 		.4byte	.LVL48
 2720 040c 0100     		.2byte	0x1
 2721 040e 52       		.byte	0x52
 2722 040f 30010000 		.4byte	.LVL49
 2723 0413 48010000 		.4byte	.LVL50
 2724 0417 0200     		.2byte	0x2
 2725 0419 74       		.byte	0x74
 2726 041a 7F       		.sleb128 -1
 2727 041b 50010000 		.4byte	.LVL51
 2728 041f 54010000 		.4byte	.LVL52
 2729 0423 0200     		.2byte	0x2
 2730 0425 74       		.byte	0x74
 2731 0426 00       		.sleb128 0
 2732 0427 54010000 		.4byte	.LVL52
 2733 042b 58010000 		.4byte	.LVL53
 2734 042f 0200     		.2byte	0x2
 2735 0431 74       		.byte	0x74
ARM GAS  /tmp/cc1GwMDc.s 			page 49


 2736 0432 7F       		.sleb128 -1
 2737 0433 58010000 		.4byte	.LVL53
 2738 0437 5E010000 		.4byte	.LVL55
 2739 043b 0100     		.2byte	0x1
 2740 043d 53       		.byte	0x53
 2741 043e 5E010000 		.4byte	.LVL55
 2742 0442 60010000 		.4byte	.LVL56
 2743 0446 0400     		.2byte	0x4
 2744 0448 72       		.byte	0x72
 2745 0449 C400     		.sleb128 68
 2746 044b 9F       		.byte	0x9f
 2747 044c 84020000 		.4byte	.LVL83
 2748 0450 8C020000 		.4byte	.LVL85
 2749 0454 0100     		.2byte	0x1
 2750 0456 53       		.byte	0x53
 2751 0457 0E030000 		.4byte	.LVL105
 2752 045b 18030000 		.4byte	.LVL106
 2753 045f 0100     		.2byte	0x1
 2754 0461 53       		.byte	0x53
 2755 0462 8C030000 		.4byte	.LVL125
 2756 0466 8E030000 		.4byte	.LVL126
 2757 046a 0100     		.2byte	0x1
 2758 046c 53       		.byte	0x53
 2759 046d A8030000 		.4byte	.LVL130
 2760 0471 AA030000 		.4byte	.LVL131
 2761 0475 0100     		.2byte	0x1
 2762 0477 53       		.byte	0x53
 2763 0478 B8030000 		.4byte	.LVL134
 2764 047c BC030000 		.4byte	.LVL135
 2765 0480 0200     		.2byte	0x2
 2766 0482 38       		.byte	0x38
 2767 0483 9F       		.byte	0x9f
 2768 0484 BC030000 		.4byte	.LVL135
 2769 0488 BE030000 		.4byte	.LVL136
 2770 048c 0100     		.2byte	0x1
 2771 048e 53       		.byte	0x53
 2772 048f BE030000 		.4byte	.LVL136
 2773 0493 C0030000 		.4byte	.LVL137
 2774 0497 0400     		.2byte	0x4
 2775 0499 72       		.byte	0x72
 2776 049a C400     		.sleb128 68
 2777 049c 9F       		.byte	0x9f
 2778 049d DC030000 		.4byte	.LVL141
 2779 04a1 E8030000 		.4byte	.LVL143
 2780 04a5 0100     		.2byte	0x1
 2781 04a7 53       		.byte	0x53
 2782 04a8 00000000 		.4byte	0
 2783 04ac 00000000 		.4byte	0
 2784              	.LLST15:
 2785 04b0 5C000000 		.4byte	.LVL32
 2786 04b4 6A000000 		.4byte	.LVL33
 2787 04b8 0300     		.2byte	0x3
 2788 04ba 08       		.byte	0x8
 2789 04bb 20       		.byte	0x20
 2790 04bc 9F       		.byte	0x9f
 2791 04bd 6A000000 		.4byte	.LVL33
 2792 04c1 58010000 		.4byte	.LVL53
ARM GAS  /tmp/cc1GwMDc.s 			page 50


 2793 04c5 0100     		.2byte	0x1
 2794 04c7 57       		.byte	0x57
 2795 04c8 58010000 		.4byte	.LVL53
 2796 04cc B6010000 		.4byte	.LVL63
 2797 04d0 0300     		.2byte	0x3
 2798 04d2 08       		.byte	0x8
 2799 04d3 20       		.byte	0x20
 2800 04d4 9F       		.byte	0x9f
 2801 04d5 B6010000 		.4byte	.LVL63
 2802 04d9 C2010000 		.4byte	.LVL65
 2803 04dd 0100     		.2byte	0x1
 2804 04df 57       		.byte	0x57
 2805 04e0 68020000 		.4byte	.LVL79
 2806 04e4 84020000 		.4byte	.LVL83
 2807 04e8 0300     		.2byte	0x3
 2808 04ea 08       		.byte	0x8
 2809 04eb 20       		.byte	0x20
 2810 04ec 9F       		.byte	0x9f
 2811 04ed 84020000 		.4byte	.LVL83
 2812 04f1 0E030000 		.4byte	.LVL105
 2813 04f5 0100     		.2byte	0x1
 2814 04f7 57       		.byte	0x57
 2815 04f8 0E030000 		.4byte	.LVL105
 2816 04fc 22030000 		.4byte	.LVL108
 2817 0500 0300     		.2byte	0x3
 2818 0502 08       		.byte	0x8
 2819 0503 20       		.byte	0x20
 2820 0504 9F       		.byte	0x9f
 2821 0505 22030000 		.4byte	.LVL108
 2822 0509 32030000 		.4byte	.LVL111
 2823 050d 0100     		.2byte	0x1
 2824 050f 57       		.byte	0x57
 2825 0510 8C030000 		.4byte	.LVL125
 2826 0514 E8030000 		.4byte	.LVL143
 2827 0518 0100     		.2byte	0x1
 2828 051a 57       		.byte	0x57
 2829 051b E8030000 		.4byte	.LVL143
 2830 051f F0030000 		.4byte	.LVL145
 2831 0523 0300     		.2byte	0x3
 2832 0525 08       		.byte	0x8
 2833 0526 30       		.byte	0x30
 2834 0527 9F       		.byte	0x9f
 2835 0528 FA030000 		.4byte	.LVL147
 2836 052c 22040000 		.4byte	.LVL153
 2837 0530 0100     		.2byte	0x1
 2838 0532 57       		.byte	0x57
 2839 0533 38040000 		.4byte	.LVL157
 2840 0537 48040000 		.4byte	.LVL160
 2841 053b 0100     		.2byte	0x1
 2842 053d 57       		.byte	0x57
 2843 053e 48040000 		.4byte	.LVL160
 2844 0542 4E040000 		.4byte	.LFE10
 2845 0546 0300     		.2byte	0x3
 2846 0548 08       		.byte	0x8
 2847 0549 20       		.byte	0x20
 2848 054a 9F       		.byte	0x9f
 2849 054b 00000000 		.4byte	0
ARM GAS  /tmp/cc1GwMDc.s 			page 51


 2850 054f 00000000 		.4byte	0
 2851              	.LLST16:
 2852 0553 B6010000 		.4byte	.LVL63
 2853 0557 C2010000 		.4byte	.LVL65
 2854 055b 0100     		.2byte	0x1
 2855 055d 5B       		.byte	0x5b
 2856 055e C2010000 		.4byte	.LVL65
 2857 0562 D2010000 		.4byte	.LVL66
 2858 0566 0300     		.2byte	0x3
 2859 0568 7B       		.byte	0x7b
 2860 0569 7F       		.sleb128 -1
 2861 056a 9F       		.byte	0x9f
 2862 056b 22030000 		.4byte	.LVL108
 2863 056f 56030000 		.4byte	.LVL116
 2864 0573 0100     		.2byte	0x1
 2865 0575 5B       		.byte	0x5b
 2866 0576 22040000 		.4byte	.LVL153
 2867 057a 38040000 		.4byte	.LVL157
 2868 057e 0100     		.2byte	0x1
 2869 0580 5B       		.byte	0x5b
 2870 0581 00000000 		.4byte	0
 2871 0585 00000000 		.4byte	0
 2872              	.LLST17:
 2873 0589 96000000 		.4byte	.LVL41
 2874 058d 98000000 		.4byte	.LVL42
 2875 0591 0200     		.2byte	0x2
 2876 0593 30       		.byte	0x30
 2877 0594 9F       		.byte	0x9f
 2878 0595 98000000 		.4byte	.LVL42
 2879 0599 28010000 		.4byte	.LVL47
 2880 059d 0100     		.2byte	0x1
 2881 059f 50       		.byte	0x50
 2882 05a0 28010000 		.4byte	.LVL47
 2883 05a4 2C010000 		.4byte	.LVL48
 2884 05a8 0500     		.2byte	0x5
 2885 05aa 7A       		.byte	0x7a
 2886 05ab 00       		.sleb128 0
 2887 05ac 31       		.byte	0x31
 2888 05ad 24       		.byte	0x24
 2889 05ae 9F       		.byte	0x9f
 2890 05af 2C010000 		.4byte	.LVL48
 2891 05b3 78010000 		.4byte	.LVL58
 2892 05b7 0100     		.2byte	0x1
 2893 05b9 50       		.byte	0x50
 2894 05ba 84020000 		.4byte	.LVL83
 2895 05be 88020000 		.4byte	.LVL84
 2896 05c2 0100     		.2byte	0x1
 2897 05c4 50       		.byte	0x50
 2898 05c5 0E030000 		.4byte	.LVL105
 2899 05c9 22030000 		.4byte	.LVL108
 2900 05cd 0100     		.2byte	0x1
 2901 05cf 50       		.byte	0x50
 2902 05d0 8C030000 		.4byte	.LVL125
 2903 05d4 98030000 		.4byte	.LVL128
 2904 05d8 0100     		.2byte	0x1
 2905 05da 50       		.byte	0x50
 2906 05db A8030000 		.4byte	.LVL130
ARM GAS  /tmp/cc1GwMDc.s 			page 52


 2907 05df B2030000 		.4byte	.LVL132
 2908 05e3 0100     		.2byte	0x1
 2909 05e5 50       		.byte	0x50
 2910 05e6 B8030000 		.4byte	.LVL134
 2911 05ea CC030000 		.4byte	.LVL139
 2912 05ee 0100     		.2byte	0x1
 2913 05f0 50       		.byte	0x50
 2914 05f1 DC030000 		.4byte	.LVL141
 2915 05f5 E8030000 		.4byte	.LVL143
 2916 05f9 0100     		.2byte	0x1
 2917 05fb 50       		.byte	0x50
 2918 05fc FA030000 		.4byte	.LVL147
 2919 0600 16040000 		.4byte	.LVL150
 2920 0604 0100     		.2byte	0x1
 2921 0606 50       		.byte	0x50
 2922 0607 00000000 		.4byte	0
 2923 060b 00000000 		.4byte	0
 2924              	.LLST18:
 2925 060f 6A000000 		.4byte	.LVL33
 2926 0613 72000000 		.4byte	.LVL35
 2927 0617 0200     		.2byte	0x2
 2928 0619 30       		.byte	0x30
 2929 061a 9F       		.byte	0x9f
 2930 061b 72000000 		.4byte	.LVL35
 2931 061f 7A000000 		.4byte	.LVL38
 2932 0623 0100     		.2byte	0x1
 2933 0625 55       		.byte	0x55
 2934 0626 80000000 		.4byte	.LVL39
 2935 062a B4010000 		.4byte	.LVL62
 2936 062e 0100     		.2byte	0x1
 2937 0630 55       		.byte	0x55
 2938 0631 B6010000 		.4byte	.LVL63
 2939 0635 E6010000 		.4byte	.LVL69
 2940 0639 0100     		.2byte	0x1
 2941 063b 55       		.byte	0x55
 2942 063c 18020000 		.4byte	.LVL73
 2943 0640 26020000 		.4byte	.LVL74
 2944 0644 0100     		.2byte	0x1
 2945 0646 55       		.byte	0x55
 2946 0647 26020000 		.4byte	.LVL74
 2947 064b 2F020000 		.4byte	.LVL75-1
 2948 064f 0300     		.2byte	0x3
 2949 0651 73       		.byte	0x73
 2950 0652 01       		.sleb128 1
 2951 0653 9F       		.byte	0x9f
 2952 0654 2F020000 		.4byte	.LVL75-1
 2953 0658 46020000 		.4byte	.LVL76
 2954 065c 0300     		.2byte	0x3
 2955 065e 75       		.byte	0x75
 2956 065f 01       		.sleb128 1
 2957 0660 9F       		.byte	0x9f
 2958 0661 68020000 		.4byte	.LVL79
 2959 0665 52030000 		.4byte	.LVL115
 2960 0669 0100     		.2byte	0x1
 2961 066b 55       		.byte	0x55
 2962 066c 52030000 		.4byte	.LVL115
 2963 0670 56030000 		.4byte	.LVL116
ARM GAS  /tmp/cc1GwMDc.s 			page 53


 2964 0674 0300     		.2byte	0x3
 2965 0676 75       		.byte	0x75
 2966 0677 7F       		.sleb128 -1
 2967 0678 9F       		.byte	0x9f
 2968 0679 60030000 		.4byte	.LVL117
 2969 067d 6A030000 		.4byte	.LVL118
 2970 0681 0100     		.2byte	0x1
 2971 0683 55       		.byte	0x55
 2972 0684 6A030000 		.4byte	.LVL118
 2973 0688 6C030000 		.4byte	.LVL119
 2974 068c 0300     		.2byte	0x3
 2975 068e 75       		.byte	0x75
 2976 068f 01       		.sleb128 1
 2977 0690 9F       		.byte	0x9f
 2978 0691 6C030000 		.4byte	.LVL119
 2979 0695 7E030000 		.4byte	.LVL122
 2980 0699 0100     		.2byte	0x1
 2981 069b 55       		.byte	0x55
 2982 069c 86030000 		.4byte	.LVL123
 2983 06a0 88030000 		.4byte	.LVL124
 2984 06a4 0300     		.2byte	0x3
 2985 06a6 75       		.byte	0x75
 2986 06a7 01       		.sleb128 1
 2987 06a8 9F       		.byte	0x9f
 2988 06a9 88030000 		.4byte	.LVL124
 2989 06ad E8030000 		.4byte	.LVL143
 2990 06b1 0100     		.2byte	0x1
 2991 06b3 55       		.byte	0x55
 2992 06b4 FA030000 		.4byte	.LVL147
 2993 06b8 4E040000 		.4byte	.LFE10
 2994 06bc 0100     		.2byte	0x1
 2995 06be 55       		.byte	0x55
 2996 06bf 00000000 		.4byte	0
 2997 06c3 00000000 		.4byte	0
 2998              	.LLST19:
 2999 06c7 AC000000 		.4byte	.LVL44
 3000 06cb 24010000 		.4byte	.LVL45
 3001 06cf 0100     		.2byte	0x1
 3002 06d1 51       		.byte	0x51
 3003 06d2 48010000 		.4byte	.LVL50
 3004 06d6 58010000 		.4byte	.LVL53
 3005 06da 0200     		.2byte	0x2
 3006 06dc 31       		.byte	0x31
 3007 06dd 9F       		.byte	0x9f
 3008 06de 58010000 		.4byte	.LVL53
 3009 06e2 5C010000 		.4byte	.LVL54
 3010 06e6 0100     		.2byte	0x1
 3011 06e8 51       		.byte	0x51
 3012 06e9 84020000 		.4byte	.LVL83
 3013 06ed 99020000 		.4byte	.LVL86-1
 3014 06f1 0100     		.2byte	0x1
 3015 06f3 51       		.byte	0x51
 3016 06f4 0E030000 		.4byte	.LVL105
 3017 06f8 22030000 		.4byte	.LVL108
 3018 06fc 0100     		.2byte	0x1
 3019 06fe 51       		.byte	0x51
 3020 06ff 8C030000 		.4byte	.LVL125
ARM GAS  /tmp/cc1GwMDc.s 			page 54


 3021 0703 94030000 		.4byte	.LVL127
 3022 0707 0100     		.2byte	0x1
 3023 0709 51       		.byte	0x51
 3024 070a A8030000 		.4byte	.LVL130
 3025 070e B4030000 		.4byte	.LVL133
 3026 0712 0100     		.2byte	0x1
 3027 0714 51       		.byte	0x51
 3028 0715 B8030000 		.4byte	.LVL134
 3029 0719 C4030000 		.4byte	.LVL138
 3030 071d 0100     		.2byte	0x1
 3031 071f 51       		.byte	0x51
 3032 0720 DC030000 		.4byte	.LVL141
 3033 0724 E8030000 		.4byte	.LVL143
 3034 0728 0100     		.2byte	0x1
 3035 072a 51       		.byte	0x51
 3036 072b FA030000 		.4byte	.LVL147
 3037 072f 0C040000 		.4byte	.LVL148
 3038 0733 0200     		.2byte	0x2
 3039 0735 31       		.byte	0x31
 3040 0736 9F       		.byte	0x9f
 3041 0737 0C040000 		.4byte	.LVL148
 3042 073b 0E040000 		.4byte	.LVL149
 3043 073f 0100     		.2byte	0x1
 3044 0741 51       		.byte	0x51
 3045 0742 00000000 		.4byte	0
 3046 0746 00000000 		.4byte	0
 3047              	.LLST20:
 3048 074a 50000000 		.4byte	.LVL31
 3049 074e 5C000000 		.4byte	.LVL32
 3050 0752 0200     		.2byte	0x2
 3051 0754 30       		.byte	0x30
 3052 0755 9F       		.byte	0x9f
 3053 0756 5C000000 		.4byte	.LVL32
 3054 075a C2010000 		.4byte	.LVL65
 3055 075e 0100     		.2byte	0x1
 3056 0760 59       		.byte	0x59
 3057 0761 68020000 		.4byte	.LVL79
 3058 0765 4E030000 		.4byte	.LVL113
 3059 0769 0100     		.2byte	0x1
 3060 076b 59       		.byte	0x59
 3061 076c 8C030000 		.4byte	.LVL125
 3062 0770 F0030000 		.4byte	.LVL145
 3063 0774 0100     		.2byte	0x1
 3064 0776 59       		.byte	0x59
 3065 0777 F0030000 		.4byte	.LVL145
 3066 077b F2030000 		.4byte	.LVL146
 3067 077f 0200     		.2byte	0x2
 3068 0781 30       		.byte	0x30
 3069 0782 9F       		.byte	0x9f
 3070 0783 F2030000 		.4byte	.LVL146
 3071 0787 FA030000 		.4byte	.LVL147
 3072 078b 0200     		.2byte	0x2
 3073 078d 31       		.byte	0x31
 3074 078e 9F       		.byte	0x9f
 3075 078f FA030000 		.4byte	.LVL147
 3076 0793 4E040000 		.4byte	.LFE10
 3077 0797 0100     		.2byte	0x1
ARM GAS  /tmp/cc1GwMDc.s 			page 55


 3078 0799 59       		.byte	0x59
 3079 079a 00000000 		.4byte	0
 3080 079e 00000000 		.4byte	0
 3081              	.LLST21:
 3082 07a2 98030000 		.4byte	.LVL128
 3083 07a6 9F030000 		.4byte	.LVL129-1
 3084 07aa 0100     		.2byte	0x1
 3085 07ac 51       		.byte	0x51
 3086 07ad B4030000 		.4byte	.LVL133
 3087 07b1 B8030000 		.4byte	.LVL134
 3088 07b5 0100     		.2byte	0x1
 3089 07b7 51       		.byte	0x51
 3090 07b8 C4030000 		.4byte	.LVL138
 3091 07bc D3030000 		.4byte	.LVL140-1
 3092 07c0 0100     		.2byte	0x1
 3093 07c2 51       		.byte	0x51
 3094 07c3 0E040000 		.4byte	.LVL149
 3095 07c7 22040000 		.4byte	.LVL153
 3096 07cb 0100     		.2byte	0x1
 3097 07cd 51       		.byte	0x51
 3098 07ce 00000000 		.4byte	0
 3099 07d2 00000000 		.4byte	0
 3100              	.LLST22:
 3101 07d6 9E020000 		.4byte	.LVL87
 3102 07da A1020000 		.4byte	.LVL88-1
 3103 07de 0100     		.2byte	0x1
 3104 07e0 50       		.byte	0x50
 3105 07e1 A1020000 		.4byte	.LVL88-1
 3106 07e5 D2020000 		.4byte	.LVL97
 3107 07e9 0100     		.2byte	0x1
 3108 07eb 5A       		.byte	0x5a
 3109 07ec 38040000 		.4byte	.LVL157
 3110 07f0 3E040000 		.4byte	.LVL158
 3111 07f4 0100     		.2byte	0x1
 3112 07f6 5A       		.byte	0x5a
 3113 07f7 42040000 		.4byte	.LVL159
 3114 07fb 48040000 		.4byte	.LVL160
 3115 07ff 0100     		.2byte	0x1
 3116 0801 5A       		.byte	0x5a
 3117 0802 00000000 		.4byte	0
 3118 0806 00000000 		.4byte	0
 3119              	.LLST23:
 3120 080a AA020000 		.4byte	.LVL89
 3121 080e D2020000 		.4byte	.LVL97
 3122 0812 0600     		.2byte	0x6
 3123 0814 F5       		.byte	0xf5
 3124 0815 0A       		.uleb128 0xa
 3125 0816 37       		.uleb128 0x37
 3126 0817 F7       		.byte	0xf7
 3127 0818 29       		.uleb128 0x29
 3128 0819 9F       		.byte	0x9f
 3129 081a 00000000 		.4byte	0
 3130 081e 00000000 		.4byte	0
 3131              	.LLST24:
 3132 0822 AA020000 		.4byte	.LVL89
 3133 0826 BE020000 		.4byte	.LVL93
 3134 082a 0100     		.2byte	0x1
ARM GAS  /tmp/cc1GwMDc.s 			page 56


 3135 082c 5B       		.byte	0x5b
 3136 082d BE020000 		.4byte	.LVL93
 3137 0831 C2020000 		.4byte	.LVL94
 3138 0835 0100     		.2byte	0x1
 3139 0837 50       		.byte	0x50
 3140 0838 C2020000 		.4byte	.LVL94
 3141 083c CF020000 		.4byte	.LVL96-1
 3142 0840 0100     		.2byte	0x1
 3143 0842 5C       		.byte	0x5c
 3144 0843 F8020000 		.4byte	.LVL103
 3145 0847 05030000 		.4byte	.LVL104-1
 3146 084b 0100     		.2byte	0x1
 3147 084d 5C       		.byte	0x5c
 3148 084e 00000000 		.4byte	0
 3149 0852 00000000 		.4byte	0
 3150              	.LLST25:
 3151 0856 B2020000 		.4byte	.LVL91
 3152 085a B8020000 		.4byte	.LVL92
 3153 085e 0100     		.2byte	0x1
 3154 0860 50       		.byte	0x50
 3155 0861 B8020000 		.4byte	.LVL92
 3156 0865 F0020000 		.4byte	.LVL101
 3157 0869 0300     		.2byte	0x3
 3158 086b 91       		.byte	0x91
 3159 086c 947F     		.sleb128 -108
 3160 086e F0020000 		.4byte	.LVL101
 3161 0872 F3020000 		.4byte	.LVL102-1
 3162 0876 0800     		.2byte	0x8
 3163 0878 F5       		.byte	0xf5
 3164 0879 00       		.uleb128 0
 3165 087a 29       		.uleb128 0x29
 3166 087b F7       		.byte	0xf7
 3167 087c 30       		.uleb128 0x30
 3168 087d F7       		.byte	0xf7
 3169 087e 00       		.uleb128 0
 3170 087f 9F       		.byte	0x9f
 3171 0880 00000000 		.4byte	0
 3172 0884 00000000 		.4byte	0
 3173              	.LLST26:
 3174 0888 AA020000 		.4byte	.LVL89
 3175 088c 0E030000 		.4byte	.LVL105
 3176 0890 0600     		.2byte	0x6
 3177 0892 0C       		.byte	0xc
 3178 0893 A0860100 		.4byte	0x186a0
 3179 0897 9F       		.byte	0x9f
 3180 0898 00000000 		.4byte	0
 3181 089c 00000000 		.4byte	0
 3182              	.LLST27:
 3183 08a0 98030000 		.4byte	.LVL128
 3184 08a4 9F030000 		.4byte	.LVL129-1
 3185 08a8 0100     		.2byte	0x1
 3186 08aa 52       		.byte	0x52
 3187 08ab 00000000 		.4byte	0
 3188 08af 00000000 		.4byte	0
 3189              	.LLST28:
 3190 08b3 98030000 		.4byte	.LVL128
 3191 08b7 9F030000 		.4byte	.LVL129-1
ARM GAS  /tmp/cc1GwMDc.s 			page 57


 3192 08bb 0100     		.2byte	0x1
 3193 08bd 51       		.byte	0x51
 3194 08be 00000000 		.4byte	0
 3195 08c2 00000000 		.4byte	0
 3196              	.LLST29:
 3197 08c6 98030000 		.4byte	.LVL128
 3198 08ca A8030000 		.4byte	.LVL130
 3199 08ce 0100     		.2byte	0x1
 3200 08d0 58       		.byte	0x58
 3201 08d1 00000000 		.4byte	0
 3202 08d5 00000000 		.4byte	0
 3203              	.LLST30:
 3204 08d9 CC030000 		.4byte	.LVL139
 3205 08dd DC030000 		.4byte	.LVL141
 3206 08e1 0200     		.2byte	0x2
 3207 08e3 3A       		.byte	0x3a
 3208 08e4 9F       		.byte	0x9f
 3209 08e5 00000000 		.4byte	0
 3210 08e9 00000000 		.4byte	0
 3211              	.LLST31:
 3212 08ed CC030000 		.4byte	.LVL139
 3213 08f1 D3030000 		.4byte	.LVL140-1
 3214 08f5 0100     		.2byte	0x1
 3215 08f7 51       		.byte	0x51
 3216 08f8 00000000 		.4byte	0
 3217 08fc 00000000 		.4byte	0
 3218              	.LLST32:
 3219 0900 CC030000 		.4byte	.LVL139
 3220 0904 D3030000 		.4byte	.LVL140-1
 3221 0908 0100     		.2byte	0x1
 3222 090a 50       		.byte	0x50
 3223 090b 00000000 		.4byte	0
 3224 090f 00000000 		.4byte	0
 3225              		.section	.debug_aranges,"",%progbits
 3226 0000 24000000 		.4byte	0x24
 3227 0004 0200     		.2byte	0x2
 3228 0006 00000000 		.4byte	.Ldebug_info0
 3229 000a 04       		.byte	0x4
 3230 000b 00       		.byte	0
 3231 000c 0000     		.2byte	0
 3232 000e 0000     		.2byte	0
 3233 0010 00000000 		.4byte	.LFB7
 3234 0014 6C000000 		.4byte	.LFE7-.LFB7
 3235 0018 00000000 		.4byte	.LFB10
 3236 001c 4E040000 		.4byte	.LFE10-.LFB10
 3237 0020 00000000 		.4byte	0
 3238 0024 00000000 		.4byte	0
 3239              		.section	.debug_ranges,"",%progbits
 3240              	.Ldebug_ranges0:
 3241 0000 AA020000 		.4byte	.LBB8
 3242 0004 C6020000 		.4byte	.LBE8
 3243 0008 D2020000 		.4byte	.LBB12
 3244 000c D4020000 		.4byte	.LBE12
 3245 0010 D6020000 		.4byte	.LBB13
 3246 0014 06030000 		.4byte	.LBE13
 3247 0018 00000000 		.4byte	0
 3248 001c 00000000 		.4byte	0
ARM GAS  /tmp/cc1GwMDc.s 			page 58


 3249 0020 AA020000 		.4byte	.LBB9
 3250 0024 C6020000 		.4byte	.LBE9
 3251 0028 D2020000 		.4byte	.LBB10
 3252 002c D4020000 		.4byte	.LBE10
 3253 0030 D6020000 		.4byte	.LBB11
 3254 0034 06030000 		.4byte	.LBE11
 3255 0038 00000000 		.4byte	0
 3256 003c 00000000 		.4byte	0
 3257 0040 00000000 		.4byte	.LFB7
 3258 0044 6C000000 		.4byte	.LFE7
 3259 0048 00000000 		.4byte	.LFB10
 3260 004c 4E040000 		.4byte	.LFE10
 3261 0050 00000000 		.4byte	0
 3262 0054 00000000 		.4byte	0
 3263              		.section	.debug_line,"",%progbits
 3264              	.Ldebug_line0:
 3265 0000 FD020000 		.section	.debug_str,"MS",%progbits,1
 3265      02002C01 
 3265      00000201 
 3265      FB0E0D00 
 3265      01010101 
 3266              	.LASF4:
 3267 0000 73697A65 		.ascii	"size_t\000"
 3267      5F7400
 3268              	.LASF32:
 3269 0007 77696474 		.ascii	"width\000"
 3269      6800
 3270              	.LASF39:
 3271 000d 5F5F6170 		.ascii	"__ap\000"
 3271      00
 3272              	.LASF33:
 3273 0012 69735F6C 		.ascii	"is_long\000"
 3273      6F6E6700 
 3274              	.LASF5:
 3275 001a 756E7369 		.ascii	"unsigned int\000"
 3275      676E6564 
 3275      20696E74 
 3275      00
 3276              	.LASF16:
 3277 0027 626F6F6C 		.ascii	"bool_t\000"
 3277      5F7400
 3278              	.LASF40:
 3279 002e 6C6F6E67 		.ascii	"long_to_string_with_divisor\000"
 3279      5F746F5F 
 3279      73747269 
 3279      6E675F77 
 3279      6974685F 
 3280              	.LASF38:
 3281 004a 2F686F6D 		.ascii	"/home/ondra6ak/Documents/ARM/mlab-ChibiOSRT/demos/f"
 3281      652F6F6E 
 3281      64726136 
 3281      616B2F44 
 3281      6F63756D 
 3282 007d 6C6F6174 		.ascii	"loatingPoint\000"
 3282      696E6750 
 3282      6F696E74 
 3282      00
ARM GAS  /tmp/cc1GwMDc.s 			page 59


 3283              	.LASF7:
 3284 008a 75696E74 		.ascii	"uint8_t\000"
 3284      385F7400 
 3285              	.LASF1:
 3286 0092 666C6F61 		.ascii	"float\000"
 3286      7400
 3287              	.LASF3:
 3288 0098 76615F6C 		.ascii	"va_list\000"
 3288      69737400 
 3289              	.LASF25:
 3290 00a0 42617365 		.ascii	"BaseSequentialStream\000"
 3290      53657175 
 3290      656E7469 
 3290      616C5374 
 3290      7265616D 
 3291              	.LASF8:
 3292 00b5 756E7369 		.ascii	"unsigned char\000"
 3292      676E6564 
 3292      20636861 
 3292      7200
 3293              	.LASF13:
 3294 00c3 6C6F6E67 		.ascii	"long unsigned int\000"
 3294      20756E73 
 3294      69676E65 
 3294      6420696E 
 3294      7400
 3295              	.LASF10:
 3296 00d5 73686F72 		.ascii	"short unsigned int\000"
 3296      7420756E 
 3296      7369676E 
 3296      65642069 
 3296      6E7400
 3297              	.LASF23:
 3298 00e8 77726974 		.ascii	"write\000"
 3298      6500
 3299              	.LASF36:
 3300 00ee 474E5520 		.ascii	"GNU C 4.7.4 20130913 (release) [ARM/embedded-4_7-br"
 3300      4320342E 
 3300      372E3420 
 3300      32303133 
 3300      30393133 
 3301 0121 616E6368 		.ascii	"anch revision 202601]\000"
 3301      20726576 
 3301      6973696F 
 3301      6E203230 
 3301      32363031 
 3302              	.LASF41:
 3303 0137 63687072 		.ascii	"chprintf\000"
 3303      696E7466 
 3303      00
 3304              	.LASF0:
 3305 0140 646F7562 		.ascii	"double\000"
 3305      6C6500
 3306              	.LASF2:
 3307 0147 5F5F676E 		.ascii	"__gnuc_va_list\000"
 3307      75635F76 
 3307      615F6C69 
ARM GAS  /tmp/cc1GwMDc.s 			page 60


 3307      737400
 3308              	.LASF24:
 3309 0156 72656164 		.ascii	"read\000"
 3309      00
 3310              	.LASF31:
 3311 015b 66696C6C 		.ascii	"filler\000"
 3311      657200
 3312              	.LASF37:
 3313 0162 2E2E2F2E 		.ascii	"../../os/various/chprintf.c\000"
 3313      2E2F6F73 
 3313      2F766172 
 3313      696F7573 
 3313      2F636870 
 3314              	.LASF15:
 3315 017e 6C6F6E67 		.ascii	"long long unsigned int\000"
 3315      206C6F6E 
 3315      6720756E 
 3315      7369676E 
 3315      65642069 
 3316              	.LASF27:
 3317 0195 64697669 		.ascii	"divisor\000"
 3317      736F7200 
 3318              	.LASF26:
 3319 019d 72616469 		.ascii	"radix\000"
 3319      7800
 3320              	.LASF18:
 3321 01a3 6D73675F 		.ascii	"msg_t\000"
 3321      7400
 3322              	.LASF29:
 3323 01a9 66746F61 		.ascii	"ftoa\000"
 3323      00
 3324              	.LASF11:
 3325 01ae 696E7433 		.ascii	"int32_t\000"
 3325      325F7400 
 3326              	.LASF19:
 3327 01b6 73697A65 		.ascii	"sizetype\000"
 3327      74797065 
 3327      00
 3328              	.LASF35:
 3329 01bf 746D7062 		.ascii	"tmpbuf\000"
 3329      756600
 3330              	.LASF21:
 3331 01c6 5F5F7661 		.ascii	"__va_list\000"
 3331      5F6C6973 
 3331      7400
 3332              	.LASF14:
 3333 01d0 6C6F6E67 		.ascii	"long long int\000"
 3333      206C6F6E 
 3333      6720696E 
 3333      7400
 3334              	.LASF30:
 3335 01de 70726563 		.ascii	"precision\000"
 3335      6973696F 
 3335      6E00
 3336              	.LASF20:
 3337 01e8 63686172 		.ascii	"char\000"
 3337      00
ARM GAS  /tmp/cc1GwMDc.s 			page 61


 3338              	.LASF34:
 3339 01ed 6C656674 		.ascii	"left_align\000"
 3339      5F616C69 
 3339      676E00
 3340              	.LASF9:
 3341 01f8 73686F72 		.ascii	"short int\000"
 3341      7420696E 
 3341      7400
 3342              	.LASF42:
 3343 0202 756E7369 		.ascii	"unsigned_common\000"
 3343      676E6564 
 3343      5F636F6D 
 3343      6D6F6E00 
 3344              	.LASF12:
 3345 0212 6C6F6E67 		.ascii	"long int\000"
 3345      20696E74 
 3345      00
 3346              	.LASF6:
 3347 021b 7369676E 		.ascii	"signed char\000"
 3347      65642063 
 3347      68617200 
 3348              	.LASF28:
 3349 0227 6C746F61 		.ascii	"ltoa\000"
 3349      00
 3350              	.LASF17:
 3351 022c 5F426F6F 		.ascii	"_Bool\000"
 3351      6C00
 3352              	.LASF22:
 3353 0232 42617365 		.ascii	"BaseSequentialStreamVMT\000"
 3353      53657175 
 3353      656E7469 
 3353      616C5374 
 3353      7265616D 
 3354              		.ident	"GCC: (GNU Tools for ARM Embedded Processors) 4.7.4 20130913 (release) [ARM/embedded-4_7-br
ARM GAS  /tmp/cc1GwMDc.s 			page 62


DEFINED SYMBOLS
                            *ABS*:00000000 chprintf.c
     /tmp/cc1GwMDc.s:19     .text.long_to_string_with_divisor:00000000 $t
     /tmp/cc1GwMDc.s:24     .text.long_to_string_with_divisor:00000000 long_to_string_with_divisor
     /tmp/cc1GwMDc.s:136    .text.chprintf:00000000 $t
     /tmp/cc1GwMDc.s:142    .text.chprintf:00000000 chprintf
     /tmp/cc1GwMDc.s:306    .text.chprintf:000000ba $d
     /tmp/cc1GwMDc.s:362    .text.chprintf:00000124 $t
     /tmp/cc1GwMDc.s:924    .text.chprintf:00000400 $d
     /tmp/cc1GwMDc.s:930    .text.chprintf:0000040c $t
     /tmp/cc1GwMDc.s:988    .rodata.str1.4:00000000 $d
                     .debug_frame:00000010 $d

UNDEFINED SYMBOLS
__aeabi_d2f
__aeabi_fcmplt
__aeabi_f2iz
__aeabi_f2d
__aeabi_i2d
__aeabi_dsub
__aeabi_dmul
__aeabi_d2iz
