ARM GAS  /tmp/cc1GwMDc.s 			page 1


   1              		.syntax unified
   2              		.cpu cortex-m3
   3              		.fpu softvfp
   4              		.eabi_attribute 20, 1
   5              		.eabi_attribute 21, 1
   6              		.eabi_attribute 23, 3
   7              		.eabi_attribute 24, 1
   8              		.eabi_attribute 25, 1
   9              		.eabi_attribute 26, 1
  10              		.eabi_attribute 30, 2
  11              		.eabi_attribute 34, 1
  12              		.eabi_attribute 18, 4
  13              		.thumb
  14              		.file	"chprintf.c"
  15              		.text
  16              	.Ltext0:
  17              		.cfi_sections	.debug_frame
  18              		.section	.text.long_to_string_with_divisor,"ax",%progbits
  19              		.align	2
  20              		.p2align 4,,15
  21              		.thumb
  22              		.thumb_func
  23              		.type	long_to_string_with_divisor, %function
  24              	long_to_string_with_divisor:
  25              	.LFB7:
  26              		.file 1 "../../os/various/chprintf.c"
  27              		.loc 1 39 0
  28              		.cfi_startproc
  29              		@ args = 0, pretend = 0, frame = 0
  30              		@ frame_needed = 0, uses_anonymous_args = 0
  31              		@ link register save eliminated.
  32              	.LVL0:
  33 0000 F0B4     		push	{r4, r5, r6, r7}
  34              	.LCFI0:
  35              		.cfi_def_cfa_offset 16
  36              		.cfi_offset 4, -16
  37              		.cfi_offset 5, -12
  38              		.cfi_offset 6, -8
  39              		.cfi_offset 7, -4
  40              		.loc 1 46 0
  41 0002 002B     		cmp	r3, #0
  42 0004 08BF     		it	eq
  43 0006 0B46     		moveq	r3, r1
  44              	.LVL1:
  45              		.loc 1 39 0
  46 0008 0746     		mov	r7, r0
  47              	.LVL2:
  48              		.loc 1 51 0
  49 000a 00F10B0C 		add	ip, r0, #11
  50              	.LVL3:
  51              		.loc 1 36 0
  52 000e 00F10A05 		add	r5, r0, #10
  53              	.LVL4:
  54              	.L4:
  55              		.loc 1 53 0
  56 0012 B1FBF2F6 		udiv	r6, r1, r2
  57 0016 02FB1611 		mls	r1, r2, r6, r1
ARM GAS  /tmp/cc1GwMDc.s 			page 2


  58              	.LVL5:
  59              		.loc 1 54 0
  60 001a 01F13004 		add	r4, r1, #48
  61              	.LVL6:
  62              		.loc 1 55 0
  63 001e 392C     		cmp	r4, #57
  64              		.loc 1 56 0
  65 0020 C8BF     		it	gt
  66 0022 01F13704 		addgt	r4, r1, #55
  67              	.LVL7:
  68              		.loc 1 57 0
  69 0026 E4B2     		uxtb	r4, r4
  70              	.LVL8:
  71              		.loc 1 59 0
  72 0028 B3FBF2F3 		udiv	r3, r3, r2
  73              	.LVL9:
  74              		.loc 1 57 0
  75 002c 2846     		mov	r0, r5
  76              	.LVL10:
  77              		.loc 1 58 0
  78 002e 3146     		mov	r1, r6
  79              	.LVL11:
  80              		.loc 1 57 0
  81 0030 05F80149 		strb	r4, [r5], #-1
  82              	.LVL12:
  83              		.loc 1 59 0
  84 0034 002B     		cmp	r3, #0
  85 0036 ECD1     		bne	.L4
  86              	.LVL13:
  87              		.loc 1 61 0
  88 0038 C0EB0C03 		rsb	r3, r0, ip
  89              	.LVL14:
  90 003c F943     		mvns	r1, r7
  91              	.LVL15:
  92 003e 0246     		mov	r2, r0
  93              	.LVL16:
  94              		.loc 1 36 0
  95 0040 F818     		adds	r0, r7, r3
  96              	.LVL17:
  97 0042 4318     		adds	r3, r0, r1
  98              	.LVL18:
  99 0044 DB07     		lsls	r3, r3, #31
 100 0046 0AD5     		bpl	.L6
 101              	.LVL19:
 102              		.loc 1 63 0
 103 0048 07F8014B 		strb	r4, [r7], #1
 104              	.LVL20:
 105 004c 12F8014F 		ldrb	r4, [r2, #1]!	@ zero_extendqisi2
 106 0050 05E0     		b	.L6
 107              	.L17:
 108 0052 12F8014F 		ldrb	r4, [r2, #1]!	@ zero_extendqisi2
 109              	.LVL21:
 110 0056 7C70     		strb	r4, [r7, #1]
 111 0058 12F8014F 		ldrb	r4, [r2, #1]!	@ zero_extendqisi2
 112 005c 5F1C     		adds	r7, r3, #1
 113              	.LVL22:
 114              	.L6:
ARM GAS  /tmp/cc1GwMDc.s 			page 3


 115              		.loc 1 63 0 is_stmt 0 discriminator 1
 116 005e 3B46     		mov	r3, r7
 117 0060 03F8014B 		strb	r4, [r3], #1
 118              		.loc 1 64 0 is_stmt 1 discriminator 1
 119 0064 8342     		cmp	r3, r0
 120 0066 F4D1     		bne	.L17
 121              		.loc 1 67 0
 122 0068 F0BC     		pop	{r4, r5, r6, r7}
 123 006a 7047     		bx	lr
 124              		.cfi_endproc
 125              	.LFE7:
 126              		.size	long_to_string_with_divisor, .-long_to_string_with_divisor
 127              		.global	__aeabi_d2f
 128              		.global	__aeabi_fcmplt
 129              		.global	__aeabi_f2iz
 130              		.global	__aeabi_f2d
 131              		.global	__aeabi_i2d
 132              		.global	__aeabi_dsub
 133              		.global	__aeabi_dmul
 134              		.global	__aeabi_d2iz
 135 006c AFF30080 		.section	.text.chprintf,"ax",%progbits
 136              		.align	2
 137              		.p2align 4,,15
 138              		.global	chprintf
 139              		.thumb
 140              		.thumb_func
 141              		.type	chprintf, %function
 142              	chprintf:
 143              	.LFB10:
 144              		.loc 1 108 0
 145              		.cfi_startproc
 146              		@ args = 4, pretend = 12, frame = 48
 147              		@ frame_needed = 0, uses_anonymous_args = 1
 148              	.LVL23:
 149 0000 0EB4     		push	{r1, r2, r3}
 150              	.LCFI1:
 151              		.cfi_def_cfa_offset 12
 152              		.cfi_offset 1, -12
 153              		.cfi_offset 2, -8
 154              		.cfi_offset 3, -4
 155 0002 2DE9F04F 		push	{r4, r5, r6, r7, r8, r9, sl, fp, lr}
 156              	.LCFI2:
 157              		.cfi_def_cfa_offset 48
 158              		.cfi_offset 4, -48
 159              		.cfi_offset 5, -44
 160              		.cfi_offset 6, -40
 161              		.cfi_offset 7, -36
 162              		.cfi_offset 8, -32
 163              		.cfi_offset 9, -28
 164              		.cfi_offset 10, -24
 165              		.cfi_offset 11, -20
 166              		.cfi_offset 14, -16
 167 0006 8CB0     		sub	sp, sp, #48
 168              	.LCFI3:
 169              		.cfi_def_cfa_offset 96
 170              		.loc 1 108 0
 171 0008 15AB     		add	r3, sp, #84
ARM GAS  /tmp/cc1GwMDc.s 			page 4


 172              		.loc 1 236 0
 173 000a 0DF1190C 		add	ip, sp, #25
 174              		.loc 1 108 0
 175 000e 53F8044B 		ldr	r4, [r3], #4
 176              		.loc 1 132 0
 177 0012 0DF11808 		add	r8, sp, #24
 178              		.loc 1 236 0
 179 0016 CDF804C0 		str	ip, [sp, #4]
 180 001a C8EB0C0C 		rsb	ip, r8, ip
 181              		.loc 1 108 0
 182 001e 0646     		mov	r6, r0
 183              		.loc 1 121 0
 184 0020 0593     		str	r3, [sp, #20]
 185 0022 CDF808C0 		str	ip, [sp, #8]
 186              	.LVL24:
 187              	.L121:
 188              		.loc 1 123 0
 189 0026 2546     		mov	r5, r4
 190 0028 15F8011B 		ldrb	r1, [r5], #1	@ zero_extendqisi2
 191              	.LVL25:
 192              		.loc 1 124 0
 193 002c 59B1     		cbz	r1, .L120
 194              	.LVL26:
 195              	.L135:
 196              		.loc 1 128 0
 197 002e 2529     		cmp	r1, #37
 198 0030 0ED0     		beq	.L21
 199              		.loc 1 129 0
 200 0032 3468     		ldr	r4, [r6, #0]
 201 0034 3046     		mov	r0, r6
 202 0036 A368     		ldr	r3, [r4, #8]
 203              		.loc 1 123 0
 204 0038 2C46     		mov	r4, r5
 205 003a 2546     		mov	r5, r4
 206              	.LVL27:
 207              		.loc 1 129 0
 208 003c 9847     		blx	r3
 209              	.LVL28:
 210              		.loc 1 123 0
 211 003e 15F8011B 		ldrb	r1, [r5], #1	@ zero_extendqisi2
 212              	.LVL29:
 213              		.loc 1 124 0
 214 0042 0029     		cmp	r1, #0
 215 0044 F3D1     		bne	.L135
 216              	.LVL30:
 217              	.L120:
 218              		.loc 1 261 0
 219 0046 0CB0     		add	sp, sp, #48
 220 0048 BDE8F04F 		pop	{r4, r5, r6, r7, r8, r9, sl, fp, lr}
 221 004c 03B0     		add	sp, sp, #12
 222 004e 7047     		bx	lr
 223              	.L21:
 224              	.LVL31:
 225              		.loc 1 135 0
 226 0050 6378     		ldrb	r3, [r4, #1]	@ zero_extendqisi2
 227 0052 2D2B     		cmp	r3, #45
 228 0054 00F0CC81 		beq	.L136
ARM GAS  /tmp/cc1GwMDc.s 			page 5


 229              		.loc 1 134 0
 230 0058 4FF00009 		mov	r9, #0
 231              	.LVL32:
 232              	.L23:
 233              		.loc 1 140 0
 234 005c 2E2B     		cmp	r3, #46
 235 005e 00F0C381 		beq	.L24
 236              		.loc 1 140 0 is_stmt 0 discriminator 1
 237 0062 302B     		cmp	r3, #48
 238 0064 00F0C081 		beq	.L24
 239              		.loc 1 139 0 is_stmt 1
 240 0068 2027     		movs	r7, #32
 241              	.LVL33:
 242              	.L25:
 243              		.loc 1 142 0
 244 006a 2C46     		mov	r4, r5
 245 006c 0599     		ldr	r1, [sp, #20]
 246              		.loc 1 144 0
 247 006e 0025     		movs	r5, #0
 248              	.LVL34:
 249 0070 06E0     		b	.L28
 250              	.LVL35:
 251              	.L137:
 252              		.loc 1 150 0
 253 0072 0A78     		ldrb	r2, [r1, #0]	@ zero_extendqisi2
 254              	.LVL36:
 255 0074 0431     		adds	r1, r1, #4
 256              	.LVL37:
 257              	.L26:
 258              		.loc 1 153 0
 259 0076 05EB8505 		add	r5, r5, r5, lsl #2
 260              	.LVL38:
 261 007a 2378     		ldrb	r3, [r4, #0]	@ zero_extendqisi2
 262 007c 02EB4505 		add	r5, r2, r5, lsl #1
 263              	.LVL39:
 264              	.L28:
 265              		.loc 1 147 0
 266 0080 A3F13002 		sub	r2, r3, #48
 267 0084 D2B2     		uxtb	r2, r2
 268              		.loc 1 146 0
 269 0086 0134     		adds	r4, r4, #1
 270              	.LVL40:
 271              		.loc 1 147 0
 272 0088 092A     		cmp	r2, #9
 273 008a F4D9     		bls	.L26
 274              		.loc 1 149 0
 275 008c 2A2B     		cmp	r3, #42
 276 008e F0D0     		beq	.L137
 277              		.loc 1 156 0
 278 0090 0020     		movs	r0, #0
 279 0092 2E2B     		cmp	r3, #46
 280 0094 0591     		str	r1, [sp, #20]
 281              	.LVL41:
 282 0096 49D0     		beq	.L32
 283              	.LVL42:
 284              		.loc 1 170 0
 285 0098 6C2B     		cmp	r3, #108
ARM GAS  /tmp/cc1GwMDc.s 			page 6


 286 009a 55D0     		beq	.L33
 287              	.LVL43:
 288              	.L138:
 289              		.loc 1 170 0 is_stmt 0 discriminator 1
 290 009c 4C2B     		cmp	r3, #76
 291 009e 53D0     		beq	.L33
 292              		.loc 1 176 0 is_stmt 1
 293 00a0 A3F14101 		sub	r1, r3, #65
 294 00a4 1929     		cmp	r1, #25
 295 00a6 8CBF     		ite	hi
 296 00a8 0021     		movhi	r1, #0
 297 00aa 0121     		movls	r1, #1
 298              	.LVL44:
 299              	.L35:
 300              		.loc 1 179 0
 301 00ac A3F14402 		sub	r2, r3, #68
 302 00b0 342A     		cmp	r2, #52
 303 00b2 00F29381 		bhi	.L36
 304 00b6 DFE812F0 		tbh	[pc, r2, lsl #1]
 305              	.L44:
 306 00ba 8101     		.2byte	(.L37-.L44)/2
 307 00bc 9101     		.2byte	(.L36-.L44)/2
 308 00be 9101     		.2byte	(.L36-.L44)/2
 309 00c0 9101     		.2byte	(.L36-.L44)/2
 310 00c2 9101     		.2byte	(.L36-.L44)/2
 311 00c4 8101     		.2byte	(.L37-.L44)/2
 312 00c6 9101     		.2byte	(.L36-.L44)/2
 313 00c8 9101     		.2byte	(.L36-.L44)/2
 314 00ca 9101     		.2byte	(.L36-.L44)/2
 315 00cc 9101     		.2byte	(.L36-.L44)/2
 316 00ce 9101     		.2byte	(.L36-.L44)/2
 317 00d0 7F01     		.2byte	(.L38-.L44)/2
 318 00d2 9101     		.2byte	(.L36-.L44)/2
 319 00d4 9101     		.2byte	(.L36-.L44)/2
 320 00d6 9101     		.2byte	(.L36-.L44)/2
 321 00d8 9101     		.2byte	(.L36-.L44)/2
 322 00da 9101     		.2byte	(.L36-.L44)/2
 323 00dc 7701     		.2byte	(.L69-.L44)/2
 324 00de 9101     		.2byte	(.L36-.L44)/2
 325 00e0 9101     		.2byte	(.L36-.L44)/2
 326 00e2 6901     		.2byte	(.L40-.L44)/2
 327 00e4 9101     		.2byte	(.L36-.L44)/2
 328 00e6 9101     		.2byte	(.L36-.L44)/2
 329 00e8 9101     		.2byte	(.L36-.L44)/2
 330 00ea 9101     		.2byte	(.L36-.L44)/2
 331 00ec 9101     		.2byte	(.L36-.L44)/2
 332 00ee 9101     		.2byte	(.L36-.L44)/2
 333 00f0 9101     		.2byte	(.L36-.L44)/2
 334 00f2 9101     		.2byte	(.L36-.L44)/2
 335 00f4 9101     		.2byte	(.L36-.L44)/2
 336 00f6 9101     		.2byte	(.L36-.L44)/2
 337 00f8 2A01     		.2byte	(.L41-.L44)/2
 338 00fa 8101     		.2byte	(.L37-.L44)/2
 339 00fc 9101     		.2byte	(.L36-.L44)/2
 340 00fe E500     		.2byte	(.L42-.L44)/2
 341 0100 9101     		.2byte	(.L36-.L44)/2
 342 0102 9101     		.2byte	(.L36-.L44)/2
ARM GAS  /tmp/cc1GwMDc.s 			page 7


 343 0104 8101     		.2byte	(.L37-.L44)/2
 344 0106 9101     		.2byte	(.L36-.L44)/2
 345 0108 9101     		.2byte	(.L36-.L44)/2
 346 010a 9101     		.2byte	(.L36-.L44)/2
 347 010c 9101     		.2byte	(.L36-.L44)/2
 348 010e 9101     		.2byte	(.L36-.L44)/2
 349 0110 7F01     		.2byte	(.L38-.L44)/2
 350 0112 9101     		.2byte	(.L36-.L44)/2
 351 0114 9101     		.2byte	(.L36-.L44)/2
 352 0116 9101     		.2byte	(.L36-.L44)/2
 353 0118 4F00     		.2byte	(.L43-.L44)/2
 354 011a 9101     		.2byte	(.L36-.L44)/2
 355 011c 7701     		.2byte	(.L69-.L44)/2
 356 011e 9101     		.2byte	(.L36-.L44)/2
 357 0120 9101     		.2byte	(.L36-.L44)/2
 358 0122 6901     		.2byte	(.L40-.L44)/2
 359              	.LVL45:
 360              	.L31:
 361              		.loc 1 162 0
 362 0124 0A78     		ldrb	r2, [r1, #0]	@ zero_extendqisi2
 363              	.LVL46:
 364 0126 0431     		adds	r1, r1, #4
 365              	.LVL47:
 366              	.L30:
 367              		.loc 1 166 0
 368 0128 02EB4A00 		add	r0, r2, sl, lsl #1
 369              	.LVL48:
 370              	.L32:
 371              		.loc 1 158 0
 372 012c 14F8013B 		ldrb	r3, [r4], #1	@ zero_extendqisi2
 373              	.LVL49:
 374              		.loc 1 165 0
 375 0130 00EB800A 		add	sl, r0, r0, lsl #2
 376              		.loc 1 159 0
 377 0134 A3F13002 		sub	r2, r3, #48
 378 0138 D2B2     		uxtb	r2, r2
 379 013a 092A     		cmp	r2, #9
 380 013c F4D9     		bls	.L30
 381              		.loc 1 161 0
 382 013e 2A2B     		cmp	r3, #42
 383 0140 F0D0     		beq	.L31
 384              		.loc 1 170 0
 385 0142 6C2B     		cmp	r3, #108
 386 0144 0591     		str	r1, [sp, #20]
 387 0146 A9D1     		bne	.L138
 388              	.LVL50:
 389              	.L33:
 390              		.loc 1 172 0
 391 0148 2178     		ldrb	r1, [r4, #0]	@ zero_extendqisi2
 392 014a 0029     		cmp	r1, #0
 393 014c 00F05581 		beq	.L68
 394              	.LVL51:
 395              		.loc 1 173 0
 396 0150 0B46     		mov	r3, r1
 397 0152 0134     		adds	r4, r4, #1
 398              	.LVL52:
 399              		.loc 1 171 0
ARM GAS  /tmp/cc1GwMDc.s 			page 8


 400 0154 0121     		movs	r1, #1
 401 0156 A9E7     		b	.L35
 402              	.LVL53:
 403              	.L43:
 404              		.loc 1 186 0
 405 0158 059F     		ldr	r7, [sp, #20]
 406              		.loc 1 187 0
 407 015a AB49     		ldr	r1, .L144+8
 408              	.LVL54:
 409              		.loc 1 186 0
 410 015c 3B68     		ldr	r3, [r7, #0]
 411              	.LVL55:
 412 015e 3A1D     		adds	r2, r7, #4
 413              	.LVL56:
 414              		.loc 1 187 0
 415 0160 002B     		cmp	r3, #0
 416 0162 14BF     		ite	ne
 417 0164 9A46     		movne	sl, r3
 418 0166 8A46     		moveq	sl, r1
 419              	.LVL57:
 420              		.loc 1 190 0
 421 0168 9AF80070 		ldrb	r7, [sl, #0]	@ zero_extendqisi2
 422              		.loc 1 189 0
 423 016c 47F6FF73 		movw	r3, #32767
 424              		.loc 1 186 0
 425 0170 0592     		str	r2, [sp, #20]
 426              		.loc 1 189 0
 427 0172 0028     		cmp	r0, #0
 428 0174 08BF     		it	eq
 429 0176 1846     		moveq	r0, r3
 430              	.LVL58:
 431              		.loc 1 190 0
 432 0178 002F     		cmp	r7, #0
 433 017a 00F06581 		beq	.L72
 434 017e 9AF80170 		ldrb	r7, [sl, #1]	@ zero_extendqisi2
 435 0182 421E     		subs	r2, r0, #1
 436 0184 0AEB000B 		add	fp, sl, r0
 437 0188 02F00100 		and	r0, r2, #1
 438              		.loc 1 108 0
 439 018c 0AF10102 		add	r2, sl, #1
 440              	.LVL59:
 441              		.loc 1 190 0
 442 0190 002F     		cmp	r7, #0
 443 0192 73D0     		beq	.L122
 444 0194 9345     		cmp	fp, r2
 445 0196 1346     		mov	r3, r2
 446 0198 08D0     		beq	.L124
 447 019a 0028     		cmp	r0, #0
 448 019c 69D0     		beq	.L49
 449 019e 5178     		ldrb	r1, [r2, #1]	@ zero_extendqisi2
 450              		.loc 1 108 0
 451 01a0 0132     		adds	r2, r2, #1
 452              	.LVL60:
 453              		.loc 1 190 0
 454 01a2 0029     		cmp	r1, #0
 455 01a4 6AD0     		beq	.L122
 456 01a6 9345     		cmp	fp, r2
ARM GAS  /tmp/cc1GwMDc.s 			page 9


 457 01a8 1346     		mov	r3, r2
 458 01aa 62D1     		bne	.L49
 459              	.LVL61:
 460              	.L124:
 461 01ac CAEB0B0B 		rsb	fp, sl, fp
 462              		.loc 1 240 0
 463 01b0 CBEB0505 		rsb	r5, fp, r5
 464              	.LVL62:
 465              		.loc 1 185 0
 466 01b4 2027     		movs	r7, #32
 467              	.LVL63:
 468 01b6 25EAE575 		bic	r5, r5, r5, asr #31
 469              	.LVL64:
 470              		.loc 1 242 0
 471 01ba B9F1000F 		cmp	r9, #0
 472 01be 00F0B880 		beq	.L139
 473              	.LVL65:
 474              	.L57:
 475              		.loc 1 253 0 discriminator 1
 476 01c2 BBF1000F 		cmp	fp, #0
 477 01c6 27DD     		ble	.L63
 478              		.loc 1 254 0
 479 01c8 D146     		mov	r9, sl
 480 01ca 3068     		ldr	r0, [r6, #0]
 481 01cc 19F8011B 		ldrb	r1, [r9], #1	@ zero_extendqisi2
 482              		.loc 1 108 0
 483 01d0 D344     		add	fp, sl, fp
 484              	.LVL66:
 485 01d2 6FEA0A0E 		mvn	lr, sl
 486              		.loc 1 254 0
 487 01d6 8268     		ldr	r2, [r0, #8]
 488 01d8 3046     		mov	r0, r6
 489 01da 0BEB0E0A 		add	sl, fp, lr
 490              	.LVL67:
 491 01de 9047     		blx	r2
 492              	.LVL68:
 493              		.loc 1 253 0
 494 01e0 D945     		cmp	r9, fp
 495 01e2 0AF0010A 		and	sl, sl, #1
 496              	.LVL69:
 497 01e6 17D0     		beq	.L63
 498 01e8 BAF1000F 		cmp	sl, #0
 499 01ec 03D0     		beq	.L62
 500              	.LVL70:
 501              		.loc 1 254 0
 502 01ee 3368     		ldr	r3, [r6, #0]
 503 01f0 19F8011B 		ldrb	r1, [r9], #1	@ zero_extendqisi2
 504 01f4 0BE0     		b	.L134
 505              	.L62:
 506 01f6 3068     		ldr	r0, [r6, #0]
 507 01f8 CA46     		mov	sl, r9
 508 01fa 1AF8011B 		ldrb	r1, [sl], #1	@ zero_extendqisi2
 509 01fe 8268     		ldr	r2, [r0, #8]
 510 0200 3046     		mov	r0, r6
 511 0202 9047     		blx	r2
 512              	.LVL71:
 513 0204 3368     		ldr	r3, [r6, #0]
ARM GAS  /tmp/cc1GwMDc.s 			page 10


 514 0206 99F80110 		ldrb	r1, [r9, #1]	@ zero_extendqisi2
 515 020a 0AF10109 		add	r9, sl, #1
 516              	.L134:
 517 020e 9A68     		ldr	r2, [r3, #8]
 518 0210 3046     		mov	r0, r6
 519 0212 9047     		blx	r2
 520              	.LVL72:
 521              		.loc 1 253 0
 522 0214 D945     		cmp	r9, fp
 523 0216 EED1     		bne	.L62
 524              	.L63:
 525              	.LVL73:
 526              		.loc 1 256 0
 527 0218 002D     		cmp	r5, #0
 528 021a 3FF404AF 		beq	.L121
 529              		.loc 1 257 0
 530 021e 3168     		ldr	r1, [r6, #0]
 531 0220 6B1E     		subs	r3, r5, #1
 532 0222 8A68     		ldr	r2, [r1, #8]
 533              		.loc 1 256 0
 534 0224 1D46     		mov	r5, r3
 535              	.LVL74:
 536              		.loc 1 257 0
 537 0226 3046     		mov	r0, r6
 538 0228 3946     		mov	r1, r7
 539 022a 03F00109 		and	r9, r3, #1
 540 022e 9047     		blx	r2
 541              	.LVL75:
 542              		.loc 1 256 0
 543 0230 002D     		cmp	r5, #0
 544 0232 3FF4F8AE 		beq	.L121
 545 0236 B9F1000F 		cmp	r9, #0
 546 023a 07D0     		beq	.L82
 547              		.loc 1 257 0
 548 023c 3168     		ldr	r1, [r6, #0]
 549 023e 3046     		mov	r0, r6
 550 0240 8B68     		ldr	r3, [r1, #8]
 551 0242 3946     		mov	r1, r7
 552 0244 9847     		blx	r3
 553              	.LVL76:
 554              		.loc 1 256 0
 555 0246 013D     		subs	r5, r5, #1
 556 0248 3FF4EDAE 		beq	.L121
 557              	.L82:
 558              		.loc 1 257 0
 559 024c 3068     		ldr	r0, [r6, #0]
 560 024e 3946     		mov	r1, r7
 561 0250 8268     		ldr	r2, [r0, #8]
 562 0252 3046     		mov	r0, r6
 563 0254 9047     		blx	r2
 564              	.LVL77:
 565 0256 3168     		ldr	r1, [r6, #0]
 566              		.loc 1 258 0
 567 0258 013D     		subs	r5, r5, #1
 568              		.loc 1 257 0
 569 025a 8B68     		ldr	r3, [r1, #8]
 570 025c 3046     		mov	r0, r6
ARM GAS  /tmp/cc1GwMDc.s 			page 11


 571 025e 3946     		mov	r1, r7
 572 0260 9847     		blx	r3
 573              	.LVL78:
 574              		.loc 1 256 0
 575 0262 013D     		subs	r5, r5, #1
 576 0264 F2D1     		bne	.L82
 577 0266 DEE6     		b	.L121
 578              	.LVL79:
 579              	.L48:
 580              		.loc 1 190 0 discriminator 2
 581 0268 5178     		ldrb	r1, [r2, #1]	@ zero_extendqisi2
 582              		.loc 1 108 0 discriminator 2
 583 026a 0132     		adds	r2, r2, #1
 584              	.LVL80:
 585              		.loc 1 190 0 discriminator 2
 586 026c 31B1     		cbz	r1, .L122
 587              		.loc 1 190 0 is_stmt 0
 588 026e 9B45     		cmp	fp, r3
 589 0270 9CD0     		beq	.L124
 590              	.L49:
 591              		.loc 1 190 0 discriminator 1
 592 0272 5F78     		ldrb	r7, [r3, #1]	@ zero_extendqisi2
 593              		.loc 1 108 0 is_stmt 1 discriminator 1
 594 0274 5A1C     		adds	r2, r3, #1
 595              	.LVL81:
 596 0276 531C     		adds	r3, r2, #1
 597              		.loc 1 190 0 discriminator 1
 598 0278 002F     		cmp	r7, #0
 599 027a F5D1     		bne	.L48
 600              	.LVL82:
 601              	.L122:
 602 027c CAEB020B 		rsb	fp, sl, r2
 603              		.loc 1 185 0
 604 0280 2027     		movs	r7, #32
 605 0282 4EE0     		b	.L45
 606              	.LVL83:
 607              	.L42:
 608              		.loc 1 209 0
 609 0284 059A     		ldr	r2, [sp, #20]
 610 0286 D01D     		adds	r0, r2, #7
 611              	.LVL84:
 612 0288 20F00703 		bic	r3, r0, #7
 613              	.LVL85:
 614 028c 03F10802 		add	r2, r3, #8
 615 0290 D3E90001 		ldrd	r0, [r3]
 616 0294 0592     		str	r2, [sp, #20]
 617 0296 FFF7FEFF 		bl	__aeabi_d2f
 618              	.LVL86:
 619              		.loc 1 210 0
 620 029a 0021     		movs	r1, #0
 621              		.loc 1 209 0
 622 029c 8246     		mov	sl, r0
 623              	.LVL87:
 624              		.loc 1 210 0
 625 029e FFF7FEFF 		bl	__aeabi_fcmplt
 626              	.LVL88:
 627 02a2 0028     		cmp	r0, #0
ARM GAS  /tmp/cc1GwMDc.s 			page 12


 628 02a4 40F0C880 		bne	.L140
 629              		.loc 1 132 0
 630 02a8 C346     		mov	fp, r8
 631              	.LVL89:
 632              	.L53:
 633              	.LBB8:
 634              	.LBB9:
 635              		.loc 1 79 0
 636 02aa 5046     		mov	r0, sl
 637 02ac FFF7FEFF 		bl	__aeabi_f2iz
 638              	.LVL90:
 639 02b0 0390     		str	r0, [sp, #12]
 640              	.LVL91:
 641              		.loc 1 80 0
 642 02b2 0A22     		movs	r2, #10
 643 02b4 0023     		movs	r3, #0
 644 02b6 5846     		mov	r0, fp
 645              	.LVL92:
 646 02b8 0399     		ldr	r1, [sp, #12]
 647 02ba FFF7FEFF 		bl	long_to_string_with_divisor
 648              	.LVL93:
 649              		.loc 1 81 0
 650 02be 8446     		mov	ip, r0
 651 02c0 2E20     		movs	r0, #46
 652              	.LVL94:
 653 02c2 0CF8010B 		strb	r0, [ip], #1
 654              	.LVL95:
 655              	.LBE9:
 656              	.LBE8:
 657              		.loc 1 214 0
 658 02c6 5046     		mov	r0, sl
 659 02c8 CDF800C0 		str	ip, [sp, #0]
 660 02cc FFF7FEFF 		bl	__aeabi_f2d
 661              	.LVL96:
 662 02d0 8246     		mov	sl, r0
 663              	.LVL97:
 664              	.LBB12:
 665              	.LBB10:
 666              		.loc 1 82 0
 667 02d2 0398     		ldr	r0, [sp, #12]
 668              	.LBE10:
 669              	.LBE12:
 670              		.loc 1 214 0
 671 02d4 8B46     		mov	fp, r1
 672              	.LVL98:
 673              	.LBB13:
 674              	.LBB11:
 675              		.loc 1 82 0
 676 02d6 FFF7FEFF 		bl	__aeabi_i2d
 677              	.LVL99:
 678 02da 0246     		mov	r2, r0
 679 02dc 0B46     		mov	r3, r1
 680 02de 5046     		mov	r0, sl
 681 02e0 5946     		mov	r1, fp
 682 02e2 FFF7FEFF 		bl	__aeabi_dsub
 683              	.LVL100:
 684 02e6 46A3     		adr	r3, .L144
ARM GAS  /tmp/cc1GwMDc.s 			page 13


 685 02e8 D3E90023 		ldrd	r2, [r3]
 686 02ec FFF7FEFF 		bl	__aeabi_dmul
 687              	.LVL101:
 688 02f0 FFF7FEFF 		bl	__aeabi_d2iz
 689              	.LVL102:
 690              		.loc 1 83 0
 691 02f4 DDF800C0 		ldr	ip, [sp, #0]
 692              	.LVL103:
 693              		.loc 1 82 0
 694 02f8 0146     		mov	r1, r0
 695              		.loc 1 83 0
 696 02fa 0A22     		movs	r2, #10
 697 02fc 6046     		mov	r0, ip
 698 02fe 42F21073 		movw	r3, #10000
 699 0302 FFF7FEFF 		bl	long_to_string_with_divisor
 700              	.LVL104:
 701              	.LBE11:
 702              	.LBE13:
 703              		.loc 1 133 0
 704 0306 C246     		mov	sl, r8
 705 0308 C8EB000B 		rsb	fp, r8, r0
 706              		.loc 1 215 0
 707 030c 09E0     		b	.L45
 708              	.LVL105:
 709              	.L41:
 710              		.loc 1 182 0
 711 030e 059F     		ldr	r7, [sp, #20]
 712 0310 DDF808B0 		ldr	fp, [sp, #8]
 713 0314 3A68     		ldr	r2, [r7, #0]
 714 0316 3B1D     		adds	r3, r7, #4
 715              	.LVL106:
 716 0318 0593     		str	r3, [sp, #20]
 717 031a 8DF81820 		strb	r2, [sp, #24]
 718              	.LVL107:
 719              		.loc 1 181 0
 720 031e 2027     		movs	r7, #32
 721              		.loc 1 133 0
 722 0320 C246     		mov	sl, r8
 723              	.LVL108:
 724              	.L45:
 725              		.loc 1 240 0
 726 0322 CBEB0505 		rsb	r5, fp, r5
 727              	.LVL109:
 728 0326 25EAE575 		bic	r5, r5, r5, asr #31
 729              	.LVL110:
 730              		.loc 1 242 0
 731 032a B9F1000F 		cmp	r9, #0
 732 032e 7FF448AF 		bne	.L57
 733              	.LVL111:
 734              	.L139:
 735              		.loc 1 243 0
 736 0332 6D42     		negs	r5, r5
 737              	.LVL112:
 738              		.loc 1 244 0
 739 0334 002D     		cmp	r5, #0
 740 0336 3FF444AF 		beq	.L57
 741              		.loc 1 245 0
ARM GAS  /tmp/cc1GwMDc.s 			page 14


 742 033a 9AF80010 		ldrb	r1, [sl, #0]	@ zero_extendqisi2
 743 033e 2D29     		cmp	r1, #45
 744 0340 6FD0     		beq	.L141
 745              	.L107:
 746              		.loc 1 250 0
 747 0342 3168     		ldr	r1, [r6, #0]
 748 0344 3046     		mov	r0, r6
 749 0346 8B68     		ldr	r3, [r1, #8]
 750 0348 3946     		mov	r1, r7
 751 034a 6FEA0509 		mvn	r9, r5
 752              	.LVL113:
 753 034e 9847     		blx	r3
 754              	.LVL114:
 755              		.loc 1 251 0
 756 0350 0135     		adds	r5, r5, #1
 757              	.LVL115:
 758 0352 09F00109 		and	r9, r9, #1
 759              	.LVL116:
 760 0356 3FF434AF 		beq	.L57
 761 035a B9F1000F 		cmp	r9, #0
 762 035e 07D0     		beq	.L83
 763              	.LVL117:
 764              		.loc 1 250 0
 765 0360 3268     		ldr	r2, [r6, #0]
 766 0362 3046     		mov	r0, r6
 767 0364 9368     		ldr	r3, [r2, #8]
 768 0366 3946     		mov	r1, r7
 769 0368 9847     		blx	r3
 770              	.LVL118:
 771              		.loc 1 251 0
 772 036a 0135     		adds	r5, r5, #1
 773              	.LVL119:
 774 036c 3FF429AF 		beq	.L57
 775              	.LVL120:
 776              	.L83:
 777              		.loc 1 250 0 discriminator 1
 778 0370 3068     		ldr	r0, [r6, #0]
 779 0372 3946     		mov	r1, r7
 780 0374 8268     		ldr	r2, [r0, #8]
 781 0376 3046     		mov	r0, r6
 782 0378 9047     		blx	r2
 783              	.LVL121:
 784 037a 3168     		ldr	r1, [r6, #0]
 785              		.loc 1 251 0 discriminator 1
 786 037c 0135     		adds	r5, r5, #1
 787              	.LVL122:
 788              		.loc 1 250 0 discriminator 1
 789 037e 8B68     		ldr	r3, [r1, #8]
 790 0380 3046     		mov	r0, r6
 791 0382 3946     		mov	r1, r7
 792 0384 9847     		blx	r3
 793              	.LVL123:
 794              		.loc 1 251 0 discriminator 1
 795 0386 0135     		adds	r5, r5, #1
 796              	.LVL124:
 797 0388 F2D1     		bne	.L83
 798 038a 1AE7     		b	.L57
ARM GAS  /tmp/cc1GwMDc.s 			page 15


 799              	.LVL125:
 800              	.L40:
 801              		.loc 1 179 0
 802 038c 1022     		movs	r2, #16
 803              	.LVL126:
 804              	.L39:
 805              		.loc 1 230 0
 806 038e 059B     		ldr	r3, [sp, #20]
 807              		.loc 1 229 0
 808 0390 71B1     		cbz	r1, .L55
 809              	.L142:
 810              		.loc 1 230 0
 811 0392 191D     		adds	r1, r3, #4
 812              	.LVL127:
 813 0394 0591     		str	r1, [sp, #20]
 814 0396 1968     		ldr	r1, [r3, #0]
 815              	.LVL128:
 816              	.L56:
 817              	.LBB14:
 818              	.LBB15:
 819              		.loc 1 71 0
 820 0398 4046     		mov	r0, r8
 821 039a 0023     		movs	r3, #0
 822 039c FFF7FEFF 		bl	long_to_string_with_divisor
 823              	.LVL129:
 824              	.LBE15:
 825              	.LBE14:
 826              		.loc 1 133 0
 827 03a0 C246     		mov	sl, r8
 828 03a2 C8EB000B 		rsb	fp, r8, r0
 829              		.loc 1 234 0
 830 03a6 BCE7     		b	.L45
 831              	.LVL130:
 832              	.L69:
 833              		.loc 1 179 0
 834 03a8 0A22     		movs	r2, #10
 835              	.LVL131:
 836              		.loc 1 230 0
 837 03aa 059B     		ldr	r3, [sp, #20]
 838              		.loc 1 229 0
 839 03ac 0029     		cmp	r1, #0
 840 03ae F0D1     		bne	.L142
 841              	.L55:
 842              		.loc 1 232 0
 843 03b0 181D     		adds	r0, r3, #4
 844              	.LVL132:
 845 03b2 1968     		ldr	r1, [r3, #0]
 846              	.LVL133:
 847 03b4 0590     		str	r0, [sp, #20]
 848 03b6 EFE7     		b	.L56
 849              	.LVL134:
 850              	.L38:
 851 03b8 0822     		movs	r2, #8
 852 03ba E8E7     		b	.L39
 853              	.LVL135:
 854              	.L37:
 855              		.loc 1 198 0
ARM GAS  /tmp/cc1GwMDc.s 			page 16


 856 03bc 059B     		ldr	r3, [sp, #20]
 857              	.LVL136:
 858 03be 1A1D     		adds	r2, r3, #4
 859              	.LVL137:
 860              		.loc 1 197 0
 861 03c0 21B3     		cbz	r1, .L50
 862              		.loc 1 198 0
 863 03c2 1968     		ldr	r1, [r3, #0]
 864              	.LVL138:
 865 03c4 0592     		str	r2, [sp, #20]
 866              		.loc 1 201 0
 867 03c6 0029     		cmp	r1, #0
 868 03c8 24DB     		blt	.L143
 869              	.L73:
 870              		.loc 1 132 0
 871 03ca 4046     		mov	r0, r8
 872              	.LVL139:
 873              	.L52:
 874              	.LBB16:
 875              	.LBB17:
 876              		.loc 1 71 0
 877 03cc 0A22     		movs	r2, #10
 878 03ce 0023     		movs	r3, #0
 879 03d0 FFF7FEFF 		bl	long_to_string_with_divisor
 880              	.LVL140:
 881              	.LBE17:
 882              	.LBE16:
 883              		.loc 1 133 0
 884 03d4 C246     		mov	sl, r8
 885 03d6 C8EB000B 		rsb	fp, r8, r0
 886              		.loc 1 206 0
 887 03da A2E7     		b	.L45
 888              	.LVL141:
 889              	.L36:
 890              		.loc 1 236 0
 891 03dc 8DF81830 		strb	r3, [sp, #24]
 892              	.LVL142:
 893 03e0 DDF808B0 		ldr	fp, [sp, #8]
 894              		.loc 1 133 0
 895 03e4 C246     		mov	sl, r8
 896              		.loc 1 237 0
 897 03e6 9CE7     		b	.L45
 898              	.LVL143:
 899              	.L24:
 900 03e8 6B78     		ldrb	r3, [r5, #1]	@ zero_extendqisi2
 901              		.loc 1 142 0
 902 03ea 3027     		movs	r7, #48
 903              		.loc 1 141 0
 904 03ec 0135     		adds	r5, r5, #1
 905              	.LVL144:
 906 03ee 3CE6     		b	.L25
 907              	.LVL145:
 908              	.L136:
 909              		.loc 1 136 0
 910 03f0 A51C     		adds	r5, r4, #2
 911              	.LVL146:
 912 03f2 A378     		ldrb	r3, [r4, #2]	@ zero_extendqisi2
ARM GAS  /tmp/cc1GwMDc.s 			page 17


 913              		.loc 1 137 0
 914 03f4 4FF00109 		mov	r9, #1
 915 03f8 30E6     		b	.L23
 916              	.LVL147:
 917              	.L68:
 918              		.loc 1 171 0
 919 03fa 0121     		movs	r1, #1
 920 03fc 56E6     		b	.L35
 921              	.L145:
 922 03fe 00BF     		.align	3
 923              	.L144:
 924 0400 00000000 		.word	0
 925 0404 006AF840 		.word	1090021888
 926 0408 00000000 		.word	.LC0
 927              	.LVL148:
 928              	.L50:
 929              		.loc 1 200 0
 930 040c 1968     		ldr	r1, [r3, #0]
 931              	.LVL149:
 932 040e 0592     		str	r2, [sp, #20]
 933              		.loc 1 201 0
 934 0410 0029     		cmp	r1, #0
 935 0412 DADA     		bge	.L73
 936              	.L143:
 937              		.loc 1 202 0
 938 0414 2D20     		movs	r0, #45
 939              	.LVL150:
 940 0416 8DF81800 		strb	r0, [sp, #24]
 941              	.LVL151:
 942              		.loc 1 203 0
 943 041a 4942     		negs	r1, r1
 944              	.LVL152:
 945              		.loc 1 202 0
 946 041c 0DF11900 		add	r0, sp, #25
 947 0420 D4E7     		b	.L52
 948              	.LVL153:
 949              	.L141:
 950              		.loc 1 245 0 discriminator 1
 951 0422 302F     		cmp	r7, #48
 952 0424 8DD1     		bne	.L107
 953              		.loc 1 246 0
 954 0426 3368     		ldr	r3, [r6, #0]
 955 0428 3046     		mov	r0, r6
 956 042a 9A68     		ldr	r2, [r3, #8]
 957 042c 9047     		blx	r2
 958              	.LVL154:
 959 042e 0AF1010A 		add	sl, sl, #1
 960              	.LVL155:
 961              		.loc 1 247 0
 962 0432 0BF1FF3B 		add	fp, fp, #-1
 963              	.LVL156:
 964 0436 84E7     		b	.L107
 965              	.LVL157:
 966              	.L140:
 967              		.loc 1 211 0
 968 0438 2D21     		movs	r1, #45
 969              		.loc 1 212 0
ARM GAS  /tmp/cc1GwMDc.s 			page 18


 970 043a 0AF1004A 		add	sl, sl, #-2147483648
 971              	.LVL158:
 972              		.loc 1 211 0
 973 043e 8DF81810 		strb	r1, [sp, #24]
 974              	.LVL159:
 975 0442 0DF1190B 		add	fp, sp, #25
 976 0446 30E7     		b	.L53
 977              	.LVL160:
 978              	.L72:
 979              		.loc 1 190 0
 980 0448 BB46     		mov	fp, r7
 981              		.loc 1 185 0
 982 044a 2027     		movs	r7, #32
 983 044c 69E7     		b	.L45
 984              		.cfi_endproc
 985              	.LFE10:
 986              		.size	chprintf, .-chprintf
 987 044e 00BF     		.section	.rodata.str1.4,"aMS",%progbits,1
 988              		.align	2
 989              	.LC0:
 990 0000 286E756C 		.ascii	"(null)\000"
 990      6C2900
 991 0007 00       		.text
 992              	.Letext0:
 993              		.file 2 "/usr/bin/../lib/gcc/arm-none-eabi/4.7.4/include/stdarg.h"
 994              		.file 3 "/usr/bin/../lib/gcc/arm-none-eabi/4.7.4/include/stddef.h"
 995              		.file 4 "/usr/bin/../lib/gcc/arm-none-eabi/4.7.4/../../../../arm-none-eabi/include/stdint.h"
 996              		.file 5 "../../os/ports/GCC/ARMCMx/chtypes.h"
 997              		.file 6 "<built-in>"
 998              		.file 7 "../../os/kernel/include/chstreams.h"