ARM GAS  /tmp/cczr1hNt.s 			page 1


   1              		.syntax unified
   2              		.cpu cortex-m3
   3              		.fpu softvfp
   4              		.eabi_attribute 20, 1
   5              		.eabi_attribute 21, 1
   6              		.eabi_attribute 23, 3
   7              		.eabi_attribute 24, 1
   8              		.eabi_attribute 25, 1
   9              		.eabi_attribute 26, 1
  10              		.eabi_attribute 30, 2
  11              		.eabi_attribute 34, 1
  12              		.eabi_attribute 18, 4
  13              		.thumb
  14              		.file	"main.c"
  15              		.text
  16              	.Ltext0:
  17              		.cfi_sections	.debug_frame
  18              		.global	__aeabi_f2d
  19              		.global	__aeabi_dsub
  20              		.global	__aeabi_d2f
  21              		.global	__aeabi_fcmpeq
  22              		.section	.text.floatingPoint,"ax",%progbits
  23              		.align	2
  24              		.p2align 4,,15
  25              		.thumb
  26              		.thumb_func
  27              		.type	floatingPoint, %function
  28              	floatingPoint:
  29              	.LFB64:
  30              		.file 1 "main.c"
  31              		.loc 1 26 0
  32              		.cfi_startproc
  33              		@ args = 0, pretend = 0, frame = 0
  34              		@ frame_needed = 0, uses_anonymous_args = 0
  35              	.LVL0:
  36 0000 38B5     		push	{r3, r4, r5, lr}
  37              	.LCFI0:
  38              		.cfi_def_cfa_offset 16
  39              		.cfi_offset 3, -16
  40              		.cfi_offset 4, -12
  41              		.cfi_offset 5, -8
  42              		.cfi_offset 14, -4
  43              		.loc 1 27 0
  44 0002 4FF67214 		movw	r4, #63858
  45 0006 C3F67F74 		movt	r4, 16255
  46              	.LVL1:
  47              	.L2:
  48              	.LBB2:
  49              		.loc 1 29 0
  50 000a 2046     		mov	r0, r4
  51 000c FFF7FEFF 		bl	__aeabi_f2d
  52              	.LVL2:
  53 0010 0446     		mov	r4, r0
  54 0012 0246     		mov	r2, r0
  55 0014 0B46     		mov	r3, r1
  56 0016 0D46     		mov	r5, r1
  57 0018 0B48     		ldr	r0, .L8+8
ARM GAS  /tmp/cczr1hNt.s 			page 2


  58 001a 0C49     		ldr	r1, .L8+12
  59 001c FFF7FEFF 		bl	chprintf
  60              	.LVL3:
  61              		.loc 1 27 0
  62 0020 07A3     		adr	r3, .L8
  63 0022 D3E90023 		ldrd	r2, [r3]
  64 0026 2046     		mov	r0, r4
  65 0028 2946     		mov	r1, r5
  66 002a FFF7FEFF 		bl	__aeabi_dsub
  67              	.LVL4:
  68 002e FFF7FEFF 		bl	__aeabi_d2f
  69              	.LVL5:
  70 0032 0021     		movs	r1, #0
  71 0034 0446     		mov	r4, r0
  72              	.LVL6:
  73 0036 FFF7FEFF 		bl	__aeabi_fcmpeq
  74              	.LVL7:
  75 003a 0028     		cmp	r0, #0
  76 003c E5D0     		beq	.L2
  77              	.LBE2:
  78              		.loc 1 31 0
  79 003e 38BD     		pop	{r3, r4, r5, pc}
  80              	.L9:
  81              		.align	3
  82              	.L8:
  83 0040 2D431CEB 		.word	-350469331
  84 0044 E2361A3F 		.word	1058682594
  85 0048 00000000 		.word	SD2
  86 004c 00000000 		.word	.LC0
  87              		.cfi_endproc
  88              	.LFE64:
  89              		.size	floatingPoint, .-floatingPoint
  90              		.section	.text.heartBeat,"ax",%progbits
  91              		.align	2
  92              		.p2align 4,,15
  93              		.thumb
  94              		.thumb_func
  95              		.type	heartBeat, %function
  96              	heartBeat:
  97              	.LFB63:
  98              		.loc 1 9 0
  99              		.cfi_startproc
 100              		@ args = 0, pretend = 0, frame = 0
 101              		@ frame_needed = 0, uses_anonymous_args = 0
 102              	.LVL8:
 103 0000 F8B5     		push	{r3, r4, r5, r6, r7, lr}
 104              	.LCFI1:
 105              		.cfi_def_cfa_offset 24
 106              		.cfi_offset 3, -24
 107              		.cfi_offset 4, -20
 108              		.cfi_offset 5, -16
 109              		.cfi_offset 6, -12
 110              		.cfi_offset 7, -8
 111              		.cfi_offset 14, -4
 112              		.loc 1 10 0
 113 0002 0B48     		ldr	r0, .L12
 114              	.LVL9:
ARM GAS  /tmp/cczr1hNt.s 			page 3


 115 0004 0B49     		ldr	r1, .L12+4
 116 0006 FFF7FEFF 		bl	chprintf
 117              	.LVL10:
 118              		.loc 1 14 0
 119 000a 4FF44064 		mov	r4, #3072
 120 000e 4FF48076 		mov	r6, #256
 121 0012 C4F20104 		movt	r4, 16385
 122 0016 3746     		mov	r7, r6
 123              		.loc 1 15 0
 124 0018 8025     		movs	r5, #128
 125              	.L11:
 126              		.loc 1 14 0 discriminator 1
 127 001a 2761     		str	r7, [r4, #16]
 128              		.loc 1 16 0 discriminator 1
 129 001c FA20     		movs	r0, #250
 130              		.loc 1 15 0 discriminator 1
 131 001e 6561     		str	r5, [r4, #20]
 132              		.loc 1 16 0 discriminator 1
 133 0020 FFF7FEFF 		bl	chThdSleep
 134              	.LVL11:
 135              		.loc 1 17 0 discriminator 1
 136 0024 6661     		str	r6, [r4, #20]
 137              		.loc 1 19 0 discriminator 1
 138 0026 FA20     		movs	r0, #250
 139              		.loc 1 18 0 discriminator 1
 140 0028 2561     		str	r5, [r4, #16]
 141              		.loc 1 19 0 discriminator 1
 142 002a FFF7FEFF 		bl	chThdSleep
 143              	.LVL12:
 144 002e F4E7     		b	.L11
 145              	.L13:
 146              		.align	2
 147              	.L12:
 148 0030 00000000 		.word	SD2
 149 0034 08000000 		.word	.LC1
 150              		.cfi_endproc
 151              	.LFE63:
 152              		.size	heartBeat, .-heartBeat
 153 0038 AFF30080 		.section	.text.startup.main,"ax",%progbits
 153      AFF30080 
 154              		.align	2
 155              		.p2align 4,,15
 156              		.global	main
 157              		.thumb
 158              		.thumb_func
 159              		.type	main, %function
 160              	main:
 161              	.LFB65:
 162              		.loc 1 35 0
 163              		.cfi_startproc
 164              		@ args = 0, pretend = 0, frame = 0
 165              		@ frame_needed = 0, uses_anonymous_args = 0
 166 0000 10B5     		push	{r4, lr}
 167              	.LCFI2:
 168              		.cfi_def_cfa_offset 8
 169              		.cfi_offset 4, -8
 170              		.cfi_offset 14, -4
ARM GAS  /tmp/cczr1hNt.s 			page 4


 171 0002 82B0     		sub	sp, sp, #8
 172              	.LCFI3:
 173              		.cfi_def_cfa_offset 16
 174              		.loc 1 36 0
 175 0004 FFF7FEFF 		bl	halInit
 176              	.LVL13:
 177              		.loc 1 37 0
 178 0008 FFF7FEFF 		bl	chSysInit
 179              	.LVL14:
 180              		.loc 1 39 0
 181 000c 40F20000 		movw	r0, #:lower16:SD2
 182 0010 0021     		movs	r1, #0
 183 0012 C0F20000 		movt	r0, #:upper16:SD2
 184 0016 FFF7FEFF 		bl	sdStart
 185              	.LVL15:
 186              		.loc 1 41 0
 187 001a 0024     		movs	r4, #0
 188 001c 40F20003 		movw	r3, #:lower16:heartBeat
 189 0020 40F20000 		movw	r0, #:lower16:.LANCHOR0
 190 0024 F021     		movs	r1, #240
 191 0026 4022     		movs	r2, #64
 192 0028 C0F20003 		movt	r3, #:upper16:heartBeat
 193 002c 0094     		str	r4, [sp, #0]
 194 002e C0F20000 		movt	r0, #:upper16:.LANCHOR0
 195 0032 FFF7FEFF 		bl	chThdCreateStatic
 196              	.LVL16:
 197              		.loc 1 42 0
 198 0036 40F20000 		movw	r0, #:lower16:.LANCHOR1
 199 003a 40F20003 		movw	r3, #:lower16:floatingPoint
 200 003e 0094     		str	r4, [sp, #0]
 201 0040 4FF42C71 		mov	r1, #688
 202 0044 4022     		movs	r2, #64
 203 0046 C0F20003 		movt	r3, #:upper16:floatingPoint
 204 004a C0F20000 		movt	r0, #:upper16:.LANCHOR1
 205 004e FFF7FEFF 		bl	chThdCreateStatic
 206              	.LVL17:
 207              		.loc 1 43 0
 208 0052 2046     		mov	r0, r4
 209 0054 02B0     		add	sp, sp, #8
 210 0056 10BD     		pop	{r4, pc}
 211              		.cfi_endproc
 212              	.LFE65:
 213              		.size	main, .-main
 214 0058 AFF30080 		.section	.rodata.str1.4,"aMS",%progbits,1
 214      AFF30080 
 215              		.align	2
 216              	.LC0:
 217 0000 2566200A 		.ascii	"%f \012\015\000"
 217      0D00
 218 0006 0000     		.space	2
 219              	.LC1:
 220 0008 0A0D4865 		.ascii	"\012\015Hello world!\012\015\000"
 220      6C6C6F20 
 220      776F726C 
 220      64210A0D 
 220      00
 221 0019 000000   		.section	.bss.floatingWrkArea,"aw",%nobits
ARM GAS  /tmp/cczr1hNt.s 			page 5


 222              		.align	3
 223              		.set	.LANCHOR1,. + 0
 224              		.type	floatingWrkArea, %object
 225              		.size	floatingWrkArea, 688
 226              	floatingWrkArea:
 227 0000 00000000 		.space	688
 227      00000000 
 227      00000000 
 227      00000000 
 227      00000000 
 228              		.section	.bss.heartWrkArea,"aw",%nobits
 229              		.align	3
 230              		.set	.LANCHOR0,. + 0
 231              		.type	heartWrkArea, %object
 232              		.size	heartWrkArea, 240
 233              	heartWrkArea:
 234 0000 00000000 		.space	240
 234      00000000 
 234      00000000 
 234      00000000 
 234      00000000 
 235              		.text
 236              	.Letext0:
 237              		.file 2 "/usr/bin/../lib/gcc/arm-none-eabi/4.7.4/include/stddef.h"
 238              		.file 3 "/usr/bin/../lib/gcc/arm-none-eabi/4.7.4/../../../../arm-none-eabi/include/stdint.h"
 239              		.file 4 "../../os/ports/GCC/ARMCMx/chtypes.h"
 240              		.file 5 "../../os/kernel/include/chlists.h"
 241              		.file 6 "../../os/kernel/include/chthreads.h"
 242              		.file 7 "../../os/ports/GCC/ARMCMx/chcore_v7m.h"
 243              		.file 8 "../../os/kernel/include/chmtx.h"
 244              		.file 9 "../../os/kernel/include/chevents.h"
 245              		.file 10 "../../os/kernel/include/chqueues.h"
 246              		.file 11 "../../os/kernel/include/chstreams.h"
 247              		.file 12 "../../os/hal/platforms/STM32F1xx/stm32f10x.h"
 248              		.file 13 "../../os/hal/platforms/STM32/GPIOv1/pal_lld.h"
 249              		.file 14 "../../os/hal/include/serial.h"
 250              		.file 15 "../../os/hal/platforms/STM32/USARTv1/serial_lld.h"
 251              		.file 16 "../../os/various/chprintf.h"
 252              		.file 17 "../../os/hal/include/hal.h"
 253              		.file 18 "../../os/kernel/include/chsys.h"
 254              		.file 19 "../../os/ports/common/ARMCMx/CMSIS/include/core_cm3.h"
 255              		.section	.debug_info,"",%progbits
 256              	.Ldebug_info0:
 257 0000 5E0C0000 		.4byte	0xc5e
 258 0004 0200     		.2byte	0x2
 259 0006 00000000 		.4byte	.Ldebug_abbrev0
 260 000a 04       		.byte	0x4
 261 000b 01       		.uleb128 0x1
 262 000c DE000000 		.4byte	.LASF128
 263 0010 01       		.byte	0x1
 264 0011 2A030000 		.4byte	.LASF129
 265 0015 72020000 		.4byte	.LASF130
 266 0019 00000000 		.4byte	.Ldebug_ranges0+0
 267 001d 00000000 		.4byte	0
 268 0021 00000000 		.4byte	0
 269 0025 00000000 		.4byte	.Ldebug_line0
 270 0029 02       		.uleb128 0x2
ARM GAS  /tmp/cczr1hNt.s 			page 6


 271 002a 04       		.byte	0x4
 272 002b 05       		.byte	0x5
 273 002c 696E7400 		.ascii	"int\000"
 274 0030 03       		.uleb128 0x3
 275 0031 16000000 		.4byte	.LASF2
 276 0035 02       		.byte	0x2
 277 0036 D5       		.byte	0xd5
 278 0037 3B000000 		.4byte	0x3b
 279 003b 04       		.uleb128 0x4
 280 003c 04       		.byte	0x4
 281 003d 07       		.byte	0x7
 282 003e 96010000 		.4byte	.LASF0
 283 0042 04       		.uleb128 0x4
 284 0043 01       		.byte	0x1
 285 0044 06       		.byte	0x6
 286 0045 A4000000 		.4byte	.LASF1
 287 0049 03       		.uleb128 0x3
 288 004a 18050000 		.4byte	.LASF3
 289 004e 03       		.byte	0x3
 290 004f 2A       		.byte	0x2a
 291 0050 54000000 		.4byte	0x54
 292 0054 04       		.uleb128 0x4
 293 0055 01       		.byte	0x1
 294 0056 08       		.byte	0x8
 295 0057 C0030000 		.4byte	.LASF4
 296 005b 04       		.uleb128 0x4
 297 005c 02       		.byte	0x2
 298 005d 05       		.byte	0x5
 299 005e ED030000 		.4byte	.LASF5
 300 0062 03       		.uleb128 0x3
 301 0063 A3010000 		.4byte	.LASF6
 302 0067 03       		.byte	0x3
 303 0068 36       		.byte	0x36
 304 0069 6D000000 		.4byte	0x6d
 305 006d 04       		.uleb128 0x4
 306 006e 02       		.byte	0x2
 307 006f 07       		.byte	0x7
 308 0070 02020000 		.4byte	.LASF7
 309 0074 03       		.uleb128 0x3
 310 0075 B8030000 		.4byte	.LASF8
 311 0079 03       		.byte	0x3
 312 007a 4F       		.byte	0x4f
 313 007b 7F000000 		.4byte	0x7f
 314 007f 04       		.uleb128 0x4
 315 0080 04       		.byte	0x4
 316 0081 05       		.byte	0x5
 317 0082 2D010000 		.4byte	.LASF9
 318 0086 03       		.uleb128 0x3
 319 0087 82040000 		.4byte	.LASF10
 320 008b 03       		.byte	0x3
 321 008c 50       		.byte	0x50
 322 008d 91000000 		.4byte	0x91
 323 0091 04       		.uleb128 0x4
 324 0092 04       		.byte	0x4
 325 0093 07       		.byte	0x7
 326 0094 A2040000 		.4byte	.LASF11
 327 0098 04       		.uleb128 0x4
ARM GAS  /tmp/cczr1hNt.s 			page 7


 328 0099 08       		.byte	0x8
 329 009a 05       		.byte	0x5
 330 009b 96000000 		.4byte	.LASF12
 331 009f 03       		.uleb128 0x3
 332 00a0 24000000 		.4byte	.LASF13
 333 00a4 03       		.byte	0x3
 334 00a5 78       		.byte	0x78
 335 00a6 AA000000 		.4byte	0xaa
 336 00aa 04       		.uleb128 0x4
 337 00ab 08       		.byte	0x8
 338 00ac 07       		.byte	0x7
 339 00ad 46000000 		.4byte	.LASF14
 340 00b1 04       		.uleb128 0x4
 341 00b2 01       		.byte	0x1
 342 00b3 02       		.byte	0x2
 343 00b4 B2030000 		.4byte	.LASF15
 344 00b8 03       		.uleb128 0x3
 345 00b9 41020000 		.4byte	.LASF16
 346 00bd 04       		.byte	0x4
 347 00be 25       		.byte	0x25
 348 00bf 49000000 		.4byte	0x49
 349 00c3 03       		.uleb128 0x3
 350 00c4 36010000 		.4byte	.LASF17
 351 00c8 04       		.byte	0x4
 352 00c9 26       		.byte	0x26
 353 00ca 49000000 		.4byte	0x49
 354 00ce 03       		.uleb128 0x3
 355 00cf 57030000 		.4byte	.LASF18
 356 00d3 04       		.byte	0x4
 357 00d4 27       		.byte	0x27
 358 00d5 49000000 		.4byte	0x49
 359 00d9 03       		.uleb128 0x3
 360 00da D4000000 		.4byte	.LASF19
 361 00de 04       		.byte	0x4
 362 00df 28       		.byte	0x28
 363 00e0 49000000 		.4byte	0x49
 364 00e4 03       		.uleb128 0x3
 365 00e5 A2030000 		.4byte	.LASF20
 366 00e9 04       		.byte	0x4
 367 00ea 29       		.byte	0x29
 368 00eb 86000000 		.4byte	0x86
 369 00ef 03       		.uleb128 0x3
 370 00f0 1F020000 		.4byte	.LASF21
 371 00f4 04       		.byte	0x4
 372 00f5 2A       		.byte	0x2a
 373 00f6 74000000 		.4byte	0x74
 374 00fa 03       		.uleb128 0x3
 375 00fb 55020000 		.4byte	.LASF22
 376 00ff 04       		.byte	0x4
 377 0100 2C       		.byte	0x2c
 378 0101 86000000 		.4byte	0x86
 379 0105 03       		.uleb128 0x3
 380 0106 5D000000 		.4byte	.LASF23
 381 010a 04       		.byte	0x4
 382 010b 2D       		.byte	0x2d
 383 010c 86000000 		.4byte	0x86
 384 0110 03       		.uleb128 0x3
ARM GAS  /tmp/cczr1hNt.s 			page 8


 385 0111 CD040000 		.4byte	.LASF24
 386 0115 04       		.byte	0x4
 387 0116 2E       		.byte	0x2e
 388 0117 86000000 		.4byte	0x86
 389 011b 03       		.uleb128 0x3
 390 011c 57040000 		.4byte	.LASF25
 391 0120 05       		.byte	0x5
 392 0121 23       		.byte	0x23
 393 0122 26010000 		.4byte	0x126
 394 0126 05       		.uleb128 0x5
 395 0127 57040000 		.4byte	.LASF25
 396 012b 4C       		.byte	0x4c
 397 012c 06       		.byte	0x6
 398 012d 57       		.byte	0x57
 399 012e 59020000 		.4byte	0x259
 400 0132 06       		.uleb128 0x6
 401 0133 10040000 		.4byte	.LASF26
 402 0137 06       		.byte	0x6
 403 0138 58       		.byte	0x58
 404 0139 7E020000 		.4byte	0x27e
 405 013d 02       		.byte	0x2
 406 013e 23       		.byte	0x23
 407 013f 00       		.uleb128 0
 408 0140 06       		.uleb128 0x6
 409 0141 91030000 		.4byte	.LASF27
 410 0145 06       		.byte	0x6
 411 0146 5A       		.byte	0x5a
 412 0147 7E020000 		.4byte	0x27e
 413 014b 02       		.byte	0x2
 414 014c 23       		.byte	0x23
 415 014d 04       		.uleb128 0x4
 416 014e 06       		.uleb128 0x6
 417 014f 7F000000 		.4byte	.LASF28
 418 0153 06       		.byte	0x6
 419 0154 5C       		.byte	0x5c
 420 0155 E4000000 		.4byte	0xe4
 421 0159 02       		.byte	0x2
 422 015a 23       		.byte	0x23
 423 015b 08       		.uleb128 0x8
 424 015c 06       		.uleb128 0x6
 425 015d 48050000 		.4byte	.LASF29
 426 0161 06       		.byte	0x6
 427 0162 5D       		.byte	0x5d
 428 0163 57030000 		.4byte	0x357
 429 0167 02       		.byte	0x2
 430 0168 23       		.byte	0x23
 431 0169 0C       		.uleb128 0xc
 432 016a 06       		.uleb128 0x6
 433 016b 5E010000 		.4byte	.LASF30
 434 016f 06       		.byte	0x6
 435 0170 5F       		.byte	0x5f
 436 0171 7E020000 		.4byte	0x27e
 437 0175 02       		.byte	0x2
 438 0176 23       		.byte	0x23
 439 0177 10       		.uleb128 0x10
 440 0178 06       		.uleb128 0x6
 441 0179 0A030000 		.4byte	.LASF31
ARM GAS  /tmp/cczr1hNt.s 			page 9


 442 017d 06       		.byte	0x6
 443 017e 60       		.byte	0x60
 444 017f 7E020000 		.4byte	0x27e
 445 0183 02       		.byte	0x2
 446 0184 23       		.byte	0x23
 447 0185 14       		.uleb128 0x14
 448 0186 06       		.uleb128 0x6
 449 0187 00050000 		.4byte	.LASF32
 450 018b 06       		.byte	0x6
 451 018c 67       		.byte	0x67
 452 018d 84040000 		.4byte	0x484
 453 0191 02       		.byte	0x2
 454 0192 23       		.byte	0x23
 455 0193 18       		.uleb128 0x18
 456 0194 06       		.uleb128 0x6
 457 0195 1F030000 		.4byte	.LASF33
 458 0199 06       		.byte	0x6
 459 019a 6D       		.byte	0x6d
 460 019b 96040000 		.4byte	0x496
 461 019f 02       		.byte	0x2
 462 01a0 23       		.byte	0x23
 463 01a1 1C       		.uleb128 0x1c
 464 01a2 06       		.uleb128 0x6
 465 01a3 F7030000 		.4byte	.LASF34
 466 01a7 06       		.byte	0x6
 467 01a8 72       		.byte	0x72
 468 01a9 C3000000 		.4byte	0xc3
 469 01ad 02       		.byte	0x2
 470 01ae 23       		.byte	0x23
 471 01af 20       		.uleb128 0x20
 472 01b0 06       		.uleb128 0x6
 473 01b1 2F040000 		.4byte	.LASF35
 474 01b5 06       		.byte	0x6
 475 01b6 76       		.byte	0x76
 476 01b7 B8000000 		.4byte	0xb8
 477 01bb 02       		.byte	0x2
 478 01bc 23       		.byte	0x23
 479 01bd 21       		.uleb128 0x21
 480 01be 06       		.uleb128 0x6
 481 01bf 3F010000 		.4byte	.LASF36
 482 01c3 06       		.byte	0x6
 483 01c4 7B       		.byte	0x7b
 484 01c5 CE000000 		.4byte	0xce
 485 01c9 02       		.byte	0x2
 486 01ca 23       		.byte	0x23
 487 01cb 22       		.uleb128 0x22
 488 01cc 06       		.uleb128 0x6
 489 01cd FF030000 		.4byte	.LASF37
 490 01d1 06       		.byte	0x6
 491 01d2 81       		.byte	0x81
 492 01d3 D9000000 		.4byte	0xd9
 493 01d7 02       		.byte	0x2
 494 01d8 23       		.byte	0x23
 495 01d9 23       		.uleb128 0x23
 496 01da 06       		.uleb128 0x6
 497 01db BC010000 		.4byte	.LASF38
 498 01df 06       		.byte	0x6
ARM GAS  /tmp/cczr1hNt.s 			page 10


 499 01e0 88       		.byte	0x88
 500 01e1 86030000 		.4byte	0x386
 501 01e5 02       		.byte	0x2
 502 01e6 23       		.byte	0x23
 503 01e7 24       		.uleb128 0x24
 504 01e8 07       		.uleb128 0x7
 505 01e9 705F7500 		.ascii	"p_u\000"
 506 01ed 06       		.byte	0x6
 507 01ee AD       		.byte	0xad
 508 01ef 4F040000 		.4byte	0x44f
 509 01f3 02       		.byte	0x2
 510 01f4 23       		.byte	0x23
 511 01f5 28       		.uleb128 0x28
 512 01f6 06       		.uleb128 0x6
 513 01f7 4E050000 		.4byte	.LASF39
 514 01fb 06       		.byte	0x6
 515 01fc B2       		.byte	0xb2
 516 01fd A6020000 		.4byte	0x2a6
 517 0201 02       		.byte	0x2
 518 0202 23       		.byte	0x23
 519 0203 2C       		.uleb128 0x2c
 520 0204 06       		.uleb128 0x6
 521 0205 CA010000 		.4byte	.LASF40
 522 0209 06       		.byte	0x6
 523 020a B8       		.byte	0xb8
 524 020b 84020000 		.4byte	0x284
 525 020f 02       		.byte	0x2
 526 0210 23       		.byte	0x23
 527 0211 30       		.uleb128 0x30
 528 0212 06       		.uleb128 0x6
 529 0213 35050000 		.4byte	.LASF41
 530 0217 06       		.byte	0x6
 531 0218 BC       		.byte	0xbc
 532 0219 EF000000 		.4byte	0xef
 533 021d 02       		.byte	0x2
 534 021e 23       		.byte	0x23
 535 021f 38       		.uleb128 0x38
 536 0220 06       		.uleb128 0x6
 537 0221 63040000 		.4byte	.LASF42
 538 0225 06       		.byte	0x6
 539 0226 C2       		.byte	0xc2
 540 0227 FA000000 		.4byte	0xfa
 541 022b 02       		.byte	0x2
 542 022c 23       		.byte	0x23
 543 022d 3C       		.uleb128 0x3c
 544 022e 06       		.uleb128 0x6
 545 022f E3030000 		.4byte	.LASF43
 546 0233 06       		.byte	0x6
 547 0234 C9       		.byte	0xc9
 548 0235 9C040000 		.4byte	0x49c
 549 0239 02       		.byte	0x2
 550 023a 23       		.byte	0x23
 551 023b 40       		.uleb128 0x40
 552 023c 06       		.uleb128 0x6
 553 023d D7040000 		.4byte	.LASF44
 554 0241 06       		.byte	0x6
 555 0242 CD       		.byte	0xcd
ARM GAS  /tmp/cczr1hNt.s 			page 11


 556 0243 E4000000 		.4byte	0xe4
 557 0247 02       		.byte	0x2
 558 0248 23       		.byte	0x23
 559 0249 44       		.uleb128 0x44
 560 024a 06       		.uleb128 0x6
 561 024b C4000000 		.4byte	.LASF45
 562 024f 06       		.byte	0x6
 563 0250 D3       		.byte	0xd3
 564 0251 BC020000 		.4byte	0x2bc
 565 0255 02       		.byte	0x2
 566 0256 23       		.byte	0x23
 567 0257 48       		.uleb128 0x48
 568 0258 00       		.byte	0
 569 0259 08       		.uleb128 0x8
 570 025a 08       		.byte	0x8
 571 025b 05       		.byte	0x5
 572 025c 5A       		.byte	0x5a
 573 025d 7E020000 		.4byte	0x27e
 574 0261 06       		.uleb128 0x6
 575 0262 10040000 		.4byte	.LASF26
 576 0266 05       		.byte	0x5
 577 0267 5B       		.byte	0x5b
 578 0268 7E020000 		.4byte	0x27e
 579 026c 02       		.byte	0x2
 580 026d 23       		.byte	0x23
 581 026e 00       		.uleb128 0
 582 026f 06       		.uleb128 0x6
 583 0270 91030000 		.4byte	.LASF27
 584 0274 05       		.byte	0x5
 585 0275 5D       		.byte	0x5d
 586 0276 7E020000 		.4byte	0x27e
 587 027a 02       		.byte	0x2
 588 027b 23       		.byte	0x23
 589 027c 04       		.uleb128 0x4
 590 027d 00       		.byte	0
 591 027e 09       		.uleb128 0x9
 592 027f 04       		.byte	0x4
 593 0280 1B010000 		.4byte	0x11b
 594 0284 03       		.uleb128 0x3
 595 0285 12030000 		.4byte	.LASF46
 596 0289 05       		.byte	0x5
 597 028a 5F       		.byte	0x5f
 598 028b 59020000 		.4byte	0x259
 599 028f 08       		.uleb128 0x8
 600 0290 04       		.byte	0x4
 601 0291 05       		.byte	0x5
 602 0292 64       		.byte	0x64
 603 0293 A6020000 		.4byte	0x2a6
 604 0297 06       		.uleb128 0x6
 605 0298 10040000 		.4byte	.LASF26
 606 029c 05       		.byte	0x5
 607 029d 66       		.byte	0x66
 608 029e 7E020000 		.4byte	0x27e
 609 02a2 02       		.byte	0x2
 610 02a3 23       		.byte	0x23
 611 02a4 00       		.uleb128 0
 612 02a5 00       		.byte	0
ARM GAS  /tmp/cczr1hNt.s 			page 12


 613 02a6 03       		.uleb128 0x3
 614 02a7 49020000 		.4byte	.LASF47
 615 02ab 05       		.byte	0x5
 616 02ac 69       		.byte	0x69
 617 02ad 8F020000 		.4byte	0x28f
 618 02b1 03       		.uleb128 0x3
 619 02b2 66010000 		.4byte	.LASF48
 620 02b6 07       		.byte	0x7
 621 02b7 DE       		.byte	0xde
 622 02b8 BC020000 		.4byte	0x2bc
 623 02bc 0A       		.uleb128 0xa
 624 02bd 04       		.byte	0x4
 625 02be 03       		.uleb128 0x3
 626 02bf C9020000 		.4byte	.LASF49
 627 02c3 07       		.byte	0x7
 628 02c4 E4       		.byte	0xe4
 629 02c5 9F000000 		.4byte	0x9f
 630 02c9 0B       		.uleb128 0xb
 631 02ca EA040000 		.4byte	.LASF50
 632 02ce 24       		.byte	0x24
 633 02cf 07       		.byte	0x7
 634 02d0 0501     		.2byte	0x105
 635 02d2 57030000 		.4byte	0x357
 636 02d6 0C       		.uleb128 0xc
 637 02d7 723400   		.ascii	"r4\000"
 638 02da 07       		.byte	0x7
 639 02db 1801     		.2byte	0x118
 640 02dd B1020000 		.4byte	0x2b1
 641 02e1 02       		.byte	0x2
 642 02e2 23       		.byte	0x23
 643 02e3 00       		.uleb128 0
 644 02e4 0C       		.uleb128 0xc
 645 02e5 723500   		.ascii	"r5\000"
 646 02e8 07       		.byte	0x7
 647 02e9 1901     		.2byte	0x119
 648 02eb B1020000 		.4byte	0x2b1
 649 02ef 02       		.byte	0x2
 650 02f0 23       		.byte	0x23
 651 02f1 04       		.uleb128 0x4
 652 02f2 0C       		.uleb128 0xc
 653 02f3 723600   		.ascii	"r6\000"
 654 02f6 07       		.byte	0x7
 655 02f7 1A01     		.2byte	0x11a
 656 02f9 B1020000 		.4byte	0x2b1
 657 02fd 02       		.byte	0x2
 658 02fe 23       		.byte	0x23
 659 02ff 08       		.uleb128 0x8
 660 0300 0C       		.uleb128 0xc
 661 0301 723700   		.ascii	"r7\000"
 662 0304 07       		.byte	0x7
 663 0305 1B01     		.2byte	0x11b
 664 0307 B1020000 		.4byte	0x2b1
 665 030b 02       		.byte	0x2
 666 030c 23       		.byte	0x23
 667 030d 0C       		.uleb128 0xc
 668 030e 0C       		.uleb128 0xc
 669 030f 723800   		.ascii	"r8\000"
ARM GAS  /tmp/cczr1hNt.s 			page 13


 670 0312 07       		.byte	0x7
 671 0313 1C01     		.2byte	0x11c
 672 0315 B1020000 		.4byte	0x2b1
 673 0319 02       		.byte	0x2
 674 031a 23       		.byte	0x23
 675 031b 10       		.uleb128 0x10
 676 031c 0C       		.uleb128 0xc
 677 031d 723900   		.ascii	"r9\000"
 678 0320 07       		.byte	0x7
 679 0321 1D01     		.2byte	0x11d
 680 0323 B1020000 		.4byte	0x2b1
 681 0327 02       		.byte	0x2
 682 0328 23       		.byte	0x23
 683 0329 14       		.uleb128 0x14
 684 032a 0C       		.uleb128 0xc
 685 032b 72313000 		.ascii	"r10\000"
 686 032f 07       		.byte	0x7
 687 0330 1E01     		.2byte	0x11e
 688 0332 B1020000 		.4byte	0x2b1
 689 0336 02       		.byte	0x2
 690 0337 23       		.byte	0x23
 691 0338 18       		.uleb128 0x18
 692 0339 0C       		.uleb128 0xc
 693 033a 72313100 		.ascii	"r11\000"
 694 033e 07       		.byte	0x7
 695 033f 1F01     		.2byte	0x11f
 696 0341 B1020000 		.4byte	0x2b1
 697 0345 02       		.byte	0x2
 698 0346 23       		.byte	0x23
 699 0347 1C       		.uleb128 0x1c
 700 0348 0C       		.uleb128 0xc
 701 0349 6C7200   		.ascii	"lr\000"
 702 034c 07       		.byte	0x7
 703 034d 2001     		.2byte	0x120
 704 034f B1020000 		.4byte	0x2b1
 705 0353 02       		.byte	0x2
 706 0354 23       		.byte	0x23
 707 0355 20       		.uleb128 0x20
 708 0356 00       		.byte	0
 709 0357 0B       		.uleb128 0xb
 710 0358 E2040000 		.4byte	.LASF51
 711 035c 04       		.byte	0x4
 712 035d 07       		.byte	0x7
 713 035e 2A01     		.2byte	0x12a
 714 0360 74030000 		.4byte	0x374
 715 0364 0C       		.uleb128 0xc
 716 0365 72313300 		.ascii	"r13\000"
 717 0369 07       		.byte	0x7
 718 036a 2B01     		.2byte	0x12b
 719 036c 74030000 		.4byte	0x374
 720 0370 02       		.byte	0x2
 721 0371 23       		.byte	0x23
 722 0372 00       		.uleb128 0
 723 0373 00       		.byte	0
 724 0374 09       		.uleb128 0x9
 725 0375 04       		.byte	0x4
 726 0376 C9020000 		.4byte	0x2c9
ARM GAS  /tmp/cczr1hNt.s 			page 14


 727 037a 0D       		.uleb128 0xd
 728 037b 86000000 		.4byte	0x86
 729 037f 04       		.uleb128 0x4
 730 0380 04       		.byte	0x4
 731 0381 07       		.byte	0x7
 732 0382 F1020000 		.4byte	.LASF52
 733 0386 0D       		.uleb128 0xd
 734 0387 10010000 		.4byte	0x110
 735 038b 05       		.uleb128 0x5
 736 038c 04030000 		.4byte	.LASF53
 737 0390 10       		.byte	0x10
 738 0391 08       		.byte	0x8
 739 0392 25       		.byte	0x25
 740 0393 C2030000 		.4byte	0x3c2
 741 0397 06       		.uleb128 0x6
 742 0398 CC000000 		.4byte	.LASF54
 743 039c 08       		.byte	0x8
 744 039d 26       		.byte	0x26
 745 039e 84020000 		.4byte	0x284
 746 03a2 02       		.byte	0x2
 747 03a3 23       		.byte	0x23
 748 03a4 00       		.uleb128 0
 749 03a5 06       		.uleb128 0x6
 750 03a6 40050000 		.4byte	.LASF55
 751 03aa 08       		.byte	0x8
 752 03ab 28       		.byte	0x28
 753 03ac 7E020000 		.4byte	0x27e
 754 03b0 02       		.byte	0x2
 755 03b1 23       		.byte	0x23
 756 03b2 08       		.uleb128 0x8
 757 03b3 06       		.uleb128 0x6
 758 03b4 C6040000 		.4byte	.LASF56
 759 03b8 08       		.byte	0x8
 760 03b9 2A       		.byte	0x2a
 761 03ba C2030000 		.4byte	0x3c2
 762 03be 02       		.byte	0x2
 763 03bf 23       		.byte	0x23
 764 03c0 0C       		.uleb128 0xc
 765 03c1 00       		.byte	0
 766 03c2 09       		.uleb128 0x9
 767 03c3 04       		.byte	0x4
 768 03c4 8B030000 		.4byte	0x38b
 769 03c8 03       		.uleb128 0x3
 770 03c9 04030000 		.4byte	.LASF53
 771 03cd 08       		.byte	0x8
 772 03ce 2C       		.byte	0x2c
 773 03cf 8B030000 		.4byte	0x38b
 774 03d3 03       		.uleb128 0x3
 775 03d4 20050000 		.4byte	.LASF57
 776 03d8 09       		.byte	0x9
 777 03d9 25       		.byte	0x25
 778 03da DE030000 		.4byte	0x3de
 779 03de 05       		.uleb128 0x5
 780 03df 20050000 		.4byte	.LASF57
 781 03e3 10       		.byte	0x10
 782 03e4 09       		.byte	0x9
 783 03e5 2A       		.byte	0x2a
ARM GAS  /tmp/cczr1hNt.s 			page 15


 784 03e6 23040000 		.4byte	0x423
 785 03ea 06       		.uleb128 0x6
 786 03eb 37040000 		.4byte	.LASF58
 787 03ef 09       		.byte	0x9
 788 03f0 2B       		.byte	0x2b
 789 03f1 23040000 		.4byte	0x423
 790 03f5 02       		.byte	0x2
 791 03f6 23       		.byte	0x23
 792 03f7 00       		.uleb128 0
 793 03f8 06       		.uleb128 0x6
 794 03f9 CE030000 		.4byte	.LASF59
 795 03fd 09       		.byte	0x9
 796 03fe 2E       		.byte	0x2e
 797 03ff 7E020000 		.4byte	0x27e
 798 0403 02       		.byte	0x2
 799 0404 23       		.byte	0x23
 800 0405 04       		.uleb128 0x4
 801 0406 06       		.uleb128 0x6
 802 0407 31030000 		.4byte	.LASF60
 803 040b 09       		.byte	0x9
 804 040c 30       		.byte	0x30
 805 040d FA000000 		.4byte	0xfa
 806 0411 02       		.byte	0x2
 807 0412 23       		.byte	0x23
 808 0413 08       		.uleb128 0x8
 809 0414 06       		.uleb128 0x6
 810 0415 DA030000 		.4byte	.LASF61
 811 0419 09       		.byte	0x9
 812 041a 33       		.byte	0x33
 813 041b 05010000 		.4byte	0x105
 814 041f 02       		.byte	0x2
 815 0420 23       		.byte	0x23
 816 0421 0C       		.uleb128 0xc
 817 0422 00       		.byte	0
 818 0423 09       		.uleb128 0x9
 819 0424 04       		.byte	0x4
 820 0425 D3030000 		.4byte	0x3d3
 821 0429 05       		.uleb128 0x5
 822 042a 6F010000 		.4byte	.LASF62
 823 042e 04       		.byte	0x4
 824 042f 09       		.byte	0x9
 825 0430 3A       		.byte	0x3a
 826 0431 44040000 		.4byte	0x444
 827 0435 06       		.uleb128 0x6
 828 0436 07050000 		.4byte	.LASF63
 829 043a 09       		.byte	0x9
 830 043b 3B       		.byte	0x3b
 831 043c 23040000 		.4byte	0x423
 832 0440 02       		.byte	0x2
 833 0441 23       		.byte	0x23
 834 0442 00       		.uleb128 0
 835 0443 00       		.byte	0
 836 0444 03       		.uleb128 0x3
 837 0445 6F010000 		.4byte	.LASF62
 838 0449 09       		.byte	0x9
 839 044a 3E       		.byte	0x3e
 840 044b 29040000 		.4byte	0x429
ARM GAS  /tmp/cczr1hNt.s 			page 16


 841 044f 0E       		.uleb128 0xe
 842 0450 04       		.byte	0x4
 843 0451 06       		.byte	0x6
 844 0452 8F       		.byte	0x8f
 845 0453 84040000 		.4byte	0x484
 846 0457 0F       		.uleb128 0xf
 847 0458 1D000000 		.4byte	.LASF64
 848 045c 06       		.byte	0x6
 849 045d 96       		.byte	0x96
 850 045e EF000000 		.4byte	0xef
 851 0462 0F       		.uleb128 0xf
 852 0463 69000000 		.4byte	.LASF65
 853 0467 06       		.byte	0x6
 854 0468 9D       		.byte	0x9d
 855 0469 EF000000 		.4byte	0xef
 856 046d 0F       		.uleb128 0xf
 857 046e 2E050000 		.4byte	.LASF66
 858 0472 06       		.byte	0x6
 859 0473 A4       		.byte	0xa4
 860 0474 BC020000 		.4byte	0x2bc
 861 0478 0F       		.uleb128 0xf
 862 0479 09040000 		.4byte	.LASF67
 863 047d 06       		.byte	0x6
 864 047e AB       		.byte	0xab
 865 047f FA000000 		.4byte	0xfa
 866 0483 00       		.byte	0
 867 0484 09       		.uleb128 0x9
 868 0485 04       		.byte	0x4
 869 0486 8A040000 		.4byte	0x48a
 870 048a 10       		.uleb128 0x10
 871 048b 8F040000 		.4byte	0x48f
 872 048f 04       		.uleb128 0x4
 873 0490 01       		.byte	0x1
 874 0491 08       		.byte	0x8
 875 0492 B9040000 		.4byte	.LASF68
 876 0496 09       		.uleb128 0x9
 877 0497 04       		.byte	0x4
 878 0498 BE020000 		.4byte	0x2be
 879 049c 09       		.uleb128 0x9
 880 049d 04       		.byte	0x4
 881 049e C8030000 		.4byte	0x3c8
 882 04a2 03       		.uleb128 0x3
 883 04a3 00000000 		.4byte	.LASF69
 884 04a7 06       		.byte	0x6
 885 04a8 DE       		.byte	0xde
 886 04a9 AD040000 		.4byte	0x4ad
 887 04ad 09       		.uleb128 0x9
 888 04ae 04       		.byte	0x4
 889 04af B3040000 		.4byte	0x4b3
 890 04b3 11       		.uleb128 0x11
 891 04b4 01       		.byte	0x1
 892 04b5 EF000000 		.4byte	0xef
 893 04b9 C3040000 		.4byte	0x4c3
 894 04bd 12       		.uleb128 0x12
 895 04be BC020000 		.4byte	0x2bc
 896 04c2 00       		.byte	0
 897 04c3 03       		.uleb128 0x3
ARM GAS  /tmp/cczr1hNt.s 			page 17


 898 04c4 BC020000 		.4byte	.LASF70
 899 04c8 0A       		.byte	0xa
 900 04c9 30       		.byte	0x30
 901 04ca CE040000 		.4byte	0x4ce
 902 04ce 05       		.uleb128 0x5
 903 04cf BC020000 		.4byte	.LASF70
 904 04d3 24       		.byte	0x24
 905 04d4 0A       		.byte	0xa
 906 04d5 3E       		.byte	0x3e
 907 04d6 4B050000 		.4byte	0x54b
 908 04da 06       		.uleb128 0x6
 909 04db 8C000000 		.4byte	.LASF71
 910 04df 0A       		.byte	0xa
 911 04e0 3F       		.byte	0x3f
 912 04e1 84020000 		.4byte	0x284
 913 04e5 02       		.byte	0x2
 914 04e6 23       		.byte	0x23
 915 04e7 00       		.uleb128 0
 916 04e8 06       		.uleb128 0x6
 917 04e9 FA020000 		.4byte	.LASF72
 918 04ed 0A       		.byte	0xa
 919 04ee 40       		.byte	0x40
 920 04ef 30000000 		.4byte	0x30
 921 04f3 02       		.byte	0x2
 922 04f4 23       		.byte	0x23
 923 04f5 08       		.uleb128 0x8
 924 04f6 06       		.uleb128 0x6
 925 04f7 46010000 		.4byte	.LASF73
 926 04fb 0A       		.byte	0xa
 927 04fc 41       		.byte	0x41
 928 04fd 6E050000 		.4byte	0x56e
 929 0501 02       		.byte	0x2
 930 0502 23       		.byte	0x23
 931 0503 0C       		.uleb128 0xc
 932 0504 06       		.uleb128 0x6
 933 0505 FA040000 		.4byte	.LASF74
 934 0509 0A       		.byte	0xa
 935 050a 42       		.byte	0x42
 936 050b 6E050000 		.4byte	0x56e
 937 050f 02       		.byte	0x2
 938 0510 23       		.byte	0x23
 939 0511 10       		.uleb128 0x10
 940 0512 06       		.uleb128 0x6
 941 0513 4F010000 		.4byte	.LASF75
 942 0517 0A       		.byte	0xa
 943 0518 44       		.byte	0x44
 944 0519 6E050000 		.4byte	0x56e
 945 051d 02       		.byte	0x2
 946 051e 23       		.byte	0x23
 947 051f 14       		.uleb128 0x14
 948 0520 06       		.uleb128 0x6
 949 0521 AA030000 		.4byte	.LASF76
 950 0525 0A       		.byte	0xa
 951 0526 45       		.byte	0x45
 952 0527 6E050000 		.4byte	0x56e
 953 052b 02       		.byte	0x2
 954 052c 23       		.byte	0x23
ARM GAS  /tmp/cczr1hNt.s 			page 18


 955 052d 18       		.uleb128 0x18
 956 052e 06       		.uleb128 0x6
 957 052f 0F050000 		.4byte	.LASF77
 958 0533 0A       		.byte	0xa
 959 0534 46       		.byte	0x46
 960 0535 4B050000 		.4byte	0x54b
 961 0539 02       		.byte	0x2
 962 053a 23       		.byte	0x23
 963 053b 1C       		.uleb128 0x1c
 964 053c 06       		.uleb128 0x6
 965 053d 57010000 		.4byte	.LASF78
 966 0541 0A       		.byte	0xa
 967 0542 47       		.byte	0x47
 968 0543 BC020000 		.4byte	0x2bc
 969 0547 02       		.byte	0x2
 970 0548 23       		.byte	0x23
 971 0549 20       		.uleb128 0x20
 972 054a 00       		.byte	0
 973 054b 03       		.uleb128 0x3
 974 054c B2020000 		.4byte	.LASF79
 975 0550 0A       		.byte	0xa
 976 0551 33       		.byte	0x33
 977 0552 56050000 		.4byte	0x556
 978 0556 09       		.uleb128 0x9
 979 0557 04       		.byte	0x4
 980 0558 5C050000 		.4byte	0x55c
 981 055c 13       		.uleb128 0x13
 982 055d 01       		.byte	0x1
 983 055e 68050000 		.4byte	0x568
 984 0562 12       		.uleb128 0x12
 985 0563 68050000 		.4byte	0x568
 986 0567 00       		.byte	0
 987 0568 09       		.uleb128 0x9
 988 0569 04       		.byte	0x4
 989 056a C3040000 		.4byte	0x4c3
 990 056e 09       		.uleb128 0x9
 991 056f 04       		.byte	0x4
 992 0570 49000000 		.4byte	0x49
 993 0574 03       		.uleb128 0x3
 994 0575 61020000 		.4byte	.LASF80
 995 0579 0A       		.byte	0xa
 996 057a 7B       		.byte	0x7b
 997 057b C3040000 		.4byte	0x4c3
 998 057f 03       		.uleb128 0x3
 999 0580 2D000000 		.4byte	.LASF81
 1000 0584 0A       		.byte	0xa
 1001 0585 EE       		.byte	0xee
 1002 0586 C3040000 		.4byte	0x4c3
 1003 058a 05       		.uleb128 0x5
 1004 058b 17040000 		.4byte	.LASF82
 1005 058f 10       		.byte	0x10
 1006 0590 0B       		.byte	0xb
 1007 0591 41       		.byte	0x41
 1008 0592 CF050000 		.4byte	0x5cf
 1009 0596 06       		.uleb128 0x6
 1010 0597 E6020000 		.4byte	.LASF83
 1011 059b 0B       		.byte	0xb
ARM GAS  /tmp/cczr1hNt.s 			page 19


 1012 059c 42       		.byte	0x42
 1013 059d F4050000 		.4byte	0x5f4
 1014 05a1 02       		.byte	0x2
 1015 05a2 23       		.byte	0x23
 1016 05a3 00       		.uleb128 0
 1017 05a4 06       		.uleb128 0x6
 1018 05a5 B4040000 		.4byte	.LASF84
 1019 05a9 0B       		.byte	0xb
 1020 05aa 42       		.byte	0x42
 1021 05ab 14060000 		.4byte	0x614
 1022 05af 02       		.byte	0x2
 1023 05b0 23       		.byte	0x23
 1024 05b1 04       		.uleb128 0x4
 1025 05b2 07       		.uleb128 0x7
 1026 05b3 70757400 		.ascii	"put\000"
 1027 05b7 0B       		.byte	0xb
 1028 05b8 42       		.byte	0x42
 1029 05b9 2F060000 		.4byte	0x62f
 1030 05bd 02       		.byte	0x2
 1031 05be 23       		.byte	0x23
 1032 05bf 08       		.uleb128 0x8
 1033 05c0 07       		.uleb128 0x7
 1034 05c1 67657400 		.ascii	"get\000"
 1035 05c5 0B       		.byte	0xb
 1036 05c6 42       		.byte	0x42
 1037 05c7 AD040000 		.4byte	0x4ad
 1038 05cb 02       		.byte	0x2
 1039 05cc 23       		.byte	0x23
 1040 05cd 0C       		.uleb128 0xc
 1041 05ce 00       		.byte	0
 1042 05cf 11       		.uleb128 0x11
 1043 05d0 01       		.byte	0x1
 1044 05d1 30000000 		.4byte	0x30
 1045 05d5 E9050000 		.4byte	0x5e9
 1046 05d9 12       		.uleb128 0x12
 1047 05da BC020000 		.4byte	0x2bc
 1048 05de 12       		.uleb128 0x12
 1049 05df E9050000 		.4byte	0x5e9
 1050 05e3 12       		.uleb128 0x12
 1051 05e4 30000000 		.4byte	0x30
 1052 05e8 00       		.byte	0
 1053 05e9 09       		.uleb128 0x9
 1054 05ea 04       		.byte	0x4
 1055 05eb EF050000 		.4byte	0x5ef
 1056 05ef 10       		.uleb128 0x10
 1057 05f0 49000000 		.4byte	0x49
 1058 05f4 09       		.uleb128 0x9
 1059 05f5 04       		.byte	0x4
 1060 05f6 CF050000 		.4byte	0x5cf
 1061 05fa 11       		.uleb128 0x11
 1062 05fb 01       		.byte	0x1
 1063 05fc 30000000 		.4byte	0x30
 1064 0600 14060000 		.4byte	0x614
 1065 0604 12       		.uleb128 0x12
 1066 0605 BC020000 		.4byte	0x2bc
 1067 0609 12       		.uleb128 0x12
 1068 060a 6E050000 		.4byte	0x56e
ARM GAS  /tmp/cczr1hNt.s 			page 20


 1069 060e 12       		.uleb128 0x12
 1070 060f 30000000 		.4byte	0x30
 1071 0613 00       		.byte	0
 1072 0614 09       		.uleb128 0x9
 1073 0615 04       		.byte	0x4
 1074 0616 FA050000 		.4byte	0x5fa
 1075 061a 11       		.uleb128 0x11
 1076 061b 01       		.byte	0x1
 1077 061c EF000000 		.4byte	0xef
 1078 0620 2F060000 		.4byte	0x62f
 1079 0624 12       		.uleb128 0x12
 1080 0625 BC020000 		.4byte	0x2bc
 1081 0629 12       		.uleb128 0x12
 1082 062a 49000000 		.4byte	0x49
 1083 062e 00       		.byte	0
 1084 062f 09       		.uleb128 0x9
 1085 0630 04       		.byte	0x4
 1086 0631 1A060000 		.4byte	0x61a
 1087 0635 08       		.uleb128 0x8
 1088 0636 04       		.byte	0x4
 1089 0637 0B       		.byte	0xb
 1090 0638 4A       		.byte	0x4a
 1091 0639 4C060000 		.4byte	0x64c
 1092 063d 07       		.uleb128 0x7
 1093 063e 766D7400 		.ascii	"vmt\000"
 1094 0642 0B       		.byte	0xb
 1095 0643 4C       		.byte	0x4c
 1096 0644 4C060000 		.4byte	0x64c
 1097 0648 02       		.byte	0x2
 1098 0649 23       		.byte	0x23
 1099 064a 00       		.uleb128 0
 1100 064b 00       		.byte	0
 1101 064c 09       		.uleb128 0x9
 1102 064d 04       		.byte	0x4
 1103 064e 52060000 		.4byte	0x652
 1104 0652 10       		.uleb128 0x10
 1105 0653 8A050000 		.4byte	0x58a
 1106 0657 03       		.uleb128 0x3
 1107 0658 7B010000 		.4byte	.LASF85
 1108 065c 0B       		.byte	0xb
 1109 065d 4E       		.byte	0x4e
 1110 065e 35060000 		.4byte	0x635
 1111 0662 0D       		.uleb128 0xd
 1112 0663 62000000 		.4byte	0x62
 1113 0667 0D       		.uleb128 0xd
 1114 0668 74000000 		.4byte	0x74
 1115 066c 14       		.uleb128 0x14
 1116 066d 1C       		.byte	0x1c
 1117 066e 0C       		.byte	0xc
 1118 066f F803     		.2byte	0x3f8
 1119 0671 DF060000 		.4byte	0x6df
 1120 0675 0C       		.uleb128 0xc
 1121 0676 43524C00 		.ascii	"CRL\000"
 1122 067a 0C       		.byte	0xc
 1123 067b FA03     		.2byte	0x3fa
 1124 067d 7A030000 		.4byte	0x37a
 1125 0681 02       		.byte	0x2
ARM GAS  /tmp/cczr1hNt.s 			page 21


 1126 0682 23       		.byte	0x23
 1127 0683 00       		.uleb128 0
 1128 0684 0C       		.uleb128 0xc
 1129 0685 43524800 		.ascii	"CRH\000"
 1130 0689 0C       		.byte	0xc
 1131 068a FB03     		.2byte	0x3fb
 1132 068c 7A030000 		.4byte	0x37a
 1133 0690 02       		.byte	0x2
 1134 0691 23       		.byte	0x23
 1135 0692 04       		.uleb128 0x4
 1136 0693 0C       		.uleb128 0xc
 1137 0694 49445200 		.ascii	"IDR\000"
 1138 0698 0C       		.byte	0xc
 1139 0699 FC03     		.2byte	0x3fc
 1140 069b 7A030000 		.4byte	0x37a
 1141 069f 02       		.byte	0x2
 1142 06a0 23       		.byte	0x23
 1143 06a1 08       		.uleb128 0x8
 1144 06a2 0C       		.uleb128 0xc
 1145 06a3 4F445200 		.ascii	"ODR\000"
 1146 06a7 0C       		.byte	0xc
 1147 06a8 FD03     		.2byte	0x3fd
 1148 06aa 7A030000 		.4byte	0x37a
 1149 06ae 02       		.byte	0x2
 1150 06af 23       		.byte	0x23
 1151 06b0 0C       		.uleb128 0xc
 1152 06b1 15       		.uleb128 0x15
 1153 06b2 B0000000 		.4byte	.LASF86
 1154 06b6 0C       		.byte	0xc
 1155 06b7 FE03     		.2byte	0x3fe
 1156 06b9 7A030000 		.4byte	0x37a
 1157 06bd 02       		.byte	0x2
 1158 06be 23       		.byte	0x23
 1159 06bf 10       		.uleb128 0x10
 1160 06c0 0C       		.uleb128 0xc
 1161 06c1 42525200 		.ascii	"BRR\000"
 1162 06c5 0C       		.byte	0xc
 1163 06c6 FF03     		.2byte	0x3ff
 1164 06c8 7A030000 		.4byte	0x37a
 1165 06cc 02       		.byte	0x2
 1166 06cd 23       		.byte	0x23
 1167 06ce 14       		.uleb128 0x14
 1168 06cf 15       		.uleb128 0x15
 1169 06d0 5E040000 		.4byte	.LASF87
 1170 06d4 0C       		.byte	0xc
 1171 06d5 0004     		.2byte	0x400
 1172 06d7 7A030000 		.4byte	0x37a
 1173 06db 02       		.byte	0x2
 1174 06dc 23       		.byte	0x23
 1175 06dd 18       		.uleb128 0x18
 1176 06de 00       		.byte	0
 1177 06df 16       		.uleb128 0x16
 1178 06e0 D5010000 		.4byte	.LASF88
 1179 06e4 0C       		.byte	0xc
 1180 06e5 0104     		.2byte	0x401
 1181 06e7 6C060000 		.4byte	0x66c
 1182 06eb 14       		.uleb128 0x14
ARM GAS  /tmp/cczr1hNt.s 			page 22


 1183 06ec 1C       		.byte	0x1c
 1184 06ed 0C       		.byte	0xc
 1185 06ee E104     		.2byte	0x4e1
 1186 06f0 C5070000 		.4byte	0x7c5
 1187 06f4 0C       		.uleb128 0xc
 1188 06f5 535200   		.ascii	"SR\000"
 1189 06f8 0C       		.byte	0xc
 1190 06f9 E304     		.2byte	0x4e3
 1191 06fb 62060000 		.4byte	0x662
 1192 06ff 02       		.byte	0x2
 1193 0700 23       		.byte	0x23
 1194 0701 00       		.uleb128 0
 1195 0702 15       		.uleb128 0x15
 1196 0703 5F030000 		.4byte	.LASF89
 1197 0707 0C       		.byte	0xc
 1198 0708 E404     		.2byte	0x4e4
 1199 070a 62000000 		.4byte	0x62
 1200 070e 02       		.byte	0x2
 1201 070f 23       		.byte	0x23
 1202 0710 02       		.uleb128 0x2
 1203 0711 0C       		.uleb128 0xc
 1204 0712 445200   		.ascii	"DR\000"
 1205 0715 0C       		.byte	0xc
 1206 0716 E504     		.2byte	0x4e5
 1207 0718 62060000 		.4byte	0x662
 1208 071c 02       		.byte	0x2
 1209 071d 23       		.byte	0x23
 1210 071e 04       		.uleb128 0x4
 1211 071f 15       		.uleb128 0x15
 1212 0720 69030000 		.4byte	.LASF90
 1213 0724 0C       		.byte	0xc
 1214 0725 E604     		.2byte	0x4e6
 1215 0727 62000000 		.4byte	0x62
 1216 072b 02       		.byte	0x2
 1217 072c 23       		.byte	0x23
 1218 072d 06       		.uleb128 0x6
 1219 072e 0C       		.uleb128 0xc
 1220 072f 42525200 		.ascii	"BRR\000"
 1221 0733 0C       		.byte	0xc
 1222 0734 E704     		.2byte	0x4e7
 1223 0736 62060000 		.4byte	0x662
 1224 073a 02       		.byte	0x2
 1225 073b 23       		.byte	0x23
 1226 073c 08       		.uleb128 0x8
 1227 073d 15       		.uleb128 0x15
 1228 073e 73030000 		.4byte	.LASF91
 1229 0742 0C       		.byte	0xc
 1230 0743 E804     		.2byte	0x4e8
 1231 0745 62000000 		.4byte	0x62
 1232 0749 02       		.byte	0x2
 1233 074a 23       		.byte	0x23
 1234 074b 0A       		.uleb128 0xa
 1235 074c 0C       		.uleb128 0xc
 1236 074d 43523100 		.ascii	"CR1\000"
 1237 0751 0C       		.byte	0xc
 1238 0752 E904     		.2byte	0x4e9
 1239 0754 62060000 		.4byte	0x662
ARM GAS  /tmp/cczr1hNt.s 			page 23


 1240 0758 02       		.byte	0x2
 1241 0759 23       		.byte	0x23
 1242 075a 0C       		.uleb128 0xc
 1243 075b 15       		.uleb128 0x15
 1244 075c 7D030000 		.4byte	.LASF92
 1245 0760 0C       		.byte	0xc
 1246 0761 EA04     		.2byte	0x4ea
 1247 0763 62000000 		.4byte	0x62
 1248 0767 02       		.byte	0x2
 1249 0768 23       		.byte	0x23
 1250 0769 0E       		.uleb128 0xe
 1251 076a 0C       		.uleb128 0xc
 1252 076b 43523200 		.ascii	"CR2\000"
 1253 076f 0C       		.byte	0xc
 1254 0770 EB04     		.2byte	0x4eb
 1255 0772 62060000 		.4byte	0x662
 1256 0776 02       		.byte	0x2
 1257 0777 23       		.byte	0x23
 1258 0778 10       		.uleb128 0x10
 1259 0779 15       		.uleb128 0x15
 1260 077a 87030000 		.4byte	.LASF93
 1261 077e 0C       		.byte	0xc
 1262 077f EC04     		.2byte	0x4ec
 1263 0781 62000000 		.4byte	0x62
 1264 0785 02       		.byte	0x2
 1265 0786 23       		.byte	0x23
 1266 0787 12       		.uleb128 0x12
 1267 0788 0C       		.uleb128 0xc
 1268 0789 43523300 		.ascii	"CR3\000"
 1269 078d 0C       		.byte	0xc
 1270 078e ED04     		.2byte	0x4ed
 1271 0790 62060000 		.4byte	0x662
 1272 0794 02       		.byte	0x2
 1273 0795 23       		.byte	0x23
 1274 0796 14       		.uleb128 0x14
 1275 0797 15       		.uleb128 0x15
 1276 0798 78040000 		.4byte	.LASF94
 1277 079c 0C       		.byte	0xc
 1278 079d EE04     		.2byte	0x4ee
 1279 079f 62000000 		.4byte	0x62
 1280 07a3 02       		.byte	0x2
 1281 07a4 23       		.byte	0x23
 1282 07a5 16       		.uleb128 0x16
 1283 07a6 15       		.uleb128 0x15
 1284 07a7 BF000000 		.4byte	.LASF95
 1285 07ab 0C       		.byte	0xc
 1286 07ac EF04     		.2byte	0x4ef
 1287 07ae 62060000 		.4byte	0x662
 1288 07b2 02       		.byte	0x2
 1289 07b3 23       		.byte	0x23
 1290 07b4 18       		.uleb128 0x18
 1291 07b5 15       		.uleb128 0x15
 1292 07b6 98030000 		.4byte	.LASF96
 1293 07ba 0C       		.byte	0xc
 1294 07bb F004     		.2byte	0x4f0
 1295 07bd 62000000 		.4byte	0x62
 1296 07c1 02       		.byte	0x2
ARM GAS  /tmp/cczr1hNt.s 			page 24


 1297 07c2 23       		.byte	0x23
 1298 07c3 1A       		.uleb128 0x1a
 1299 07c4 00       		.byte	0
 1300 07c5 16       		.uleb128 0x16
 1301 07c6 2C020000 		.4byte	.LASF97
 1302 07ca 0C       		.byte	0xc
 1303 07cb F104     		.2byte	0x4f1
 1304 07cd EB060000 		.4byte	0x6eb
 1305 07d1 11       		.uleb128 0x11
 1306 07d2 01       		.byte	0x1
 1307 07d3 EF000000 		.4byte	0xef
 1308 07d7 EB070000 		.4byte	0x7eb
 1309 07db 12       		.uleb128 0x12
 1310 07dc BC020000 		.4byte	0x2bc
 1311 07e0 12       		.uleb128 0x12
 1312 07e1 49000000 		.4byte	0x49
 1313 07e5 12       		.uleb128 0x12
 1314 07e6 10010000 		.4byte	0x110
 1315 07ea 00       		.byte	0
 1316 07eb 09       		.uleb128 0x9
 1317 07ec 04       		.byte	0x4
 1318 07ed D1070000 		.4byte	0x7d1
 1319 07f1 11       		.uleb128 0x11
 1320 07f2 01       		.byte	0x1
 1321 07f3 EF000000 		.4byte	0xef
 1322 07f7 06080000 		.4byte	0x806
 1323 07fb 12       		.uleb128 0x12
 1324 07fc BC020000 		.4byte	0x2bc
 1325 0800 12       		.uleb128 0x12
 1326 0801 10010000 		.4byte	0x110
 1327 0805 00       		.byte	0
 1328 0806 09       		.uleb128 0x9
 1329 0807 04       		.byte	0x4
 1330 0808 F1070000 		.4byte	0x7f1
 1331 080c 11       		.uleb128 0x11
 1332 080d 01       		.byte	0x1
 1333 080e 30000000 		.4byte	0x30
 1334 0812 2B080000 		.4byte	0x82b
 1335 0816 12       		.uleb128 0x12
 1336 0817 BC020000 		.4byte	0x2bc
 1337 081b 12       		.uleb128 0x12
 1338 081c E9050000 		.4byte	0x5e9
 1339 0820 12       		.uleb128 0x12
 1340 0821 30000000 		.4byte	0x30
 1341 0825 12       		.uleb128 0x12
 1342 0826 10010000 		.4byte	0x110
 1343 082a 00       		.byte	0
 1344 082b 09       		.uleb128 0x9
 1345 082c 04       		.byte	0x4
 1346 082d 0C080000 		.4byte	0x80c
 1347 0831 11       		.uleb128 0x11
 1348 0832 01       		.byte	0x1
 1349 0833 30000000 		.4byte	0x30
 1350 0837 50080000 		.4byte	0x850
 1351 083b 12       		.uleb128 0x12
 1352 083c BC020000 		.4byte	0x2bc
 1353 0840 12       		.uleb128 0x12
ARM GAS  /tmp/cczr1hNt.s 			page 25


 1354 0841 6E050000 		.4byte	0x56e
 1355 0845 12       		.uleb128 0x12
 1356 0846 30000000 		.4byte	0x30
 1357 084a 12       		.uleb128 0x12
 1358 084b 10010000 		.4byte	0x110
 1359 084f 00       		.byte	0
 1360 0850 09       		.uleb128 0x9
 1361 0851 04       		.byte	0x4
 1362 0852 31080000 		.4byte	0x831
 1363 0856 03       		.uleb128 0x3
 1364 0857 39000000 		.4byte	.LASF98
 1365 085b 0D       		.byte	0xd
 1366 085c 6D       		.byte	0x6d
 1367 085d 86000000 		.4byte	0x86
 1368 0861 17       		.uleb128 0x17
 1369 0862 01       		.byte	0x1
 1370 0863 0E       		.byte	0xe
 1371 0864 5D       		.byte	0x5d
 1372 0865 7C080000 		.4byte	0x87c
 1373 0869 18       		.uleb128 0x18
 1374 086a 6E040000 		.4byte	.LASF99
 1375 086e 00       		.sleb128 0
 1376 086f 18       		.uleb128 0x18
 1377 0870 4F040000 		.4byte	.LASF100
 1378 0874 01       		.sleb128 1
 1379 0875 18       		.uleb128 0x18
 1380 0876 F1040000 		.4byte	.LASF101
 1381 087a 02       		.sleb128 2
 1382 087b 00       		.byte	0
 1383 087c 03       		.uleb128 0x3
 1384 087d 8B040000 		.4byte	.LASF102
 1385 0881 0E       		.byte	0xe
 1386 0882 61       		.byte	0x61
 1387 0883 61080000 		.4byte	0x861
 1388 0887 03       		.uleb128 0x3
 1389 0888 95040000 		.4byte	.LASF103
 1390 088c 0E       		.byte	0xe
 1391 088d 66       		.byte	0x66
 1392 088e 92080000 		.4byte	0x892
 1393 0892 05       		.uleb128 0x5
 1394 0893 95040000 		.4byte	.LASF103
 1395 0897 78       		.byte	0x78
 1396 0898 0E       		.byte	0xe
 1397 0899 80       		.byte	0x80
 1398 089a 0D090000 		.4byte	0x90d
 1399 089e 07       		.uleb128 0x7
 1400 089f 766D7400 		.ascii	"vmt\000"
 1401 08a3 0E       		.byte	0xe
 1402 08a4 82       		.byte	0x82
 1403 08a5 D6090000 		.4byte	0x9d6
 1404 08a9 02       		.byte	0x2
 1405 08aa 23       		.byte	0x23
 1406 08ab 00       		.uleb128 0
 1407 08ac 06       		.uleb128 0x6
 1408 08ad FC010000 		.4byte	.LASF104
 1409 08b1 0E       		.byte	0xe
 1410 08b2 83       		.byte	0x83
ARM GAS  /tmp/cczr1hNt.s 			page 26


 1411 08b3 44040000 		.4byte	0x444
 1412 08b7 02       		.byte	0x2
 1413 08b8 23       		.byte	0x23
 1414 08b9 04       		.uleb128 0x4
 1415 08ba 06       		.uleb128 0x6
 1416 08bb 27010000 		.4byte	.LASF105
 1417 08bf 0E       		.byte	0xe
 1418 08c0 83       		.byte	0x83
 1419 08c1 7C080000 		.4byte	0x87c
 1420 08c5 02       		.byte	0x2
 1421 08c6 23       		.byte	0x23
 1422 08c7 08       		.uleb128 0x8
 1423 08c8 06       		.uleb128 0x6
 1424 08c9 C3010000 		.4byte	.LASF106
 1425 08cd 0E       		.byte	0xe
 1426 08ce 83       		.byte	0x83
 1427 08cf 74050000 		.4byte	0x574
 1428 08d3 02       		.byte	0x2
 1429 08d4 23       		.byte	0x23
 1430 08d5 0C       		.uleb128 0xc
 1431 08d6 06       		.uleb128 0x6
 1432 08d7 25020000 		.4byte	.LASF107
 1433 08db 0E       		.byte	0xe
 1434 08dc 83       		.byte	0x83
 1435 08dd 7F050000 		.4byte	0x57f
 1436 08e1 02       		.byte	0x2
 1437 08e2 23       		.byte	0x23
 1438 08e3 30       		.uleb128 0x30
 1439 08e4 07       		.uleb128 0x7
 1440 08e5 696200   		.ascii	"ib\000"
 1441 08e8 0E       		.byte	0xe
 1442 08e9 83       		.byte	0x83
 1443 08ea E1090000 		.4byte	0x9e1
 1444 08ee 02       		.byte	0x2
 1445 08ef 23       		.byte	0x23
 1446 08f0 54       		.uleb128 0x54
 1447 08f1 07       		.uleb128 0x7
 1448 08f2 6F6200   		.ascii	"ob\000"
 1449 08f5 0E       		.byte	0xe
 1450 08f6 83       		.byte	0x83
 1451 08f7 E1090000 		.4byte	0x9e1
 1452 08fb 02       		.byte	0x2
 1453 08fc 23       		.byte	0x23
 1454 08fd 64       		.uleb128 0x64
 1455 08fe 06       		.uleb128 0x6
 1456 08ff 90010000 		.4byte	.LASF108
 1457 0903 0E       		.byte	0xe
 1458 0904 83       		.byte	0x83
 1459 0905 F1090000 		.4byte	0x9f1
 1460 0909 02       		.byte	0x2
 1461 090a 23       		.byte	0x23
 1462 090b 74       		.uleb128 0x74
 1463 090c 00       		.byte	0
 1464 090d 08       		.uleb128 0x8
 1465 090e 0C       		.byte	0xc
 1466 090f 0F       		.byte	0xf
 1467 0910 D7       		.byte	0xd7
ARM GAS  /tmp/cczr1hNt.s 			page 27


 1468 0911 4E090000 		.4byte	0x94e
 1469 0915 06       		.uleb128 0x6
 1470 0916 6C020000 		.4byte	.LASF109
 1471 091a 0F       		.byte	0xf
 1472 091b DB       		.byte	0xdb
 1473 091c 86000000 		.4byte	0x86
 1474 0920 02       		.byte	0x2
 1475 0921 23       		.byte	0x23
 1476 0922 00       		.uleb128 0
 1477 0923 07       		.uleb128 0x7
 1478 0924 63723100 		.ascii	"cr1\000"
 1479 0928 0F       		.byte	0xf
 1480 0929 E0       		.byte	0xe0
 1481 092a 62000000 		.4byte	0x62
 1482 092e 02       		.byte	0x2
 1483 092f 23       		.byte	0x23
 1484 0930 04       		.uleb128 0x4
 1485 0931 07       		.uleb128 0x7
 1486 0932 63723200 		.ascii	"cr2\000"
 1487 0936 0F       		.byte	0xf
 1488 0937 E4       		.byte	0xe4
 1489 0938 62000000 		.4byte	0x62
 1490 093c 02       		.byte	0x2
 1491 093d 23       		.byte	0x23
 1492 093e 06       		.uleb128 0x6
 1493 093f 07       		.uleb128 0x7
 1494 0940 63723300 		.ascii	"cr3\000"
 1495 0944 0F       		.byte	0xf
 1496 0945 E8       		.byte	0xe8
 1497 0946 62000000 		.4byte	0x62
 1498 094a 02       		.byte	0x2
 1499 094b 23       		.byte	0x23
 1500 094c 08       		.uleb128 0x8
 1501 094d 00       		.byte	0
 1502 094e 03       		.uleb128 0x3
 1503 094f 44030000 		.4byte	.LASF110
 1504 0953 0F       		.byte	0xf
 1505 0954 E9       		.byte	0xe9
 1506 0955 0D090000 		.4byte	0x90d
 1507 0959 05       		.uleb128 0x5
 1508 095a AC010000 		.4byte	.LASF111
 1509 095e 20       		.byte	0x20
 1510 095f 0E       		.byte	0xe
 1511 0960 75       		.byte	0x75
 1512 0961 D6090000 		.4byte	0x9d6
 1513 0965 06       		.uleb128 0x6
 1514 0966 E6020000 		.4byte	.LASF83
 1515 096a 0E       		.byte	0xe
 1516 096b 76       		.byte	0x76
 1517 096c F4050000 		.4byte	0x5f4
 1518 0970 02       		.byte	0x2
 1519 0971 23       		.byte	0x23
 1520 0972 00       		.uleb128 0
 1521 0973 06       		.uleb128 0x6
 1522 0974 B4040000 		.4byte	.LASF84
 1523 0978 0E       		.byte	0xe
 1524 0979 76       		.byte	0x76
ARM GAS  /tmp/cczr1hNt.s 			page 28


 1525 097a 14060000 		.4byte	0x614
 1526 097e 02       		.byte	0x2
 1527 097f 23       		.byte	0x23
 1528 0980 04       		.uleb128 0x4
 1529 0981 07       		.uleb128 0x7
 1530 0982 70757400 		.ascii	"put\000"
 1531 0986 0E       		.byte	0xe
 1532 0987 76       		.byte	0x76
 1533 0988 2F060000 		.4byte	0x62f
 1534 098c 02       		.byte	0x2
 1535 098d 23       		.byte	0x23
 1536 098e 08       		.uleb128 0x8
 1537 098f 07       		.uleb128 0x7
 1538 0990 67657400 		.ascii	"get\000"
 1539 0994 0E       		.byte	0xe
 1540 0995 76       		.byte	0x76
 1541 0996 AD040000 		.4byte	0x4ad
 1542 099a 02       		.byte	0x2
 1543 099b 23       		.byte	0x23
 1544 099c 0C       		.uleb128 0xc
 1545 099d 06       		.uleb128 0x6
 1546 099e EC020000 		.4byte	.LASF112
 1547 09a2 0E       		.byte	0xe
 1548 09a3 76       		.byte	0x76
 1549 09a4 EB070000 		.4byte	0x7eb
 1550 09a8 02       		.byte	0x2
 1551 09a9 23       		.byte	0x23
 1552 09aa 10       		.uleb128 0x10
 1553 09ab 06       		.uleb128 0x6
 1554 09ac F7010000 		.4byte	.LASF113
 1555 09b0 0E       		.byte	0xe
 1556 09b1 76       		.byte	0x76
 1557 09b2 06080000 		.4byte	0x806
 1558 09b6 02       		.byte	0x2
 1559 09b7 23       		.byte	0x23
 1560 09b8 14       		.uleb128 0x14
 1561 09b9 06       		.uleb128 0x6
 1562 09ba 3A020000 		.4byte	.LASF114
 1563 09be 0E       		.byte	0xe
 1564 09bf 76       		.byte	0x76
 1565 09c0 2B080000 		.4byte	0x82b
 1566 09c4 02       		.byte	0x2
 1567 09c5 23       		.byte	0x23
 1568 09c6 18       		.uleb128 0x18
 1569 09c7 06       		.uleb128 0x6
 1570 09c8 86000000 		.4byte	.LASF115
 1571 09cc 0E       		.byte	0xe
 1572 09cd 76       		.byte	0x76
 1573 09ce 50080000 		.4byte	0x850
 1574 09d2 02       		.byte	0x2
 1575 09d3 23       		.byte	0x23
 1576 09d4 1C       		.uleb128 0x1c
 1577 09d5 00       		.byte	0
 1578 09d6 09       		.uleb128 0x9
 1579 09d7 04       		.byte	0x4
 1580 09d8 DC090000 		.4byte	0x9dc
 1581 09dc 10       		.uleb128 0x10
ARM GAS  /tmp/cczr1hNt.s 			page 29


 1582 09dd 59090000 		.4byte	0x959
 1583 09e1 19       		.uleb128 0x19
 1584 09e2 49000000 		.4byte	0x49
 1585 09e6 F1090000 		.4byte	0x9f1
 1586 09ea 1A       		.uleb128 0x1a
 1587 09eb 7F030000 		.4byte	0x37f
 1588 09ef 0F       		.byte	0xf
 1589 09f0 00       		.byte	0
 1590 09f1 09       		.uleb128 0x9
 1591 09f2 04       		.byte	0x4
 1592 09f3 C5070000 		.4byte	0x7c5
 1593 09f7 1B       		.uleb128 0x1b
 1594 09f8 08000000 		.4byte	.LASF117
 1595 09fc 01       		.byte	0x1
 1596 09fd 19       		.byte	0x19
 1597 09fe 01       		.byte	0x1
 1598 09ff EF000000 		.4byte	0xef
 1599 0a03 00000000 		.4byte	.LFB64
 1600 0a07 50000000 		.4byte	.LFE64
 1601 0a0b 00000000 		.4byte	.LLST0
 1602 0a0f 01       		.byte	0x1
 1603 0a10 500A0000 		.4byte	0xa50
 1604 0a14 1C       		.uleb128 0x1c
 1605 0a15 61726700 		.ascii	"arg\000"
 1606 0a19 01       		.byte	0x1
 1607 0a1a 19       		.byte	0x19
 1608 0a1b BC020000 		.4byte	0x2bc
 1609 0a1f 20000000 		.4byte	.LLST1
 1610 0a23 1D       		.uleb128 0x1d
 1611 0a24 0A000000 		.4byte	.LBB2
 1612 0a28 3E000000 		.4byte	.LBE2
 1613 0a2c 1E       		.uleb128 0x1e
 1614 0a2d 76617200 		.ascii	"var\000"
 1615 0a31 01       		.byte	0x1
 1616 0a32 1B       		.byte	0x1b
 1617 0a33 500A0000 		.4byte	0xa50
 1618 0a37 41000000 		.4byte	.LLST2
 1619 0a3b 1F       		.uleb128 0x1f
 1620 0a3c 20000000 		.4byte	.LVL3
 1621 0a40 C40B0000 		.4byte	0xbc4
 1622 0a44 20       		.uleb128 0x20
 1623 0a45 01       		.byte	0x1
 1624 0a46 51       		.byte	0x51
 1625 0a47 05       		.byte	0x5
 1626 0a48 03       		.byte	0x3
 1627 0a49 00000000 		.4byte	.LC0
 1628 0a4d 00       		.byte	0
 1629 0a4e 00       		.byte	0
 1630 0a4f 00       		.byte	0
 1631 0a50 04       		.uleb128 0x4
 1632 0a51 04       		.byte	0x4
 1633 0a52 04       		.byte	0x4
 1634 0a53 51030000 		.4byte	.LASF116
 1635 0a57 21       		.uleb128 0x21
 1636 0a58 15020000 		.4byte	.LASF118
 1637 0a5c 01       		.byte	0x1
 1638 0a5d 08       		.byte	0x8
ARM GAS  /tmp/cczr1hNt.s 			page 30


 1639 0a5e 01       		.byte	0x1
 1640 0a5f EF000000 		.4byte	0xef
 1641 0a63 00000000 		.4byte	.LFB63
 1642 0a67 38000000 		.4byte	.LFE63
 1643 0a6b 6F000000 		.4byte	.LLST3
 1644 0a6f 01       		.byte	0x1
 1645 0a70 BF0A0000 		.4byte	0xabf
 1646 0a74 1C       		.uleb128 0x1c
 1647 0a75 61726700 		.ascii	"arg\000"
 1648 0a79 01       		.byte	0x1
 1649 0a7a 08       		.byte	0x8
 1650 0a7b BC020000 		.4byte	0x2bc
 1651 0a7f 8F000000 		.4byte	.LLST4
 1652 0a83 22       		.uleb128 0x22
 1653 0a84 0A000000 		.4byte	.LVL10
 1654 0a88 C40B0000 		.4byte	0xbc4
 1655 0a8c 9A0A0000 		.4byte	0xa9a
 1656 0a90 20       		.uleb128 0x20
 1657 0a91 01       		.byte	0x1
 1658 0a92 51       		.byte	0x51
 1659 0a93 05       		.byte	0x5
 1660 0a94 03       		.byte	0x3
 1661 0a95 08000000 		.4byte	.LC1
 1662 0a99 00       		.byte	0
 1663 0a9a 22       		.uleb128 0x22
 1664 0a9b 24000000 		.4byte	.LVL11
 1665 0a9f E40B0000 		.4byte	0xbe4
 1666 0aa3 AE0A0000 		.4byte	0xaae
 1667 0aa7 20       		.uleb128 0x20
 1668 0aa8 01       		.byte	0x1
 1669 0aa9 50       		.byte	0x50
 1670 0aaa 02       		.byte	0x2
 1671 0aab 08       		.byte	0x8
 1672 0aac FA       		.byte	0xfa
 1673 0aad 00       		.byte	0
 1674 0aae 1F       		.uleb128 0x1f
 1675 0aaf 2E000000 		.4byte	.LVL12
 1676 0ab3 E40B0000 		.4byte	0xbe4
 1677 0ab7 20       		.uleb128 0x20
 1678 0ab8 01       		.byte	0x1
 1679 0ab9 50       		.byte	0x50
 1680 0aba 02       		.byte	0x2
 1681 0abb 08       		.byte	0x8
 1682 0abc FA       		.byte	0xfa
 1683 0abd 00       		.byte	0
 1684 0abe 00       		.byte	0
 1685 0abf 23       		.uleb128 0x23
 1686 0ac0 01       		.byte	0x1
 1687 0ac1 3B050000 		.4byte	.LASF131
 1688 0ac5 01       		.byte	0x1
 1689 0ac6 22       		.byte	0x22
 1690 0ac7 01       		.byte	0x1
 1691 0ac8 29000000 		.4byte	0x29
 1692 0acc 00000000 		.4byte	.LFB65
 1693 0ad0 58000000 		.4byte	.LFE65
 1694 0ad4 B0000000 		.4byte	.LLST5
 1695 0ad8 01       		.byte	0x1
ARM GAS  /tmp/cczr1hNt.s 			page 31


 1696 0ad9 660B0000 		.4byte	0xb66
 1697 0add 24       		.uleb128 0x24
 1698 0ade 08000000 		.4byte	.LVL13
 1699 0ae2 F90B0000 		.4byte	0xbf9
 1700 0ae6 24       		.uleb128 0x24
 1701 0ae7 0C000000 		.4byte	.LVL14
 1702 0aeb 030C0000 		.4byte	0xc03
 1703 0aef 22       		.uleb128 0x22
 1704 0af0 1A000000 		.4byte	.LVL15
 1705 0af4 0D0C0000 		.4byte	0xc0d
 1706 0af8 020B0000 		.4byte	0xb02
 1707 0afc 20       		.uleb128 0x20
 1708 0afd 01       		.byte	0x1
 1709 0afe 51       		.byte	0x51
 1710 0aff 01       		.byte	0x1
 1711 0b00 30       		.byte	0x30
 1712 0b01 00       		.byte	0
 1713 0b02 22       		.uleb128 0x22
 1714 0b03 36000000 		.4byte	.LVL16
 1715 0b07 380C0000 		.4byte	0xc38
 1716 0b0b 350B0000 		.4byte	0xb35
 1717 0b0f 20       		.uleb128 0x20
 1718 0b10 01       		.byte	0x1
 1719 0b11 53       		.byte	0x53
 1720 0b12 05       		.byte	0x5
 1721 0b13 03       		.byte	0x3
 1722 0b14 00000000 		.4byte	heartBeat
 1723 0b18 20       		.uleb128 0x20
 1724 0b19 01       		.byte	0x1
 1725 0b1a 52       		.byte	0x52
 1726 0b1b 02       		.byte	0x2
 1727 0b1c 08       		.byte	0x8
 1728 0b1d 40       		.byte	0x40
 1729 0b1e 20       		.uleb128 0x20
 1730 0b1f 01       		.byte	0x1
 1731 0b20 51       		.byte	0x51
 1732 0b21 02       		.byte	0x2
 1733 0b22 08       		.byte	0x8
 1734 0b23 F0       		.byte	0xf0
 1735 0b24 20       		.uleb128 0x20
 1736 0b25 01       		.byte	0x1
 1737 0b26 50       		.byte	0x50
 1738 0b27 05       		.byte	0x5
 1739 0b28 03       		.byte	0x3
 1740 0b29 00000000 		.4byte	.LANCHOR0
 1741 0b2d 20       		.uleb128 0x20
 1742 0b2e 02       		.byte	0x2
 1743 0b2f 7D       		.byte	0x7d
 1744 0b30 00       		.sleb128 0
 1745 0b31 02       		.byte	0x2
 1746 0b32 74       		.byte	0x74
 1747 0b33 00       		.sleb128 0
 1748 0b34 00       		.byte	0
 1749 0b35 1F       		.uleb128 0x1f
 1750 0b36 52000000 		.4byte	.LVL17
 1751 0b3a 380C0000 		.4byte	0xc38
 1752 0b3e 20       		.uleb128 0x20
ARM GAS  /tmp/cczr1hNt.s 			page 32


 1753 0b3f 01       		.byte	0x1
 1754 0b40 53       		.byte	0x53
 1755 0b41 05       		.byte	0x5
 1756 0b42 03       		.byte	0x3
 1757 0b43 00000000 		.4byte	floatingPoint
 1758 0b47 20       		.uleb128 0x20
 1759 0b48 01       		.byte	0x1
 1760 0b49 52       		.byte	0x52
 1761 0b4a 02       		.byte	0x2
 1762 0b4b 08       		.byte	0x8
 1763 0b4c 40       		.byte	0x40
 1764 0b4d 20       		.uleb128 0x20
 1765 0b4e 01       		.byte	0x1
 1766 0b4f 51       		.byte	0x51
 1767 0b50 03       		.byte	0x3
 1768 0b51 0A       		.byte	0xa
 1769 0b52 B002     		.2byte	0x2b0
 1770 0b54 20       		.uleb128 0x20
 1771 0b55 01       		.byte	0x1
 1772 0b56 50       		.byte	0x50
 1773 0b57 05       		.byte	0x5
 1774 0b58 03       		.byte	0x3
 1775 0b59 00000000 		.4byte	.LANCHOR1
 1776 0b5d 20       		.uleb128 0x20
 1777 0b5e 02       		.byte	0x2
 1778 0b5f 7D       		.byte	0x7d
 1779 0b60 00       		.sleb128 0
 1780 0b61 02       		.byte	0x2
 1781 0b62 74       		.byte	0x74
 1782 0b63 00       		.sleb128 0
 1783 0b64 00       		.byte	0
 1784 0b65 00       		.byte	0
 1785 0b66 19       		.uleb128 0x19
 1786 0b67 BE020000 		.4byte	0x2be
 1787 0b6b 760B0000 		.4byte	0xb76
 1788 0b6f 1A       		.uleb128 0x1a
 1789 0b70 7F030000 		.4byte	0x37f
 1790 0b74 1D       		.byte	0x1d
 1791 0b75 00       		.byte	0
 1792 0b76 25       		.uleb128 0x25
 1793 0b77 EA010000 		.4byte	.LASF119
 1794 0b7b 01       		.byte	0x1
 1795 0b7c 07       		.byte	0x7
 1796 0b7d 660B0000 		.4byte	0xb66
 1797 0b81 05       		.byte	0x5
 1798 0b82 03       		.byte	0x3
 1799 0b83 00000000 		.4byte	heartWrkArea
 1800 0b87 19       		.uleb128 0x19
 1801 0b88 BE020000 		.4byte	0x2be
 1802 0b8c 970B0000 		.4byte	0xb97
 1803 0b90 1A       		.uleb128 0x1a
 1804 0b91 7F030000 		.4byte	0x37f
 1805 0b95 55       		.byte	0x55
 1806 0b96 00       		.byte	0
 1807 0b97 25       		.uleb128 0x25
 1808 0b98 3F040000 		.4byte	.LASF120
 1809 0b9c 01       		.byte	0x1
ARM GAS  /tmp/cczr1hNt.s 			page 33


 1810 0b9d 18       		.byte	0x18
 1811 0b9e 870B0000 		.4byte	0xb87
 1812 0ba2 05       		.byte	0x5
 1813 0ba3 03       		.byte	0x3
 1814 0ba4 00000000 		.4byte	floatingWrkArea
 1815 0ba8 26       		.uleb128 0x26
 1816 0ba9 72000000 		.4byte	.LASF121
 1817 0bad 13       		.byte	0x13
 1818 0bae 0706     		.2byte	0x607
 1819 0bb0 67060000 		.4byte	0x667
 1820 0bb4 01       		.byte	0x1
 1821 0bb5 01       		.byte	0x1
 1822 0bb6 27       		.uleb128 0x27
 1823 0bb7 53443200 		.ascii	"SD2\000"
 1824 0bbb 0F       		.byte	0xf
 1825 0bbc 1201     		.2byte	0x112
 1826 0bbe 87080000 		.4byte	0x887
 1827 0bc2 01       		.byte	0x1
 1828 0bc3 01       		.byte	0x1
 1829 0bc4 28       		.uleb128 0x28
 1830 0bc5 01       		.byte	0x1
 1831 0bc6 58050000 		.4byte	.LASF122
 1832 0bca 10       		.byte	0x10
 1833 0bcb 26       		.byte	0x26
 1834 0bcc 01       		.byte	0x1
 1835 0bcd 01       		.byte	0x1
 1836 0bce DE0B0000 		.4byte	0xbde
 1837 0bd2 12       		.uleb128 0x12
 1838 0bd3 DE0B0000 		.4byte	0xbde
 1839 0bd7 12       		.uleb128 0x12
 1840 0bd8 84040000 		.4byte	0x484
 1841 0bdc 29       		.uleb128 0x29
 1842 0bdd 00       		.byte	0
 1843 0bde 09       		.uleb128 0x9
 1844 0bdf 04       		.byte	0x4
 1845 0be0 57060000 		.4byte	0x657
 1846 0be4 2A       		.uleb128 0x2a
 1847 0be5 01       		.byte	0x1
 1848 0be6 39030000 		.4byte	.LASF123
 1849 0bea 06       		.byte	0x6
 1850 0beb 6E01     		.2byte	0x16e
 1851 0bed 01       		.byte	0x1
 1852 0bee 01       		.byte	0x1
 1853 0bef F90B0000 		.4byte	0xbf9
 1854 0bf3 12       		.uleb128 0x12
 1855 0bf4 10010000 		.4byte	0x110
 1856 0bf8 00       		.byte	0
 1857 0bf9 2B       		.uleb128 0x2b
 1858 0bfa 01       		.byte	0x1
 1859 0bfb E2010000 		.4byte	.LASF124
 1860 0bff 11       		.byte	0x11
 1861 0c00 CA       		.byte	0xca
 1862 0c01 01       		.byte	0x1
 1863 0c02 01       		.byte	0x1
 1864 0c03 2B       		.uleb128 0x2b
 1865 0c04 01       		.byte	0x1
 1866 0c05 B5000000 		.4byte	.LASF125
ARM GAS  /tmp/cczr1hNt.s 			page 34


 1867 0c09 12       		.byte	0x12
 1868 0c0a EF       		.byte	0xef
 1869 0c0b 01       		.byte	0x1
 1870 0c0c 01       		.byte	0x1
 1871 0c0d 2A       		.uleb128 0x2a
 1872 0c0e 01       		.byte	0x1
 1873 0c0f BE040000 		.4byte	.LASF126
 1874 0c13 0E       		.byte	0xe
 1875 0c14 3001     		.2byte	0x130
 1876 0c16 01       		.byte	0x1
 1877 0c17 01       		.byte	0x1
 1878 0c18 270C0000 		.4byte	0xc27
 1879 0c1c 12       		.uleb128 0x12
 1880 0c1d 270C0000 		.4byte	0xc27
 1881 0c21 12       		.uleb128 0x12
 1882 0c22 2D0C0000 		.4byte	0xc2d
 1883 0c26 00       		.byte	0
 1884 0c27 09       		.uleb128 0x9
 1885 0c28 04       		.byte	0x4
 1886 0c29 87080000 		.4byte	0x887
 1887 0c2d 09       		.uleb128 0x9
 1888 0c2e 04       		.byte	0x4
 1889 0c2f 330C0000 		.4byte	0xc33
 1890 0c33 10       		.uleb128 0x10
 1891 0c34 4E090000 		.4byte	0x94e
 1892 0c38 2C       		.uleb128 0x2c
 1893 0c39 01       		.byte	0x1
 1894 0c3a D4020000 		.4byte	.LASF127
 1895 0c3e 06       		.byte	0x6
 1896 0c3f 6901     		.2byte	0x169
 1897 0c41 01       		.byte	0x1
 1898 0c42 7E020000 		.4byte	0x27e
 1899 0c46 01       		.byte	0x1
 1900 0c47 12       		.uleb128 0x12
 1901 0c48 BC020000 		.4byte	0x2bc
 1902 0c4c 12       		.uleb128 0x12
 1903 0c4d 30000000 		.4byte	0x30
 1904 0c51 12       		.uleb128 0x12
 1905 0c52 E4000000 		.4byte	0xe4
 1906 0c56 12       		.uleb128 0x12
 1907 0c57 A2040000 		.4byte	0x4a2
 1908 0c5b 12       		.uleb128 0x12
 1909 0c5c BC020000 		.4byte	0x2bc
 1910 0c60 00       		.byte	0
 1911 0c61 00       		.byte	0
 1912              		.section	.debug_abbrev,"",%progbits
 1913              	.Ldebug_abbrev0:
 1914 0000 01       		.uleb128 0x1
 1915 0001 11       		.uleb128 0x11
 1916 0002 01       		.byte	0x1
 1917 0003 25       		.uleb128 0x25
 1918 0004 0E       		.uleb128 0xe
 1919 0005 13       		.uleb128 0x13
 1920 0006 0B       		.uleb128 0xb
 1921 0007 03       		.uleb128 0x3
 1922 0008 0E       		.uleb128 0xe
 1923 0009 1B       		.uleb128 0x1b
ARM GAS  /tmp/cczr1hNt.s 			page 35


 1924 000a 0E       		.uleb128 0xe
 1925 000b 55       		.uleb128 0x55
 1926 000c 06       		.uleb128 0x6
 1927 000d 11       		.uleb128 0x11
 1928 000e 01       		.uleb128 0x1
 1929 000f 52       		.uleb128 0x52
 1930 0010 01       		.uleb128 0x1
 1931 0011 10       		.uleb128 0x10
 1932 0012 06       		.uleb128 0x6
 1933 0013 00       		.byte	0
 1934 0014 00       		.byte	0
 1935 0015 02       		.uleb128 0x2
 1936 0016 24       		.uleb128 0x24
 1937 0017 00       		.byte	0
 1938 0018 0B       		.uleb128 0xb
 1939 0019 0B       		.uleb128 0xb
 1940 001a 3E       		.uleb128 0x3e
 1941 001b 0B       		.uleb128 0xb
 1942 001c 03       		.uleb128 0x3
 1943 001d 08       		.uleb128 0x8
 1944 001e 00       		.byte	0
 1945 001f 00       		.byte	0
 1946 0020 03       		.uleb128 0x3
 1947 0021 16       		.uleb128 0x16
 1948 0022 00       		.byte	0
 1949 0023 03       		.uleb128 0x3
 1950 0024 0E       		.uleb128 0xe
 1951 0025 3A       		.uleb128 0x3a
 1952 0026 0B       		.uleb128 0xb
 1953 0027 3B       		.uleb128 0x3b
 1954 0028 0B       		.uleb128 0xb
 1955 0029 49       		.uleb128 0x49
 1956 002a 13       		.uleb128 0x13
 1957 002b 00       		.byte	0
 1958 002c 00       		.byte	0
 1959 002d 04       		.uleb128 0x4
 1960 002e 24       		.uleb128 0x24
 1961 002f 00       		.byte	0
 1962 0030 0B       		.uleb128 0xb
 1963 0031 0B       		.uleb128 0xb
 1964 0032 3E       		.uleb128 0x3e
 1965 0033 0B       		.uleb128 0xb
 1966 0034 03       		.uleb128 0x3
 1967 0035 0E       		.uleb128 0xe
 1968 0036 00       		.byte	0
 1969 0037 00       		.byte	0
 1970 0038 05       		.uleb128 0x5
 1971 0039 13       		.uleb128 0x13
 1972 003a 01       		.byte	0x1
 1973 003b 03       		.uleb128 0x3
 1974 003c 0E       		.uleb128 0xe
 1975 003d 0B       		.uleb128 0xb
 1976 003e 0B       		.uleb128 0xb
 1977 003f 3A       		.uleb128 0x3a
 1978 0040 0B       		.uleb128 0xb
 1979 0041 3B       		.uleb128 0x3b
 1980 0042 0B       		.uleb128 0xb
ARM GAS  /tmp/cczr1hNt.s 			page 36


 1981 0043 01       		.uleb128 0x1
 1982 0044 13       		.uleb128 0x13
 1983 0045 00       		.byte	0
 1984 0046 00       		.byte	0
 1985 0047 06       		.uleb128 0x6
 1986 0048 0D       		.uleb128 0xd
 1987 0049 00       		.byte	0
 1988 004a 03       		.uleb128 0x3
 1989 004b 0E       		.uleb128 0xe
 1990 004c 3A       		.uleb128 0x3a
 1991 004d 0B       		.uleb128 0xb
 1992 004e 3B       		.uleb128 0x3b
 1993 004f 0B       		.uleb128 0xb
 1994 0050 49       		.uleb128 0x49
 1995 0051 13       		.uleb128 0x13
 1996 0052 38       		.uleb128 0x38
 1997 0053 0A       		.uleb128 0xa
 1998 0054 00       		.byte	0
 1999 0055 00       		.byte	0
 2000 0056 07       		.uleb128 0x7
 2001 0057 0D       		.uleb128 0xd
 2002 0058 00       		.byte	0
 2003 0059 03       		.uleb128 0x3
 2004 005a 08       		.uleb128 0x8
 2005 005b 3A       		.uleb128 0x3a
 2006 005c 0B       		.uleb128 0xb
 2007 005d 3B       		.uleb128 0x3b
 2008 005e 0B       		.uleb128 0xb
 2009 005f 49       		.uleb128 0x49
 2010 0060 13       		.uleb128 0x13
 2011 0061 38       		.uleb128 0x38
 2012 0062 0A       		.uleb128 0xa
 2013 0063 00       		.byte	0
 2014 0064 00       		.byte	0
 2015 0065 08       		.uleb128 0x8
 2016 0066 13       		.uleb128 0x13
 2017 0067 01       		.byte	0x1
 2018 0068 0B       		.uleb128 0xb
 2019 0069 0B       		.uleb128 0xb
 2020 006a 3A       		.uleb128 0x3a
 2021 006b 0B       		.uleb128 0xb
 2022 006c 3B       		.uleb128 0x3b
 2023 006d 0B       		.uleb128 0xb
 2024 006e 01       		.uleb128 0x1
 2025 006f 13       		.uleb128 0x13
 2026 0070 00       		.byte	0
 2027 0071 00       		.byte	0
 2028 0072 09       		.uleb128 0x9
 2029 0073 0F       		.uleb128 0xf
 2030 0074 00       		.byte	0
 2031 0075 0B       		.uleb128 0xb
 2032 0076 0B       		.uleb128 0xb
 2033 0077 49       		.uleb128 0x49
 2034 0078 13       		.uleb128 0x13
 2035 0079 00       		.byte	0
 2036 007a 00       		.byte	0
 2037 007b 0A       		.uleb128 0xa
ARM GAS  /tmp/cczr1hNt.s 			page 37


 2038 007c 0F       		.uleb128 0xf
 2039 007d 00       		.byte	0
 2040 007e 0B       		.uleb128 0xb
 2041 007f 0B       		.uleb128 0xb
 2042 0080 00       		.byte	0
 2043 0081 00       		.byte	0
 2044 0082 0B       		.uleb128 0xb
 2045 0083 13       		.uleb128 0x13
 2046 0084 01       		.byte	0x1
 2047 0085 03       		.uleb128 0x3
 2048 0086 0E       		.uleb128 0xe
 2049 0087 0B       		.uleb128 0xb
 2050 0088 0B       		.uleb128 0xb
 2051 0089 3A       		.uleb128 0x3a
 2052 008a 0B       		.uleb128 0xb
 2053 008b 3B       		.uleb128 0x3b
 2054 008c 05       		.uleb128 0x5
 2055 008d 01       		.uleb128 0x1
 2056 008e 13       		.uleb128 0x13
 2057 008f 00       		.byte	0
 2058 0090 00       		.byte	0
 2059 0091 0C       		.uleb128 0xc
 2060 0092 0D       		.uleb128 0xd
 2061 0093 00       		.byte	0
 2062 0094 03       		.uleb128 0x3
 2063 0095 08       		.uleb128 0x8
 2064 0096 3A       		.uleb128 0x3a
 2065 0097 0B       		.uleb128 0xb
 2066 0098 3B       		.uleb128 0x3b
 2067 0099 05       		.uleb128 0x5
 2068 009a 49       		.uleb128 0x49
 2069 009b 13       		.uleb128 0x13
 2070 009c 38       		.uleb128 0x38
 2071 009d 0A       		.uleb128 0xa
 2072 009e 00       		.byte	0
 2073 009f 00       		.byte	0
 2074 00a0 0D       		.uleb128 0xd
 2075 00a1 35       		.uleb128 0x35
 2076 00a2 00       		.byte	0
 2077 00a3 49       		.uleb128 0x49
 2078 00a4 13       		.uleb128 0x13
 2079 00a5 00       		.byte	0
 2080 00a6 00       		.byte	0
 2081 00a7 0E       		.uleb128 0xe
 2082 00a8 17       		.uleb128 0x17
 2083 00a9 01       		.byte	0x1
 2084 00aa 0B       		.uleb128 0xb
 2085 00ab 0B       		.uleb128 0xb
 2086 00ac 3A       		.uleb128 0x3a
 2087 00ad 0B       		.uleb128 0xb
 2088 00ae 3B       		.uleb128 0x3b
 2089 00af 0B       		.uleb128 0xb
 2090 00b0 01       		.uleb128 0x1
 2091 00b1 13       		.uleb128 0x13
 2092 00b2 00       		.byte	0
 2093 00b3 00       		.byte	0
 2094 00b4 0F       		.uleb128 0xf
ARM GAS  /tmp/cczr1hNt.s 			page 38


 2095 00b5 0D       		.uleb128 0xd
 2096 00b6 00       		.byte	0
 2097 00b7 03       		.uleb128 0x3
 2098 00b8 0E       		.uleb128 0xe
 2099 00b9 3A       		.uleb128 0x3a
 2100 00ba 0B       		.uleb128 0xb
 2101 00bb 3B       		.uleb128 0x3b
 2102 00bc 0B       		.uleb128 0xb
 2103 00bd 49       		.uleb128 0x49
 2104 00be 13       		.uleb128 0x13
 2105 00bf 00       		.byte	0
 2106 00c0 00       		.byte	0
 2107 00c1 10       		.uleb128 0x10
 2108 00c2 26       		.uleb128 0x26
 2109 00c3 00       		.byte	0
 2110 00c4 49       		.uleb128 0x49
 2111 00c5 13       		.uleb128 0x13
 2112 00c6 00       		.byte	0
 2113 00c7 00       		.byte	0
 2114 00c8 11       		.uleb128 0x11
 2115 00c9 15       		.uleb128 0x15
 2116 00ca 01       		.byte	0x1
 2117 00cb 27       		.uleb128 0x27
 2118 00cc 0C       		.uleb128 0xc
 2119 00cd 49       		.uleb128 0x49
 2120 00ce 13       		.uleb128 0x13
 2121 00cf 01       		.uleb128 0x1
 2122 00d0 13       		.uleb128 0x13
 2123 00d1 00       		.byte	0
 2124 00d2 00       		.byte	0
 2125 00d3 12       		.uleb128 0x12
 2126 00d4 05       		.uleb128 0x5
 2127 00d5 00       		.byte	0
 2128 00d6 49       		.uleb128 0x49
 2129 00d7 13       		.uleb128 0x13
 2130 00d8 00       		.byte	0
 2131 00d9 00       		.byte	0
 2132 00da 13       		.uleb128 0x13
 2133 00db 15       		.uleb128 0x15
 2134 00dc 01       		.byte	0x1
 2135 00dd 27       		.uleb128 0x27
 2136 00de 0C       		.uleb128 0xc
 2137 00df 01       		.uleb128 0x1
 2138 00e0 13       		.uleb128 0x13
 2139 00e1 00       		.byte	0
 2140 00e2 00       		.byte	0
 2141 00e3 14       		.uleb128 0x14
 2142 00e4 13       		.uleb128 0x13
 2143 00e5 01       		.byte	0x1
 2144 00e6 0B       		.uleb128 0xb
 2145 00e7 0B       		.uleb128 0xb
 2146 00e8 3A       		.uleb128 0x3a
 2147 00e9 0B       		.uleb128 0xb
 2148 00ea 3B       		.uleb128 0x3b
 2149 00eb 05       		.uleb128 0x5
 2150 00ec 01       		.uleb128 0x1
 2151 00ed 13       		.uleb128 0x13
ARM GAS  /tmp/cczr1hNt.s 			page 39


 2152 00ee 00       		.byte	0
 2153 00ef 00       		.byte	0
 2154 00f0 15       		.uleb128 0x15
 2155 00f1 0D       		.uleb128 0xd
 2156 00f2 00       		.byte	0
 2157 00f3 03       		.uleb128 0x3
 2158 00f4 0E       		.uleb128 0xe
 2159 00f5 3A       		.uleb128 0x3a
 2160 00f6 0B       		.uleb128 0xb
 2161 00f7 3B       		.uleb128 0x3b
 2162 00f8 05       		.uleb128 0x5
 2163 00f9 49       		.uleb128 0x49
 2164 00fa 13       		.uleb128 0x13
 2165 00fb 38       		.uleb128 0x38
 2166 00fc 0A       		.uleb128 0xa
 2167 00fd 00       		.byte	0
 2168 00fe 00       		.byte	0
 2169 00ff 16       		.uleb128 0x16
 2170 0100 16       		.uleb128 0x16
 2171 0101 00       		.byte	0
 2172 0102 03       		.uleb128 0x3
 2173 0103 0E       		.uleb128 0xe
 2174 0104 3A       		.uleb128 0x3a
 2175 0105 0B       		.uleb128 0xb
 2176 0106 3B       		.uleb128 0x3b
 2177 0107 05       		.uleb128 0x5
 2178 0108 49       		.uleb128 0x49
 2179 0109 13       		.uleb128 0x13
 2180 010a 00       		.byte	0
 2181 010b 00       		.byte	0
 2182 010c 17       		.uleb128 0x17
 2183 010d 04       		.uleb128 0x4
 2184 010e 01       		.byte	0x1
 2185 010f 0B       		.uleb128 0xb
 2186 0110 0B       		.uleb128 0xb
 2187 0111 3A       		.uleb128 0x3a
 2188 0112 0B       		.uleb128 0xb
 2189 0113 3B       		.uleb128 0x3b
 2190 0114 0B       		.uleb128 0xb
 2191 0115 01       		.uleb128 0x1
 2192 0116 13       		.uleb128 0x13
 2193 0117 00       		.byte	0
 2194 0118 00       		.byte	0
 2195 0119 18       		.uleb128 0x18
 2196 011a 28       		.uleb128 0x28
 2197 011b 00       		.byte	0
 2198 011c 03       		.uleb128 0x3
 2199 011d 0E       		.uleb128 0xe
 2200 011e 1C       		.uleb128 0x1c
 2201 011f 0D       		.uleb128 0xd
 2202 0120 00       		.byte	0
 2203 0121 00       		.byte	0
 2204 0122 19       		.uleb128 0x19
 2205 0123 01       		.uleb128 0x1
 2206 0124 01       		.byte	0x1
 2207 0125 49       		.uleb128 0x49
 2208 0126 13       		.uleb128 0x13
ARM GAS  /tmp/cczr1hNt.s 			page 40


 2209 0127 01       		.uleb128 0x1
 2210 0128 13       		.uleb128 0x13
 2211 0129 00       		.byte	0
 2212 012a 00       		.byte	0
 2213 012b 1A       		.uleb128 0x1a
 2214 012c 21       		.uleb128 0x21
 2215 012d 00       		.byte	0
 2216 012e 49       		.uleb128 0x49
 2217 012f 13       		.uleb128 0x13
 2218 0130 2F       		.uleb128 0x2f
 2219 0131 0B       		.uleb128 0xb
 2220 0132 00       		.byte	0
 2221 0133 00       		.byte	0
 2222 0134 1B       		.uleb128 0x1b
 2223 0135 2E       		.uleb128 0x2e
 2224 0136 01       		.byte	0x1
 2225 0137 03       		.uleb128 0x3
 2226 0138 0E       		.uleb128 0xe
 2227 0139 3A       		.uleb128 0x3a
 2228 013a 0B       		.uleb128 0xb
 2229 013b 3B       		.uleb128 0x3b
 2230 013c 0B       		.uleb128 0xb
 2231 013d 27       		.uleb128 0x27
 2232 013e 0C       		.uleb128 0xc
 2233 013f 49       		.uleb128 0x49
 2234 0140 13       		.uleb128 0x13
 2235 0141 11       		.uleb128 0x11
 2236 0142 01       		.uleb128 0x1
 2237 0143 12       		.uleb128 0x12
 2238 0144 01       		.uleb128 0x1
 2239 0145 40       		.uleb128 0x40
 2240 0146 06       		.uleb128 0x6
 2241 0147 9642     		.uleb128 0x2116
 2242 0149 0C       		.uleb128 0xc
 2243 014a 01       		.uleb128 0x1
 2244 014b 13       		.uleb128 0x13
 2245 014c 00       		.byte	0
 2246 014d 00       		.byte	0
 2247 014e 1C       		.uleb128 0x1c
 2248 014f 05       		.uleb128 0x5
 2249 0150 00       		.byte	0
 2250 0151 03       		.uleb128 0x3
 2251 0152 08       		.uleb128 0x8
 2252 0153 3A       		.uleb128 0x3a
 2253 0154 0B       		.uleb128 0xb
 2254 0155 3B       		.uleb128 0x3b
 2255 0156 0B       		.uleb128 0xb
 2256 0157 49       		.uleb128 0x49
 2257 0158 13       		.uleb128 0x13
 2258 0159 02       		.uleb128 0x2
 2259 015a 06       		.uleb128 0x6
 2260 015b 00       		.byte	0
 2261 015c 00       		.byte	0
 2262 015d 1D       		.uleb128 0x1d
 2263 015e 0B       		.uleb128 0xb
 2264 015f 01       		.byte	0x1
 2265 0160 11       		.uleb128 0x11
ARM GAS  /tmp/cczr1hNt.s 			page 41


 2266 0161 01       		.uleb128 0x1
 2267 0162 12       		.uleb128 0x12
 2268 0163 01       		.uleb128 0x1
 2269 0164 00       		.byte	0
 2270 0165 00       		.byte	0
 2271 0166 1E       		.uleb128 0x1e
 2272 0167 34       		.uleb128 0x34
 2273 0168 00       		.byte	0
 2274 0169 03       		.uleb128 0x3
 2275 016a 08       		.uleb128 0x8
 2276 016b 3A       		.uleb128 0x3a
 2277 016c 0B       		.uleb128 0xb
 2278 016d 3B       		.uleb128 0x3b
 2279 016e 0B       		.uleb128 0xb
 2280 016f 49       		.uleb128 0x49
 2281 0170 13       		.uleb128 0x13
 2282 0171 02       		.uleb128 0x2
 2283 0172 06       		.uleb128 0x6
 2284 0173 00       		.byte	0
 2285 0174 00       		.byte	0
 2286 0175 1F       		.uleb128 0x1f
 2287 0176 898201   		.uleb128 0x4109
 2288 0179 01       		.byte	0x1
 2289 017a 11       		.uleb128 0x11
 2290 017b 01       		.uleb128 0x1
 2291 017c 31       		.uleb128 0x31
 2292 017d 13       		.uleb128 0x13
 2293 017e 00       		.byte	0
 2294 017f 00       		.byte	0
 2295 0180 20       		.uleb128 0x20
 2296 0181 8A8201   		.uleb128 0x410a
 2297 0184 00       		.byte	0
 2298 0185 02       		.uleb128 0x2
 2299 0186 0A       		.uleb128 0xa
 2300 0187 9142     		.uleb128 0x2111
 2301 0189 0A       		.uleb128 0xa
 2302 018a 00       		.byte	0
 2303 018b 00       		.byte	0
 2304 018c 21       		.uleb128 0x21
 2305 018d 2E       		.uleb128 0x2e
 2306 018e 01       		.byte	0x1
 2307 018f 03       		.uleb128 0x3
 2308 0190 0E       		.uleb128 0xe
 2309 0191 3A       		.uleb128 0x3a
 2310 0192 0B       		.uleb128 0xb
 2311 0193 3B       		.uleb128 0x3b
 2312 0194 0B       		.uleb128 0xb
 2313 0195 27       		.uleb128 0x27
 2314 0196 0C       		.uleb128 0xc
 2315 0197 49       		.uleb128 0x49
 2316 0198 13       		.uleb128 0x13
 2317 0199 11       		.uleb128 0x11
 2318 019a 01       		.uleb128 0x1
 2319 019b 12       		.uleb128 0x12
 2320 019c 01       		.uleb128 0x1
 2321 019d 40       		.uleb128 0x40
 2322 019e 06       		.uleb128 0x6
ARM GAS  /tmp/cczr1hNt.s 			page 42


 2323 019f 9742     		.uleb128 0x2117
 2324 01a1 0C       		.uleb128 0xc
 2325 01a2 01       		.uleb128 0x1
 2326 01a3 13       		.uleb128 0x13
 2327 01a4 00       		.byte	0
 2328 01a5 00       		.byte	0
 2329 01a6 22       		.uleb128 0x22
 2330 01a7 898201   		.uleb128 0x4109
 2331 01aa 01       		.byte	0x1
 2332 01ab 11       		.uleb128 0x11
 2333 01ac 01       		.uleb128 0x1
 2334 01ad 31       		.uleb128 0x31
 2335 01ae 13       		.uleb128 0x13
 2336 01af 01       		.uleb128 0x1
 2337 01b0 13       		.uleb128 0x13
 2338 01b1 00       		.byte	0
 2339 01b2 00       		.byte	0
 2340 01b3 23       		.uleb128 0x23
 2341 01b4 2E       		.uleb128 0x2e
 2342 01b5 01       		.byte	0x1
 2343 01b6 3F       		.uleb128 0x3f
 2344 01b7 0C       		.uleb128 0xc
 2345 01b8 03       		.uleb128 0x3
 2346 01b9 0E       		.uleb128 0xe
 2347 01ba 3A       		.uleb128 0x3a
 2348 01bb 0B       		.uleb128 0xb
 2349 01bc 3B       		.uleb128 0x3b
 2350 01bd 0B       		.uleb128 0xb
 2351 01be 27       		.uleb128 0x27
 2352 01bf 0C       		.uleb128 0xc
 2353 01c0 49       		.uleb128 0x49
 2354 01c1 13       		.uleb128 0x13
 2355 01c2 11       		.uleb128 0x11
 2356 01c3 01       		.uleb128 0x1
 2357 01c4 12       		.uleb128 0x12
 2358 01c5 01       		.uleb128 0x1
 2359 01c6 40       		.uleb128 0x40
 2360 01c7 06       		.uleb128 0x6
 2361 01c8 9742     		.uleb128 0x2117
 2362 01ca 0C       		.uleb128 0xc
 2363 01cb 01       		.uleb128 0x1
 2364 01cc 13       		.uleb128 0x13
 2365 01cd 00       		.byte	0
 2366 01ce 00       		.byte	0
 2367 01cf 24       		.uleb128 0x24
 2368 01d0 898201   		.uleb128 0x4109
 2369 01d3 00       		.byte	0
 2370 01d4 11       		.uleb128 0x11
 2371 01d5 01       		.uleb128 0x1
 2372 01d6 31       		.uleb128 0x31
 2373 01d7 13       		.uleb128 0x13
 2374 01d8 00       		.byte	0
 2375 01d9 00       		.byte	0
 2376 01da 25       		.uleb128 0x25
 2377 01db 34       		.uleb128 0x34
 2378 01dc 00       		.byte	0
 2379 01dd 03       		.uleb128 0x3
ARM GAS  /tmp/cczr1hNt.s 			page 43


 2380 01de 0E       		.uleb128 0xe
 2381 01df 3A       		.uleb128 0x3a
 2382 01e0 0B       		.uleb128 0xb
 2383 01e1 3B       		.uleb128 0x3b
 2384 01e2 0B       		.uleb128 0xb
 2385 01e3 49       		.uleb128 0x49
 2386 01e4 13       		.uleb128 0x13
 2387 01e5 02       		.uleb128 0x2
 2388 01e6 0A       		.uleb128 0xa
 2389 01e7 00       		.byte	0
 2390 01e8 00       		.byte	0
 2391 01e9 26       		.uleb128 0x26
 2392 01ea 34       		.uleb128 0x34
 2393 01eb 00       		.byte	0
 2394 01ec 03       		.uleb128 0x3
 2395 01ed 0E       		.uleb128 0xe
 2396 01ee 3A       		.uleb128 0x3a
 2397 01ef 0B       		.uleb128 0xb
 2398 01f0 3B       		.uleb128 0x3b
 2399 01f1 05       		.uleb128 0x5
 2400 01f2 49       		.uleb128 0x49
 2401 01f3 13       		.uleb128 0x13
 2402 01f4 3F       		.uleb128 0x3f
 2403 01f5 0C       		.uleb128 0xc
 2404 01f6 3C       		.uleb128 0x3c
 2405 01f7 0C       		.uleb128 0xc
 2406 01f8 00       		.byte	0
 2407 01f9 00       		.byte	0
 2408 01fa 27       		.uleb128 0x27
 2409 01fb 34       		.uleb128 0x34
 2410 01fc 00       		.byte	0
 2411 01fd 03       		.uleb128 0x3
 2412 01fe 08       		.uleb128 0x8
 2413 01ff 3A       		.uleb128 0x3a
 2414 0200 0B       		.uleb128 0xb
 2415 0201 3B       		.uleb128 0x3b
 2416 0202 05       		.uleb128 0x5
 2417 0203 49       		.uleb128 0x49
 2418 0204 13       		.uleb128 0x13
 2419 0205 3F       		.uleb128 0x3f
 2420 0206 0C       		.uleb128 0xc
 2421 0207 3C       		.uleb128 0x3c
 2422 0208 0C       		.uleb128 0xc
 2423 0209 00       		.byte	0
 2424 020a 00       		.byte	0
 2425 020b 28       		.uleb128 0x28
 2426 020c 2E       		.uleb128 0x2e
 2427 020d 01       		.byte	0x1
 2428 020e 3F       		.uleb128 0x3f
 2429 020f 0C       		.uleb128 0xc
 2430 0210 03       		.uleb128 0x3
 2431 0211 0E       		.uleb128 0xe
 2432 0212 3A       		.uleb128 0x3a
 2433 0213 0B       		.uleb128 0xb
 2434 0214 3B       		.uleb128 0x3b
 2435 0215 0B       		.uleb128 0xb
 2436 0216 27       		.uleb128 0x27
ARM GAS  /tmp/cczr1hNt.s 			page 44


 2437 0217 0C       		.uleb128 0xc
 2438 0218 3C       		.uleb128 0x3c
 2439 0219 0C       		.uleb128 0xc
 2440 021a 01       		.uleb128 0x1
 2441 021b 13       		.uleb128 0x13
 2442 021c 00       		.byte	0
 2443 021d 00       		.byte	0
 2444 021e 29       		.uleb128 0x29
 2445 021f 18       		.uleb128 0x18
 2446 0220 00       		.byte	0
 2447 0221 00       		.byte	0
 2448 0222 00       		.byte	0
 2449 0223 2A       		.uleb128 0x2a
 2450 0224 2E       		.uleb128 0x2e
 2451 0225 01       		.byte	0x1
 2452 0226 3F       		.uleb128 0x3f
 2453 0227 0C       		.uleb128 0xc
 2454 0228 03       		.uleb128 0x3
 2455 0229 0E       		.uleb128 0xe
 2456 022a 3A       		.uleb128 0x3a
 2457 022b 0B       		.uleb128 0xb
 2458 022c 3B       		.uleb128 0x3b
 2459 022d 05       		.uleb128 0x5
 2460 022e 27       		.uleb128 0x27
 2461 022f 0C       		.uleb128 0xc
 2462 0230 3C       		.uleb128 0x3c
 2463 0231 0C       		.uleb128 0xc
 2464 0232 01       		.uleb128 0x1
 2465 0233 13       		.uleb128 0x13
 2466 0234 00       		.byte	0
 2467 0235 00       		.byte	0
 2468 0236 2B       		.uleb128 0x2b
 2469 0237 2E       		.uleb128 0x2e
 2470 0238 00       		.byte	0
 2471 0239 3F       		.uleb128 0x3f
 2472 023a 0C       		.uleb128 0xc
 2473 023b 03       		.uleb128 0x3
 2474 023c 0E       		.uleb128 0xe
 2475 023d 3A       		.uleb128 0x3a
 2476 023e 0B       		.uleb128 0xb
 2477 023f 3B       		.uleb128 0x3b
 2478 0240 0B       		.uleb128 0xb
 2479 0241 27       		.uleb128 0x27
 2480 0242 0C       		.uleb128 0xc
 2481 0243 3C       		.uleb128 0x3c
 2482 0244 0C       		.uleb128 0xc
 2483 0245 00       		.byte	0
 2484 0246 00       		.byte	0
 2485 0247 2C       		.uleb128 0x2c
 2486 0248 2E       		.uleb128 0x2e
 2487 0249 01       		.byte	0x1
 2488 024a 3F       		.uleb128 0x3f
 2489 024b 0C       		.uleb128 0xc
 2490 024c 03       		.uleb128 0x3
 2491 024d 0E       		.uleb128 0xe
 2492 024e 3A       		.uleb128 0x3a
 2493 024f 0B       		.uleb128 0xb
ARM GAS  /tmp/cczr1hNt.s 			page 45


 2494 0250 3B       		.uleb128 0x3b
 2495 0251 05       		.uleb128 0x5
 2496 0252 27       		.uleb128 0x27
 2497 0253 0C       		.uleb128 0xc
 2498 0254 49       		.uleb128 0x49
 2499 0255 13       		.uleb128 0x13
 2500 0256 3C       		.uleb128 0x3c
 2501 0257 0C       		.uleb128 0xc
 2502 0258 00       		.byte	0
 2503 0259 00       		.byte	0
 2504 025a 00       		.byte	0
 2505              		.section	.debug_loc,"",%progbits
 2506              	.Ldebug_loc0:
 2507              	.LLST0:
 2508 0000 00000000 		.4byte	.LFB64
 2509 0004 02000000 		.4byte	.LCFI0
 2510 0008 0200     		.2byte	0x2
 2511 000a 7D       		.byte	0x7d
 2512 000b 00       		.sleb128 0
 2513 000c 02000000 		.4byte	.LCFI0
 2514 0010 50000000 		.4byte	.LFE64
 2515 0014 0200     		.2byte	0x2
 2516 0016 7D       		.byte	0x7d
 2517 0017 10       		.sleb128 16
 2518 0018 00000000 		.4byte	0
 2519 001c 00000000 		.4byte	0
 2520              	.LLST1:
 2521 0020 00000000 		.4byte	.LVL0
 2522 0024 0A000000 		.4byte	.LVL1
 2523 0028 0100     		.2byte	0x1
 2524 002a 50       		.byte	0x50
 2525 002b 0A000000 		.4byte	.LVL1
 2526 002f 50000000 		.4byte	.LFE64
 2527 0033 0400     		.2byte	0x4
 2528 0035 F3       		.byte	0xf3
 2529 0036 01       		.uleb128 0x1
 2530 0037 50       		.byte	0x50
 2531 0038 9F       		.byte	0x9f
 2532 0039 00000000 		.4byte	0
 2533 003d 00000000 		.4byte	0
 2534              	.LLST2:
 2535 0041 00000000 		.4byte	.LVL0
 2536 0045 0A000000 		.4byte	.LVL1
 2537 0049 0600     		.2byte	0x6
 2538 004b 9E       		.byte	0x9e
 2539 004c 04       		.uleb128 0x4
 2540 004d 72F97F3F 		.4byte	0x3f7ff972
 2541 0051 36000000 		.4byte	.LVL6
 2542 0055 39000000 		.4byte	.LVL7-1
 2543 0059 0100     		.2byte	0x1
 2544 005b 50       		.byte	0x50
 2545 005c 39000000 		.4byte	.LVL7-1
 2546 0060 50000000 		.4byte	.LFE64
 2547 0064 0100     		.2byte	0x1
 2548 0066 54       		.byte	0x54
 2549 0067 00000000 		.4byte	0
 2550 006b 00000000 		.4byte	0
ARM GAS  /tmp/cczr1hNt.s 			page 46


 2551              	.LLST3:
 2552 006f 00000000 		.4byte	.LFB63
 2553 0073 02000000 		.4byte	.LCFI1
 2554 0077 0200     		.2byte	0x2
 2555 0079 7D       		.byte	0x7d
 2556 007a 00       		.sleb128 0
 2557 007b 02000000 		.4byte	.LCFI1
 2558 007f 38000000 		.4byte	.LFE63
 2559 0083 0200     		.2byte	0x2
 2560 0085 7D       		.byte	0x7d
 2561 0086 18       		.sleb128 24
 2562 0087 00000000 		.4byte	0
 2563 008b 00000000 		.4byte	0
 2564              	.LLST4:
 2565 008f 00000000 		.4byte	.LVL8
 2566 0093 04000000 		.4byte	.LVL9
 2567 0097 0100     		.2byte	0x1
 2568 0099 50       		.byte	0x50
 2569 009a 04000000 		.4byte	.LVL9
 2570 009e 38000000 		.4byte	.LFE63
 2571 00a2 0400     		.2byte	0x4
 2572 00a4 F3       		.byte	0xf3
 2573 00a5 01       		.uleb128 0x1
 2574 00a6 50       		.byte	0x50
 2575 00a7 9F       		.byte	0x9f
 2576 00a8 00000000 		.4byte	0
 2577 00ac 00000000 		.4byte	0
 2578              	.LLST5:
 2579 00b0 00000000 		.4byte	.LFB65
 2580 00b4 02000000 		.4byte	.LCFI2
 2581 00b8 0200     		.2byte	0x2
 2582 00ba 7D       		.byte	0x7d
 2583 00bb 00       		.sleb128 0
 2584 00bc 02000000 		.4byte	.LCFI2
 2585 00c0 04000000 		.4byte	.LCFI3
 2586 00c4 0200     		.2byte	0x2
 2587 00c6 7D       		.byte	0x7d
 2588 00c7 08       		.sleb128 8
 2589 00c8 04000000 		.4byte	.LCFI3
 2590 00cc 58000000 		.4byte	.LFE65
 2591 00d0 0200     		.2byte	0x2
 2592 00d2 7D       		.byte	0x7d
 2593 00d3 10       		.sleb128 16
 2594 00d4 00000000 		.4byte	0
 2595 00d8 00000000 		.4byte	0
 2596              		.section	.debug_aranges,"",%progbits
 2597 0000 2C000000 		.4byte	0x2c
 2598 0004 0200     		.2byte	0x2
 2599 0006 00000000 		.4byte	.Ldebug_info0
 2600 000a 04       		.byte	0x4
 2601 000b 00       		.byte	0
 2602 000c 0000     		.2byte	0
 2603 000e 0000     		.2byte	0
 2604 0010 00000000 		.4byte	.LFB64
 2605 0014 50000000 		.4byte	.LFE64-.LFB64
 2606 0018 00000000 		.4byte	.LFB63
 2607 001c 38000000 		.4byte	.LFE63-.LFB63
ARM GAS  /tmp/cczr1hNt.s 			page 47


 2608 0020 00000000 		.4byte	.LFB65
 2609 0024 58000000 		.4byte	.LFE65-.LFB65
 2610 0028 00000000 		.4byte	0
 2611 002c 00000000 		.4byte	0
 2612              		.section	.debug_ranges,"",%progbits
 2613              	.Ldebug_ranges0:
 2614 0000 00000000 		.4byte	.LFB64
 2615 0004 50000000 		.4byte	.LFE64
 2616 0008 00000000 		.4byte	.LFB63
 2617 000c 38000000 		.4byte	.LFE63
 2618 0010 00000000 		.4byte	.LFB65
 2619 0014 58000000 		.4byte	.LFE65
 2620 0018 00000000 		.4byte	0
 2621 001c 00000000 		.4byte	0
 2622              		.section	.debug_line,"",%progbits
 2623              	.Ldebug_line0:
 2624 0000 D9020000 		.section	.debug_str,"MS",%progbits,1
 2624      02007302 
 2624      00000201 
 2624      FB0E0D00 
 2624      01010101 
 2625              	.LASF69:
 2626 0000 7466756E 		.ascii	"tfunc_t\000"
 2626      635F7400 
 2627              	.LASF117:
 2628 0008 666C6F61 		.ascii	"floatingPoint\000"
 2628      74696E67 
 2628      506F696E 
 2628      7400
 2629              	.LASF2:
 2630 0016 73697A65 		.ascii	"size_t\000"
 2630      5F7400
 2631              	.LASF64:
 2632 001d 7264796D 		.ascii	"rdymsg\000"
 2632      736700
 2633              	.LASF13:
 2634 0024 75696E74 		.ascii	"uint64_t\000"
 2634      36345F74 
 2634      00
 2635              	.LASF81:
 2636 002d 4F757470 		.ascii	"OutputQueue\000"
 2636      75745175 
 2636      65756500 
 2637              	.LASF98:
 2638 0039 696F706F 		.ascii	"ioportmask_t\000"
 2638      72746D61 
 2638      736B5F74 
 2638      00
 2639              	.LASF14:
 2640 0046 6C6F6E67 		.ascii	"long long unsigned int\000"
 2640      206C6F6E 
 2640      6720756E 
 2640      7369676E 
 2640      65642069 
 2641              	.LASF23:
 2642 005d 666C6167 		.ascii	"flagsmask_t\000"
 2642      736D6173 
ARM GAS  /tmp/cczr1hNt.s 			page 48


 2642      6B5F7400 
 2643              	.LASF65:
 2644 0069 65786974 		.ascii	"exitcode\000"
 2644      636F6465 
 2644      00
 2645              	.LASF121:
 2646 0072 49544D5F 		.ascii	"ITM_RxBuffer\000"
 2646      52784275 
 2646      66666572 
 2646      00
 2647              	.LASF28:
 2648 007f 705F7072 		.ascii	"p_prio\000"
 2648      696F00
 2649              	.LASF115:
 2650 0086 72656164 		.ascii	"readt\000"
 2650      7400
 2651              	.LASF71:
 2652 008c 715F7761 		.ascii	"q_waiting\000"
 2652      6974696E 
 2652      6700
 2653              	.LASF12:
 2654 0096 6C6F6E67 		.ascii	"long long int\000"
 2654      206C6F6E 
 2654      6720696E 
 2654      7400
 2655              	.LASF1:
 2656 00a4 7369676E 		.ascii	"signed char\000"
 2656      65642063 
 2656      68617200 
 2657              	.LASF86:
 2658 00b0 42535252 		.ascii	"BSRR\000"
 2658      00
 2659              	.LASF125:
 2660 00b5 63685379 		.ascii	"chSysInit\000"
 2660      73496E69 
 2660      7400
 2661              	.LASF95:
 2662 00bf 47545052 		.ascii	"GTPR\000"
 2662      00
 2663              	.LASF45:
 2664 00c4 705F6D70 		.ascii	"p_mpool\000"
 2664      6F6F6C00 
 2665              	.LASF54:
 2666 00cc 6D5F7175 		.ascii	"m_queue\000"
 2666      65756500 
 2667              	.LASF19:
 2668 00d4 74736C69 		.ascii	"tslices_t\000"
 2668      6365735F 
 2668      7400
 2669              	.LASF128:
 2670 00de 474E5520 		.ascii	"GNU C 4.7.4 20130913 (release) [ARM/embedded-4_7-br"
 2670      4320342E 
 2670      372E3420 
 2670      32303133 
 2670      30393133 
 2671 0111 616E6368 		.ascii	"anch revision 202601]\000"
 2671      20726576 
ARM GAS  /tmp/cczr1hNt.s 			page 49


 2671      6973696F 
 2671      6E203230 
 2671      32363031 
 2672              	.LASF105:
 2673 0127 73746174 		.ascii	"state\000"
 2673      6500
 2674              	.LASF9:
 2675 012d 6C6F6E67 		.ascii	"long int\000"
 2675      20696E74 
 2675      00
 2676              	.LASF17:
 2677 0136 74737461 		.ascii	"tstate_t\000"
 2677      74655F74 
 2677      00
 2678              	.LASF36:
 2679 013f 705F7265 		.ascii	"p_refs\000"
 2679      667300
 2680              	.LASF73:
 2681 0146 715F6275 		.ascii	"q_buffer\000"
 2681      66666572 
 2681      00
 2682              	.LASF75:
 2683 014f 715F7772 		.ascii	"q_wrptr\000"
 2683      70747200 
 2684              	.LASF78:
 2685 0157 715F6C69 		.ascii	"q_link\000"
 2685      6E6B00
 2686              	.LASF30:
 2687 015e 705F6E65 		.ascii	"p_newer\000"
 2687      77657200 
 2688              	.LASF48:
 2689 0166 72656761 		.ascii	"regarm_t\000"
 2689      726D5F74 
 2689      00
 2690              	.LASF62:
 2691 016f 4576656E 		.ascii	"EventSource\000"
 2691      74536F75 
 2691      72636500 
 2692              	.LASF85:
 2693 017b 42617365 		.ascii	"BaseSequentialStream\000"
 2693      53657175 
 2693      656E7469 
 2693      616C5374 
 2693      7265616D 
 2694              	.LASF108:
 2695 0190 75736172 		.ascii	"usart\000"
 2695      7400
 2696              	.LASF0:
 2697 0196 756E7369 		.ascii	"unsigned int\000"
 2697      676E6564 
 2697      20696E74 
 2697      00
 2698              	.LASF6:
 2699 01a3 75696E74 		.ascii	"uint16_t\000"
 2699      31365F74 
 2699      00
 2700              	.LASF111:
ARM GAS  /tmp/cczr1hNt.s 			page 50


 2701 01ac 53657269 		.ascii	"SerialDriverVMT\000"
 2701      616C4472 
 2701      69766572 
 2701      564D5400 
 2702              	.LASF38:
 2703 01bc 705F7469 		.ascii	"p_time\000"
 2703      6D6500
 2704              	.LASF106:
 2705 01c3 69717565 		.ascii	"iqueue\000"
 2705      756500
 2706              	.LASF40:
 2707 01ca 705F6D73 		.ascii	"p_msgqueue\000"
 2707      67717565 
 2707      756500
 2708              	.LASF88:
 2709 01d5 4750494F 		.ascii	"GPIO_TypeDef\000"
 2709      5F547970 
 2709      65446566 
 2709      00
 2710              	.LASF124:
 2711 01e2 68616C49 		.ascii	"halInit\000"
 2711      6E697400 
 2712              	.LASF119:
 2713 01ea 68656172 		.ascii	"heartWrkArea\000"
 2713      7457726B 
 2713      41726561 
 2713      00
 2714              	.LASF113:
 2715 01f7 67657474 		.ascii	"gett\000"
 2715      00
 2716              	.LASF104:
 2717 01fc 6576656E 		.ascii	"event\000"
 2717      7400
 2718              	.LASF7:
 2719 0202 73686F72 		.ascii	"short unsigned int\000"
 2719      7420756E 
 2719      7369676E 
 2719      65642069 
 2719      6E7400
 2720              	.LASF118:
 2721 0215 68656172 		.ascii	"heartBeat\000"
 2721      74426561 
 2721      7400
 2722              	.LASF21:
 2723 021f 6D73675F 		.ascii	"msg_t\000"
 2723      7400
 2724              	.LASF107:
 2725 0225 6F717565 		.ascii	"oqueue\000"
 2725      756500
 2726              	.LASF97:
 2727 022c 55534152 		.ascii	"USART_TypeDef\000"
 2727      545F5479 
 2727      70654465 
 2727      6600
 2728              	.LASF114:
 2729 023a 77726974 		.ascii	"writet\000"
 2729      657400
ARM GAS  /tmp/cczr1hNt.s 			page 51


 2730              	.LASF16:
 2731 0241 746D6F64 		.ascii	"tmode_t\000"
 2731      655F7400 
 2732              	.LASF47:
 2733 0249 54687265 		.ascii	"ThreadsList\000"
 2733      6164734C 
 2733      69737400 
 2734              	.LASF22:
 2735 0255 6576656E 		.ascii	"eventmask_t\000"
 2735      746D6173 
 2735      6B5F7400 
 2736              	.LASF80:
 2737 0261 496E7075 		.ascii	"InputQueue\000"
 2737      74517565 
 2737      756500
 2738              	.LASF109:
 2739 026c 73706565 		.ascii	"speed\000"
 2739      6400
 2740              	.LASF130:
 2741 0272 2F686F6D 		.ascii	"/home/ondra6ak/Documents/ARM/mlab-ChibiOSRT/demos/f"
 2741      652F6F6E 
 2741      64726136 
 2741      616B2F44 
 2741      6F63756D 
 2742 02a5 6C6F6174 		.ascii	"loatingPoint\000"
 2742      696E6750 
 2742      6F696E74 
 2742      00
 2743              	.LASF79:
 2744 02b2 716E6F74 		.ascii	"qnotify_t\000"
 2744      6966795F 
 2744      7400
 2745              	.LASF70:
 2746 02bc 47656E65 		.ascii	"GenericQueue\000"
 2746      72696351 
 2746      75657565 
 2746      00
 2747              	.LASF49:
 2748 02c9 73746B61 		.ascii	"stkalign_t\000"
 2748      6C69676E 
 2748      5F7400
 2749              	.LASF127:
 2750 02d4 63685468 		.ascii	"chThdCreateStatic\000"
 2750      64437265 
 2750      61746553 
 2750      74617469 
 2750      6300
 2751              	.LASF83:
 2752 02e6 77726974 		.ascii	"write\000"
 2752      6500
 2753              	.LASF112:
 2754 02ec 70757474 		.ascii	"putt\000"
 2754      00
 2755              	.LASF52:
 2756 02f1 73697A65 		.ascii	"sizetype\000"
 2756      74797065 
 2756      00
ARM GAS  /tmp/cczr1hNt.s 			page 52


 2757              	.LASF72:
 2758 02fa 715F636F 		.ascii	"q_counter\000"
 2758      756E7465 
 2758      7200
 2759              	.LASF53:
 2760 0304 4D757465 		.ascii	"Mutex\000"
 2760      7800
 2761              	.LASF31:
 2762 030a 705F6F6C 		.ascii	"p_older\000"
 2762      64657200 
 2763              	.LASF46:
 2764 0312 54687265 		.ascii	"ThreadsQueue\000"
 2764      61647351 
 2764      75657565 
 2764      00
 2765              	.LASF33:
 2766 031f 705F7374 		.ascii	"p_stklimit\000"
 2766      6B6C696D 
 2766      697400
 2767              	.LASF129:
 2768 032a 6D61696E 		.ascii	"main.c\000"
 2768      2E6300
 2769              	.LASF60:
 2770 0331 656C5F6D 		.ascii	"el_mask\000"
 2770      61736B00 
 2771              	.LASF123:
 2772 0339 63685468 		.ascii	"chThdSleep\000"
 2772      64536C65 
 2772      657000
 2773              	.LASF110:
 2774 0344 53657269 		.ascii	"SerialConfig\000"
 2774      616C436F 
 2774      6E666967 
 2774      00
 2775              	.LASF116:
 2776 0351 666C6F61 		.ascii	"float\000"
 2776      7400
 2777              	.LASF18:
 2778 0357 74726566 		.ascii	"trefs_t\000"
 2778      735F7400 
 2779              	.LASF89:
 2780 035f 52455345 		.ascii	"RESERVED0\000"
 2780      52564544 
 2780      3000
 2781              	.LASF90:
 2782 0369 52455345 		.ascii	"RESERVED1\000"
 2782      52564544 
 2782      3100
 2783              	.LASF91:
 2784 0373 52455345 		.ascii	"RESERVED2\000"
 2784      52564544 
 2784      3200
 2785              	.LASF92:
 2786 037d 52455345 		.ascii	"RESERVED3\000"
 2786      52564544 
 2786      3300
 2787              	.LASF93:
ARM GAS  /tmp/cczr1hNt.s 			page 53


 2788 0387 52455345 		.ascii	"RESERVED4\000"
 2788      52564544 
 2788      3400
 2789              	.LASF27:
 2790 0391 705F7072 		.ascii	"p_prev\000"
 2790      657600
 2791              	.LASF96:
 2792 0398 52455345 		.ascii	"RESERVED6\000"
 2792      52564544 
 2792      3600
 2793              	.LASF20:
 2794 03a2 74707269 		.ascii	"tprio_t\000"
 2794      6F5F7400 
 2795              	.LASF76:
 2796 03aa 715F7264 		.ascii	"q_rdptr\000"
 2796      70747200 
 2797              	.LASF15:
 2798 03b2 5F426F6F 		.ascii	"_Bool\000"
 2798      6C00
 2799              	.LASF8:
 2800 03b8 696E7433 		.ascii	"int32_t\000"
 2800      325F7400 
 2801              	.LASF4:
 2802 03c0 756E7369 		.ascii	"unsigned char\000"
 2802      676E6564 
 2802      20636861 
 2802      7200
 2803              	.LASF59:
 2804 03ce 656C5F6C 		.ascii	"el_listener\000"
 2804      69737465 
 2804      6E657200 
 2805              	.LASF61:
 2806 03da 656C5F66 		.ascii	"el_flags\000"
 2806      6C616773 
 2806      00
 2807              	.LASF43:
 2808 03e3 705F6D74 		.ascii	"p_mtxlist\000"
 2808      786C6973 
 2808      7400
 2809              	.LASF5:
 2810 03ed 73686F72 		.ascii	"short int\000"
 2810      7420696E 
 2810      7400
 2811              	.LASF34:
 2812 03f7 705F7374 		.ascii	"p_state\000"
 2812      61746500 
 2813              	.LASF37:
 2814 03ff 705F7072 		.ascii	"p_preempt\000"
 2814      65656D70 
 2814      7400
 2815              	.LASF67:
 2816 0409 65776D61 		.ascii	"ewmask\000"
 2816      736B00
 2817              	.LASF26:
 2818 0410 705F6E65 		.ascii	"p_next\000"
 2818      787400
 2819              	.LASF82:
ARM GAS  /tmp/cczr1hNt.s 			page 54


 2820 0417 42617365 		.ascii	"BaseSequentialStreamVMT\000"
 2820      53657175 
 2820      656E7469 
 2820      616C5374 
 2820      7265616D 
 2821              	.LASF35:
 2822 042f 705F666C 		.ascii	"p_flags\000"
 2822      61677300 
 2823              	.LASF58:
 2824 0437 656C5F6E 		.ascii	"el_next\000"
 2824      65787400 
 2825              	.LASF120:
 2826 043f 666C6F61 		.ascii	"floatingWrkArea\000"
 2826      74696E67 
 2826      57726B41 
 2826      72656100 
 2827              	.LASF100:
 2828 044f 53445F53 		.ascii	"SD_STOP\000"
 2828      544F5000 
 2829              	.LASF25:
 2830 0457 54687265 		.ascii	"Thread\000"
 2830      616400
 2831              	.LASF87:
 2832 045e 4C434B52 		.ascii	"LCKR\000"
 2832      00
 2833              	.LASF42:
 2834 0463 705F6570 		.ascii	"p_epending\000"
 2834      656E6469 
 2834      6E6700
 2835              	.LASF99:
 2836 046e 53445F55 		.ascii	"SD_UNINIT\000"
 2836      4E494E49 
 2836      5400
 2837              	.LASF94:
 2838 0478 52455345 		.ascii	"RESERVED5\000"
 2838      52564544 
 2838      3500
 2839              	.LASF10:
 2840 0482 75696E74 		.ascii	"uint32_t\000"
 2840      33325F74 
 2840      00
 2841              	.LASF102:
 2842 048b 73647374 		.ascii	"sdstate_t\000"
 2842      6174655F 
 2842      7400
 2843              	.LASF103:
 2844 0495 53657269 		.ascii	"SerialDriver\000"
 2844      616C4472 
 2844      69766572 
 2844      00
 2845              	.LASF11:
 2846 04a2 6C6F6E67 		.ascii	"long unsigned int\000"
 2846      20756E73 
 2846      69676E65 
 2846      6420696E 
 2846      7400
 2847              	.LASF84:
ARM GAS  /tmp/cczr1hNt.s 			page 55


 2848 04b4 72656164 		.ascii	"read\000"
 2848      00
 2849              	.LASF68:
 2850 04b9 63686172 		.ascii	"char\000"
 2850      00
 2851              	.LASF126:
 2852 04be 73645374 		.ascii	"sdStart\000"
 2852      61727400 
 2853              	.LASF56:
 2854 04c6 6D5F6E65 		.ascii	"m_next\000"
 2854      787400
 2855              	.LASF24:
 2856 04cd 73797374 		.ascii	"systime_t\000"
 2856      696D655F 
 2856      7400
 2857              	.LASF44:
 2858 04d7 705F7265 		.ascii	"p_realprio\000"
 2858      616C7072 
 2858      696F00
 2859              	.LASF51:
 2860 04e2 636F6E74 		.ascii	"context\000"
 2860      65787400 
 2861              	.LASF50:
 2862 04ea 696E7463 		.ascii	"intctx\000"
 2862      747800
 2863              	.LASF101:
 2864 04f1 53445F52 		.ascii	"SD_READY\000"
 2864      45414459 
 2864      00
 2865              	.LASF74:
 2866 04fa 715F746F 		.ascii	"q_top\000"
 2866      7000
 2867              	.LASF32:
 2868 0500 705F6E61 		.ascii	"p_name\000"
 2868      6D6500
 2869              	.LASF63:
 2870 0507 65735F6E 		.ascii	"es_next\000"
 2870      65787400 
 2871              	.LASF77:
 2872 050f 715F6E6F 		.ascii	"q_notify\000"
 2872      74696679 
 2872      00
 2873              	.LASF3:
 2874 0518 75696E74 		.ascii	"uint8_t\000"
 2874      385F7400 
 2875              	.LASF57:
 2876 0520 4576656E 		.ascii	"EventListener\000"
 2876      744C6973 
 2876      74656E65 
 2876      7200
 2877              	.LASF66:
 2878 052e 77746F62 		.ascii	"wtobjp\000"
 2878      6A7000
 2879              	.LASF41:
 2880 0535 705F6D73 		.ascii	"p_msg\000"
 2880      6700
 2881              	.LASF131:
ARM GAS  /tmp/cczr1hNt.s 			page 56


 2882 053b 6D61696E 		.ascii	"main\000"
 2882      00
 2883              	.LASF55:
 2884 0540 6D5F6F77 		.ascii	"m_owner\000"
 2884      6E657200 
 2885              	.LASF29:
 2886 0548 705F6374 		.ascii	"p_ctx\000"
 2886      7800
 2887              	.LASF39:
 2888 054e 705F7761 		.ascii	"p_waiting\000"
 2888      6974696E 
 2888      6700
 2889              	.LASF122:
 2890 0558 63687072 		.ascii	"chprintf\000"
 2890      696E7466 
 2890      00
 2891              		.ident	"GCC: (GNU Tools for ARM Embedded Processors) 4.7.4 20130913 (release) [ARM/embedded-4_7-br
ARM GAS  /tmp/cczr1hNt.s 			page 57


DEFINED SYMBOLS
                            *ABS*:00000000 main.c
     /tmp/cczr1hNt.s:23     .text.floatingPoint:00000000 $t
     /tmp/cczr1hNt.s:28     .text.floatingPoint:00000000 floatingPoint
     /tmp/cczr1hNt.s:83     .text.floatingPoint:00000040 $d
     /tmp/cczr1hNt.s:91     .text.heartBeat:00000000 $t
     /tmp/cczr1hNt.s:96     .text.heartBeat:00000000 heartBeat
     /tmp/cczr1hNt.s:148    .text.heartBeat:00000030 $d
     /tmp/cczr1hNt.s:154    .text.startup.main:00000000 $t
     /tmp/cczr1hNt.s:160    .text.startup.main:00000000 main
     /tmp/cczr1hNt.s:230    .bss.heartWrkArea:00000000 .LANCHOR0
     /tmp/cczr1hNt.s:223    .bss.floatingWrkArea:00000000 .LANCHOR1
     /tmp/cczr1hNt.s:215    .rodata.str1.4:00000000 $d
     /tmp/cczr1hNt.s:222    .bss.floatingWrkArea:00000000 $d
     /tmp/cczr1hNt.s:226    .bss.floatingWrkArea:00000000 floatingWrkArea
     /tmp/cczr1hNt.s:229    .bss.heartWrkArea:00000000 $d
     /tmp/cczr1hNt.s:233    .bss.heartWrkArea:00000000 heartWrkArea
                     .debug_frame:00000010 $d
     /tmp/cczr1hNt.s:153    .text.heartBeat:00000038 $t

UNDEFINED SYMBOLS
__aeabi_f2d
__aeabi_dsub
__aeabi_d2f
__aeabi_fcmpeq
chprintf
SD2
chThdSleep
halInit
chSysInit
sdStart
chThdCreateStatic
