ARM GAS  /tmp/cczr1hNt.s 			page 1


   1              		.syntax unified
   2              		.cpu cortex-m3
   3              		.fpu softvfp
   4              		.eabi_attribute 20, 1
   5              		.eabi_attribute 21, 1
   6              		.eabi_attribute 23, 3
   7              		.eabi_attribute 24, 1
   8              		.eabi_attribute 25, 1
   9              		.eabi_attribute 26, 1
  10              		.eabi_attribute 30, 2
  11              		.eabi_attribute 34, 1
  12              		.eabi_attribute 18, 4
  13              		.thumb
  14              		.file	"main.c"
  15              		.text
  16              	.Ltext0:
  17              		.cfi_sections	.debug_frame
  18              		.global	__aeabi_f2d
  19              		.global	__aeabi_dsub
  20              		.global	__aeabi_d2f
  21              		.global	__aeabi_fcmpeq
  22              		.section	.text.floatingPoint,"ax",%progbits
  23              		.align	2
  24              		.p2align 4,,15
  25              		.thumb
  26              		.thumb_func
  27              		.type	floatingPoint, %function
  28              	floatingPoint:
  29              	.LFB64:
  30              		.file 1 "main.c"
  31              		.loc 1 26 0
  32              		.cfi_startproc
  33              		@ args = 0, pretend = 0, frame = 0
  34              		@ frame_needed = 0, uses_anonymous_args = 0
  35              	.LVL0:
  36 0000 38B5     		push	{r3, r4, r5, lr}
  37              	.LCFI0:
  38              		.cfi_def_cfa_offset 16
  39              		.cfi_offset 3, -16
  40              		.cfi_offset 4, -12
  41              		.cfi_offset 5, -8
  42              		.cfi_offset 14, -4
  43              		.loc 1 27 0
  44 0002 4FF67214 		movw	r4, #63858
  45 0006 C3F67F74 		movt	r4, 16255
  46              	.LVL1:
  47              	.L2:
  48              	.LBB2:
  49              		.loc 1 29 0
  50 000a 2046     		mov	r0, r4
  51 000c FFF7FEFF 		bl	__aeabi_f2d
  52              	.LVL2:
  53 0010 0446     		mov	r4, r0
  54 0012 0246     		mov	r2, r0
  55 0014 0B46     		mov	r3, r1
  56 0016 0D46     		mov	r5, r1
  57 0018 0B48     		ldr	r0, .L8+8
ARM GAS  /tmp/cczr1hNt.s 			page 2


  58 001a 0C49     		ldr	r1, .L8+12
  59 001c FFF7FEFF 		bl	chprintf
  60              	.LVL3:
  61              		.loc 1 27 0
  62 0020 07A3     		adr	r3, .L8
  63 0022 D3E90023 		ldrd	r2, [r3]
  64 0026 2046     		mov	r0, r4
  65 0028 2946     		mov	r1, r5
  66 002a FFF7FEFF 		bl	__aeabi_dsub
  67              	.LVL4:
  68 002e FFF7FEFF 		bl	__aeabi_d2f
  69              	.LVL5:
  70 0032 0021     		movs	r1, #0
  71 0034 0446     		mov	r4, r0
  72              	.LVL6:
  73 0036 FFF7FEFF 		bl	__aeabi_fcmpeq
  74              	.LVL7:
  75 003a 0028     		cmp	r0, #0
  76 003c E5D0     		beq	.L2
  77              	.LBE2:
  78              		.loc 1 31 0
  79 003e 38BD     		pop	{r3, r4, r5, pc}
  80              	.L9:
  81              		.align	3
  82              	.L8:
  83 0040 2D431CEB 		.word	-350469331
  84 0044 E2361A3F 		.word	1058682594
  85 0048 00000000 		.word	SD2
  86 004c 00000000 		.word	.LC0
  87              		.cfi_endproc
  88              	.LFE64:
  89              		.size	floatingPoint, .-floatingPoint
  90              		.section	.text.heartBeat,"ax",%progbits
  91              		.align	2
  92              		.p2align 4,,15
  93              		.thumb
  94              		.thumb_func
  95              		.type	heartBeat, %function
  96              	heartBeat:
  97              	.LFB63:
  98              		.loc 1 9 0
  99              		.cfi_startproc
 100              		@ args = 0, pretend = 0, frame = 0
 101              		@ frame_needed = 0, uses_anonymous_args = 0
 102              	.LVL8:
 103 0000 F8B5     		push	{r3, r4, r5, r6, r7, lr}
 104              	.LCFI1:
 105              		.cfi_def_cfa_offset 24
 106              		.cfi_offset 3, -24
 107              		.cfi_offset 4, -20
 108              		.cfi_offset 5, -16
 109              		.cfi_offset 6, -12
 110              		.cfi_offset 7, -8
 111              		.cfi_offset 14, -4
 112              		.loc 1 10 0
 113 0002 0B48     		ldr	r0, .L12
 114              	.LVL9:
ARM GAS  /tmp/cczr1hNt.s 			page 3


 115 0004 0B49     		ldr	r1, .L12+4
 116 0006 FFF7FEFF 		bl	chprintf
 117              	.LVL10:
 118              		.loc 1 14 0
 119 000a 4FF44064 		mov	r4, #3072
 120 000e 4FF48076 		mov	r6, #256
 121 0012 C4F20104 		movt	r4, 16385
 122 0016 3746     		mov	r7, r6
 123              		.loc 1 15 0
 124 0018 8025     		movs	r5, #128
 125              	.L11:
 126              		.loc 1 14 0 discriminator 1
 127 001a 2761     		str	r7, [r4, #16]
 128              		.loc 1 16 0 discriminator 1
 129 001c FA20     		movs	r0, #250
 130              		.loc 1 15 0 discriminator 1
 131 001e 6561     		str	r5, [r4, #20]
 132              		.loc 1 16 0 discriminator 1
 133 0020 FFF7FEFF 		bl	chThdSleep
 134              	.LVL11:
 135              		.loc 1 17 0 discriminator 1
 136 0024 6661     		str	r6, [r4, #20]
 137              		.loc 1 19 0 discriminator 1
 138 0026 FA20     		movs	r0, #250
 139              		.loc 1 18 0 discriminator 1
 140 0028 2561     		str	r5, [r4, #16]
 141              		.loc 1 19 0 discriminator 1
 142 002a FFF7FEFF 		bl	chThdSleep
 143              	.LVL12:
 144 002e F4E7     		b	.L11
 145              	.L13:
 146              		.align	2
 147              	.L12:
 148 0030 00000000 		.word	SD2
 149 0034 08000000 		.word	.LC1
 150              		.cfi_endproc
 151              	.LFE63:
 152              		.size	heartBeat, .-heartBeat
 153 0038 AFF30080 		.section	.text.startup.main,"ax",%progbits
 153      AFF30080 
 154              		.align	2
 155              		.p2align 4,,15
 156              		.global	main
 157              		.thumb
 158              		.thumb_func
 159              		.type	main, %function
 160              	main:
 161              	.LFB65:
 162              		.loc 1 35 0
 163              		.cfi_startproc
 164              		@ args = 0, pretend = 0, frame = 0
 165              		@ frame_needed = 0, uses_anonymous_args = 0
 166 0000 10B5     		push	{r4, lr}
 167              	.LCFI2:
 168              		.cfi_def_cfa_offset 8
 169              		.cfi_offset 4, -8
 170              		.cfi_offset 14, -4
ARM GAS  /tmp/cczr1hNt.s 			page 4


 171 0002 82B0     		sub	sp, sp, #8
 172              	.LCFI3:
 173              		.cfi_def_cfa_offset 16
 174              		.loc 1 36 0
 175 0004 FFF7FEFF 		bl	halInit
 176              	.LVL13:
 177              		.loc 1 37 0
 178 0008 FFF7FEFF 		bl	chSysInit
 179              	.LVL14:
 180              		.loc 1 39 0
 181 000c 40F20000 		movw	r0, #:lower16:SD2
 182 0010 0021     		movs	r1, #0
 183 0012 C0F20000 		movt	r0, #:upper16:SD2
 184 0016 FFF7FEFF 		bl	sdStart
 185              	.LVL15:
 186              		.loc 1 41 0
 187 001a 0024     		movs	r4, #0
 188 001c 40F20003 		movw	r3, #:lower16:heartBeat
 189 0020 40F20000 		movw	r0, #:lower16:.LANCHOR0
 190 0024 F021     		movs	r1, #240
 191 0026 4022     		movs	r2, #64
 192 0028 C0F20003 		movt	r3, #:upper16:heartBeat
 193 002c 0094     		str	r4, [sp, #0]
 194 002e C0F20000 		movt	r0, #:upper16:.LANCHOR0
 195 0032 FFF7FEFF 		bl	chThdCreateStatic
 196              	.LVL16:
 197              		.loc 1 42 0
 198 0036 40F20000 		movw	r0, #:lower16:.LANCHOR1
 199 003a 40F20003 		movw	r3, #:lower16:floatingPoint
 200 003e 0094     		str	r4, [sp, #0]
 201 0040 4FF42C71 		mov	r1, #688
 202 0044 4022     		movs	r2, #64
 203 0046 C0F20003 		movt	r3, #:upper16:floatingPoint
 204 004a C0F20000 		movt	r0, #:upper16:.LANCHOR1
 205 004e FFF7FEFF 		bl	chThdCreateStatic
 206              	.LVL17:
 207              		.loc 1 43 0
 208 0052 2046     		mov	r0, r4
 209 0054 02B0     		add	sp, sp, #8
 210 0056 10BD     		pop	{r4, pc}
 211              		.cfi_endproc
 212              	.LFE65:
 213              		.size	main, .-main
 214 0058 AFF30080 		.section	.rodata.str1.4,"aMS",%progbits,1
 214      AFF30080 
 215              		.align	2
 216              	.LC0:
 217 0000 2566200A 		.ascii	"%f \012\015\000"
 217      0D00
 218 0006 0000     		.space	2
 219              	.LC1:
 220 0008 0A0D4865 		.ascii	"\012\015Hello world!\012\015\000"
 220      6C6C6F20 
 220      776F726C 
 220      64210A0D 
 220      00
 221 0019 000000   		.section	.bss.floatingWrkArea,"aw",%nobits
ARM GAS  /tmp/cczr1hNt.s 			page 5


 222              		.align	3
 223              		.set	.LANCHOR1,. + 0
 224              		.type	floatingWrkArea, %object
 225              		.size	floatingWrkArea, 688
 226              	floatingWrkArea:
 227 0000 00000000 		.space	688
 227      00000000 
 227      00000000 
 227      00000000 
 227      00000000 
 228              		.section	.bss.heartWrkArea,"aw",%nobits
 229              		.align	3
 230              		.set	.LANCHOR0,. + 0
 231              		.type	heartWrkArea, %object
 232              		.size	heartWrkArea, 240
 233              	heartWrkArea:
 234 0000 00000000 		.space	240
 234      00000000 
 234      00000000 
 234      00000000 
 234      00000000 
 235              		.text
 236              	.Letext0:
 237              		.file 2 "/usr/bin/../lib/gcc/arm-none-eabi/4.7.4/include/stddef.h"
 238              		.file 3 "/usr/bin/../lib/gcc/arm-none-eabi/4.7.4/../../../../arm-none-eabi/include/stdint.h"
 239              		.file 4 "../../os/ports/GCC/ARMCMx/chtypes.h"
 240              		.file 5 "../../os/kernel/include/chlists.h"
 241              		.file 6 "../../os/kernel/include/chthreads.h"
 242              		.file 7 "../../os/ports/GCC/ARMCMx/chcore_v7m.h"
 243              		.file 8 "../../os/kernel/include/chmtx.h"
 244              		.file 9 "../../os/kernel/include/chevents.h"
 245              		.file 10 "../../os/kernel/include/chqueues.h"
 246              		.file 11 "../../os/kernel/include/chstreams.h"
 247              		.file 12 "../../os/hal/platforms/STM32F1xx/stm32f10x.h"
 248              		.file 13 "../../os/hal/platforms/STM32/GPIOv1/pal_lld.h"
 249              		.file 14 "../../os/hal/include/serial.h"
 250              		.file 15 "../../os/hal/platforms/STM32/USARTv1/serial_lld.h"
 251              		.file 16 "../../os/various/chprintf.h"
 252              		.file 17 "../../os/hal/include/hal.h"
 253              		.file 18 "../../os/kernel/include/chsys.h"
 254              		.file 19 "../../os/ports/common/ARMCMx/CMSIS/include/core_cm3.h"