ARM GAS  /tmp/ccRHGiAh.s 			page 1


   1              		.syntax unified
   2              		.cpu cortex-m3
   3              		.fpu softvfp
   4              		.eabi_attribute 20, 1
   5              		.eabi_attribute 21, 1
   6              		.eabi_attribute 23, 3
   7              		.eabi_attribute 24, 1
   8              		.eabi_attribute 25, 1
   9              		.eabi_attribute 26, 1
  10              		.eabi_attribute 30, 2
  11              		.eabi_attribute 34, 1
  12              		.eabi_attribute 18, 4
  13              		.thumb
  14              		.file	"pal.c"
  15              		.text
  16              	.Ltext0:
  17              		.cfi_sections	.debug_frame
  18              		.section	.text.palReadBus,"ax",%progbits
  19              		.align	2
  20              		.p2align 4,,15
  21              		.global	palReadBus
  22              		.thumb
  23              		.thumb_func
  24              		.type	palReadBus, %function
  25              	palReadBus:
  26              	.LFB63:
  27              		.file 1 "../../os/hal/src/pal.c"
  28              		.loc 1 70 0
  29              		.cfi_startproc
  30              		@ args = 0, pretend = 0, frame = 0
  31              		@ frame_needed = 0, uses_anonymous_args = 0
  32              	.LVL0:
  33 0000 10B5     		push	{r4, lr}
  34              	.LCFI0:
  35              		.cfi_def_cfa_offset 8
  36              		.cfi_offset 4, -8
  37              		.cfi_offset 14, -4
  38              		.loc 1 72 0
  39 0002 0446     		mov	r4, r0
  40 0004 10B1     		cbz	r0, .L2
  41              		.loc 1 72 0 is_stmt 0 discriminator 2
  42 0006 8368     		ldr	r3, [r0, #8]
  43 0008 0F2B     		cmp	r3, #15
  44 000a 03D9     		bls	.L3
  45              	.L2:
  46              		.loc 1 72 0 discriminator 1
  47 000c 0548     		ldr	r0, .L8
  48              	.LVL1:
  49 000e FFF7FEFF 		bl	chDbgPanic
  50              	.LVL2:
  51 0012 A368     		ldr	r3, [r4, #8]
  52              	.L3:
  53              		.loc 1 75 0 is_stmt 1
  54 0014 2168     		ldr	r1, [r4, #0]
  55 0016 6068     		ldr	r0, [r4, #4]
  56 0018 8A68     		ldr	r2, [r1, #8]
  57 001a 22FA03F3 		lsr	r3, r2, r3
ARM GAS  /tmp/ccRHGiAh.s 			page 2


  58              		.loc 1 76 0
  59 001e 1840     		ands	r0, r0, r3
  60 0020 10BD     		pop	{r4, pc}
  61              	.L9:
  62 0022 00BF     		.align	2
  63              	.L8:
  64 0024 00000000 		.word	.LC0
  65              		.cfi_endproc
  66              	.LFE63:
  67              		.size	palReadBus, .-palReadBus
  68 0028 AFF30080 		.section	.text.palWriteBus,"ax",%progbits
  68      AFF30080 
  69              		.align	2
  70              		.p2align 4,,15
  71              		.global	palWriteBus
  72              		.thumb
  73              		.thumb_func
  74              		.type	palWriteBus, %function
  75              	palWriteBus:
  76              	.LFB64:
  77              		.loc 1 96 0
  78              		.cfi_startproc
  79              		@ args = 0, pretend = 0, frame = 0
  80              		@ frame_needed = 0, uses_anonymous_args = 0
  81              	.LVL3:
  82 0000 38B5     		push	{r3, r4, r5, lr}
  83              	.LCFI1:
  84              		.cfi_def_cfa_offset 16
  85              		.cfi_offset 3, -16
  86              		.cfi_offset 4, -12
  87              		.cfi_offset 5, -8
  88              		.cfi_offset 14, -4
  89              		.loc 1 98 0
  90 0002 0446     		mov	r4, r0
  91              		.loc 1 96 0
  92 0004 0D46     		mov	r5, r1
  93              		.loc 1 98 0
  94 0006 10B1     		cbz	r0, .L11
  95              		.loc 1 98 0 is_stmt 0 discriminator 2
  96 0008 8368     		ldr	r3, [r0, #8]
  97 000a 0F2B     		cmp	r3, #15
  98 000c 03D9     		bls	.L12
  99              	.L11:
 100              		.loc 1 98 0 discriminator 1
 101 000e 0948     		ldr	r0, .L16
 102              	.LVL4:
 103 0010 FFF7FEFF 		bl	chDbgPanic
 104              	.LVL5:
 105 0014 A368     		ldr	r3, [r4, #8]
 106              	.L12:
 107              		.loc 1 101 0 is_stmt 1
 108 0016 6268     		ldr	r2, [r4, #4]
 109 0018 03F11001 		add	r1, r3, #16
 110 001c 22EA0500 		bic	r0, r2, r5
 111 0020 1540     		ands	r5, r5, r2
 112              	.LVL6:
 113 0022 00FA01F0 		lsl	r0, r0, r1
ARM GAS  /tmp/ccRHGiAh.s 			page 3


 114 0026 05FA03F3 		lsl	r3, r5, r3
 115 002a 2268     		ldr	r2, [r4, #0]
 116 002c 40EA0301 		orr	r1, r0, r3
 117 0030 1161     		str	r1, [r2, #16]
 118 0032 38BD     		pop	{r3, r4, r5, pc}
 119              	.L17:
 120              		.align	2
 121              	.L16:
 122 0034 10000000 		.word	.LC1
 123              		.cfi_endproc
 124              	.LFE64:
 125              		.size	palWriteBus, .-palWriteBus
 126 0038 AFF30080 		.section	.text.palSetBusMode,"ax",%progbits
 126      AFF30080 
 127              		.align	2
 128              		.p2align 4,,15
 129              		.global	palSetBusMode
 130              		.thumb
 131              		.thumb_func
 132              		.type	palSetBusMode, %function
 133              	palSetBusMode:
 134              	.LFB65:
 135              		.loc 1 120 0
 136              		.cfi_startproc
 137              		@ args = 0, pretend = 0, frame = 0
 138              		@ frame_needed = 0, uses_anonymous_args = 0
 139              	.LVL7:
 140 0000 38B5     		push	{r3, r4, r5, lr}
 141              	.LCFI2:
 142              		.cfi_def_cfa_offset 16
 143              		.cfi_offset 3, -16
 144              		.cfi_offset 4, -12
 145              		.cfi_offset 5, -8
 146              		.cfi_offset 14, -4
 147              		.loc 1 122 0
 148 0002 0446     		mov	r4, r0
 149              		.loc 1 120 0
 150 0004 0D46     		mov	r5, r1
 151              		.loc 1 122 0
 152 0006 10B1     		cbz	r0, .L19
 153              		.loc 1 122 0 is_stmt 0 discriminator 2
 154 0008 8368     		ldr	r3, [r0, #8]
 155 000a 0F2B     		cmp	r3, #15
 156 000c 03D9     		bls	.L20
 157              	.L19:
 158              		.loc 1 122 0 discriminator 1
 159 000e 0648     		ldr	r0, .L24
 160              	.LVL8:
 161 0010 FFF7FEFF 		bl	chDbgPanic
 162              	.LVL9:
 163 0014 A368     		ldr	r3, [r4, #8]
 164              	.L20:
 165              		.loc 1 125 0 is_stmt 1
 166 0016 94E80300 		ldmia	r4, {r0, r1}
 167 001a 01FA03F1 		lsl	r1, r1, r3
 168 001e 2A46     		mov	r2, r5
 169              		.loc 1 126 0
ARM GAS  /tmp/ccRHGiAh.s 			page 4


 170 0020 BDE83840 		pop	{r3, r4, r5, lr}
 171              		.loc 1 125 0
 172 0024 FFF7FEBF 		b	_pal_lld_setgroupmode
 173              	.LVL10:
 174              	.L25:
 175              		.align	2
 176              	.L24:
 177 0028 20000000 		.word	.LC2
 178              		.cfi_endproc
 179              	.LFE65:
 180              		.size	palSetBusMode, .-palSetBusMode
 181 002c AFF30080 		.section	.rodata.str1.4,"aMS",%progbits,1
 182              		.align	2
 183              	.LC0:
 184 0000 2270616C 		.ascii	"\"palReadBus\"()\000"
 184      52656164 
 184      42757322 
 184      282900
 185 000f 00       		.space	1
 186              	.LC1:
 187 0010 2270616C 		.ascii	"\"palWriteBus\"()\000"
 187      57726974 
 187      65427573 
 187      22282900 
 188              	.LC2:
 189 0020 2270616C 		.ascii	"\"palSetBusMode\"()\000"
 189      53657442 
 189      75734D6F 
 189      64652228 
 189      2900
 190 0032 0000     		.text
 191              	.Letext0:
 192              		.file 2 "/usr/bin/../lib/gcc/arm-none-eabi/4.7.4/../../../../arm-none-eabi/include/stdint.h"
 193              		.file 3 "../../os/hal/platforms/STM32F1xx/stm32f10x.h"
 194              		.file 4 "../../os/hal/platforms/STM32/GPIOv1/pal_lld.h"
 195              		.file 5 "../../os/hal/include/pal.h"
 196              		.file 6 "../../os/ports/common/ARMCMx/CMSIS/include/core_cm3.h"
 197              		.file 7 "../../os/kernel/include/chdebug.h"
 198              		.section	.debug_info,"",%progbits
 199              	.Ldebug_info0:
 200 0000 CC020000 		.4byte	0x2cc
 201 0004 0200     		.2byte	0x2
 202 0006 00000000 		.4byte	.Ldebug_abbrev0
 203 000a 04       		.byte	0x4
 204 000b 01       		.uleb128 0x1
 205 000c A5000000 		.4byte	.LASF29
 206 0010 01       		.byte	0x1
 207 0011 5C000000 		.4byte	.LASF30
 208 0015 23010000 		.4byte	.LASF31
 209 0019 00000000 		.4byte	.Ldebug_ranges0+0
 210 001d 00000000 		.4byte	0
 211 0021 00000000 		.4byte	0
 212 0025 00000000 		.4byte	.Ldebug_line0
 213 0029 02       		.uleb128 0x2
 214 002a 04       		.byte	0x4
 215 002b 05       		.byte	0x5
 216 002c 696E7400 		.ascii	"int\000"
ARM GAS  /tmp/ccRHGiAh.s 			page 5


 217 0030 03       		.uleb128 0x3
 218 0031 04       		.byte	0x4
 219 0032 07       		.byte	0x7
 220 0033 04010000 		.4byte	.LASF0
 221 0037 03       		.uleb128 0x3
 222 0038 01       		.byte	0x1
 223 0039 06       		.byte	0x6
 224 003a D5010000 		.4byte	.LASF1
 225 003e 03       		.uleb128 0x3
 226 003f 01       		.byte	0x1
 227 0040 08       		.byte	0x8
 228 0041 4E000000 		.4byte	.LASF2
 229 0045 03       		.uleb128 0x3
 230 0046 02       		.byte	0x2
 231 0047 05       		.byte	0x5
 232 0048 9E010000 		.4byte	.LASF3
 233 004c 03       		.uleb128 0x3
 234 004d 02       		.byte	0x2
 235 004e 07       		.byte	0x7
 236 004f 85000000 		.4byte	.LASF4
 237 0053 04       		.uleb128 0x4
 238 0054 68010000 		.4byte	.LASF6
 239 0058 02       		.byte	0x2
 240 0059 4F       		.byte	0x4f
 241 005a 5E000000 		.4byte	0x5e
 242 005e 03       		.uleb128 0x3
 243 005f 04       		.byte	0x4
 244 0060 05       		.byte	0x5
 245 0061 BC010000 		.4byte	.LASF5
 246 0065 04       		.uleb128 0x4
 247 0066 B3010000 		.4byte	.LASF7
 248 006a 02       		.byte	0x2
 249 006b 50       		.byte	0x50
 250 006c 70000000 		.4byte	0x70
 251 0070 03       		.uleb128 0x3
 252 0071 04       		.byte	0x4
 253 0072 07       		.byte	0x7
 254 0073 73000000 		.4byte	.LASF8
 255 0077 03       		.uleb128 0x3
 256 0078 08       		.byte	0x8
 257 0079 05       		.byte	0x5
 258 007a 79010000 		.4byte	.LASF9
 259 007e 03       		.uleb128 0x3
 260 007f 08       		.byte	0x8
 261 0080 07       		.byte	0x7
 262 0081 E7010000 		.4byte	.LASF10
 263 0085 04       		.uleb128 0x4
 264 0086 05000000 		.4byte	.LASF11
 265 008a 02       		.byte	0x2
 266 008b A0       		.byte	0xa0
 267 008c 30000000 		.4byte	0x30
 268 0090 03       		.uleb128 0x3
 269 0091 01       		.byte	0x1
 270 0092 02       		.byte	0x2
 271 0093 E1010000 		.4byte	.LASF12
 272 0097 05       		.uleb128 0x5
 273 0098 65000000 		.4byte	0x65
ARM GAS  /tmp/ccRHGiAh.s 			page 6


 274 009c 03       		.uleb128 0x3
 275 009d 04       		.byte	0x4
 276 009e 07       		.byte	0x7
 277 009f 70010000 		.4byte	.LASF13
 278 00a3 06       		.uleb128 0x6
 279 00a4 04       		.byte	0x4
 280 00a5 A9000000 		.4byte	0xa9
 281 00a9 07       		.uleb128 0x7
 282 00aa AE000000 		.4byte	0xae
 283 00ae 03       		.uleb128 0x3
 284 00af 01       		.byte	0x1
 285 00b0 08       		.byte	0x8
 286 00b1 1E010000 		.4byte	.LASF14
 287 00b5 05       		.uleb128 0x5
 288 00b6 53000000 		.4byte	0x53
 289 00ba 08       		.uleb128 0x8
 290 00bb 1C       		.byte	0x1c
 291 00bc 03       		.byte	0x3
 292 00bd F803     		.2byte	0x3f8
 293 00bf 2D010000 		.4byte	0x12d
 294 00c3 09       		.uleb128 0x9
 295 00c4 43524C00 		.ascii	"CRL\000"
 296 00c8 03       		.byte	0x3
 297 00c9 FA03     		.2byte	0x3fa
 298 00cb 97000000 		.4byte	0x97
 299 00cf 02       		.byte	0x2
 300 00d0 23       		.byte	0x23
 301 00d1 00       		.uleb128 0
 302 00d2 09       		.uleb128 0x9
 303 00d3 43524800 		.ascii	"CRH\000"
 304 00d7 03       		.byte	0x3
 305 00d8 FB03     		.2byte	0x3fb
 306 00da 97000000 		.4byte	0x97
 307 00de 02       		.byte	0x2
 308 00df 23       		.byte	0x23
 309 00e0 04       		.uleb128 0x4
 310 00e1 09       		.uleb128 0x9
 311 00e2 49445200 		.ascii	"IDR\000"
 312 00e6 03       		.byte	0x3
 313 00e7 FC03     		.2byte	0x3fc
 314 00e9 97000000 		.4byte	0x97
 315 00ed 02       		.byte	0x2
 316 00ee 23       		.byte	0x23
 317 00ef 08       		.uleb128 0x8
 318 00f0 09       		.uleb128 0x9
 319 00f1 4F445200 		.ascii	"ODR\000"
 320 00f5 03       		.byte	0x3
 321 00f6 FD03     		.2byte	0x3fd
 322 00f8 97000000 		.4byte	0x97
 323 00fc 02       		.byte	0x2
 324 00fd 23       		.byte	0x23
 325 00fe 0C       		.uleb128 0xc
 326 00ff 0A       		.uleb128 0xa
 327 0100 12000000 		.4byte	.LASF15
 328 0104 03       		.byte	0x3
 329 0105 FE03     		.2byte	0x3fe
 330 0107 97000000 		.4byte	0x97
ARM GAS  /tmp/ccRHGiAh.s 			page 7


 331 010b 02       		.byte	0x2
 332 010c 23       		.byte	0x23
 333 010d 10       		.uleb128 0x10
 334 010e 09       		.uleb128 0x9
 335 010f 42525200 		.ascii	"BRR\000"
 336 0113 03       		.byte	0x3
 337 0114 FF03     		.2byte	0x3ff
 338 0116 97000000 		.4byte	0x97
 339 011a 02       		.byte	0x2
 340 011b 23       		.byte	0x23
 341 011c 14       		.uleb128 0x14
 342 011d 0A       		.uleb128 0xa
 343 011e 00000000 		.4byte	.LASF16
 344 0122 03       		.byte	0x3
 345 0123 0004     		.2byte	0x400
 346 0125 97000000 		.4byte	0x97
 347 0129 02       		.byte	0x2
 348 012a 23       		.byte	0x23
 349 012b 18       		.uleb128 0x18
 350 012c 00       		.byte	0
 351 012d 0B       		.uleb128 0xb
 352 012e 11010000 		.4byte	.LASF17
 353 0132 03       		.byte	0x3
 354 0133 0104     		.2byte	0x401
 355 0135 BA000000 		.4byte	0xba
 356 0139 04       		.uleb128 0x4
 357 013a 38000000 		.4byte	.LASF18
 358 013e 04       		.byte	0x4
 359 013f 6D       		.byte	0x6d
 360 0140 65000000 		.4byte	0x65
 361 0144 04       		.uleb128 0x4
 362 0145 45000000 		.4byte	.LASF19
 363 0149 04       		.byte	0x4
 364 014a 72       		.byte	0x72
 365 014b 65000000 		.4byte	0x65
 366 014f 04       		.uleb128 0x4
 367 0150 A8010000 		.4byte	.LASF20
 368 0154 04       		.byte	0x4
 369 0155 7A       		.byte	0x7a
 370 0156 5A010000 		.4byte	0x15a
 371 015a 06       		.uleb128 0x6
 372 015b 04       		.byte	0x4
 373 015c 2D010000 		.4byte	0x12d
 374 0160 0C       		.uleb128 0xc
 375 0161 0C       		.byte	0xc
 376 0162 05       		.byte	0x5
 377 0163 7E       		.byte	0x7e
 378 0164 93010000 		.4byte	0x193
 379 0168 0D       		.uleb128 0xd
 380 0169 31000000 		.4byte	.LASF21
 381 016d 05       		.byte	0x5
 382 016e 82       		.byte	0x82
 383 016f 4F010000 		.4byte	0x14f
 384 0173 02       		.byte	0x2
 385 0174 23       		.byte	0x23
 386 0175 00       		.uleb128 0
 387 0176 0D       		.uleb128 0xd
ARM GAS  /tmp/ccRHGiAh.s 			page 8


 388 0177 87010000 		.4byte	.LASF22
 389 017b 05       		.byte	0x5
 390 017c 88       		.byte	0x88
 391 017d 39010000 		.4byte	0x139
 392 0181 02       		.byte	0x2
 393 0182 23       		.byte	0x23
 394 0183 04       		.uleb128 0x4
 395 0184 0D       		.uleb128 0xd
 396 0185 97010000 		.4byte	.LASF23
 397 0189 05       		.byte	0x5
 398 018a 8C       		.byte	0x8c
 399 018b 85000000 		.4byte	0x85
 400 018f 02       		.byte	0x2
 401 0190 23       		.byte	0x23
 402 0191 08       		.uleb128 0x8
 403 0192 00       		.byte	0
 404 0193 04       		.uleb128 0x4
 405 0194 FE010000 		.4byte	.LASF24
 406 0198 05       		.byte	0x5
 407 0199 8D       		.byte	0x8d
 408 019a 60010000 		.4byte	0x160
 409 019e 0E       		.uleb128 0xe
 410 019f 01       		.byte	0x1
 411 01a0 C5010000 		.4byte	.LASF32
 412 01a4 01       		.byte	0x1
 413 01a5 46       		.byte	0x46
 414 01a6 01       		.byte	0x1
 415 01a7 39010000 		.4byte	0x139
 416 01ab 00000000 		.4byte	.LFB63
 417 01af 28000000 		.4byte	.LFE63
 418 01b3 00000000 		.4byte	.LLST0
 419 01b7 01       		.byte	0x1
 420 01b8 DF010000 		.4byte	0x1df
 421 01bc 0F       		.uleb128 0xf
 422 01bd 62757300 		.ascii	"bus\000"
 423 01c1 01       		.byte	0x1
 424 01c2 46       		.byte	0x46
 425 01c3 DF010000 		.4byte	0x1df
 426 01c7 20000000 		.4byte	.LLST1
 427 01cb 10       		.uleb128 0x10
 428 01cc 12000000 		.4byte	.LVL2
 429 01d0 A0020000 		.4byte	0x2a0
 430 01d4 11       		.uleb128 0x11
 431 01d5 01       		.byte	0x1
 432 01d6 50       		.byte	0x50
 433 01d7 05       		.byte	0x5
 434 01d8 03       		.byte	0x3
 435 01d9 00000000 		.4byte	.LC0
 436 01dd 00       		.byte	0
 437 01de 00       		.byte	0
 438 01df 06       		.uleb128 0x6
 439 01e0 04       		.byte	0x4
 440 01e1 93010000 		.4byte	0x193
 441 01e5 12       		.uleb128 0x12
 442 01e6 01       		.byte	0x1
 443 01e7 17000000 		.4byte	.LASF26
 444 01eb 01       		.byte	0x1
ARM GAS  /tmp/ccRHGiAh.s 			page 9


 445 01ec 60       		.byte	0x60
 446 01ed 01       		.byte	0x1
 447 01ee 00000000 		.4byte	.LFB64
 448 01f2 38000000 		.4byte	.LFE64
 449 01f6 3E000000 		.4byte	.LLST2
 450 01fa 01       		.byte	0x1
 451 01fb 31020000 		.4byte	0x231
 452 01ff 0F       		.uleb128 0xf
 453 0200 62757300 		.ascii	"bus\000"
 454 0204 01       		.byte	0x1
 455 0205 60       		.byte	0x60
 456 0206 DF010000 		.4byte	0x1df
 457 020a 5E000000 		.4byte	.LLST3
 458 020e 13       		.uleb128 0x13
 459 020f D0010000 		.4byte	.LASF25
 460 0213 01       		.byte	0x1
 461 0214 60       		.byte	0x60
 462 0215 39010000 		.4byte	0x139
 463 0219 7C000000 		.4byte	.LLST4
 464 021d 10       		.uleb128 0x10
 465 021e 14000000 		.4byte	.LVL5
 466 0222 A0020000 		.4byte	0x2a0
 467 0226 11       		.uleb128 0x11
 468 0227 01       		.byte	0x1
 469 0228 50       		.byte	0x50
 470 0229 05       		.byte	0x5
 471 022a 03       		.byte	0x3
 472 022b 10000000 		.4byte	.LC1
 473 022f 00       		.byte	0
 474 0230 00       		.byte	0
 475 0231 12       		.uleb128 0x12
 476 0232 01       		.byte	0x1
 477 0233 23000000 		.4byte	.LASF27
 478 0237 01       		.byte	0x1
 479 0238 78       		.byte	0x78
 480 0239 01       		.byte	0x1
 481 023a 00000000 		.4byte	.LFB65
 482 023e 2C000000 		.4byte	.LFE65
 483 0242 A8000000 		.4byte	.LLST5
 484 0246 01       		.byte	0x1
 485 0247 92020000 		.4byte	0x292
 486 024b 0F       		.uleb128 0xf
 487 024c 62757300 		.ascii	"bus\000"
 488 0250 01       		.byte	0x1
 489 0251 78       		.byte	0x78
 490 0252 DF010000 		.4byte	0x1df
 491 0256 C8000000 		.4byte	.LLST6
 492 025a 13       		.uleb128 0x13
 493 025b 63010000 		.4byte	.LASF28
 494 025f 01       		.byte	0x1
 495 0260 78       		.byte	0x78
 496 0261 44010000 		.4byte	0x144
 497 0265 E6000000 		.4byte	.LLST7
 498 0269 14       		.uleb128 0x14
 499 026a 14000000 		.4byte	.LVL9
 500 026e A0020000 		.4byte	0x2a0
 501 0272 80020000 		.4byte	0x280
ARM GAS  /tmp/ccRHGiAh.s 			page 10


 502 0276 11       		.uleb128 0x11
 503 0277 01       		.byte	0x1
 504 0278 50       		.byte	0x50
 505 0279 05       		.byte	0x5
 506 027a 03       		.byte	0x3
 507 027b 20000000 		.4byte	.LC2
 508 027f 00       		.byte	0
 509 0280 15       		.uleb128 0x15
 510 0281 28000000 		.4byte	.LVL10
 511 0285 01       		.byte	0x1
 512 0286 B4020000 		.4byte	0x2b4
 513 028a 11       		.uleb128 0x11
 514 028b 01       		.byte	0x1
 515 028c 52       		.byte	0x52
 516 028d 02       		.byte	0x2
 517 028e 75       		.byte	0x75
 518 028f 00       		.sleb128 0
 519 0290 00       		.byte	0
 520 0291 00       		.byte	0
 521 0292 16       		.uleb128 0x16
 522 0293 98000000 		.4byte	.LASF33
 523 0297 06       		.byte	0x6
 524 0298 0706     		.2byte	0x607
 525 029a B5000000 		.4byte	0xb5
 526 029e 01       		.byte	0x1
 527 029f 01       		.byte	0x1
 528 02a0 17       		.uleb128 0x17
 529 02a1 01       		.byte	0x1
 530 02a2 8C010000 		.4byte	.LASF34
 531 02a6 07       		.byte	0x7
 532 02a7 EF       		.byte	0xef
 533 02a8 01       		.byte	0x1
 534 02a9 01       		.byte	0x1
 535 02aa B4020000 		.4byte	0x2b4
 536 02ae 18       		.uleb128 0x18
 537 02af A3000000 		.4byte	0xa3
 538 02b3 00       		.byte	0
 539 02b4 19       		.uleb128 0x19
 540 02b5 01       		.byte	0x1
 541 02b6 EE000000 		.4byte	.LASF35
 542 02ba 04       		.byte	0x4
 543 02bb 4301     		.2byte	0x143
 544 02bd 01       		.byte	0x1
 545 02be 01       		.byte	0x1
 546 02bf 18       		.uleb128 0x18
 547 02c0 4F010000 		.4byte	0x14f
 548 02c4 18       		.uleb128 0x18
 549 02c5 39010000 		.4byte	0x139
 550 02c9 18       		.uleb128 0x18
 551 02ca 44010000 		.4byte	0x144
 552 02ce 00       		.byte	0
 553 02cf 00       		.byte	0
 554              		.section	.debug_abbrev,"",%progbits
 555              	.Ldebug_abbrev0:
 556 0000 01       		.uleb128 0x1
 557 0001 11       		.uleb128 0x11
 558 0002 01       		.byte	0x1
ARM GAS  /tmp/ccRHGiAh.s 			page 11


 559 0003 25       		.uleb128 0x25
 560 0004 0E       		.uleb128 0xe
 561 0005 13       		.uleb128 0x13
 562 0006 0B       		.uleb128 0xb
 563 0007 03       		.uleb128 0x3
 564 0008 0E       		.uleb128 0xe
 565 0009 1B       		.uleb128 0x1b
 566 000a 0E       		.uleb128 0xe
 567 000b 55       		.uleb128 0x55
 568 000c 06       		.uleb128 0x6
 569 000d 11       		.uleb128 0x11
 570 000e 01       		.uleb128 0x1
 571 000f 52       		.uleb128 0x52
 572 0010 01       		.uleb128 0x1
 573 0011 10       		.uleb128 0x10
 574 0012 06       		.uleb128 0x6
 575 0013 00       		.byte	0
 576 0014 00       		.byte	0
 577 0015 02       		.uleb128 0x2
 578 0016 24       		.uleb128 0x24
 579 0017 00       		.byte	0
 580 0018 0B       		.uleb128 0xb
 581 0019 0B       		.uleb128 0xb
 582 001a 3E       		.uleb128 0x3e
 583 001b 0B       		.uleb128 0xb
 584 001c 03       		.uleb128 0x3
 585 001d 08       		.uleb128 0x8
 586 001e 00       		.byte	0
 587 001f 00       		.byte	0
 588 0020 03       		.uleb128 0x3
 589 0021 24       		.uleb128 0x24
 590 0022 00       		.byte	0
 591 0023 0B       		.uleb128 0xb
 592 0024 0B       		.uleb128 0xb
 593 0025 3E       		.uleb128 0x3e
 594 0026 0B       		.uleb128 0xb
 595 0027 03       		.uleb128 0x3
 596 0028 0E       		.uleb128 0xe
 597 0029 00       		.byte	0
 598 002a 00       		.byte	0
 599 002b 04       		.uleb128 0x4
 600 002c 16       		.uleb128 0x16
 601 002d 00       		.byte	0
 602 002e 03       		.uleb128 0x3
 603 002f 0E       		.uleb128 0xe
 604 0030 3A       		.uleb128 0x3a
 605 0031 0B       		.uleb128 0xb
 606 0032 3B       		.uleb128 0x3b
 607 0033 0B       		.uleb128 0xb
 608 0034 49       		.uleb128 0x49
 609 0035 13       		.uleb128 0x13
 610 0036 00       		.byte	0
 611 0037 00       		.byte	0
 612 0038 05       		.uleb128 0x5
 613 0039 35       		.uleb128 0x35
 614 003a 00       		.byte	0
 615 003b 49       		.uleb128 0x49
ARM GAS  /tmp/ccRHGiAh.s 			page 12


 616 003c 13       		.uleb128 0x13
 617 003d 00       		.byte	0
 618 003e 00       		.byte	0
 619 003f 06       		.uleb128 0x6
 620 0040 0F       		.uleb128 0xf
 621 0041 00       		.byte	0
 622 0042 0B       		.uleb128 0xb
 623 0043 0B       		.uleb128 0xb
 624 0044 49       		.uleb128 0x49
 625 0045 13       		.uleb128 0x13
 626 0046 00       		.byte	0
 627 0047 00       		.byte	0
 628 0048 07       		.uleb128 0x7
 629 0049 26       		.uleb128 0x26
 630 004a 00       		.byte	0
 631 004b 49       		.uleb128 0x49
 632 004c 13       		.uleb128 0x13
 633 004d 00       		.byte	0
 634 004e 00       		.byte	0
 635 004f 08       		.uleb128 0x8
 636 0050 13       		.uleb128 0x13
 637 0051 01       		.byte	0x1
 638 0052 0B       		.uleb128 0xb
 639 0053 0B       		.uleb128 0xb
 640 0054 3A       		.uleb128 0x3a
 641 0055 0B       		.uleb128 0xb
 642 0056 3B       		.uleb128 0x3b
 643 0057 05       		.uleb128 0x5
 644 0058 01       		.uleb128 0x1
 645 0059 13       		.uleb128 0x13
 646 005a 00       		.byte	0
 647 005b 00       		.byte	0
 648 005c 09       		.uleb128 0x9
 649 005d 0D       		.uleb128 0xd
 650 005e 00       		.byte	0
 651 005f 03       		.uleb128 0x3
 652 0060 08       		.uleb128 0x8
 653 0061 3A       		.uleb128 0x3a
 654 0062 0B       		.uleb128 0xb
 655 0063 3B       		.uleb128 0x3b
 656 0064 05       		.uleb128 0x5
 657 0065 49       		.uleb128 0x49
 658 0066 13       		.uleb128 0x13
 659 0067 38       		.uleb128 0x38
 660 0068 0A       		.uleb128 0xa
 661 0069 00       		.byte	0
 662 006a 00       		.byte	0
 663 006b 0A       		.uleb128 0xa
 664 006c 0D       		.uleb128 0xd
 665 006d 00       		.byte	0
 666 006e 03       		.uleb128 0x3
 667 006f 0E       		.uleb128 0xe
 668 0070 3A       		.uleb128 0x3a
 669 0071 0B       		.uleb128 0xb
 670 0072 3B       		.uleb128 0x3b
 671 0073 05       		.uleb128 0x5
 672 0074 49       		.uleb128 0x49
ARM GAS  /tmp/ccRHGiAh.s 			page 13


 673 0075 13       		.uleb128 0x13
 674 0076 38       		.uleb128 0x38
 675 0077 0A       		.uleb128 0xa
 676 0078 00       		.byte	0
 677 0079 00       		.byte	0
 678 007a 0B       		.uleb128 0xb
 679 007b 16       		.uleb128 0x16
 680 007c 00       		.byte	0
 681 007d 03       		.uleb128 0x3
 682 007e 0E       		.uleb128 0xe
 683 007f 3A       		.uleb128 0x3a
 684 0080 0B       		.uleb128 0xb
 685 0081 3B       		.uleb128 0x3b
 686 0082 05       		.uleb128 0x5
 687 0083 49       		.uleb128 0x49
 688 0084 13       		.uleb128 0x13
 689 0085 00       		.byte	0
 690 0086 00       		.byte	0
 691 0087 0C       		.uleb128 0xc
 692 0088 13       		.uleb128 0x13
 693 0089 01       		.byte	0x1
 694 008a 0B       		.uleb128 0xb
 695 008b 0B       		.uleb128 0xb
 696 008c 3A       		.uleb128 0x3a
 697 008d 0B       		.uleb128 0xb
 698 008e 3B       		.uleb128 0x3b
 699 008f 0B       		.uleb128 0xb
 700 0090 01       		.uleb128 0x1
 701 0091 13       		.uleb128 0x13
 702 0092 00       		.byte	0
 703 0093 00       		.byte	0
 704 0094 0D       		.uleb128 0xd
 705 0095 0D       		.uleb128 0xd
 706 0096 00       		.byte	0
 707 0097 03       		.uleb128 0x3
 708 0098 0E       		.uleb128 0xe
 709 0099 3A       		.uleb128 0x3a
 710 009a 0B       		.uleb128 0xb
 711 009b 3B       		.uleb128 0x3b
 712 009c 0B       		.uleb128 0xb
 713 009d 49       		.uleb128 0x49
 714 009e 13       		.uleb128 0x13
 715 009f 38       		.uleb128 0x38
 716 00a0 0A       		.uleb128 0xa
 717 00a1 00       		.byte	0
 718 00a2 00       		.byte	0
 719 00a3 0E       		.uleb128 0xe
 720 00a4 2E       		.uleb128 0x2e
 721 00a5 01       		.byte	0x1
 722 00a6 3F       		.uleb128 0x3f
 723 00a7 0C       		.uleb128 0xc
 724 00a8 03       		.uleb128 0x3
 725 00a9 0E       		.uleb128 0xe
 726 00aa 3A       		.uleb128 0x3a
 727 00ab 0B       		.uleb128 0xb
 728 00ac 3B       		.uleb128 0x3b
 729 00ad 0B       		.uleb128 0xb
ARM GAS  /tmp/ccRHGiAh.s 			page 14


 730 00ae 27       		.uleb128 0x27
 731 00af 0C       		.uleb128 0xc
 732 00b0 49       		.uleb128 0x49
 733 00b1 13       		.uleb128 0x13
 734 00b2 11       		.uleb128 0x11
 735 00b3 01       		.uleb128 0x1
 736 00b4 12       		.uleb128 0x12
 737 00b5 01       		.uleb128 0x1
 738 00b6 40       		.uleb128 0x40
 739 00b7 06       		.uleb128 0x6
 740 00b8 9742     		.uleb128 0x2117
 741 00ba 0C       		.uleb128 0xc
 742 00bb 01       		.uleb128 0x1
 743 00bc 13       		.uleb128 0x13
 744 00bd 00       		.byte	0
 745 00be 00       		.byte	0
 746 00bf 0F       		.uleb128 0xf
 747 00c0 05       		.uleb128 0x5
 748 00c1 00       		.byte	0
 749 00c2 03       		.uleb128 0x3
 750 00c3 08       		.uleb128 0x8
 751 00c4 3A       		.uleb128 0x3a
 752 00c5 0B       		.uleb128 0xb
 753 00c6 3B       		.uleb128 0x3b
 754 00c7 0B       		.uleb128 0xb
 755 00c8 49       		.uleb128 0x49
 756 00c9 13       		.uleb128 0x13
 757 00ca 02       		.uleb128 0x2
 758 00cb 06       		.uleb128 0x6
 759 00cc 00       		.byte	0
 760 00cd 00       		.byte	0
 761 00ce 10       		.uleb128 0x10
 762 00cf 898201   		.uleb128 0x4109
 763 00d2 01       		.byte	0x1
 764 00d3 11       		.uleb128 0x11
 765 00d4 01       		.uleb128 0x1
 766 00d5 31       		.uleb128 0x31
 767 00d6 13       		.uleb128 0x13
 768 00d7 00       		.byte	0
 769 00d8 00       		.byte	0
 770 00d9 11       		.uleb128 0x11
 771 00da 8A8201   		.uleb128 0x410a
 772 00dd 00       		.byte	0
 773 00de 02       		.uleb128 0x2
 774 00df 0A       		.uleb128 0xa
 775 00e0 9142     		.uleb128 0x2111
 776 00e2 0A       		.uleb128 0xa
 777 00e3 00       		.byte	0
 778 00e4 00       		.byte	0
 779 00e5 12       		.uleb128 0x12
 780 00e6 2E       		.uleb128 0x2e
 781 00e7 01       		.byte	0x1
 782 00e8 3F       		.uleb128 0x3f
 783 00e9 0C       		.uleb128 0xc
 784 00ea 03       		.uleb128 0x3
 785 00eb 0E       		.uleb128 0xe
 786 00ec 3A       		.uleb128 0x3a
ARM GAS  /tmp/ccRHGiAh.s 			page 15


 787 00ed 0B       		.uleb128 0xb
 788 00ee 3B       		.uleb128 0x3b
 789 00ef 0B       		.uleb128 0xb
 790 00f0 27       		.uleb128 0x27
 791 00f1 0C       		.uleb128 0xc
 792 00f2 11       		.uleb128 0x11
 793 00f3 01       		.uleb128 0x1
 794 00f4 12       		.uleb128 0x12
 795 00f5 01       		.uleb128 0x1
 796 00f6 40       		.uleb128 0x40
 797 00f7 06       		.uleb128 0x6
 798 00f8 9742     		.uleb128 0x2117
 799 00fa 0C       		.uleb128 0xc
 800 00fb 01       		.uleb128 0x1
 801 00fc 13       		.uleb128 0x13
 802 00fd 00       		.byte	0
 803 00fe 00       		.byte	0
 804 00ff 13       		.uleb128 0x13
 805 0100 05       		.uleb128 0x5
 806 0101 00       		.byte	0
 807 0102 03       		.uleb128 0x3
 808 0103 0E       		.uleb128 0xe
 809 0104 3A       		.uleb128 0x3a
 810 0105 0B       		.uleb128 0xb
 811 0106 3B       		.uleb128 0x3b
 812 0107 0B       		.uleb128 0xb
 813 0108 49       		.uleb128 0x49
 814 0109 13       		.uleb128 0x13
 815 010a 02       		.uleb128 0x2
 816 010b 06       		.uleb128 0x6
 817 010c 00       		.byte	0
 818 010d 00       		.byte	0
 819 010e 14       		.uleb128 0x14
 820 010f 898201   		.uleb128 0x4109
 821 0112 01       		.byte	0x1
 822 0113 11       		.uleb128 0x11
 823 0114 01       		.uleb128 0x1
 824 0115 31       		.uleb128 0x31
 825 0116 13       		.uleb128 0x13
 826 0117 01       		.uleb128 0x1
 827 0118 13       		.uleb128 0x13
 828 0119 00       		.byte	0
 829 011a 00       		.byte	0
 830 011b 15       		.uleb128 0x15
 831 011c 898201   		.uleb128 0x4109
 832 011f 01       		.byte	0x1
 833 0120 11       		.uleb128 0x11
 834 0121 01       		.uleb128 0x1
 835 0122 9542     		.uleb128 0x2115
 836 0124 0C       		.uleb128 0xc
 837 0125 31       		.uleb128 0x31
 838 0126 13       		.uleb128 0x13
 839 0127 00       		.byte	0
 840 0128 00       		.byte	0
 841 0129 16       		.uleb128 0x16
 842 012a 34       		.uleb128 0x34
 843 012b 00       		.byte	0
ARM GAS  /tmp/ccRHGiAh.s 			page 16


 844 012c 03       		.uleb128 0x3
 845 012d 0E       		.uleb128 0xe
 846 012e 3A       		.uleb128 0x3a
 847 012f 0B       		.uleb128 0xb
 848 0130 3B       		.uleb128 0x3b
 849 0131 05       		.uleb128 0x5
 850 0132 49       		.uleb128 0x49
 851 0133 13       		.uleb128 0x13
 852 0134 3F       		.uleb128 0x3f
 853 0135 0C       		.uleb128 0xc
 854 0136 3C       		.uleb128 0x3c
 855 0137 0C       		.uleb128 0xc
 856 0138 00       		.byte	0
 857 0139 00       		.byte	0
 858 013a 17       		.uleb128 0x17
 859 013b 2E       		.uleb128 0x2e
 860 013c 01       		.byte	0x1
 861 013d 3F       		.uleb128 0x3f
 862 013e 0C       		.uleb128 0xc
 863 013f 03       		.uleb128 0x3
 864 0140 0E       		.uleb128 0xe
 865 0141 3A       		.uleb128 0x3a
 866 0142 0B       		.uleb128 0xb
 867 0143 3B       		.uleb128 0x3b
 868 0144 0B       		.uleb128 0xb
 869 0145 27       		.uleb128 0x27
 870 0146 0C       		.uleb128 0xc
 871 0147 3C       		.uleb128 0x3c
 872 0148 0C       		.uleb128 0xc
 873 0149 01       		.uleb128 0x1
 874 014a 13       		.uleb128 0x13
 875 014b 00       		.byte	0
 876 014c 00       		.byte	0
 877 014d 18       		.uleb128 0x18
 878 014e 05       		.uleb128 0x5
 879 014f 00       		.byte	0
 880 0150 49       		.uleb128 0x49
 881 0151 13       		.uleb128 0x13
 882 0152 00       		.byte	0
 883 0153 00       		.byte	0
 884 0154 19       		.uleb128 0x19
 885 0155 2E       		.uleb128 0x2e
 886 0156 01       		.byte	0x1
 887 0157 3F       		.uleb128 0x3f
 888 0158 0C       		.uleb128 0xc
 889 0159 03       		.uleb128 0x3
 890 015a 0E       		.uleb128 0xe
 891 015b 3A       		.uleb128 0x3a
 892 015c 0B       		.uleb128 0xb
 893 015d 3B       		.uleb128 0x3b
 894 015e 05       		.uleb128 0x5
 895 015f 27       		.uleb128 0x27
 896 0160 0C       		.uleb128 0xc
 897 0161 3C       		.uleb128 0x3c
 898 0162 0C       		.uleb128 0xc
 899 0163 00       		.byte	0
 900 0164 00       		.byte	0
ARM GAS  /tmp/ccRHGiAh.s 			page 17


 901 0165 00       		.byte	0
 902              		.section	.debug_loc,"",%progbits
 903              	.Ldebug_loc0:
 904              	.LLST0:
 905 0000 00000000 		.4byte	.LFB63
 906 0004 02000000 		.4byte	.LCFI0
 907 0008 0200     		.2byte	0x2
 908 000a 7D       		.byte	0x7d
 909 000b 00       		.sleb128 0
 910 000c 02000000 		.4byte	.LCFI0
 911 0010 28000000 		.4byte	.LFE63
 912 0014 0200     		.2byte	0x2
 913 0016 7D       		.byte	0x7d
 914 0017 08       		.sleb128 8
 915 0018 00000000 		.4byte	0
 916 001c 00000000 		.4byte	0
 917              	.LLST1:
 918 0020 00000000 		.4byte	.LVL0
 919 0024 0E000000 		.4byte	.LVL1
 920 0028 0100     		.2byte	0x1
 921 002a 50       		.byte	0x50
 922 002b 0E000000 		.4byte	.LVL1
 923 002f 28000000 		.4byte	.LFE63
 924 0033 0100     		.2byte	0x1
 925 0035 54       		.byte	0x54
 926 0036 00000000 		.4byte	0
 927 003a 00000000 		.4byte	0
 928              	.LLST2:
 929 003e 00000000 		.4byte	.LFB64
 930 0042 02000000 		.4byte	.LCFI1
 931 0046 0200     		.2byte	0x2
 932 0048 7D       		.byte	0x7d
 933 0049 00       		.sleb128 0
 934 004a 02000000 		.4byte	.LCFI1
 935 004e 38000000 		.4byte	.LFE64
 936 0052 0200     		.2byte	0x2
 937 0054 7D       		.byte	0x7d
 938 0055 10       		.sleb128 16
 939 0056 00000000 		.4byte	0
 940 005a 00000000 		.4byte	0
 941              	.LLST3:
 942 005e 00000000 		.4byte	.LVL3
 943 0062 10000000 		.4byte	.LVL4
 944 0066 0100     		.2byte	0x1
 945 0068 50       		.byte	0x50
 946 0069 10000000 		.4byte	.LVL4
 947 006d 38000000 		.4byte	.LFE64
 948 0071 0100     		.2byte	0x1
 949 0073 54       		.byte	0x54
 950 0074 00000000 		.4byte	0
 951 0078 00000000 		.4byte	0
 952              	.LLST4:
 953 007c 00000000 		.4byte	.LVL3
 954 0080 13000000 		.4byte	.LVL5-1
 955 0084 0100     		.2byte	0x1
 956 0086 51       		.byte	0x51
 957 0087 13000000 		.4byte	.LVL5-1
ARM GAS  /tmp/ccRHGiAh.s 			page 18


 958 008b 22000000 		.4byte	.LVL6
 959 008f 0100     		.2byte	0x1
 960 0091 55       		.byte	0x55
 961 0092 22000000 		.4byte	.LVL6
 962 0096 38000000 		.4byte	.LFE64
 963 009a 0400     		.2byte	0x4
 964 009c F3       		.byte	0xf3
 965 009d 01       		.uleb128 0x1
 966 009e 51       		.byte	0x51
 967 009f 9F       		.byte	0x9f
 968 00a0 00000000 		.4byte	0
 969 00a4 00000000 		.4byte	0
 970              	.LLST5:
 971 00a8 00000000 		.4byte	.LFB65
 972 00ac 02000000 		.4byte	.LCFI2
 973 00b0 0200     		.2byte	0x2
 974 00b2 7D       		.byte	0x7d
 975 00b3 00       		.sleb128 0
 976 00b4 02000000 		.4byte	.LCFI2
 977 00b8 2C000000 		.4byte	.LFE65
 978 00bc 0200     		.2byte	0x2
 979 00be 7D       		.byte	0x7d
 980 00bf 10       		.sleb128 16
 981 00c0 00000000 		.4byte	0
 982 00c4 00000000 		.4byte	0
 983              	.LLST6:
 984 00c8 00000000 		.4byte	.LVL7
 985 00cc 10000000 		.4byte	.LVL8
 986 00d0 0100     		.2byte	0x1
 987 00d2 50       		.byte	0x50
 988 00d3 10000000 		.4byte	.LVL8
 989 00d7 2C000000 		.4byte	.LFE65
 990 00db 0100     		.2byte	0x1
 991 00dd 54       		.byte	0x54
 992 00de 00000000 		.4byte	0
 993 00e2 00000000 		.4byte	0
 994              	.LLST7:
 995 00e6 00000000 		.4byte	.LVL7
 996 00ea 13000000 		.4byte	.LVL9-1
 997 00ee 0100     		.2byte	0x1
 998 00f0 51       		.byte	0x51
 999 00f1 13000000 		.4byte	.LVL9-1
 1000 00f5 2C000000 		.4byte	.LFE65
 1001 00f9 0100     		.2byte	0x1
 1002 00fb 55       		.byte	0x55
 1003 00fc 00000000 		.4byte	0
 1004 0100 00000000 		.4byte	0
 1005              		.section	.debug_aranges,"",%progbits
 1006 0000 2C000000 		.4byte	0x2c
 1007 0004 0200     		.2byte	0x2
 1008 0006 00000000 		.4byte	.Ldebug_info0
 1009 000a 04       		.byte	0x4
 1010 000b 00       		.byte	0
 1011 000c 0000     		.2byte	0
 1012 000e 0000     		.2byte	0
 1013 0010 00000000 		.4byte	.LFB63
 1014 0014 28000000 		.4byte	.LFE63-.LFB63
ARM GAS  /tmp/ccRHGiAh.s 			page 19


 1015 0018 00000000 		.4byte	.LFB64
 1016 001c 38000000 		.4byte	.LFE64-.LFB64
 1017 0020 00000000 		.4byte	.LFB65
 1018 0024 2C000000 		.4byte	.LFE65-.LFB65
 1019 0028 00000000 		.4byte	0
 1020 002c 00000000 		.4byte	0
 1021              		.section	.debug_ranges,"",%progbits
 1022              	.Ldebug_ranges0:
 1023 0000 00000000 		.4byte	.LFB63
 1024 0004 28000000 		.4byte	.LFE63
 1025 0008 00000000 		.4byte	.LFB64
 1026 000c 38000000 		.4byte	.LFE64
 1027 0010 00000000 		.4byte	.LFB65
 1028 0014 2C000000 		.4byte	.LFE65
 1029 0018 00000000 		.4byte	0
 1030 001c 00000000 		.4byte	0
 1031              		.section	.debug_line,"",%progbits
 1032              	.Ldebug_line0:
 1033 0000 C6010000 		.section	.debug_str,"MS",%progbits,1
 1033      02006001 
 1033      00000201 
 1033      FB0E0D00 
 1033      01010101 
 1034              	.LASF16:
 1035 0000 4C434B52 		.ascii	"LCKR\000"
 1035      00
 1036              	.LASF11:
 1037 0005 75696E74 		.ascii	"uint_fast8_t\000"
 1037      5F666173 
 1037      74385F74 
 1037      00
 1038              	.LASF15:
 1039 0012 42535252 		.ascii	"BSRR\000"
 1039      00
 1040              	.LASF26:
 1041 0017 70616C57 		.ascii	"palWriteBus\000"
 1041      72697465 
 1041      42757300 
 1042              	.LASF27:
 1043 0023 70616C53 		.ascii	"palSetBusMode\000"
 1043      65744275 
 1043      734D6F64 
 1043      6500
 1044              	.LASF21:
 1045 0031 706F7274 		.ascii	"portid\000"
 1045      696400
 1046              	.LASF18:
 1047 0038 696F706F 		.ascii	"ioportmask_t\000"
 1047      72746D61 
 1047      736B5F74 
 1047      00
 1048              	.LASF19:
 1049 0045 696F6D6F 		.ascii	"iomode_t\000"
 1049      64655F74 
 1049      00
 1050              	.LASF2:
 1051 004e 756E7369 		.ascii	"unsigned char\000"
ARM GAS  /tmp/ccRHGiAh.s 			page 20


 1051      676E6564 
 1051      20636861 
 1051      7200
 1052              	.LASF30:
 1053 005c 2E2E2F2E 		.ascii	"../../os/hal/src/pal.c\000"
 1053      2E2F6F73 
 1053      2F68616C 
 1053      2F737263 
 1053      2F70616C 
 1054              	.LASF8:
 1055 0073 6C6F6E67 		.ascii	"long unsigned int\000"
 1055      20756E73 
 1055      69676E65 
 1055      6420696E 
 1055      7400
 1056              	.LASF4:
 1057 0085 73686F72 		.ascii	"short unsigned int\000"
 1057      7420756E 
 1057      7369676E 
 1057      65642069 
 1057      6E7400
 1058              	.LASF33:
 1059 0098 49544D5F 		.ascii	"ITM_RxBuffer\000"
 1059      52784275 
 1059      66666572 
 1059      00
 1060              	.LASF29:
 1061 00a5 474E5520 		.ascii	"GNU C 4.7.4 20130913 (release) [ARM/embedded-4_7-br"
 1061      4320342E 
 1061      372E3420 
 1061      32303133 
 1061      30393133 
 1062 00d8 616E6368 		.ascii	"anch revision 202601]\000"
 1062      20726576 
 1062      6973696F 
 1062      6E203230 
 1062      32363031 
 1063              	.LASF35:
 1064 00ee 5F70616C 		.ascii	"_pal_lld_setgroupmode\000"
 1064      5F6C6C64 
 1064      5F736574 
 1064      67726F75 
 1064      706D6F64 
 1065              	.LASF0:
 1066 0104 756E7369 		.ascii	"unsigned int\000"
 1066      676E6564 
 1066      20696E74 
 1066      00
 1067              	.LASF17:
 1068 0111 4750494F 		.ascii	"GPIO_TypeDef\000"
 1068      5F547970 
 1068      65446566 
 1068      00
 1069              	.LASF14:
 1070 011e 63686172 		.ascii	"char\000"
 1070      00
 1071              	.LASF31:
ARM GAS  /tmp/ccRHGiAh.s 			page 21


 1072 0123 2F686F6D 		.ascii	"/home/ondra6ak/Documents/ARM/mlab-ChibiOSRT/demos/f"
 1072      652F6F6E 
 1072      64726136 
 1072      616B2F44 
 1072      6F63756D 
 1073 0156 6C6F6174 		.ascii	"loatingPoint\000"
 1073      696E6750 
 1073      6F696E74 
 1073      00
 1074              	.LASF28:
 1075 0163 6D6F6465 		.ascii	"mode\000"
 1075      00
 1076              	.LASF6:
 1077 0168 696E7433 		.ascii	"int32_t\000"
 1077      325F7400 
 1078              	.LASF13:
 1079 0170 73697A65 		.ascii	"sizetype\000"
 1079      74797065 
 1079      00
 1080              	.LASF9:
 1081 0179 6C6F6E67 		.ascii	"long long int\000"
 1081      206C6F6E 
 1081      6720696E 
 1081      7400
 1082              	.LASF22:
 1083 0187 6D61736B 		.ascii	"mask\000"
 1083      00
 1084              	.LASF34:
 1085 018c 63684462 		.ascii	"chDbgPanic\000"
 1085      6750616E 
 1085      696300
 1086              	.LASF23:
 1087 0197 6F666673 		.ascii	"offset\000"
 1087      657400
 1088              	.LASF3:
 1089 019e 73686F72 		.ascii	"short int\000"
 1089      7420696E 
 1089      7400
 1090              	.LASF20:
 1091 01a8 696F706F 		.ascii	"ioportid_t\000"
 1091      72746964 
 1091      5F7400
 1092              	.LASF7:
 1093 01b3 75696E74 		.ascii	"uint32_t\000"
 1093      33325F74 
 1093      00
 1094              	.LASF5:
 1095 01bc 6C6F6E67 		.ascii	"long int\000"
 1095      20696E74 
 1095      00
 1096              	.LASF32:
 1097 01c5 70616C52 		.ascii	"palReadBus\000"
 1097      65616442 
 1097      757300
 1098              	.LASF25:
 1099 01d0 62697473 		.ascii	"bits\000"
 1099      00
ARM GAS  /tmp/ccRHGiAh.s 			page 22


 1100              	.LASF1:
 1101 01d5 7369676E 		.ascii	"signed char\000"
 1101      65642063 
 1101      68617200 
 1102              	.LASF12:
 1103 01e1 5F426F6F 		.ascii	"_Bool\000"
 1103      6C00
 1104              	.LASF10:
 1105 01e7 6C6F6E67 		.ascii	"long long unsigned int\000"
 1105      206C6F6E 
 1105      6720756E 
 1105      7369676E 
 1105      65642069 
 1106              	.LASF24:
 1107 01fe 494F4275 		.ascii	"IOBus\000"
 1107      7300
 1108              		.ident	"GCC: (GNU Tools for ARM Embedded Processors) 4.7.4 20130913 (release) [ARM/embedded-4_7-br
ARM GAS  /tmp/ccRHGiAh.s 			page 23


DEFINED SYMBOLS
                            *ABS*:00000000 pal.c
     /tmp/ccRHGiAh.s:19     .text.palReadBus:00000000 $t
     /tmp/ccRHGiAh.s:25     .text.palReadBus:00000000 palReadBus
     /tmp/ccRHGiAh.s:64     .text.palReadBus:00000024 $d
     /tmp/ccRHGiAh.s:69     .text.palWriteBus:00000000 $t
     /tmp/ccRHGiAh.s:75     .text.palWriteBus:00000000 palWriteBus
     /tmp/ccRHGiAh.s:122    .text.palWriteBus:00000034 $d
     /tmp/ccRHGiAh.s:127    .text.palSetBusMode:00000000 $t
     /tmp/ccRHGiAh.s:133    .text.palSetBusMode:00000000 palSetBusMode
     /tmp/ccRHGiAh.s:177    .text.palSetBusMode:00000028 $d
     /tmp/ccRHGiAh.s:182    .rodata.str1.4:00000000 $d
                     .debug_frame:00000010 $d
     /tmp/ccRHGiAh.s:68     .text.palReadBus:00000028 $t
     /tmp/ccRHGiAh.s:126    .text.palWriteBus:00000038 $t
     /tmp/ccRHGiAh.s:181    .text.palSetBusMode:0000002c $t

UNDEFINED SYMBOLS
chDbgPanic
_pal_lld_setgroupmode
