ARM GAS  /tmp/cczhW0CV.s 			page 1


   1              		.syntax unified
   2              		.cpu cortex-m3
   3              		.fpu softvfp
   4              		.eabi_attribute 20, 1
   5              		.eabi_attribute 21, 1
   6              		.eabi_attribute 23, 3
   7              		.eabi_attribute 24, 1
   8              		.eabi_attribute 25, 1
   9              		.eabi_attribute 26, 1
  10              		.eabi_attribute 30, 2
  11              		.eabi_attribute 34, 1
  12              		.eabi_attribute 18, 4
  13              		.thumb
  14              		.file	"testdyn.c"
  15              		.text
  16              	.Ltext0:
  17              		.cfi_sections	.debug_frame
  18              		.section	.text.regfind,"ax",%progbits
  19              		.align	2
  20              		.p2align 4,,15
  21              		.thumb
  22              		.thumb_func
  23              		.type	regfind, %function
  24              	regfind:
  25              	.LFB12:
  26              		.file 1 "../../test/testdyn.c"
  27              		.loc 1 191 0
  28              		.cfi_startproc
  29              		@ args = 0, pretend = 0, frame = 0
  30              		@ frame_needed = 0, uses_anonymous_args = 0
  31              	.LVL0:
  32 0000 38B5     		push	{r3, r4, r5, lr}
  33              	.LCFI0:
  34              		.cfi_def_cfa_offset 16
  35              		.cfi_offset 3, -16
  36              		.cfi_offset 4, -12
  37              		.cfi_offset 5, -8
  38              		.cfi_offset 14, -4
  39              		.loc 1 191 0
  40 0002 0546     		mov	r5, r0
  41              		.loc 1 195 0
  42 0004 FFF7FEFF 		bl	chRegFirstThread
  43              	.LVL1:
  44              		.loc 1 193 0
  45 0008 0024     		movs	r4, #0
  46              		.loc 1 195 0
  47 000a 0346     		mov	r3, r0
  48              	.LVL2:
  49              	.L2:
  50              		.loc 1 198 0 discriminator 1
  51 000c 1846     		mov	r0, r3
  52              		.loc 1 197 0 discriminator 1
  53 000e AB42     		cmp	r3, r5
  54 0010 08BF     		it	eq
  55 0012 44F00104 		orreq	r4, r4, #1
  56              	.LVL3:
  57              		.loc 1 198 0 discriminator 1
ARM GAS  /tmp/cczhW0CV.s 			page 2


  58 0016 FFF7FEFF 		bl	chRegNextThread
  59              	.LVL4:
  60              		.loc 1 199 0 discriminator 1
  61 001a 0346     		mov	r3, r0
  62 001c 0028     		cmp	r0, #0
  63 001e F5D1     		bne	.L2
  64              		.loc 1 201 0
  65 0020 2046     		mov	r0, r4
  66              	.LVL5:
  67 0022 38BD     		pop	{r3, r4, r5, pc}
  68              		.cfi_endproc
  69              	.LFE12:
  70              		.size	regfind, .-regfind
  71 0024 AFF30080 		.section	.text.dyn3_execute,"ax",%progbits
  71      AFF30080 
  71      AFF30080 
  72              		.align	2
  73              		.p2align 4,,15
  74              		.thumb
  75              		.thumb_func
  76              		.type	dyn3_execute, %function
  77              	dyn3_execute:
  78              	.LFB14:
  79              		.loc 1 208 0
  80              		.cfi_startproc
  81              		@ args = 0, pretend = 0, frame = 0
  82              		@ frame_needed = 0, uses_anonymous_args = 0
  83              	.LVL6:
  84 0000 10B5     		push	{r4, lr}
  85              	.LCFI1:
  86              		.cfi_def_cfa_offset 8
  87              		.cfi_offset 4, -8
  88              		.cfi_offset 14, -4
  89              		.loc 1 210 0
  90 0002 4D4B     		ldr	r3, .L10
  91              		.loc 1 213 0
  92 0004 4D4C     		ldr	r4, .L10+4
  93              		.loc 1 210 0
  94 0006 9869     		ldr	r0, [r3, #24]
  95              		.loc 1 208 0
  96 0008 82B0     		sub	sp, sp, #8
  97              	.LCFI2:
  98              		.cfi_def_cfa_offset 16
  99              		.loc 1 213 0
 100 000a 8268     		ldr	r2, [r0, #8]
 101 000c 4FF49871 		mov	r1, #304
 102 0010 0094     		str	r4, [sp, #0]
 103 0012 013A     		subs	r2, r2, #1
 104 0014 4A4B     		ldr	r3, .L10+8
 105 0016 4B48     		ldr	r0, .L10+12
 106 0018 FFF7FEFF 		bl	chThdCreateFromHeap
 107              	.LVL7:
 108              		.loc 1 214 0
 109 001c 90F82210 		ldrb	r1, [r0, #34]	@ zero_extendqisi2
 110              		.loc 1 213 0
 111 0020 0446     		mov	r4, r0
 112              	.LVL8:
ARM GAS  /tmp/cczhW0CV.s 			page 3


 113              		.loc 1 214 0
 114 0022 0120     		movs	r0, #1
 115              	.LVL9:
 116 0024 B1EB000C 		subs	ip, r1, r0
 117 0028 DCF10003 		rsbs	r3, ip, #0
 118 002c 53EB0C01 		adcs	r1, r3, ip
 119 0030 FFF7FEFF 		bl	_test_assert
 120              	.LVL10:
 121 0034 08B1     		cbz	r0, .L9
 122              	.L5:
 123              		.loc 1 236 0
 124 0036 02B0     		add	sp, sp, #8
 125 0038 10BD     		pop	{r4, pc}
 126              	.L9:
 127              		.loc 1 215 0
 128 003a 2046     		mov	r0, r4
 129 003c FFF7FEFF 		bl	chThdAddRef
 130              	.LVL11:
 131              		.loc 1 216 0
 132 0040 94F82220 		ldrb	r2, [r4, #34]	@ zero_extendqisi2
 133 0044 0220     		movs	r0, #2
 134 0046 B2EB000E 		subs	lr, r2, r0
 135 004a DEF10001 		rsbs	r1, lr, #0
 136 004e 51EB0E01 		adcs	r1, r1, lr
 137 0052 FFF7FEFF 		bl	_test_assert
 138              	.LVL12:
 139 0056 0028     		cmp	r0, #0
 140 0058 EDD1     		bne	.L5
 141              		.loc 1 217 0
 142 005a 2046     		mov	r0, r4
 143 005c FFF7FEFF 		bl	chThdRelease
 144              	.LVL13:
 145              		.loc 1 218 0
 146 0060 94F82230 		ldrb	r3, [r4, #34]	@ zero_extendqisi2
 147 0064 0320     		movs	r0, #3
 148 0066 5A1E     		subs	r2, r3, #1
 149 0068 5142     		rsbs	r1, r2, #0
 150 006a 5141     		adcs	r1, r1, r2
 151 006c FFF7FEFF 		bl	_test_assert
 152              	.LVL14:
 153 0070 0028     		cmp	r0, #0
 154 0072 E0D1     		bne	.L5
 155              		.loc 1 221 0
 156 0074 2046     		mov	r0, r4
 157 0076 FFF7FEFF 		bl	regfind
 158              	.LVL15:
 159 007a 0146     		mov	r1, r0
 160 007c 0420     		movs	r0, #4
 161 007e FFF7FEFF 		bl	_test_assert
 162              	.LVL16:
 163 0082 0028     		cmp	r0, #0
 164 0084 D7D1     		bne	.L5
 165              		.loc 1 222 0
 166 0086 2046     		mov	r0, r4
 167 0088 FFF7FEFF 		bl	regfind
 168              	.LVL17:
 169 008c 0146     		mov	r1, r0
ARM GAS  /tmp/cczhW0CV.s 			page 4


 170 008e 0520     		movs	r0, #5
 171 0090 FFF7FEFF 		bl	_test_assert
 172              	.LVL18:
 173 0094 0028     		cmp	r0, #0
 174 0096 CED1     		bne	.L5
 175              		.loc 1 225 0
 176 0098 2046     		mov	r0, r4
 177 009a FFF7FEFF 		bl	chThdRelease
 178              	.LVL19:
 179              		.loc 1 226 0
 180 009e 94F82230 		ldrb	r3, [r4, #34]	@ zero_extendqisi2
 181 00a2 0620     		movs	r0, #6
 182 00a4 D3F10101 		rsbs	r1, r3, #1
 183 00a8 38BF     		it	cc
 184 00aa 0021     		movcc	r1, #0
 185 00ac FFF7FEFF 		bl	_test_assert
 186              	.LVL20:
 187 00b0 0028     		cmp	r0, #0
 188 00b2 C0D1     		bne	.L5
 189              		.loc 1 227 0
 190 00b4 94F82020 		ldrb	r2, [r4, #32]	@ zero_extendqisi2
 191 00b8 0720     		movs	r0, #7
 192 00ba D2F10101 		rsbs	r1, r2, #1
 193 00be 38BF     		it	cc
 194 00c0 0021     		movcc	r1, #0
 195 00c2 FFF7FEFF 		bl	_test_assert
 196              	.LVL21:
 197 00c6 0028     		cmp	r0, #0
 198 00c8 B5D1     		bne	.L5
 199              		.loc 1 228 0
 200 00ca 2046     		mov	r0, r4
 201 00cc FFF7FEFF 		bl	regfind
 202              	.LVL22:
 203 00d0 0146     		mov	r1, r0
 204 00d2 0820     		movs	r0, #8
 205 00d4 FFF7FEFF 		bl	_test_assert
 206              	.LVL23:
 207 00d8 0028     		cmp	r0, #0
 208 00da ACD1     		bne	.L5
 209              		.loc 1 229 0
 210 00dc 2046     		mov	r0, r4
 211 00de FFF7FEFF 		bl	regfind
 212              	.LVL24:
 213 00e2 0146     		mov	r1, r0
 214 00e4 0920     		movs	r0, #9
 215 00e6 FFF7FEFF 		bl	_test_assert
 216              	.LVL25:
 217 00ea 0028     		cmp	r0, #0
 218 00ec A3D1     		bne	.L5
 219              		.loc 1 230 0
 220 00ee 3220     		movs	r0, #50
 221 00f0 FFF7FEFF 		bl	chThdSleep
 222              	.LVL26:
 223              		.loc 1 231 0
 224 00f4 94F82010 		ldrb	r1, [r4, #32]	@ zero_extendqisi2
 225 00f8 0A20     		movs	r0, #10
 226 00fa B1F10E03 		subs	r3, r1, #14
ARM GAS  /tmp/cczhW0CV.s 			page 5


 227 00fe 5A42     		rsbs	r2, r3, #0
 228 0100 52EB0301 		adcs	r1, r2, r3
 229 0104 FFF7FEFF 		bl	_test_assert
 230              	.LVL27:
 231 0108 0028     		cmp	r0, #0
 232 010a 94D1     		bne	.L5
 233              		.loc 1 234 0
 234 010c 2046     		mov	r0, r4
 235 010e FFF7FEFF 		bl	regfind
 236              	.LVL28:
 237 0112 0146     		mov	r1, r0
 238 0114 0B20     		movs	r0, #11
 239 0116 FFF7FEFF 		bl	_test_assert
 240              	.LVL29:
 241 011a 0028     		cmp	r0, #0
 242 011c 8BD1     		bne	.L5
 243              		.loc 1 235 0
 244 011e 2046     		mov	r0, r4
 245 0120 FFF7FEFF 		bl	regfind
 246              	.LVL30:
 247 0124 80F00100 		eor	r0, r0, #1
 248 0128 C1B2     		uxtb	r1, r0
 249 012a 0C20     		movs	r0, #12
 250              		.loc 1 236 0
 251 012c 02B0     		add	sp, sp, #8
 252 012e BDE81040 		pop	{r4, lr}
 253              		.loc 1 235 0
 254 0132 FFF7FEBF 		b	_test_assert
 255              	.LVL31:
 256              	.L11:
 257 0136 00BF     		.align	2
 258              	.L10:
 259 0138 00000000 		.word	rlist
 260 013c 00000000 		.word	.LC0
 261 0140 00000000 		.word	thread
 262 0144 00000000 		.word	.LANCHOR0
 263              		.cfi_endproc
 264              	.LFE14:
 265              		.size	dyn3_execute, .-dyn3_execute
 266 0148 AFF30080 		.section	.text.thread,"ax",%progbits
 266      AFF30080 
 267              		.align	2
 268              		.p2align 4,,15
 269              		.thumb
 270              		.thumb_func
 271              		.type	thread, %function
 272              	thread:
 273              	.LFB7:
 274              		.loc 1 71 0
 275              		.cfi_startproc
 276              		@ args = 0, pretend = 0, frame = 0
 277              		@ frame_needed = 0, uses_anonymous_args = 0
 278              	.LVL32:
 279 0000 08B5     		push	{r3, lr}
 280              	.LCFI3:
 281              		.cfi_def_cfa_offset 8
 282              		.cfi_offset 3, -8
ARM GAS  /tmp/cczhW0CV.s 			page 6


 283              		.cfi_offset 14, -4
 284              		.loc 1 73 0
 285 0002 0078     		ldrb	r0, [r0, #0]	@ zero_extendqisi2
 286              	.LVL33:
 287 0004 FFF7FEFF 		bl	test_emit_token
 288              	.LVL34:
 289              		.loc 1 75 0
 290 0008 0020     		movs	r0, #0
 291 000a 08BD     		pop	{r3, pc}
 292              		.cfi_endproc
 293              	.LFE7:
 294              		.size	thread, .-thread
 295 000c AFF30080 		.section	.text.dyn3_setup,"ax",%progbits
 296              		.align	2
 297              		.p2align 4,,15
 298              		.thumb
 299              		.thumb_func
 300              		.type	dyn3_setup, %function
 301              	dyn3_setup:
 302              	.LFB13:
 303              		.loc 1 203 0
 304              		.cfi_startproc
 305              		@ args = 0, pretend = 0, frame = 0
 306              		@ frame_needed = 0, uses_anonymous_args = 0
 307              		@ link register save eliminated.
 308              		.loc 1 205 0
 309 0000 40F20000 		movw	r0, #:lower16:.LANCHOR0
 310 0004 40F20001 		movw	r1, #:lower16:test
 311 0008 C0F20000 		movt	r0, #:upper16:.LANCHOR0
 312 000c C0F20001 		movt	r1, #:upper16:test
 313 0010 4FF4BE62 		mov	r2, #1520
 314              		.loc 1 206 0
 315              		.loc 1 205 0
 316 0014 FFF7FEBF 		b	chHeapInit
 317              	.LVL35:
 318              		.cfi_endproc
 319              	.LFE13:
 320              		.size	dyn3_setup, .-dyn3_setup
 321 0018 AFF30080 		.section	.text.dyn1_setup,"ax",%progbits
 321      AFF30080 
 322              		.align	2
 323              		.p2align 4,,15
 324              		.thumb
 325              		.thumb_func
 326              		.type	dyn1_setup, %function
 327              	dyn1_setup:
 328              	.LFB8:
 329              		.loc 1 78 0
 330              		.cfi_startproc
 331              		@ args = 0, pretend = 0, frame = 0
 332              		@ frame_needed = 0, uses_anonymous_args = 0
 333              		@ link register save eliminated.
 334              		.loc 1 80 0
 335 0000 40F20000 		movw	r0, #:lower16:.LANCHOR0
 336 0004 40F20001 		movw	r1, #:lower16:test
 337 0008 C0F20000 		movt	r0, #:upper16:.LANCHOR0
 338 000c C0F20001 		movt	r1, #:upper16:test
ARM GAS  /tmp/cczhW0CV.s 			page 7


 339 0010 4FF4BE62 		mov	r2, #1520
 340              		.loc 1 81 0
 341              		.loc 1 80 0
 342 0014 FFF7FEBF 		b	chHeapInit
 343              	.LVL36:
 344              		.cfi_endproc
 345              	.LFE8:
 346              		.size	dyn1_setup, .-dyn1_setup
 347 0018 AFF30080 		.section	.text.dyn2_execute,"ax",%progbits
 347      AFF30080 
 348              		.align	2
 349              		.p2align 4,,15
 350              		.thumb
 351              		.thumb_func
 352              		.type	dyn2_execute, %function
 353              	dyn2_execute:
 354              	.LFB11:
 355              		.loc 1 141 0
 356              		.cfi_startproc
 357              		@ args = 0, pretend = 0, frame = 0
 358              		@ frame_needed = 0, uses_anonymous_args = 0
 359 0000 38B5     		push	{r3, r4, r5, lr}
 360              	.LCFI4:
 361              		.cfi_def_cfa_offset 16
 362              		.cfi_offset 3, -16
 363              		.cfi_offset 4, -12
 364              		.cfi_offset 5, -8
 365              		.cfi_offset 14, -4
 366              		.loc 1 143 0
 367 0002 444B     		ldr	r3, .L25
 368              		.loc 1 147 0
 369 0004 444C     		ldr	r4, .L25+4
 370              		.loc 1 143 0
 371 0006 9A69     		ldr	r2, [r3, #24]
 372              		.loc 1 147 0
 373 0008 2168     		ldr	r1, [r4, #0]
 374 000a 4448     		ldr	r0, .L25+8
 375              		.loc 1 143 0
 376 000c 9568     		ldr	r5, [r2, #8]
 377              	.LVL37:
 378              		.loc 1 147 0
 379 000e FFF7FEFF 		bl	chPoolFree
 380              	.LVL38:
 381 0012 6168     		ldr	r1, [r4, #4]
 382 0014 4148     		ldr	r0, .L25+8
 383 0016 FFF7FEFF 		bl	chPoolFree
 384              	.LVL39:
 385 001a A168     		ldr	r1, [r4, #8]
 386 001c 3F48     		ldr	r0, .L25+8
 387 001e FFF7FEFF 		bl	chPoolFree
 388              	.LVL40:
 389 0022 E168     		ldr	r1, [r4, #12]
 390 0024 3D48     		ldr	r0, .L25+8
 391 0026 FFF7FEFF 		bl	chPoolFree
 392              	.LVL41:
 393              		.loc 1 150 0
 394 002a 691E     		subs	r1, r5, #1
ARM GAS  /tmp/cczhW0CV.s 			page 8


 395 002c 3C4A     		ldr	r2, .L25+12
 396 002e 3D4B     		ldr	r3, .L25+16
 397 0030 3A48     		ldr	r0, .L25+8
 398 0032 FFF7FEFF 		bl	chThdCreateFromMemoryPool
 399              	.LVL42:
 400 0036 3C4C     		ldr	r4, .L25+20
 401              		.loc 1 151 0
 402 0038 A91E     		subs	r1, r5, #2
 403              		.loc 1 150 0
 404 003a 2060     		str	r0, [r4, #0]
 405              		.loc 1 151 0
 406 003c 384A     		ldr	r2, .L25+12
 407 003e 3B4B     		ldr	r3, .L25+24
 408 0040 3648     		ldr	r0, .L25+8
 409 0042 FFF7FEFF 		bl	chThdCreateFromMemoryPool
 410              	.LVL43:
 411              		.loc 1 152 0
 412 0046 E91E     		subs	r1, r5, #3
 413              		.loc 1 151 0
 414 0048 6060     		str	r0, [r4, #4]
 415              		.loc 1 152 0
 416 004a 354A     		ldr	r2, .L25+12
 417 004c 384B     		ldr	r3, .L25+28
 418 004e 3348     		ldr	r0, .L25+8
 419 0050 FFF7FEFF 		bl	chThdCreateFromMemoryPool
 420              	.LVL44:
 421              		.loc 1 153 0
 422 0054 291F     		subs	r1, r5, #4
 423              		.loc 1 152 0
 424 0056 A060     		str	r0, [r4, #8]
 425              		.loc 1 153 0
 426 0058 314A     		ldr	r2, .L25+12
 427 005a 364B     		ldr	r3, .L25+32
 428 005c 2F48     		ldr	r0, .L25+8
 429 005e FFF7FEFF 		bl	chThdCreateFromMemoryPool
 430              	.LVL45:
 431              		.loc 1 154 0
 432 0062 691F     		subs	r1, r5, #5
 433              		.loc 1 153 0
 434 0064 E060     		str	r0, [r4, #12]
 435              		.loc 1 154 0
 436 0066 2E4A     		ldr	r2, .L25+12
 437 0068 2C48     		ldr	r0, .L25+8
 438 006a 334B     		ldr	r3, .L25+36
 439 006c FFF7FEFF 		bl	chThdCreateFromMemoryPool
 440              	.LVL46:
 441              		.loc 1 156 0
 442 0070 2168     		ldr	r1, [r4, #0]
 443              		.loc 1 154 0
 444 0072 2061     		str	r0, [r4, #16]
 445              		.loc 1 156 0
 446 0074 49B1     		cbz	r1, .L16
 447              		.loc 1 156 0 is_stmt 0 discriminator 1
 448 0076 6168     		ldr	r1, [r4, #4]
 449 0078 39B1     		cbz	r1, .L16
 450              		.loc 1 156 0 discriminator 3
 451 007a A168     		ldr	r1, [r4, #8]
ARM GAS  /tmp/cczhW0CV.s 			page 9


 452 007c 29B1     		cbz	r1, .L16
 453              		.loc 1 156 0 discriminator 4
 454 007e E168     		ldr	r1, [r4, #12]
 455 0080 19B1     		cbz	r1, .L16
 456              		.loc 1 156 0 discriminator 5
 457 0082 D0F10101 		rsbs	r1, r0, #1
 458 0086 38BF     		it	cc
 459 0088 0021     		movcc	r1, #0
 460              	.L16:
 461              		.loc 1 156 0 discriminator 7
 462 008a 0120     		movs	r0, #1
 463 008c FFF7FEFF 		bl	_test_assert
 464              	.LVL47:
 465 0090 00B1     		cbz	r0, .L24
 466              	.LVL48:
 467              	.L15:
 468 0092 38BD     		pop	{r3, r4, r5, pc}
 469              	.LVL49:
 470              	.L24:
 471              		.loc 1 164 0 is_stmt 1
 472 0094 FFF7FEFF 		bl	test_wait_threads
 473              	.LVL50:
 474              		.loc 1 165 0
 475 0098 0220     		movs	r0, #2
 476 009a 2849     		ldr	r1, .L25+40
 477 009c FFF7FEFF 		bl	_test_assert_sequence
 478              	.LVL51:
 479 00a0 0028     		cmp	r0, #0
 480 00a2 F6D1     		bne	.L15
 481              		.loc 1 169 0
 482 00a4 1D48     		ldr	r0, .L25+8
 483 00a6 FFF7FEFF 		bl	chPoolAlloc
 484              	.LVL52:
 485 00aa 011C     		adds	r1, r0, #0
 486 00ac 18BF     		it	ne
 487 00ae 0121     		movne	r1, #1
 488 00b0 0320     		movs	r0, #3
 489 00b2 FFF7FEFF 		bl	_test_assert
 490              	.LVL53:
 491 00b6 0028     		cmp	r0, #0
 492 00b8 EBD1     		bne	.L15
 493              	.LVL54:
 494 00ba 1848     		ldr	r0, .L25+8
 495 00bc FFF7FEFF 		bl	chPoolAlloc
 496              	.LVL55:
 497 00c0 011C     		adds	r1, r0, #0
 498 00c2 18BF     		it	ne
 499 00c4 0121     		movne	r1, #1
 500 00c6 0320     		movs	r0, #3
 501 00c8 FFF7FEFF 		bl	_test_assert
 502              	.LVL56:
 503 00cc 0028     		cmp	r0, #0
 504 00ce E0D1     		bne	.L15
 505              	.LVL57:
 506 00d0 1248     		ldr	r0, .L25+8
 507 00d2 FFF7FEFF 		bl	chPoolAlloc
 508              	.LVL58:
ARM GAS  /tmp/cczhW0CV.s 			page 10


 509 00d6 011C     		adds	r1, r0, #0
 510 00d8 18BF     		it	ne
 511 00da 0121     		movne	r1, #1
 512 00dc 0320     		movs	r0, #3
 513 00de FFF7FEFF 		bl	_test_assert
 514              	.LVL59:
 515 00e2 0028     		cmp	r0, #0
 516 00e4 D5D1     		bne	.L15
 517              	.LVL60:
 518 00e6 0D48     		ldr	r0, .L25+8
 519 00e8 FFF7FEFF 		bl	chPoolAlloc
 520              	.LVL61:
 521 00ec 011C     		adds	r1, r0, #0
 522 00ee 18BF     		it	ne
 523 00f0 0121     		movne	r1, #1
 524 00f2 0320     		movs	r0, #3
 525 00f4 FFF7FEFF 		bl	_test_assert
 526              	.LVL62:
 527 00f8 0028     		cmp	r0, #0
 528 00fa CAD1     		bne	.L15
 529              	.LVL63:
 530              		.loc 1 170 0
 531 00fc 0748     		ldr	r0, .L25+8
 532 00fe FFF7FEFF 		bl	chPoolAlloc
 533              	.LVL64:
 534 0102 D0F10101 		rsbs	r1, r0, #1
 535 0106 38BF     		it	cc
 536 0108 0021     		movcc	r1, #0
 537 010a 0420     		movs	r0, #4
 538              		.loc 1 171 0
 539 010c BDE83840 		pop	{r3, r4, r5, lr}
 540              		.loc 1 170 0
 541 0110 FFF7FEBF 		b	_test_assert
 542              	.LVL65:
 543              	.L26:
 544              		.align	2
 545              	.L25:
 546 0114 00000000 		.word	rlist
 547 0118 00000000 		.word	wa
 548 011c 00000000 		.word	.LANCHOR1
 549 0120 00000000 		.word	thread
 550 0124 00000000 		.word	.LC0
 551 0128 00000000 		.word	threads
 552 012c 04000000 		.word	.LC1
 553 0130 08000000 		.word	.LC2
 554 0134 0C000000 		.word	.LC3
 555 0138 10000000 		.word	.LC4
 556 013c 14000000 		.word	.LC5
 557              		.cfi_endproc
 558              	.LFE11:
 559              		.size	dyn2_execute, .-dyn2_execute
 560              		.section	.text.dyn2_setup,"ax",%progbits
 561              		.align	2
 562              		.p2align 4,,15
 563              		.thumb
 564              		.thumb_func
 565              		.type	dyn2_setup, %function
ARM GAS  /tmp/cczhW0CV.s 			page 11


 566              	dyn2_setup:
 567              	.LFB10:
 568              		.loc 1 136 0
 569              		.cfi_startproc
 570              		@ args = 0, pretend = 0, frame = 0
 571              		@ frame_needed = 0, uses_anonymous_args = 0
 572              		@ link register save eliminated.
 573              		.loc 1 138 0
 574 0000 40F20000 		movw	r0, #:lower16:.LANCHOR1
 575 0004 C0F20000 		movt	r0, #:upper16:.LANCHOR1
 576 0008 4FF49871 		mov	r1, #304
 577 000c 0022     		movs	r2, #0
 578              		.loc 1 139 0
 579              		.loc 1 138 0
 580 000e FFF7FEBF 		b	chPoolInit
 581              	.LVL66:
 582              		.cfi_endproc
 583              	.LFE10:
 584              		.size	dyn2_setup, .-dyn2_setup
 585 0012 00BFAFF3 		.section	.text.dyn1_execute,"ax",%progbits
 585      0080AFF3 
 585      0080AFF3 
 585      0080
 586              		.align	2
 587              		.p2align 4,,15
 588              		.thumb
 589              		.thumb_func
 590              		.type	dyn1_execute, %function
 591              	dyn1_execute:
 592              	.LFB9:
 593              		.loc 1 83 0
 594              		.cfi_startproc
 595              		@ args = 0, pretend = 0, frame = 8
 596              		@ frame_needed = 0, uses_anonymous_args = 0
 597 0000 70B5     		push	{r4, r5, r6, lr}
 598              	.LCFI5:
 599              		.cfi_def_cfa_offset 16
 600              		.cfi_offset 4, -16
 601              		.cfi_offset 5, -12
 602              		.cfi_offset 6, -8
 603              		.cfi_offset 14, -4
 604              		.loc 1 86 0
 605 0002 344B     		ldr	r3, .L38
 606              		.loc 1 83 0
 607 0004 84B0     		sub	sp, sp, #16
 608              	.LCFI6:
 609              		.cfi_def_cfa_offset 32
 610              		.loc 1 86 0
 611 0006 9A69     		ldr	r2, [r3, #24]
 612              		.loc 1 88 0
 613 0008 03A9     		add	r1, sp, #12
 614 000a 3348     		ldr	r0, .L38+4
 615              		.loc 1 86 0
 616 000c 9568     		ldr	r5, [r2, #8]
 617              	.LVL67:
 618              		.loc 1 88 0
 619 000e FFF7FEFF 		bl	chHeapStatus
ARM GAS  /tmp/cczhW0CV.s 			page 12


 620              	.LVL68:
 621              		.loc 1 90 0
 622 0012 3248     		ldr	r0, .L38+8
 623 0014 4FF49871 		mov	r1, #304
 624 0018 6A1E     		subs	r2, r5, #1
 625 001a 314B     		ldr	r3, .L38+12
 626 001c 0090     		str	r0, [sp, #0]
 627 001e 2E48     		ldr	r0, .L38+4
 628 0020 FFF7FEFF 		bl	chThdCreateFromHeap
 629              	.LVL69:
 630 0024 2F4C     		ldr	r4, .L38+16
 631              		.loc 1 92 0
 632 0026 304E     		ldr	r6, .L38+20
 633 0028 AA1E     		subs	r2, r5, #2
 634 002a 2D4B     		ldr	r3, .L38+12
 635              		.loc 1 90 0
 636 002c 2060     		str	r0, [r4, #0]
 637              		.loc 1 92 0
 638 002e 4FF49871 		mov	r1, #304
 639 0032 0096     		str	r6, [sp, #0]
 640 0034 2848     		ldr	r0, .L38+4
 641 0036 FFF7FEFF 		bl	chThdCreateFromHeap
 642              	.LVL70:
 643              		.loc 1 95 0
 644 003a 02A9     		add	r1, sp, #8
 645              		.loc 1 92 0
 646 003c 6060     		str	r0, [r4, #4]
 647              		.loc 1 95 0
 648 003e 2648     		ldr	r0, .L38+4
 649 0040 FFF7FEFF 		bl	chHeapStatus
 650              	.LVL71:
 651              		.loc 1 96 0
 652 0044 0299     		ldr	r1, [sp, #8]
 653 0046 2448     		ldr	r0, .L38+4
 654 0048 FFF7FEFF 		bl	chHeapAlloc
 655              	.LVL72:
 656 004c 0646     		mov	r6, r0
 657              	.LVL73:
 658              		.loc 1 97 0
 659 004e 2748     		ldr	r0, .L38+24
 660              	.LVL74:
 661 0050 4FF49871 		mov	r1, #304
 662 0054 EA1E     		subs	r2, r5, #3
 663 0056 224B     		ldr	r3, .L38+12
 664 0058 0090     		str	r0, [sp, #0]
 665 005a 1F48     		ldr	r0, .L38+4
 666 005c FFF7FEFF 		bl	chThdCreateFromHeap
 667              	.LVL75:
 668 0060 A060     		str	r0, [r4, #8]
 669              		.loc 1 99 0
 670 0062 3046     		mov	r0, r6
 671 0064 FFF7FEFF 		bl	chHeapFree
 672              	.LVL76:
 673              		.loc 1 101 0
 674 0068 2168     		ldr	r1, [r4, #0]
 675 006a 29B1     		cbz	r1, .L29
 676              		.loc 1 101 0 is_stmt 0 discriminator 1
ARM GAS  /tmp/cczhW0CV.s 			page 13


 677 006c 6168     		ldr	r1, [r4, #4]
 678 006e 19B1     		cbz	r1, .L29
 679              		.loc 1 101 0 discriminator 3
 680 0070 A168     		ldr	r1, [r4, #8]
 681 0072 0029     		cmp	r1, #0
 682 0074 25D0     		beq	.L36
 683              		.loc 1 101 0
 684 0076 0021     		movs	r1, #0
 685              	.L29:
 686              		.loc 1 101 0 discriminator 7
 687 0078 0120     		movs	r0, #1
 688 007a FFF7FEFF 		bl	_test_assert
 689              	.LVL77:
 690 007e 08B1     		cbz	r0, .L37
 691              	.L28:
 692              		.loc 1 115 0 is_stmt 1
 693 0080 04B0     		add	sp, sp, #16
 694 0082 70BD     		pop	{r4, r5, r6, pc}
 695              	.L37:
 696              		.loc 1 109 0
 697 0084 FFF7FEFF 		bl	test_wait_threads
 698              	.LVL78:
 699              		.loc 1 110 0
 700 0088 0220     		movs	r0, #2
 701 008a 1949     		ldr	r1, .L38+28
 702 008c FFF7FEFF 		bl	_test_assert_sequence
 703              	.LVL79:
 704 0090 0028     		cmp	r0, #0
 705 0092 F5D1     		bne	.L28
 706              		.loc 1 113 0
 707 0094 02A9     		add	r1, sp, #8
 708 0096 1048     		ldr	r0, .L38+4
 709 0098 FFF7FEFF 		bl	chHeapStatus
 710              	.LVL80:
 711 009c 421E     		subs	r2, r0, #1
 712 009e 5042     		rsbs	r0, r2, #0
 713 00a0 50EB0201 		adcs	r1, r0, r2
 714 00a4 0320     		movs	r0, #3
 715 00a6 FFF7FEFF 		bl	_test_assert
 716              	.LVL81:
 717 00aa 0028     		cmp	r0, #0
 718 00ac E8D1     		bne	.L28
 719              	.LVL82:
 720              		.loc 1 114 0
 721 00ae 039B     		ldr	r3, [sp, #12]
 722 00b0 0299     		ldr	r1, [sp, #8]
 723 00b2 0420     		movs	r0, #4
 724 00b4 CA1A     		subs	r2, r1, r3
 725 00b6 5342     		rsbs	r3, r2, #0
 726 00b8 53EB0201 		adcs	r1, r3, r2
 727 00bc FFF7FEFF 		bl	_test_assert
 728              	.LVL83:
 729 00c0 DEE7     		b	.L28
 730              	.LVL84:
 731              	.L36:
 732              		.loc 1 101 0 discriminator 4
 733 00c2 E368     		ldr	r3, [r4, #12]
ARM GAS  /tmp/cczhW0CV.s 			page 14


 734 00c4 002B     		cmp	r3, #0
 735 00c6 D7D1     		bne	.L29
 736              		.loc 1 101 0 is_stmt 0 discriminator 5
 737 00c8 2169     		ldr	r1, [r4, #16]
 738 00ca D1F10101 		rsbs	r1, r1, #1
 739 00ce 38BF     		it	cc
 740 00d0 0021     		movcc	r1, #0
 741 00d2 D1E7     		b	.L29
 742              	.L39:
 743              		.align	2
 744              	.L38:
 745 00d4 00000000 		.word	rlist
 746 00d8 00000000 		.word	.LANCHOR0
 747 00dc 00000000 		.word	.LC0
 748 00e0 00000000 		.word	thread
 749 00e4 00000000 		.word	threads
 750 00e8 04000000 		.word	.LC1
 751 00ec 08000000 		.word	.LC2
 752 00f0 1C000000 		.word	.LC6
 753              		.cfi_endproc
 754              	.LFE9:
 755              		.size	dyn1_execute, .-dyn1_execute
 756              		.global	patterndyn
 757              		.global	testdyn3
 758              		.global	testdyn2
 759              		.global	testdyn1
 760 00f4 AFF30080 		.section	.rodata.testdyn1,"a",%progbits
 760      AFF30080 
 760      AFF30080 
 761              		.align	2
 762              		.type	testdyn1, %object
 763              		.size	testdyn1, 16
 764              	testdyn1:
 765 0000 78000000 		.word	.LC9
 766 0004 00000000 		.word	dyn1_setup
 767 0008 00000000 		.word	0
 768 000c 00000000 		.word	dyn1_execute
 769              		.section	.rodata.testdyn2,"a",%progbits
 770              		.align	2
 771              		.type	testdyn2, %object
 772              		.size	testdyn2, 16
 773              	testdyn2:
 774 0000 48000000 		.word	.LC8
 775 0004 00000000 		.word	dyn2_setup
 776 0008 00000000 		.word	0
 777 000c 00000000 		.word	dyn2_execute
 778              		.section	.rodata.testdyn3,"a",%progbits
 779              		.align	2
 780              		.type	testdyn3, %object
 781              		.size	testdyn3, 16
 782              	testdyn3:
 783 0000 20000000 		.word	.LC7
 784 0004 00000000 		.word	dyn3_setup
 785 0008 00000000 		.word	0
 786 000c 00000000 		.word	dyn3_execute
 787              		.section	.bss.mp1,"aw",%nobits
 788              		.align	2
ARM GAS  /tmp/cczhW0CV.s 			page 15


 789              		.set	.LANCHOR1,. + 0
 790              		.type	mp1, %object
 791              		.size	mp1, 12
 792              	mp1:
 793 0000 00000000 		.space	12
 793      00000000 
 793      00000000 
 794              		.section	.rodata.str1.4,"aMS",%progbits,1
 795              		.align	2
 796              	.LC0:
 797 0000 4100     		.ascii	"A\000"
 798 0002 0000     		.space	2
 799              	.LC1:
 800 0004 4200     		.ascii	"B\000"
 801 0006 0000     		.space	2
 802              	.LC2:
 803 0008 4300     		.ascii	"C\000"
 804 000a 0000     		.space	2
 805              	.LC3:
 806 000c 4400     		.ascii	"D\000"
 807 000e 0000     		.space	2
 808              	.LC4:
 809 0010 4500     		.ascii	"E\000"
 810 0012 0000     		.space	2
 811              	.LC5:
 812 0014 41424344 		.ascii	"ABCD\000"
 812      00
 813 0019 000000   		.space	3
 814              	.LC6:
 815 001c 414200   		.ascii	"AB\000"
 816 001f 00       		.space	1
 817              	.LC7:
 818 0020 44796E61 		.ascii	"Dynamic APIs, registry and references\000"
 818      6D696320 
 818      41504973 
 818      2C207265 
 818      67697374 
 819 0046 0000     		.space	2
 820              	.LC8:
 821 0048 44796E61 		.ascii	"Dynamic APIs, threads creation from memory pool\000"
 821      6D696320 
 821      41504973 
 821      2C207468 
 821      72656164 
 822              	.LC9:
 823 0078 44796E61 		.ascii	"Dynamic APIs, threads creation from heap\000"
 823      6D696320 
 823      41504973 
 823      2C207468 
 823      72656164 
 824 00a1 000000   		.section	.rodata.patterndyn,"a",%progbits
 825              		.align	2
 826              		.type	patterndyn, %object
 827              		.size	patterndyn, 16
 828              	patterndyn:
 829 0000 00000000 		.word	testdyn1
 830 0004 00000000 		.word	testdyn2
ARM GAS  /tmp/cczhW0CV.s 			page 16


 831 0008 00000000 		.word	testdyn3
 832 000c 00000000 		.word	0
 833              		.section	.bss.heap1,"aw",%nobits
 834              		.align	3
 835              		.set	.LANCHOR0,. + 0
 836              		.type	heap1, %object
 837              		.size	heap1, 32
 838              	heap1:
 839 0000 00000000 		.space	32
 839      00000000 
 839      00000000 
 839      00000000 
 839      00000000 
 840              		.text
 841              	.Letext0:
 842              		.file 2 "/usr/bin/../lib/gcc/arm-none-eabi/4.7.4/include/stddef.h"
 843              		.file 3 "/usr/bin/../lib/gcc/arm-none-eabi/4.7.4/../../../../arm-none-eabi/include/stdint.h"
 844              		.file 4 "../../os/ports/GCC/ARMCMx/chtypes.h"
 845              		.file 5 "../../os/kernel/include/chlists.h"
 846              		.file 6 "../../os/kernel/include/chthreads.h"
 847              		.file 7 "../../os/ports/GCC/ARMCMx/chcore_v7m.h"
 848              		.file 8 "../../os/kernel/include/chschd.h"
 849              		.file 9 "../../os/kernel/include/chmtx.h"
 850              		.file 10 "../../os/kernel/include/chmemcore.h"
 851              		.file 11 "../../os/kernel/include/chheap.h"
 852              		.file 12 "../../os/kernel/include/chmempools.h"
 853              		.file 13 "../../test/test.h"
 854              		.file 14 "../../os/kernel/include/chregistry.h"
 855              		.file 15 "../../os/kernel/include/chdynamic.h"