ARM GAS  /tmp/cczhW0CV.s 			page 1


   1              		.syntax unified
   2              		.cpu cortex-m3
   3              		.fpu softvfp
   4              		.eabi_attribute 20, 1
   5              		.eabi_attribute 21, 1
   6              		.eabi_attribute 23, 3
   7              		.eabi_attribute 24, 1
   8              		.eabi_attribute 25, 1
   9              		.eabi_attribute 26, 1
  10              		.eabi_attribute 30, 2
  11              		.eabi_attribute 34, 1
  12              		.eabi_attribute 18, 4
  13              		.thumb
  14              		.file	"testdyn.c"
  15              		.text
  16              	.Ltext0:
  17              		.cfi_sections	.debug_frame
  18              		.section	.text.regfind,"ax",%progbits
  19              		.align	2
  20              		.p2align 4,,15
  21              		.thumb
  22              		.thumb_func
  23              		.type	regfind, %function
  24              	regfind:
  25              	.LFB12:
  26              		.file 1 "../../test/testdyn.c"
  27              		.loc 1 191 0
  28              		.cfi_startproc
  29              		@ args = 0, pretend = 0, frame = 0
  30              		@ frame_needed = 0, uses_anonymous_args = 0
  31              	.LVL0:
  32 0000 38B5     		push	{r3, r4, r5, lr}
  33              	.LCFI0:
  34              		.cfi_def_cfa_offset 16
  35              		.cfi_offset 3, -16
  36              		.cfi_offset 4, -12
  37              		.cfi_offset 5, -8
  38              		.cfi_offset 14, -4
  39              		.loc 1 191 0
  40 0002 0546     		mov	r5, r0
  41              		.loc 1 195 0
  42 0004 FFF7FEFF 		bl	chRegFirstThread
  43              	.LVL1:
  44              		.loc 1 193 0
  45 0008 0024     		movs	r4, #0
  46              		.loc 1 195 0
  47 000a 0346     		mov	r3, r0
  48              	.LVL2:
  49              	.L2:
  50              		.loc 1 198 0 discriminator 1
  51 000c 1846     		mov	r0, r3
  52              		.loc 1 197 0 discriminator 1
  53 000e AB42     		cmp	r3, r5
  54 0010 08BF     		it	eq
  55 0012 44F00104 		orreq	r4, r4, #1
  56              	.LVL3:
  57              		.loc 1 198 0 discriminator 1
ARM GAS  /tmp/cczhW0CV.s 			page 2


  58 0016 FFF7FEFF 		bl	chRegNextThread
  59              	.LVL4:
  60              		.loc 1 199 0 discriminator 1
  61 001a 0346     		mov	r3, r0
  62 001c 0028     		cmp	r0, #0
  63 001e F5D1     		bne	.L2
  64              		.loc 1 201 0
  65 0020 2046     		mov	r0, r4
  66              	.LVL5:
  67 0022 38BD     		pop	{r3, r4, r5, pc}
  68              		.cfi_endproc
  69              	.LFE12:
  70              		.size	regfind, .-regfind
  71 0024 AFF30080 		.section	.text.dyn3_execute,"ax",%progbits
  71      AFF30080 
  71      AFF30080 
  72              		.align	2
  73              		.p2align 4,,15
  74              		.thumb
  75              		.thumb_func
  76              		.type	dyn3_execute, %function
  77              	dyn3_execute:
  78              	.LFB14:
  79              		.loc 1 208 0
  80              		.cfi_startproc
  81              		@ args = 0, pretend = 0, frame = 0
  82              		@ frame_needed = 0, uses_anonymous_args = 0
  83              	.LVL6:
  84 0000 10B5     		push	{r4, lr}
  85              	.LCFI1:
  86              		.cfi_def_cfa_offset 8
  87              		.cfi_offset 4, -8
  88              		.cfi_offset 14, -4
  89              		.loc 1 210 0
  90 0002 4D4B     		ldr	r3, .L10
  91              		.loc 1 213 0
  92 0004 4D4C     		ldr	r4, .L10+4
  93              		.loc 1 210 0
  94 0006 9869     		ldr	r0, [r3, #24]
  95              		.loc 1 208 0
  96 0008 82B0     		sub	sp, sp, #8
  97              	.LCFI2:
  98              		.cfi_def_cfa_offset 16
  99              		.loc 1 213 0
 100 000a 8268     		ldr	r2, [r0, #8]
 101 000c 4FF49871 		mov	r1, #304
 102 0010 0094     		str	r4, [sp, #0]
 103 0012 013A     		subs	r2, r2, #1
 104 0014 4A4B     		ldr	r3, .L10+8
 105 0016 4B48     		ldr	r0, .L10+12
 106 0018 FFF7FEFF 		bl	chThdCreateFromHeap
 107              	.LVL7:
 108              		.loc 1 214 0
 109 001c 90F82210 		ldrb	r1, [r0, #34]	@ zero_extendqisi2
 110              		.loc 1 213 0
 111 0020 0446     		mov	r4, r0
 112              	.LVL8:
ARM GAS  /tmp/cczhW0CV.s 			page 3


 113              		.loc 1 214 0
 114 0022 0120     		movs	r0, #1
 115              	.LVL9:
 116 0024 B1EB000C 		subs	ip, r1, r0
 117 0028 DCF10003 		rsbs	r3, ip, #0
 118 002c 53EB0C01 		adcs	r1, r3, ip
 119 0030 FFF7FEFF 		bl	_test_assert
 120              	.LVL10:
 121 0034 08B1     		cbz	r0, .L9
 122              	.L5:
 123              		.loc 1 236 0
 124 0036 02B0     		add	sp, sp, #8
 125 0038 10BD     		pop	{r4, pc}
 126              	.L9:
 127              		.loc 1 215 0
 128 003a 2046     		mov	r0, r4
 129 003c FFF7FEFF 		bl	chThdAddRef
 130              	.LVL11:
 131              		.loc 1 216 0
 132 0040 94F82220 		ldrb	r2, [r4, #34]	@ zero_extendqisi2
 133 0044 0220     		movs	r0, #2
 134 0046 B2EB000E 		subs	lr, r2, r0
 135 004a DEF10001 		rsbs	r1, lr, #0
 136 004e 51EB0E01 		adcs	r1, r1, lr
 137 0052 FFF7FEFF 		bl	_test_assert
 138              	.LVL12:
 139 0056 0028     		cmp	r0, #0
 140 0058 EDD1     		bne	.L5
 141              		.loc 1 217 0
 142 005a 2046     		mov	r0, r4
 143 005c FFF7FEFF 		bl	chThdRelease
 144              	.LVL13:
 145              		.loc 1 218 0
 146 0060 94F82230 		ldrb	r3, [r4, #34]	@ zero_extendqisi2
 147 0064 0320     		movs	r0, #3
 148 0066 5A1E     		subs	r2, r3, #1
 149 0068 5142     		rsbs	r1, r2, #0
 150 006a 5141     		adcs	r1, r1, r2
 151 006c FFF7FEFF 		bl	_test_assert
 152              	.LVL14:
 153 0070 0028     		cmp	r0, #0
 154 0072 E0D1     		bne	.L5
 155              		.loc 1 221 0
 156 0074 2046     		mov	r0, r4
 157 0076 FFF7FEFF 		bl	regfind
 158              	.LVL15:
 159 007a 0146     		mov	r1, r0
 160 007c 0420     		movs	r0, #4
 161 007e FFF7FEFF 		bl	_test_assert
 162              	.LVL16:
 163 0082 0028     		cmp	r0, #0
 164 0084 D7D1     		bne	.L5
 165              		.loc 1 222 0
 166 0086 2046     		mov	r0, r4
 167 0088 FFF7FEFF 		bl	regfind
 168              	.LVL17:
 169 008c 0146     		mov	r1, r0
ARM GAS  /tmp/cczhW0CV.s 			page 4


 170 008e 0520     		movs	r0, #5
 171 0090 FFF7FEFF 		bl	_test_assert
 172              	.LVL18:
 173 0094 0028     		cmp	r0, #0
 174 0096 CED1     		bne	.L5
 175              		.loc 1 225 0
 176 0098 2046     		mov	r0, r4
 177 009a FFF7FEFF 		bl	chThdRelease
 178              	.LVL19:
 179              		.loc 1 226 0
 180 009e 94F82230 		ldrb	r3, [r4, #34]	@ zero_extendqisi2
 181 00a2 0620     		movs	r0, #6
 182 00a4 D3F10101 		rsbs	r1, r3, #1
 183 00a8 38BF     		it	cc
 184 00aa 0021     		movcc	r1, #0
 185 00ac FFF7FEFF 		bl	_test_assert
 186              	.LVL20:
 187 00b0 0028     		cmp	r0, #0
 188 00b2 C0D1     		bne	.L5
 189              		.loc 1 227 0
 190 00b4 94F82020 		ldrb	r2, [r4, #32]	@ zero_extendqisi2
 191 00b8 0720     		movs	r0, #7
 192 00ba D2F10101 		rsbs	r1, r2, #1
 193 00be 38BF     		it	cc
 194 00c0 0021     		movcc	r1, #0
 195 00c2 FFF7FEFF 		bl	_test_assert
 196              	.LVL21:
 197 00c6 0028     		cmp	r0, #0
 198 00c8 B5D1     		bne	.L5
 199              		.loc 1 228 0
 200 00ca 2046     		mov	r0, r4
 201 00cc FFF7FEFF 		bl	regfind
 202              	.LVL22:
 203 00d0 0146     		mov	r1, r0
 204 00d2 0820     		movs	r0, #8
 205 00d4 FFF7FEFF 		bl	_test_assert
 206              	.LVL23:
 207 00d8 0028     		cmp	r0, #0
 208 00da ACD1     		bne	.L5
 209              		.loc 1 229 0
 210 00dc 2046     		mov	r0, r4
 211 00de FFF7FEFF 		bl	regfind
 212              	.LVL24:
 213 00e2 0146     		mov	r1, r0
 214 00e4 0920     		movs	r0, #9
 215 00e6 FFF7FEFF 		bl	_test_assert
 216              	.LVL25:
 217 00ea 0028     		cmp	r0, #0
 218 00ec A3D1     		bne	.L5
 219              		.loc 1 230 0
 220 00ee 3220     		movs	r0, #50
 221 00f0 FFF7FEFF 		bl	chThdSleep
 222              	.LVL26:
 223              		.loc 1 231 0
 224 00f4 94F82010 		ldrb	r1, [r4, #32]	@ zero_extendqisi2
 225 00f8 0A20     		movs	r0, #10
 226 00fa B1F10E03 		subs	r3, r1, #14
ARM GAS  /tmp/cczhW0CV.s 			page 5


 227 00fe 5A42     		rsbs	r2, r3, #0
 228 0100 52EB0301 		adcs	r1, r2, r3
 229 0104 FFF7FEFF 		bl	_test_assert
 230              	.LVL27:
 231 0108 0028     		cmp	r0, #0
 232 010a 94D1     		bne	.L5
 233              		.loc 1 234 0
 234 010c 2046     		mov	r0, r4
 235 010e FFF7FEFF 		bl	regfind
 236              	.LVL28:
 237 0112 0146     		mov	r1, r0
 238 0114 0B20     		movs	r0, #11
 239 0116 FFF7FEFF 		bl	_test_assert
 240              	.LVL29:
 241 011a 0028     		cmp	r0, #0
 242 011c 8BD1     		bne	.L5
 243              		.loc 1 235 0
 244 011e 2046     		mov	r0, r4
 245 0120 FFF7FEFF 		bl	regfind
 246              	.LVL30:
 247 0124 80F00100 		eor	r0, r0, #1
 248 0128 C1B2     		uxtb	r1, r0
 249 012a 0C20     		movs	r0, #12
 250              		.loc 1 236 0
 251 012c 02B0     		add	sp, sp, #8
 252 012e BDE81040 		pop	{r4, lr}
 253              		.loc 1 235 0
 254 0132 FFF7FEBF 		b	_test_assert
 255              	.LVL31:
 256              	.L11:
 257 0136 00BF     		.align	2
 258              	.L10:
 259 0138 00000000 		.word	rlist
 260 013c 00000000 		.word	.LC0
 261 0140 00000000 		.word	thread
 262 0144 00000000 		.word	.LANCHOR0
 263              		.cfi_endproc
 264              	.LFE14:
 265              		.size	dyn3_execute, .-dyn3_execute
 266 0148 AFF30080 		.section	.text.thread,"ax",%progbits
 266      AFF30080 
 267              		.align	2
 268              		.p2align 4,,15
 269              		.thumb
 270              		.thumb_func
 271              		.type	thread, %function
 272              	thread:
 273              	.LFB7:
 274              		.loc 1 71 0
 275              		.cfi_startproc
 276              		@ args = 0, pretend = 0, frame = 0
 277              		@ frame_needed = 0, uses_anonymous_args = 0
 278              	.LVL32:
 279 0000 08B5     		push	{r3, lr}
 280              	.LCFI3:
 281              		.cfi_def_cfa_offset 8
 282              		.cfi_offset 3, -8
ARM GAS  /tmp/cczhW0CV.s 			page 6


 283              		.cfi_offset 14, -4
 284              		.loc 1 73 0
 285 0002 0078     		ldrb	r0, [r0, #0]	@ zero_extendqisi2
 286              	.LVL33:
 287 0004 FFF7FEFF 		bl	test_emit_token
 288              	.LVL34:
 289              		.loc 1 75 0
 290 0008 0020     		movs	r0, #0
 291 000a 08BD     		pop	{r3, pc}
 292              		.cfi_endproc
 293              	.LFE7:
 294              		.size	thread, .-thread
 295 000c AFF30080 		.section	.text.dyn3_setup,"ax",%progbits
 296              		.align	2
 297              		.p2align 4,,15
 298              		.thumb
 299              		.thumb_func
 300              		.type	dyn3_setup, %function
 301              	dyn3_setup:
 302              	.LFB13:
 303              		.loc 1 203 0
 304              		.cfi_startproc
 305              		@ args = 0, pretend = 0, frame = 0
 306              		@ frame_needed = 0, uses_anonymous_args = 0
 307              		@ link register save eliminated.
 308              		.loc 1 205 0
 309 0000 40F20000 		movw	r0, #:lower16:.LANCHOR0
 310 0004 40F20001 		movw	r1, #:lower16:test
 311 0008 C0F20000 		movt	r0, #:upper16:.LANCHOR0
 312 000c C0F20001 		movt	r1, #:upper16:test
 313 0010 4FF4BE62 		mov	r2, #1520
 314              		.loc 1 206 0
 315              		.loc 1 205 0
 316 0014 FFF7FEBF 		b	chHeapInit
 317              	.LVL35:
 318              		.cfi_endproc
 319              	.LFE13:
 320              		.size	dyn3_setup, .-dyn3_setup
 321 0018 AFF30080 		.section	.text.dyn1_setup,"ax",%progbits
 321      AFF30080 
 322              		.align	2
 323              		.p2align 4,,15
 324              		.thumb
 325              		.thumb_func
 326              		.type	dyn1_setup, %function
 327              	dyn1_setup:
 328              	.LFB8:
 329              		.loc 1 78 0
 330              		.cfi_startproc
 331              		@ args = 0, pretend = 0, frame = 0
 332              		@ frame_needed = 0, uses_anonymous_args = 0
 333              		@ link register save eliminated.
 334              		.loc 1 80 0
 335 0000 40F20000 		movw	r0, #:lower16:.LANCHOR0
 336 0004 40F20001 		movw	r1, #:lower16:test
 337 0008 C0F20000 		movt	r0, #:upper16:.LANCHOR0
 338 000c C0F20001 		movt	r1, #:upper16:test
ARM GAS  /tmp/cczhW0CV.s 			page 7


 339 0010 4FF4BE62 		mov	r2, #1520
 340              		.loc 1 81 0
 341              		.loc 1 80 0
 342 0014 FFF7FEBF 		b	chHeapInit
 343              	.LVL36:
 344              		.cfi_endproc
 345              	.LFE8:
 346              		.size	dyn1_setup, .-dyn1_setup
 347 0018 AFF30080 		.section	.text.dyn2_execute,"ax",%progbits
 347      AFF30080 
 348              		.align	2
 349              		.p2align 4,,15
 350              		.thumb
 351              		.thumb_func
 352              		.type	dyn2_execute, %function
 353              	dyn2_execute:
 354              	.LFB11:
 355              		.loc 1 141 0
 356              		.cfi_startproc
 357              		@ args = 0, pretend = 0, frame = 0
 358              		@ frame_needed = 0, uses_anonymous_args = 0
 359 0000 38B5     		push	{r3, r4, r5, lr}
 360              	.LCFI4:
 361              		.cfi_def_cfa_offset 16
 362              		.cfi_offset 3, -16
 363              		.cfi_offset 4, -12
 364              		.cfi_offset 5, -8
 365              		.cfi_offset 14, -4
 366              		.loc 1 143 0
 367 0002 444B     		ldr	r3, .L25
 368              		.loc 1 147 0
 369 0004 444C     		ldr	r4, .L25+4
 370              		.loc 1 143 0
 371 0006 9A69     		ldr	r2, [r3, #24]
 372              		.loc 1 147 0
 373 0008 2168     		ldr	r1, [r4, #0]
 374 000a 4448     		ldr	r0, .L25+8
 375              		.loc 1 143 0
 376 000c 9568     		ldr	r5, [r2, #8]
 377              	.LVL37:
 378              		.loc 1 147 0
 379 000e FFF7FEFF 		bl	chPoolFree
 380              	.LVL38:
 381 0012 6168     		ldr	r1, [r4, #4]
 382 0014 4148     		ldr	r0, .L25+8
 383 0016 FFF7FEFF 		bl	chPoolFree
 384              	.LVL39:
 385 001a A168     		ldr	r1, [r4, #8]
 386 001c 3F48     		ldr	r0, .L25+8
 387 001e FFF7FEFF 		bl	chPoolFree
 388              	.LVL40:
 389 0022 E168     		ldr	r1, [r4, #12]
 390 0024 3D48     		ldr	r0, .L25+8
 391 0026 FFF7FEFF 		bl	chPoolFree
 392              	.LVL41:
 393              		.loc 1 150 0
 394 002a 691E     		subs	r1, r5, #1
ARM GAS  /tmp/cczhW0CV.s 			page 8


 395 002c 3C4A     		ldr	r2, .L25+12
 396 002e 3D4B     		ldr	r3, .L25+16
 397 0030 3A48     		ldr	r0, .L25+8
 398 0032 FFF7FEFF 		bl	chThdCreateFromMemoryPool
 399              	.LVL42:
 400 0036 3C4C     		ldr	r4, .L25+20
 401              		.loc 1 151 0
 402 0038 A91E     		subs	r1, r5, #2
 403              		.loc 1 150 0
 404 003a 2060     		str	r0, [r4, #0]
 405              		.loc 1 151 0
 406 003c 384A     		ldr	r2, .L25+12
 407 003e 3B4B     		ldr	r3, .L25+24
 408 0040 3648     		ldr	r0, .L25+8
 409 0042 FFF7FEFF 		bl	chThdCreateFromMemoryPool
 410              	.LVL43:
 411              		.loc 1 152 0
 412 0046 E91E     		subs	r1, r5, #3
 413              		.loc 1 151 0
 414 0048 6060     		str	r0, [r4, #4]
 415              		.loc 1 152 0
 416 004a 354A     		ldr	r2, .L25+12
 417 004c 384B     		ldr	r3, .L25+28
 418 004e 3348     		ldr	r0, .L25+8
 419 0050 FFF7FEFF 		bl	chThdCreateFromMemoryPool
 420              	.LVL44:
 421              		.loc 1 153 0
 422 0054 291F     		subs	r1, r5, #4
 423              		.loc 1 152 0
 424 0056 A060     		str	r0, [r4, #8]
 425              		.loc 1 153 0
 426 0058 314A     		ldr	r2, .L25+12
 427 005a 364B     		ldr	r3, .L25+32
 428 005c 2F48     		ldr	r0, .L25+8
 429 005e FFF7FEFF 		bl	chThdCreateFromMemoryPool
 430              	.LVL45:
 431              		.loc 1 154 0
 432 0062 691F     		subs	r1, r5, #5
 433              		.loc 1 153 0
 434 0064 E060     		str	r0, [r4, #12]
 435              		.loc 1 154 0
 436 0066 2E4A     		ldr	r2, .L25+12
 437 0068 2C48     		ldr	r0, .L25+8
 438 006a 334B     		ldr	r3, .L25+36
 439 006c FFF7FEFF 		bl	chThdCreateFromMemoryPool
 440              	.LVL46:
 441              		.loc 1 156 0
 442 0070 2168     		ldr	r1, [r4, #0]
 443              		.loc 1 154 0
 444 0072 2061     		str	r0, [r4, #16]
 445              		.loc 1 156 0
 446 0074 49B1     		cbz	r1, .L16
 447              		.loc 1 156 0 is_stmt 0 discriminator 1
 448 0076 6168     		ldr	r1, [r4, #4]
 449 0078 39B1     		cbz	r1, .L16
 450              		.loc 1 156 0 discriminator 3
 451 007a A168     		ldr	r1, [r4, #8]
ARM GAS  /tmp/cczhW0CV.s 			page 9


 452 007c 29B1     		cbz	r1, .L16
 453              		.loc 1 156 0 discriminator 4
 454 007e E168     		ldr	r1, [r4, #12]
 455 0080 19B1     		cbz	r1, .L16
 456              		.loc 1 156 0 discriminator 5
 457 0082 D0F10101 		rsbs	r1, r0, #1
 458 0086 38BF     		it	cc
 459 0088 0021     		movcc	r1, #0
 460              	.L16:
 461              		.loc 1 156 0 discriminator 7
 462 008a 0120     		movs	r0, #1
 463 008c FFF7FEFF 		bl	_test_assert
 464              	.LVL47:
 465 0090 00B1     		cbz	r0, .L24
 466              	.LVL48:
 467              	.L15:
 468 0092 38BD     		pop	{r3, r4, r5, pc}
 469              	.LVL49:
 470              	.L24:
 471              		.loc 1 164 0 is_stmt 1
 472 0094 FFF7FEFF 		bl	test_wait_threads
 473              	.LVL50:
 474              		.loc 1 165 0
 475 0098 0220     		movs	r0, #2
 476 009a 2849     		ldr	r1, .L25+40
 477 009c FFF7FEFF 		bl	_test_assert_sequence
 478              	.LVL51:
 479 00a0 0028     		cmp	r0, #0
 480 00a2 F6D1     		bne	.L15
 481              		.loc 1 169 0
 482 00a4 1D48     		ldr	r0, .L25+8
 483 00a6 FFF7FEFF 		bl	chPoolAlloc
 484              	.LVL52:
 485 00aa 011C     		adds	r1, r0, #0
 486 00ac 18BF     		it	ne
 487 00ae 0121     		movne	r1, #1
 488 00b0 0320     		movs	r0, #3
 489 00b2 FFF7FEFF 		bl	_test_assert
 490              	.LVL53:
 491 00b6 0028     		cmp	r0, #0
 492 00b8 EBD1     		bne	.L15
 493              	.LVL54:
 494 00ba 1848     		ldr	r0, .L25+8
 495 00bc FFF7FEFF 		bl	chPoolAlloc
 496              	.LVL55:
 497 00c0 011C     		adds	r1, r0, #0
 498 00c2 18BF     		it	ne
 499 00c4 0121     		movne	r1, #1
 500 00c6 0320     		movs	r0, #3
 501 00c8 FFF7FEFF 		bl	_test_assert
 502              	.LVL56:
 503 00cc 0028     		cmp	r0, #0
 504 00ce E0D1     		bne	.L15
 505              	.LVL57:
 506 00d0 1248     		ldr	r0, .L25+8
 507 00d2 FFF7FEFF 		bl	chPoolAlloc
 508              	.LVL58:
ARM GAS  /tmp/cczhW0CV.s 			page 10


 509 00d6 011C     		adds	r1, r0, #0
 510 00d8 18BF     		it	ne
 511 00da 0121     		movne	r1, #1
 512 00dc 0320     		movs	r0, #3
 513 00de FFF7FEFF 		bl	_test_assert
 514              	.LVL59:
 515 00e2 0028     		cmp	r0, #0
 516 00e4 D5D1     		bne	.L15
 517              	.LVL60:
 518 00e6 0D48     		ldr	r0, .L25+8
 519 00e8 FFF7FEFF 		bl	chPoolAlloc
 520              	.LVL61:
 521 00ec 011C     		adds	r1, r0, #0
 522 00ee 18BF     		it	ne
 523 00f0 0121     		movne	r1, #1
 524 00f2 0320     		movs	r0, #3
 525 00f4 FFF7FEFF 		bl	_test_assert
 526              	.LVL62:
 527 00f8 0028     		cmp	r0, #0
 528 00fa CAD1     		bne	.L15
 529              	.LVL63:
 530              		.loc 1 170 0
 531 00fc 0748     		ldr	r0, .L25+8
 532 00fe FFF7FEFF 		bl	chPoolAlloc
 533              	.LVL64:
 534 0102 D0F10101 		rsbs	r1, r0, #1
 535 0106 38BF     		it	cc
 536 0108 0021     		movcc	r1, #0
 537 010a 0420     		movs	r0, #4
 538              		.loc 1 171 0
 539 010c BDE83840 		pop	{r3, r4, r5, lr}
 540              		.loc 1 170 0
 541 0110 FFF7FEBF 		b	_test_assert
 542              	.LVL65:
 543              	.L26:
 544              		.align	2
 545              	.L25:
 546 0114 00000000 		.word	rlist
 547 0118 00000000 		.word	wa
 548 011c 00000000 		.word	.LANCHOR1
 549 0120 00000000 		.word	thread
 550 0124 00000000 		.word	.LC0
 551 0128 00000000 		.word	threads
 552 012c 04000000 		.word	.LC1
 553 0130 08000000 		.word	.LC2
 554 0134 0C000000 		.word	.LC3
 555 0138 10000000 		.word	.LC4
 556 013c 14000000 		.word	.LC5
 557              		.cfi_endproc
 558              	.LFE11:
 559              		.size	dyn2_execute, .-dyn2_execute
 560              		.section	.text.dyn2_setup,"ax",%progbits
 561              		.align	2
 562              		.p2align 4,,15
 563              		.thumb
 564              		.thumb_func
 565              		.type	dyn2_setup, %function
ARM GAS  /tmp/cczhW0CV.s 			page 11


 566              	dyn2_setup:
 567              	.LFB10:
 568              		.loc 1 136 0
 569              		.cfi_startproc
 570              		@ args = 0, pretend = 0, frame = 0
 571              		@ frame_needed = 0, uses_anonymous_args = 0
 572              		@ link register save eliminated.
 573              		.loc 1 138 0
 574 0000 40F20000 		movw	r0, #:lower16:.LANCHOR1
 575 0004 C0F20000 		movt	r0, #:upper16:.LANCHOR1
 576 0008 4FF49871 		mov	r1, #304
 577 000c 0022     		movs	r2, #0
 578              		.loc 1 139 0
 579              		.loc 1 138 0
 580 000e FFF7FEBF 		b	chPoolInit
 581              	.LVL66:
 582              		.cfi_endproc
 583              	.LFE10:
 584              		.size	dyn2_setup, .-dyn2_setup
 585 0012 00BFAFF3 		.section	.text.dyn1_execute,"ax",%progbits
 585      0080AFF3 
 585      0080AFF3 
 585      0080
 586              		.align	2
 587              		.p2align 4,,15
 588              		.thumb
 589              		.thumb_func
 590              		.type	dyn1_execute, %function
 591              	dyn1_execute:
 592              	.LFB9:
 593              		.loc 1 83 0
 594              		.cfi_startproc
 595              		@ args = 0, pretend = 0, frame = 8
 596              		@ frame_needed = 0, uses_anonymous_args = 0
 597 0000 70B5     		push	{r4, r5, r6, lr}
 598              	.LCFI5:
 599              		.cfi_def_cfa_offset 16
 600              		.cfi_offset 4, -16
 601              		.cfi_offset 5, -12
 602              		.cfi_offset 6, -8
 603              		.cfi_offset 14, -4
 604              		.loc 1 86 0
 605 0002 344B     		ldr	r3, .L38
 606              		.loc 1 83 0
 607 0004 84B0     		sub	sp, sp, #16
 608              	.LCFI6:
 609              		.cfi_def_cfa_offset 32
 610              		.loc 1 86 0
 611 0006 9A69     		ldr	r2, [r3, #24]
 612              		.loc 1 88 0
 613 0008 03A9     		add	r1, sp, #12
 614 000a 3348     		ldr	r0, .L38+4
 615              		.loc 1 86 0
 616 000c 9568     		ldr	r5, [r2, #8]
 617              	.LVL67:
 618              		.loc 1 88 0
 619 000e FFF7FEFF 		bl	chHeapStatus
ARM GAS  /tmp/cczhW0CV.s 			page 12


 620              	.LVL68:
 621              		.loc 1 90 0
 622 0012 3248     		ldr	r0, .L38+8
 623 0014 4FF49871 		mov	r1, #304
 624 0018 6A1E     		subs	r2, r5, #1
 625 001a 314B     		ldr	r3, .L38+12
 626 001c 0090     		str	r0, [sp, #0]
 627 001e 2E48     		ldr	r0, .L38+4
 628 0020 FFF7FEFF 		bl	chThdCreateFromHeap
 629              	.LVL69:
 630 0024 2F4C     		ldr	r4, .L38+16
 631              		.loc 1 92 0
 632 0026 304E     		ldr	r6, .L38+20
 633 0028 AA1E     		subs	r2, r5, #2
 634 002a 2D4B     		ldr	r3, .L38+12
 635              		.loc 1 90 0
 636 002c 2060     		str	r0, [r4, #0]
 637              		.loc 1 92 0
 638 002e 4FF49871 		mov	r1, #304
 639 0032 0096     		str	r6, [sp, #0]
 640 0034 2848     		ldr	r0, .L38+4
 641 0036 FFF7FEFF 		bl	chThdCreateFromHeap
 642              	.LVL70:
 643              		.loc 1 95 0
 644 003a 02A9     		add	r1, sp, #8
 645              		.loc 1 92 0
 646 003c 6060     		str	r0, [r4, #4]
 647              		.loc 1 95 0
 648 003e 2648     		ldr	r0, .L38+4
 649 0040 FFF7FEFF 		bl	chHeapStatus
 650              	.LVL71:
 651              		.loc 1 96 0
 652 0044 0299     		ldr	r1, [sp, #8]
 653 0046 2448     		ldr	r0, .L38+4
 654 0048 FFF7FEFF 		bl	chHeapAlloc
 655              	.LVL72:
 656 004c 0646     		mov	r6, r0
 657              	.LVL73:
 658              		.loc 1 97 0
 659 004e 2748     		ldr	r0, .L38+24
 660              	.LVL74:
 661 0050 4FF49871 		mov	r1, #304
 662 0054 EA1E     		subs	r2, r5, #3
 663 0056 224B     		ldr	r3, .L38+12
 664 0058 0090     		str	r0, [sp, #0]
 665 005a 1F48     		ldr	r0, .L38+4
 666 005c FFF7FEFF 		bl	chThdCreateFromHeap
 667              	.LVL75:
 668 0060 A060     		str	r0, [r4, #8]
 669              		.loc 1 99 0
 670 0062 3046     		mov	r0, r6
 671 0064 FFF7FEFF 		bl	chHeapFree
 672              	.LVL76:
 673              		.loc 1 101 0
 674 0068 2168     		ldr	r1, [r4, #0]
 675 006a 29B1     		cbz	r1, .L29
 676              		.loc 1 101 0 is_stmt 0 discriminator 1
ARM GAS  /tmp/cczhW0CV.s 			page 13


 677 006c 6168     		ldr	r1, [r4, #4]
 678 006e 19B1     		cbz	r1, .L29
 679              		.loc 1 101 0 discriminator 3
 680 0070 A168     		ldr	r1, [r4, #8]
 681 0072 0029     		cmp	r1, #0
 682 0074 25D0     		beq	.L36
 683              		.loc 1 101 0
 684 0076 0021     		movs	r1, #0
 685              	.L29:
 686              		.loc 1 101 0 discriminator 7
 687 0078 0120     		movs	r0, #1
 688 007a FFF7FEFF 		bl	_test_assert
 689              	.LVL77:
 690 007e 08B1     		cbz	r0, .L37
 691              	.L28:
 692              		.loc 1 115 0 is_stmt 1
 693 0080 04B0     		add	sp, sp, #16
 694 0082 70BD     		pop	{r4, r5, r6, pc}
 695              	.L37:
 696              		.loc 1 109 0
 697 0084 FFF7FEFF 		bl	test_wait_threads
 698              	.LVL78:
 699              		.loc 1 110 0
 700 0088 0220     		movs	r0, #2
 701 008a 1949     		ldr	r1, .L38+28
 702 008c FFF7FEFF 		bl	_test_assert_sequence
 703              	.LVL79:
 704 0090 0028     		cmp	r0, #0
 705 0092 F5D1     		bne	.L28
 706              		.loc 1 113 0
 707 0094 02A9     		add	r1, sp, #8
 708 0096 1048     		ldr	r0, .L38+4
 709 0098 FFF7FEFF 		bl	chHeapStatus
 710              	.LVL80:
 711 009c 421E     		subs	r2, r0, #1
 712 009e 5042     		rsbs	r0, r2, #0
 713 00a0 50EB0201 		adcs	r1, r0, r2
 714 00a4 0320     		movs	r0, #3
 715 00a6 FFF7FEFF 		bl	_test_assert
 716              	.LVL81:
 717 00aa 0028     		cmp	r0, #0
 718 00ac E8D1     		bne	.L28
 719              	.LVL82:
 720              		.loc 1 114 0
 721 00ae 039B     		ldr	r3, [sp, #12]
 722 00b0 0299     		ldr	r1, [sp, #8]
 723 00b2 0420     		movs	r0, #4
 724 00b4 CA1A     		subs	r2, r1, r3
 725 00b6 5342     		rsbs	r3, r2, #0
 726 00b8 53EB0201 		adcs	r1, r3, r2
 727 00bc FFF7FEFF 		bl	_test_assert
 728              	.LVL83:
 729 00c0 DEE7     		b	.L28
 730              	.LVL84:
 731              	.L36:
 732              		.loc 1 101 0 discriminator 4
 733 00c2 E368     		ldr	r3, [r4, #12]
ARM GAS  /tmp/cczhW0CV.s 			page 14


 734 00c4 002B     		cmp	r3, #0
 735 00c6 D7D1     		bne	.L29
 736              		.loc 1 101 0 is_stmt 0 discriminator 5
 737 00c8 2169     		ldr	r1, [r4, #16]
 738 00ca D1F10101 		rsbs	r1, r1, #1
 739 00ce 38BF     		it	cc
 740 00d0 0021     		movcc	r1, #0
 741 00d2 D1E7     		b	.L29
 742              	.L39:
 743              		.align	2
 744              	.L38:
 745 00d4 00000000 		.word	rlist
 746 00d8 00000000 		.word	.LANCHOR0
 747 00dc 00000000 		.word	.LC0
 748 00e0 00000000 		.word	thread
 749 00e4 00000000 		.word	threads
 750 00e8 04000000 		.word	.LC1
 751 00ec 08000000 		.word	.LC2
 752 00f0 1C000000 		.word	.LC6
 753              		.cfi_endproc
 754              	.LFE9:
 755              		.size	dyn1_execute, .-dyn1_execute
 756              		.global	patterndyn
 757              		.global	testdyn3
 758              		.global	testdyn2
 759              		.global	testdyn1
 760 00f4 AFF30080 		.section	.rodata.testdyn1,"a",%progbits
 760      AFF30080 
 760      AFF30080 
 761              		.align	2
 762              		.type	testdyn1, %object
 763              		.size	testdyn1, 16
 764              	testdyn1:
 765 0000 78000000 		.word	.LC9
 766 0004 00000000 		.word	dyn1_setup
 767 0008 00000000 		.word	0
 768 000c 00000000 		.word	dyn1_execute
 769              		.section	.rodata.testdyn2,"a",%progbits
 770              		.align	2
 771              		.type	testdyn2, %object
 772              		.size	testdyn2, 16
 773              	testdyn2:
 774 0000 48000000 		.word	.LC8
 775 0004 00000000 		.word	dyn2_setup
 776 0008 00000000 		.word	0
 777 000c 00000000 		.word	dyn2_execute
 778              		.section	.rodata.testdyn3,"a",%progbits
 779              		.align	2
 780              		.type	testdyn3, %object
 781              		.size	testdyn3, 16
 782              	testdyn3:
 783 0000 20000000 		.word	.LC7
 784 0004 00000000 		.word	dyn3_setup
 785 0008 00000000 		.word	0
 786 000c 00000000 		.word	dyn3_execute
 787              		.section	.bss.mp1,"aw",%nobits
 788              		.align	2
ARM GAS  /tmp/cczhW0CV.s 			page 15


 789              		.set	.LANCHOR1,. + 0
 790              		.type	mp1, %object
 791              		.size	mp1, 12
 792              	mp1:
 793 0000 00000000 		.space	12
 793      00000000 
 793      00000000 
 794              		.section	.rodata.str1.4,"aMS",%progbits,1
 795              		.align	2
 796              	.LC0:
 797 0000 4100     		.ascii	"A\000"
 798 0002 0000     		.space	2
 799              	.LC1:
 800 0004 4200     		.ascii	"B\000"
 801 0006 0000     		.space	2
 802              	.LC2:
 803 0008 4300     		.ascii	"C\000"
 804 000a 0000     		.space	2
 805              	.LC3:
 806 000c 4400     		.ascii	"D\000"
 807 000e 0000     		.space	2
 808              	.LC4:
 809 0010 4500     		.ascii	"E\000"
 810 0012 0000     		.space	2
 811              	.LC5:
 812 0014 41424344 		.ascii	"ABCD\000"
 812      00
 813 0019 000000   		.space	3
 814              	.LC6:
 815 001c 414200   		.ascii	"AB\000"
 816 001f 00       		.space	1
 817              	.LC7:
 818 0020 44796E61 		.ascii	"Dynamic APIs, registry and references\000"
 818      6D696320 
 818      41504973 
 818      2C207265 
 818      67697374 
 819 0046 0000     		.space	2
 820              	.LC8:
 821 0048 44796E61 		.ascii	"Dynamic APIs, threads creation from memory pool\000"
 821      6D696320 
 821      41504973 
 821      2C207468 
 821      72656164 
 822              	.LC9:
 823 0078 44796E61 		.ascii	"Dynamic APIs, threads creation from heap\000"
 823      6D696320 
 823      41504973 
 823      2C207468 
 823      72656164 
 824 00a1 000000   		.section	.rodata.patterndyn,"a",%progbits
 825              		.align	2
 826              		.type	patterndyn, %object
 827              		.size	patterndyn, 16
 828              	patterndyn:
 829 0000 00000000 		.word	testdyn1
 830 0004 00000000 		.word	testdyn2
ARM GAS  /tmp/cczhW0CV.s 			page 16


 831 0008 00000000 		.word	testdyn3
 832 000c 00000000 		.word	0
 833              		.section	.bss.heap1,"aw",%nobits
 834              		.align	3
 835              		.set	.LANCHOR0,. + 0
 836              		.type	heap1, %object
 837              		.size	heap1, 32
 838              	heap1:
 839 0000 00000000 		.space	32
 839      00000000 
 839      00000000 
 839      00000000 
 839      00000000 
 840              		.text
 841              	.Letext0:
 842              		.file 2 "/usr/bin/../lib/gcc/arm-none-eabi/4.7.4/include/stddef.h"
 843              		.file 3 "/usr/bin/../lib/gcc/arm-none-eabi/4.7.4/../../../../arm-none-eabi/include/stdint.h"
 844              		.file 4 "../../os/ports/GCC/ARMCMx/chtypes.h"
 845              		.file 5 "../../os/kernel/include/chlists.h"
 846              		.file 6 "../../os/kernel/include/chthreads.h"
 847              		.file 7 "../../os/ports/GCC/ARMCMx/chcore_v7m.h"
 848              		.file 8 "../../os/kernel/include/chschd.h"
 849              		.file 9 "../../os/kernel/include/chmtx.h"
 850              		.file 10 "../../os/kernel/include/chmemcore.h"
 851              		.file 11 "../../os/kernel/include/chheap.h"
 852              		.file 12 "../../os/kernel/include/chmempools.h"
 853              		.file 13 "../../test/test.h"
 854              		.file 14 "../../os/kernel/include/chregistry.h"
 855              		.file 15 "../../os/kernel/include/chdynamic.h"
 856              		.section	.debug_info,"",%progbits
 857              	.Ldebug_info0:
 858 0000 0B110000 		.4byte	0x110b
 859 0004 0200     		.2byte	0x2
 860 0006 00000000 		.4byte	.Ldebug_abbrev0
 861 000a 04       		.byte	0x4
 862 000b 01       		.uleb128 0x1
 863 000c 24020000 		.4byte	.LASF126
 864 0010 01       		.byte	0x1
 865 0011 D5040000 		.4byte	.LASF127
 866 0015 28030000 		.4byte	.LASF128
 867 0019 00000000 		.4byte	.Ldebug_ranges0+0
 868 001d 00000000 		.4byte	0
 869 0021 00000000 		.4byte	0
 870 0025 00000000 		.4byte	.Ldebug_line0
 871 0029 02       		.uleb128 0x2
 872 002a 04       		.byte	0x4
 873 002b 05       		.byte	0x5
 874 002c 696E7400 		.ascii	"int\000"
 875 0030 03       		.uleb128 0x3
 876 0031 0E000000 		.4byte	.LASF2
 877 0035 02       		.byte	0x2
 878 0036 D5       		.byte	0xd5
 879 0037 3B000000 		.4byte	0x3b
 880 003b 04       		.uleb128 0x4
 881 003c 04       		.byte	0x4
 882 003d 07       		.byte	0x7
 883 003e 93010000 		.4byte	.LASF0
ARM GAS  /tmp/cczhW0CV.s 			page 17


 884 0042 04       		.uleb128 0x4
 885 0043 01       		.byte	0x1
 886 0044 06       		.byte	0x6
 887 0045 BA000000 		.4byte	.LASF1
 888 0049 03       		.uleb128 0x3
 889 004a 28050000 		.4byte	.LASF3
 890 004e 03       		.byte	0x3
 891 004f 2A       		.byte	0x2a
 892 0050 54000000 		.4byte	0x54
 893 0054 04       		.uleb128 0x4
 894 0055 01       		.byte	0x1
 895 0056 08       		.byte	0x8
 896 0057 8A030000 		.4byte	.LASF4
 897 005b 04       		.uleb128 0x4
 898 005c 02       		.byte	0x2
 899 005d 05       		.byte	0x5
 900 005e AD030000 		.4byte	.LASF5
 901 0062 04       		.uleb128 0x4
 902 0063 02       		.byte	0x2
 903 0064 07       		.byte	0x7
 904 0065 D8010000 		.4byte	.LASF6
 905 0069 03       		.uleb128 0x3
 906 006a 82030000 		.4byte	.LASF7
 907 006e 03       		.byte	0x3
 908 006f 4F       		.byte	0x4f
 909 0070 74000000 		.4byte	0x74
 910 0074 04       		.uleb128 0x4
 911 0075 04       		.byte	0x4
 912 0076 05       		.byte	0x5
 913 0077 08010000 		.4byte	.LASF8
 914 007b 03       		.uleb128 0x3
 915 007c 39040000 		.4byte	.LASF9
 916 0080 03       		.byte	0x3
 917 0081 50       		.byte	0x50
 918 0082 86000000 		.4byte	0x86
 919 0086 04       		.uleb128 0x4
 920 0087 04       		.byte	0x4
 921 0088 07       		.byte	0x7
 922 0089 A0010000 		.4byte	.LASF10
 923 008d 04       		.uleb128 0x4
 924 008e 08       		.byte	0x8
 925 008f 05       		.byte	0x5
 926 0090 AC000000 		.4byte	.LASF11
 927 0094 03       		.uleb128 0x3
 928 0095 21000000 		.4byte	.LASF12
 929 0099 03       		.byte	0x3
 930 009a 78       		.byte	0x78
 931 009b 9F000000 		.4byte	0x9f
 932 009f 04       		.uleb128 0x4
 933 00a0 08       		.byte	0x8
 934 00a1 07       		.byte	0x7
 935 00a2 42000000 		.4byte	.LASF13
 936 00a6 03       		.uleb128 0x3
 937 00a7 D4000000 		.4byte	.LASF14
 938 00ab 04       		.byte	0x4
 939 00ac 24       		.byte	0x24
 940 00ad B1000000 		.4byte	0xb1
ARM GAS  /tmp/cczhW0CV.s 			page 18


 941 00b1 04       		.uleb128 0x4
 942 00b2 01       		.byte	0x1
 943 00b3 02       		.byte	0x2
 944 00b4 7C030000 		.4byte	.LASF15
 945 00b8 03       		.uleb128 0x3
 946 00b9 FE010000 		.4byte	.LASF16
 947 00bd 04       		.byte	0x4
 948 00be 25       		.byte	0x25
 949 00bf 49000000 		.4byte	0x49
 950 00c3 03       		.uleb128 0x3
 951 00c4 25010000 		.4byte	.LASF17
 952 00c8 04       		.byte	0x4
 953 00c9 26       		.byte	0x26
 954 00ca 49000000 		.4byte	0x49
 955 00ce 03       		.uleb128 0x3
 956 00cf 20030000 		.4byte	.LASF18
 957 00d3 04       		.byte	0x4
 958 00d4 27       		.byte	0x27
 959 00d5 49000000 		.4byte	0x49
 960 00d9 03       		.uleb128 0x3
 961 00da FE000000 		.4byte	.LASF19
 962 00de 04       		.byte	0x4
 963 00df 28       		.byte	0x28
 964 00e0 49000000 		.4byte	0x49
 965 00e4 03       		.uleb128 0x3
 966 00e5 6D030000 		.4byte	.LASF20
 967 00e9 04       		.byte	0x4
 968 00ea 29       		.byte	0x29
 969 00eb 7B000000 		.4byte	0x7b
 970 00ef 03       		.uleb128 0x3
 971 00f0 F8010000 		.4byte	.LASF21
 972 00f4 04       		.byte	0x4
 973 00f5 2A       		.byte	0x2a
 974 00f6 69000000 		.4byte	0x69
 975 00fa 03       		.uleb128 0x3
 976 00fb 12020000 		.4byte	.LASF22
 977 00ff 04       		.byte	0x4
 978 0100 2C       		.byte	0x2c
 979 0101 7B000000 		.4byte	0x7b
 980 0105 03       		.uleb128 0x3
 981 0106 95040000 		.4byte	.LASF23
 982 010a 04       		.byte	0x4
 983 010b 2E       		.byte	0x2e
 984 010c 7B000000 		.4byte	0x7b
 985 0110 03       		.uleb128 0x3
 986 0111 07040000 		.4byte	.LASF24
 987 0115 05       		.byte	0x5
 988 0116 23       		.byte	0x23
 989 0117 1B010000 		.4byte	0x11b
 990 011b 05       		.uleb128 0x5
 991 011c 07040000 		.4byte	.LASF24
 992 0120 4C       		.byte	0x4c
 993 0121 06       		.byte	0x6
 994 0122 57       		.byte	0x57
 995 0123 4E020000 		.4byte	0x24e
 996 0127 06       		.uleb128 0x6
 997 0128 EB030000 		.4byte	.LASF25
ARM GAS  /tmp/cczhW0CV.s 			page 19


 998 012c 06       		.byte	0x6
 999 012d 58       		.byte	0x58
 1000 012e 73020000 		.4byte	0x273
 1001 0132 02       		.byte	0x2
 1002 0133 23       		.byte	0x23
 1003 0134 00       		.uleb128 0
 1004 0135 06       		.uleb128 0x6
 1005 0136 5E030000 		.4byte	.LASF26
 1006 013a 06       		.byte	0x6
 1007 013b 5A       		.byte	0x5a
 1008 013c 73020000 		.4byte	0x273
 1009 0140 02       		.byte	0x2
 1010 0141 23       		.byte	0x23
 1011 0142 04       		.uleb128 0x4
 1012 0143 06       		.uleb128 0x6
 1013 0144 9A000000 		.4byte	.LASF27
 1014 0148 06       		.byte	0x6
 1015 0149 5C       		.byte	0x5c
 1016 014a E4000000 		.4byte	0xe4
 1017 014e 02       		.byte	0x2
 1018 014f 23       		.byte	0x23
 1019 0150 08       		.uleb128 0x8
 1020 0151 06       		.uleb128 0x6
 1021 0152 6A050000 		.4byte	.LASF28
 1022 0156 06       		.byte	0x6
 1023 0157 5D       		.byte	0x5d
 1024 0158 4C030000 		.4byte	0x34c
 1025 015c 02       		.byte	0x2
 1026 015d 23       		.byte	0x23
 1027 015e 0C       		.uleb128 0xc
 1028 015f 06       		.uleb128 0x6
 1029 0160 43010000 		.4byte	.LASF29
 1030 0164 06       		.byte	0x6
 1031 0165 5F       		.byte	0x5f
 1032 0166 73020000 		.4byte	0x273
 1033 016a 02       		.byte	0x2
 1034 016b 23       		.byte	0x23
 1035 016c 10       		.uleb128 0x10
 1036 016d 06       		.uleb128 0x6
 1037 016e B5020000 		.4byte	.LASF30
 1038 0172 06       		.byte	0x6
 1039 0173 60       		.byte	0x60
 1040 0174 73020000 		.4byte	0x273
 1041 0178 02       		.byte	0x2
 1042 0179 23       		.byte	0x23
 1043 017a 14       		.uleb128 0x14
 1044 017b 06       		.uleb128 0x6
 1045 017c 4E050000 		.4byte	.LASF31
 1046 0180 06       		.byte	0x6
 1047 0181 67       		.byte	0x67
 1048 0182 91050000 		.4byte	0x591
 1049 0186 02       		.byte	0x2
 1050 0187 23       		.byte	0x23
 1051 0188 18       		.uleb128 0x18
 1052 0189 06       		.uleb128 0x6
 1053 018a 88010000 		.4byte	.LASF32
 1054 018e 06       		.byte	0x6
ARM GAS  /tmp/cczhW0CV.s 			page 20


 1055 018f 6D       		.byte	0x6d
 1056 0190 A3050000 		.4byte	0x5a3
 1057 0194 02       		.byte	0x2
 1058 0195 23       		.byte	0x23
 1059 0196 1C       		.uleb128 0x1c
 1060 0197 06       		.uleb128 0x6
 1061 0198 B7030000 		.4byte	.LASF33
 1062 019c 06       		.byte	0x6
 1063 019d 72       		.byte	0x72
 1064 019e C3000000 		.4byte	0xc3
 1065 01a2 02       		.byte	0x2
 1066 01a3 23       		.byte	0x23
 1067 01a4 20       		.uleb128 0x20
 1068 01a5 06       		.uleb128 0x6
 1069 01a6 F2030000 		.4byte	.LASF34
 1070 01aa 06       		.byte	0x6
 1071 01ab 76       		.byte	0x76
 1072 01ac B8000000 		.4byte	0xb8
 1073 01b0 02       		.byte	0x2
 1074 01b1 23       		.byte	0x23
 1075 01b2 21       		.uleb128 0x21
 1076 01b3 06       		.uleb128 0x6
 1077 01b4 09050000 		.4byte	.LASF35
 1078 01b8 06       		.byte	0x6
 1079 01b9 7B       		.byte	0x7b
 1080 01ba CE000000 		.4byte	0xce
 1081 01be 02       		.byte	0x2
 1082 01bf 23       		.byte	0x23
 1083 01c0 22       		.uleb128 0x22
 1084 01c1 06       		.uleb128 0x6
 1085 01c2 BF030000 		.4byte	.LASF36
 1086 01c6 06       		.byte	0x6
 1087 01c7 81       		.byte	0x81
 1088 01c8 D9000000 		.4byte	0xd9
 1089 01cc 02       		.byte	0x2
 1090 01cd 23       		.byte	0x23
 1091 01ce 23       		.uleb128 0x23
 1092 01cf 06       		.uleb128 0x6
 1093 01d0 BC040000 		.4byte	.LASF37
 1094 01d4 06       		.byte	0x6
 1095 01d5 88       		.byte	0x88
 1096 01d6 76030000 		.4byte	0x376
 1097 01da 02       		.byte	0x2
 1098 01db 23       		.byte	0x23
 1099 01dc 24       		.uleb128 0x24
 1100 01dd 07       		.uleb128 0x7
 1101 01de 705F7500 		.ascii	"p_u\000"
 1102 01e2 06       		.byte	0x6
 1103 01e3 AD       		.byte	0xad
 1104 01e4 5C050000 		.4byte	0x55c
 1105 01e8 02       		.byte	0x2
 1106 01e9 23       		.byte	0x23
 1107 01ea 28       		.uleb128 0x28
 1108 01eb 06       		.uleb128 0x6
 1109 01ec 70050000 		.4byte	.LASF38
 1110 01f0 06       		.byte	0x6
 1111 01f1 B2       		.byte	0xb2
ARM GAS  /tmp/cczhW0CV.s 			page 21


 1112 01f2 9B020000 		.4byte	0x29b
 1113 01f6 02       		.byte	0x2
 1114 01f7 23       		.byte	0x23
 1115 01f8 2C       		.uleb128 0x2c
 1116 01f9 06       		.uleb128 0x6
 1117 01fa CA040000 		.4byte	.LASF39
 1118 01fe 06       		.byte	0x6
 1119 01ff B8       		.byte	0xb8
 1120 0200 79020000 		.4byte	0x279
 1121 0204 02       		.byte	0x2
 1122 0205 23       		.byte	0x23
 1123 0206 30       		.uleb128 0x30
 1124 0207 06       		.uleb128 0x6
 1125 0208 08000000 		.4byte	.LASF40
 1126 020c 06       		.byte	0x6
 1127 020d BC       		.byte	0xbc
 1128 020e EF000000 		.4byte	0xef
 1129 0212 02       		.byte	0x2
 1130 0213 23       		.byte	0x23
 1131 0214 38       		.uleb128 0x38
 1132 0215 06       		.uleb128 0x6
 1133 0216 23040000 		.4byte	.LASF41
 1134 021a 06       		.byte	0x6
 1135 021b C2       		.byte	0xc2
 1136 021c FA000000 		.4byte	0xfa
 1137 0220 02       		.byte	0x2
 1138 0221 23       		.byte	0x23
 1139 0222 3C       		.uleb128 0x3c
 1140 0223 06       		.uleb128 0x6
 1141 0224 A3030000 		.4byte	.LASF42
 1142 0228 06       		.byte	0x6
 1143 0229 C9       		.byte	0xc9
 1144 022a A9050000 		.4byte	0x5a9
 1145 022e 02       		.byte	0x2
 1146 022f 23       		.byte	0x23
 1147 0230 40       		.uleb128 0x40
 1148 0231 06       		.uleb128 0x6
 1149 0232 9F040000 		.4byte	.LASF43
 1150 0236 06       		.byte	0x6
 1151 0237 CD       		.byte	0xcd
 1152 0238 E4000000 		.4byte	0xe4
 1153 023c 02       		.byte	0x2
 1154 023d 23       		.byte	0x23
 1155 023e 44       		.uleb128 0x44
 1156 023f 06       		.uleb128 0x6
 1157 0240 CC000000 		.4byte	.LASF44
 1158 0244 06       		.byte	0x6
 1159 0245 D3       		.byte	0xd3
 1160 0246 B1020000 		.4byte	0x2b1
 1161 024a 02       		.byte	0x2
 1162 024b 23       		.byte	0x23
 1163 024c 48       		.uleb128 0x48
 1164 024d 00       		.byte	0
 1165 024e 08       		.uleb128 0x8
 1166 024f 08       		.byte	0x8
 1167 0250 05       		.byte	0x5
 1168 0251 5A       		.byte	0x5a
ARM GAS  /tmp/cczhW0CV.s 			page 22


 1169 0252 73020000 		.4byte	0x273
 1170 0256 06       		.uleb128 0x6
 1171 0257 EB030000 		.4byte	.LASF25
 1172 025b 05       		.byte	0x5
 1173 025c 5B       		.byte	0x5b
 1174 025d 73020000 		.4byte	0x273
 1175 0261 02       		.byte	0x2
 1176 0262 23       		.byte	0x23
 1177 0263 00       		.uleb128 0
 1178 0264 06       		.uleb128 0x6
 1179 0265 5E030000 		.4byte	.LASF26
 1180 0269 05       		.byte	0x5
 1181 026a 5D       		.byte	0x5d
 1182 026b 73020000 		.4byte	0x273
 1183 026f 02       		.byte	0x2
 1184 0270 23       		.byte	0x23
 1185 0271 04       		.uleb128 0x4
 1186 0272 00       		.byte	0
 1187 0273 09       		.uleb128 0x9
 1188 0274 04       		.byte	0x4
 1189 0275 10010000 		.4byte	0x110
 1190 0279 03       		.uleb128 0x3
 1191 027a C3020000 		.4byte	.LASF45
 1192 027e 05       		.byte	0x5
 1193 027f 5F       		.byte	0x5f
 1194 0280 4E020000 		.4byte	0x24e
 1195 0284 08       		.uleb128 0x8
 1196 0285 04       		.byte	0x4
 1197 0286 05       		.byte	0x5
 1198 0287 64       		.byte	0x64
 1199 0288 9B020000 		.4byte	0x29b
 1200 028c 06       		.uleb128 0x6
 1201 028d EB030000 		.4byte	.LASF25
 1202 0291 05       		.byte	0x5
 1203 0292 66       		.byte	0x66
 1204 0293 73020000 		.4byte	0x273
 1205 0297 02       		.byte	0x2
 1206 0298 23       		.byte	0x23
 1207 0299 00       		.uleb128 0
 1208 029a 00       		.byte	0
 1209 029b 03       		.uleb128 0x3
 1210 029c 06020000 		.4byte	.LASF46
 1211 02a0 05       		.byte	0x5
 1212 02a1 69       		.byte	0x69
 1213 02a2 84020000 		.4byte	0x284
 1214 02a6 03       		.uleb128 0x3
 1215 02a7 79010000 		.4byte	.LASF47
 1216 02ab 07       		.byte	0x7
 1217 02ac DE       		.byte	0xde
 1218 02ad B1020000 		.4byte	0x2b1
 1219 02b1 0A       		.uleb128 0xa
 1220 02b2 04       		.byte	0x4
 1221 02b3 03       		.uleb128 0x3
 1222 02b4 6D020000 		.4byte	.LASF48
 1223 02b8 07       		.byte	0x7
 1224 02b9 E4       		.byte	0xe4
 1225 02ba 94000000 		.4byte	0x94
ARM GAS  /tmp/cczhW0CV.s 			page 23


 1226 02be 0B       		.uleb128 0xb
 1227 02bf C3040000 		.4byte	.LASF49
 1228 02c3 24       		.byte	0x24
 1229 02c4 07       		.byte	0x7
 1230 02c5 0501     		.2byte	0x105
 1231 02c7 4C030000 		.4byte	0x34c
 1232 02cb 0C       		.uleb128 0xc
 1233 02cc 723400   		.ascii	"r4\000"
 1234 02cf 07       		.byte	0x7
 1235 02d0 1801     		.2byte	0x118
 1236 02d2 A6020000 		.4byte	0x2a6
 1237 02d6 02       		.byte	0x2
 1238 02d7 23       		.byte	0x23
 1239 02d8 00       		.uleb128 0
 1240 02d9 0C       		.uleb128 0xc
 1241 02da 723500   		.ascii	"r5\000"
 1242 02dd 07       		.byte	0x7
 1243 02de 1901     		.2byte	0x119
 1244 02e0 A6020000 		.4byte	0x2a6
 1245 02e4 02       		.byte	0x2
 1246 02e5 23       		.byte	0x23
 1247 02e6 04       		.uleb128 0x4
 1248 02e7 0C       		.uleb128 0xc
 1249 02e8 723600   		.ascii	"r6\000"
 1250 02eb 07       		.byte	0x7
 1251 02ec 1A01     		.2byte	0x11a
 1252 02ee A6020000 		.4byte	0x2a6
 1253 02f2 02       		.byte	0x2
 1254 02f3 23       		.byte	0x23
 1255 02f4 08       		.uleb128 0x8
 1256 02f5 0C       		.uleb128 0xc
 1257 02f6 723700   		.ascii	"r7\000"
 1258 02f9 07       		.byte	0x7
 1259 02fa 1B01     		.2byte	0x11b
 1260 02fc A6020000 		.4byte	0x2a6
 1261 0300 02       		.byte	0x2
 1262 0301 23       		.byte	0x23
 1263 0302 0C       		.uleb128 0xc
 1264 0303 0C       		.uleb128 0xc
 1265 0304 723800   		.ascii	"r8\000"
 1266 0307 07       		.byte	0x7
 1267 0308 1C01     		.2byte	0x11c
 1268 030a A6020000 		.4byte	0x2a6
 1269 030e 02       		.byte	0x2
 1270 030f 23       		.byte	0x23
 1271 0310 10       		.uleb128 0x10
 1272 0311 0C       		.uleb128 0xc
 1273 0312 723900   		.ascii	"r9\000"
 1274 0315 07       		.byte	0x7
 1275 0316 1D01     		.2byte	0x11d
 1276 0318 A6020000 		.4byte	0x2a6
 1277 031c 02       		.byte	0x2
 1278 031d 23       		.byte	0x23
 1279 031e 14       		.uleb128 0x14
 1280 031f 0C       		.uleb128 0xc
 1281 0320 72313000 		.ascii	"r10\000"
 1282 0324 07       		.byte	0x7
ARM GAS  /tmp/cczhW0CV.s 			page 24


 1283 0325 1E01     		.2byte	0x11e
 1284 0327 A6020000 		.4byte	0x2a6
 1285 032b 02       		.byte	0x2
 1286 032c 23       		.byte	0x23
 1287 032d 18       		.uleb128 0x18
 1288 032e 0C       		.uleb128 0xc
 1289 032f 72313100 		.ascii	"r11\000"
 1290 0333 07       		.byte	0x7
 1291 0334 1F01     		.2byte	0x11f
 1292 0336 A6020000 		.4byte	0x2a6
 1293 033a 02       		.byte	0x2
 1294 033b 23       		.byte	0x23
 1295 033c 1C       		.uleb128 0x1c
 1296 033d 0C       		.uleb128 0xc
 1297 033e 6C7200   		.ascii	"lr\000"
 1298 0341 07       		.byte	0x7
 1299 0342 2001     		.2byte	0x120
 1300 0344 A6020000 		.4byte	0x2a6
 1301 0348 02       		.byte	0x2
 1302 0349 23       		.byte	0x23
 1303 034a 20       		.uleb128 0x20
 1304 034b 00       		.byte	0
 1305 034c 0B       		.uleb128 0xb
 1306 034d CB010000 		.4byte	.LASF50
 1307 0351 04       		.byte	0x4
 1308 0352 07       		.byte	0x7
 1309 0353 2A01     		.2byte	0x12a
 1310 0355 69030000 		.4byte	0x369
 1311 0359 0C       		.uleb128 0xc
 1312 035a 72313300 		.ascii	"r13\000"
 1313 035e 07       		.byte	0x7
 1314 035f 2B01     		.2byte	0x12b
 1315 0361 69030000 		.4byte	0x369
 1316 0365 02       		.byte	0x2
 1317 0366 23       		.byte	0x23
 1318 0367 00       		.uleb128 0
 1319 0368 00       		.byte	0
 1320 0369 09       		.uleb128 0x9
 1321 036a 04       		.byte	0x4
 1322 036b BE020000 		.4byte	0x2be
 1323 036f 04       		.uleb128 0x4
 1324 0370 04       		.byte	0x4
 1325 0371 07       		.byte	0x7
 1326 0372 84020000 		.4byte	.LASF51
 1327 0376 0D       		.uleb128 0xd
 1328 0377 05010000 		.4byte	0x105
 1329 037b 08       		.uleb128 0x8
 1330 037c 1C       		.byte	0x1c
 1331 037d 08       		.byte	0x8
 1332 037e 57       		.byte	0x57
 1333 037f D8030000 		.4byte	0x3d8
 1334 0383 06       		.uleb128 0x6
 1335 0384 42040000 		.4byte	.LASF52
 1336 0388 08       		.byte	0x8
 1337 0389 58       		.byte	0x58
 1338 038a 79020000 		.4byte	0x279
 1339 038e 02       		.byte	0x2
ARM GAS  /tmp/cczhW0CV.s 			page 25


 1340 038f 23       		.byte	0x23
 1341 0390 00       		.uleb128 0
 1342 0391 06       		.uleb128 0x6
 1343 0392 D1030000 		.4byte	.LASF53
 1344 0396 08       		.byte	0x8
 1345 0397 59       		.byte	0x59
 1346 0398 E4000000 		.4byte	0xe4
 1347 039c 02       		.byte	0x2
 1348 039d 23       		.byte	0x23
 1349 039e 08       		.uleb128 0x8
 1350 039f 06       		.uleb128 0x6
 1351 03a0 BD020000 		.4byte	.LASF54
 1352 03a4 08       		.byte	0x8
 1353 03a5 5B       		.byte	0x5b
 1354 03a6 4C030000 		.4byte	0x34c
 1355 03aa 02       		.byte	0x2
 1356 03ab 23       		.byte	0x23
 1357 03ac 0C       		.uleb128 0xc
 1358 03ad 06       		.uleb128 0x6
 1359 03ae 65010000 		.4byte	.LASF55
 1360 03b2 08       		.byte	0x8
 1361 03b3 5E       		.byte	0x5e
 1362 03b4 73020000 		.4byte	0x273
 1363 03b8 02       		.byte	0x2
 1364 03b9 23       		.byte	0x23
 1365 03ba 10       		.uleb128 0x10
 1366 03bb 06       		.uleb128 0x6
 1367 03bc 05030000 		.4byte	.LASF56
 1368 03c0 08       		.byte	0x8
 1369 03c1 5F       		.byte	0x5f
 1370 03c2 73020000 		.4byte	0x273
 1371 03c6 02       		.byte	0x2
 1372 03c7 23       		.byte	0x23
 1373 03c8 14       		.uleb128 0x14
 1374 03c9 06       		.uleb128 0x6
 1375 03ca FB020000 		.4byte	.LASF57
 1376 03ce 08       		.byte	0x8
 1377 03cf 62       		.byte	0x62
 1378 03d0 73020000 		.4byte	0x273
 1379 03d4 02       		.byte	0x2
 1380 03d5 23       		.byte	0x23
 1381 03d6 18       		.uleb128 0x18
 1382 03d7 00       		.byte	0
 1383 03d8 03       		.uleb128 0x3
 1384 03d9 10050000 		.4byte	.LASF58
 1385 03dd 08       		.byte	0x8
 1386 03de 64       		.byte	0x64
 1387 03df 7B030000 		.4byte	0x37b
 1388 03e3 05       		.uleb128 0x5
 1389 03e4 1E020000 		.4byte	.LASF59
 1390 03e8 10       		.byte	0x10
 1391 03e9 09       		.byte	0x9
 1392 03ea 25       		.byte	0x25
 1393 03eb 1A040000 		.4byte	0x41a
 1394 03ef 06       		.uleb128 0x6
 1395 03f0 DB000000 		.4byte	.LASF60
 1396 03f4 09       		.byte	0x9
ARM GAS  /tmp/cczhW0CV.s 			page 26


 1397 03f5 26       		.byte	0x26
 1398 03f6 79020000 		.4byte	0x279
 1399 03fa 02       		.byte	0x2
 1400 03fb 23       		.byte	0x23
 1401 03fc 00       		.uleb128 0
 1402 03fd 06       		.uleb128 0x6
 1403 03fe 62050000 		.4byte	.LASF61
 1404 0402 09       		.byte	0x9
 1405 0403 28       		.byte	0x28
 1406 0404 73020000 		.4byte	0x273
 1407 0408 02       		.byte	0x2
 1408 0409 23       		.byte	0x23
 1409 040a 08       		.uleb128 0x8
 1410 040b 06       		.uleb128 0x6
 1411 040c 8E040000 		.4byte	.LASF62
 1412 0410 09       		.byte	0x9
 1413 0411 2A       		.byte	0x2a
 1414 0412 1A040000 		.4byte	0x41a
 1415 0416 02       		.byte	0x2
 1416 0417 23       		.byte	0x23
 1417 0418 0C       		.uleb128 0xc
 1418 0419 00       		.byte	0
 1419 041a 09       		.uleb128 0x9
 1420 041b 04       		.byte	0x4
 1421 041c E3030000 		.4byte	0x3e3
 1422 0420 03       		.uleb128 0x3
 1423 0421 1E020000 		.4byte	.LASF59
 1424 0425 09       		.byte	0x9
 1425 0426 2C       		.byte	0x2c
 1426 0427 E3030000 		.4byte	0x3e3
 1427 042b 03       		.uleb128 0x3
 1428 042c 35000000 		.4byte	.LASF63
 1429 0430 0A       		.byte	0xa
 1430 0431 25       		.byte	0x25
 1431 0432 36040000 		.4byte	0x436
 1432 0436 09       		.uleb128 0x9
 1433 0437 04       		.byte	0x4
 1434 0438 3C040000 		.4byte	0x43c
 1435 043c 0E       		.uleb128 0xe
 1436 043d 01       		.byte	0x1
 1437 043e B1020000 		.4byte	0x2b1
 1438 0442 4C040000 		.4byte	0x44c
 1439 0446 0F       		.uleb128 0xf
 1440 0447 30000000 		.4byte	0x30
 1441 044b 00       		.byte	0
 1442 044c 03       		.uleb128 0x3
 1443 044d 0D030000 		.4byte	.LASF64
 1444 0451 0B       		.byte	0xb
 1445 0452 2D       		.byte	0x2d
 1446 0453 57040000 		.4byte	0x457
 1447 0457 05       		.uleb128 0x5
 1448 0458 80050000 		.4byte	.LASF65
 1449 045c 20       		.byte	0x20
 1450 045d 0B       		.byte	0xb
 1451 045e 40       		.byte	0x40
 1452 045f 8E040000 		.4byte	0x48e
 1453 0463 06       		.uleb128 0x6
ARM GAS  /tmp/cczhW0CV.s 			page 27


 1454 0464 98030000 		.4byte	.LASF66
 1455 0468 0B       		.byte	0xb
 1456 0469 41       		.byte	0x41
 1457 046a 2B040000 		.4byte	0x42b
 1458 046e 02       		.byte	0x2
 1459 046f 23       		.byte	0x23
 1460 0470 00       		.uleb128 0
 1461 0471 06       		.uleb128 0x6
 1462 0472 62000000 		.4byte	.LASF67
 1463 0476 0B       		.byte	0xb
 1464 0477 43       		.byte	0x43
 1465 0478 AD040000 		.4byte	0x4ad
 1466 047c 02       		.byte	0x2
 1467 047d 23       		.byte	0x23
 1468 047e 08       		.uleb128 0x8
 1469 047f 06       		.uleb128 0x6
 1470 0480 C6000000 		.4byte	.LASF68
 1471 0484 0B       		.byte	0xb
 1472 0485 45       		.byte	0x45
 1473 0486 20040000 		.4byte	0x420
 1474 048a 02       		.byte	0x2
 1475 048b 23       		.byte	0x23
 1476 048c 10       		.uleb128 0x10
 1477 048d 00       		.byte	0
 1478 048e 10       		.uleb128 0x10
 1479 048f 04       		.byte	0x4
 1480 0490 0B       		.byte	0xb
 1481 0491 35       		.byte	0x35
 1482 0492 AD040000 		.4byte	0x4ad
 1483 0496 11       		.uleb128 0x11
 1484 0497 95000000 		.4byte	.LASF69
 1485 049b 0B       		.byte	0xb
 1486 049c 36       		.byte	0x36
 1487 049d CE040000 		.4byte	0x4ce
 1488 04a1 11       		.uleb128 0x11
 1489 04a2 4A040000 		.4byte	.LASF70
 1490 04a6 0B       		.byte	0xb
 1491 04a7 37       		.byte	0x37
 1492 04a8 D4040000 		.4byte	0x4d4
 1493 04ac 00       		.byte	0
 1494 04ad 12       		.uleb128 0x12
 1495 04ae D8030000 		.4byte	.LASF90
 1496 04b2 08       		.byte	0x8
 1497 04b3 0B       		.byte	0xb
 1498 04b4 32       		.byte	0x32
 1499 04b5 CE040000 		.4byte	0x4ce
 1500 04b9 11       		.uleb128 0x11
 1501 04ba 82010000 		.4byte	.LASF71
 1502 04be 0B       		.byte	0xb
 1503 04bf 33       		.byte	0x33
 1504 04c0 B3020000 		.4byte	0x2b3
 1505 04c4 13       		.uleb128 0x13
 1506 04c5 6800     		.ascii	"h\000"
 1507 04c7 0B       		.byte	0xb
 1508 04c8 3A       		.byte	0x3a
 1509 04c9 DA040000 		.4byte	0x4da
 1510 04cd 00       		.byte	0
ARM GAS  /tmp/cczhW0CV.s 			page 28


 1511 04ce 09       		.uleb128 0x9
 1512 04cf 04       		.byte	0x4
 1513 04d0 AD040000 		.4byte	0x4ad
 1514 04d4 09       		.uleb128 0x9
 1515 04d5 04       		.byte	0x4
 1516 04d6 4C040000 		.4byte	0x44c
 1517 04da 08       		.uleb128 0x8
 1518 04db 08       		.byte	0x8
 1519 04dc 0B       		.byte	0xb
 1520 04dd 34       		.byte	0x34
 1521 04de FD040000 		.4byte	0x4fd
 1522 04e2 07       		.uleb128 0x7
 1523 04e3 7500     		.ascii	"u\000"
 1524 04e5 0B       		.byte	0xb
 1525 04e6 38       		.byte	0x38
 1526 04e7 8E040000 		.4byte	0x48e
 1527 04eb 02       		.byte	0x2
 1528 04ec 23       		.byte	0x23
 1529 04ed 00       		.uleb128 0
 1530 04ee 06       		.uleb128 0x6
 1531 04ef D3010000 		.4byte	.LASF72
 1532 04f3 0B       		.byte	0xb
 1533 04f4 39       		.byte	0x39
 1534 04f5 30000000 		.4byte	0x30
 1535 04f9 02       		.byte	0x2
 1536 04fa 23       		.byte	0x23
 1537 04fb 04       		.uleb128 0x4
 1538 04fc 00       		.byte	0
 1539 04fd 05       		.uleb128 0x5
 1540 04fe FD040000 		.4byte	.LASF73
 1541 0502 04       		.byte	0x4
 1542 0503 0C       		.byte	0xc
 1543 0504 25       		.byte	0x25
 1544 0505 18050000 		.4byte	0x518
 1545 0509 06       		.uleb128 0x6
 1546 050a 18030000 		.4byte	.LASF74
 1547 050e 0C       		.byte	0xc
 1548 050f 26       		.byte	0x26
 1549 0510 18050000 		.4byte	0x518
 1550 0514 02       		.byte	0x2
 1551 0515 23       		.byte	0x23
 1552 0516 00       		.uleb128 0
 1553 0517 00       		.byte	0
 1554 0518 09       		.uleb128 0x9
 1555 0519 04       		.byte	0x4
 1556 051a FD040000 		.4byte	0x4fd
 1557 051e 08       		.uleb128 0x8
 1558 051f 0C       		.byte	0xc
 1559 0520 0C       		.byte	0xc
 1560 0521 2D       		.byte	0x2d
 1561 0522 51050000 		.4byte	0x551
 1562 0526 06       		.uleb128 0x6
 1563 0527 2E010000 		.4byte	.LASF75
 1564 052b 0C       		.byte	0xc
 1565 052c 2E       		.byte	0x2e
 1566 052d 18050000 		.4byte	0x518
 1567 0531 02       		.byte	0x2
ARM GAS  /tmp/cczhW0CV.s 			page 29


 1568 0532 23       		.byte	0x23
 1569 0533 00       		.uleb128 0
 1570 0534 06       		.uleb128 0x6
 1571 0535 D0020000 		.4byte	.LASF76
 1572 0539 0C       		.byte	0xc
 1573 053a 2F       		.byte	0x2f
 1574 053b 30000000 		.4byte	0x30
 1575 053f 02       		.byte	0x2
 1576 0540 23       		.byte	0x23
 1577 0541 04       		.uleb128 0x4
 1578 0542 06       		.uleb128 0x6
 1579 0543 6D010000 		.4byte	.LASF77
 1580 0547 0C       		.byte	0xc
 1581 0548 31       		.byte	0x31
 1582 0549 2B040000 		.4byte	0x42b
 1583 054d 02       		.byte	0x2
 1584 054e 23       		.byte	0x23
 1585 054f 08       		.uleb128 0x8
 1586 0550 00       		.byte	0
 1587 0551 03       		.uleb128 0x3
 1588 0552 2A000000 		.4byte	.LASF78
 1589 0556 0C       		.byte	0xc
 1590 0557 33       		.byte	0x33
 1591 0558 1E050000 		.4byte	0x51e
 1592 055c 10       		.uleb128 0x10
 1593 055d 04       		.byte	0x4
 1594 055e 06       		.byte	0x6
 1595 055f 8F       		.byte	0x8f
 1596 0560 91050000 		.4byte	0x591
 1597 0564 11       		.uleb128 0x11
 1598 0565 1A000000 		.4byte	.LASF79
 1599 0569 06       		.byte	0x6
 1600 056a 96       		.byte	0x96
 1601 056b EF000000 		.4byte	0xef
 1602 056f 11       		.uleb128 0x11
 1603 0570 59000000 		.4byte	.LASF80
 1604 0574 06       		.byte	0x6
 1605 0575 9D       		.byte	0x9d
 1606 0576 EF000000 		.4byte	0xef
 1607 057a 11       		.uleb128 0x11
 1608 057b 47050000 		.4byte	.LASF81
 1609 057f 06       		.byte	0x6
 1610 0580 A4       		.byte	0xa4
 1611 0581 B1020000 		.4byte	0x2b1
 1612 0585 11       		.uleb128 0x11
 1613 0586 E4030000 		.4byte	.LASF82
 1614 058a 06       		.byte	0x6
 1615 058b AB       		.byte	0xab
 1616 058c FA000000 		.4byte	0xfa
 1617 0590 00       		.byte	0
 1618 0591 09       		.uleb128 0x9
 1619 0592 04       		.byte	0x4
 1620 0593 97050000 		.4byte	0x597
 1621 0597 14       		.uleb128 0x14
 1622 0598 9C050000 		.4byte	0x59c
 1623 059c 04       		.uleb128 0x4
 1624 059d 01       		.byte	0x1
ARM GAS  /tmp/cczhW0CV.s 			page 30


 1625 059e 08       		.byte	0x8
 1626 059f 4F040000 		.4byte	.LASF83
 1627 05a3 09       		.uleb128 0x9
 1628 05a4 04       		.byte	0x4
 1629 05a5 B3020000 		.4byte	0x2b3
 1630 05a9 09       		.uleb128 0x9
 1631 05aa 04       		.byte	0x4
 1632 05ab 20040000 		.4byte	0x420
 1633 05af 03       		.uleb128 0x3
 1634 05b0 00000000 		.4byte	.LASF84
 1635 05b4 06       		.byte	0x6
 1636 05b5 DE       		.byte	0xde
 1637 05b6 BA050000 		.4byte	0x5ba
 1638 05ba 09       		.uleb128 0x9
 1639 05bb 04       		.byte	0x4
 1640 05bc C0050000 		.4byte	0x5c0
 1641 05c0 0E       		.uleb128 0xe
 1642 05c1 01       		.byte	0x1
 1643 05c2 EF000000 		.4byte	0xef
 1644 05c6 D0050000 		.4byte	0x5d0
 1645 05ca 0F       		.uleb128 0xf
 1646 05cb B1020000 		.4byte	0x2b1
 1647 05cf 00       		.byte	0
 1648 05d0 05       		.uleb128 0x5
 1649 05d1 1A040000 		.4byte	.LASF85
 1650 05d5 10       		.byte	0x10
 1651 05d6 0D       		.byte	0xd
 1652 05d7 3B       		.byte	0x3b
 1653 05d8 15060000 		.4byte	0x615
 1654 05dc 06       		.uleb128 0x6
 1655 05dd C6010000 		.4byte	.LASF86
 1656 05e1 0D       		.byte	0xd
 1657 05e2 3C       		.byte	0x3c
 1658 05e3 91050000 		.4byte	0x591
 1659 05e7 02       		.byte	0x2
 1660 05e8 23       		.byte	0x23
 1661 05e9 00       		.uleb128 0
 1662 05ea 06       		.uleb128 0x6
 1663 05eb DF020000 		.4byte	.LASF87
 1664 05ef 0D       		.byte	0xd
 1665 05f0 3D       		.byte	0x3d
 1666 05f1 17060000 		.4byte	0x617
 1667 05f5 02       		.byte	0x2
 1668 05f6 23       		.byte	0x23
 1669 05f7 04       		.uleb128 0x4
 1670 05f8 06       		.uleb128 0x6
 1671 05f9 B2010000 		.4byte	.LASF88
 1672 05fd 0D       		.byte	0xd
 1673 05fe 3E       		.byte	0x3e
 1674 05ff 17060000 		.4byte	0x617
 1675 0603 02       		.byte	0x2
 1676 0604 23       		.byte	0x23
 1677 0605 08       		.uleb128 0x8
 1678 0606 06       		.uleb128 0x6
 1679 0607 65030000 		.4byte	.LASF89
 1680 060b 0D       		.byte	0xd
 1681 060c 3F       		.byte	0x3f
ARM GAS  /tmp/cczhW0CV.s 			page 31


 1682 060d 17060000 		.4byte	0x617
 1683 0611 02       		.byte	0x2
 1684 0612 23       		.byte	0x23
 1685 0613 0C       		.uleb128 0xc
 1686 0614 00       		.byte	0
 1687 0615 15       		.uleb128 0x15
 1688 0616 01       		.byte	0x1
 1689 0617 09       		.uleb128 0x9
 1690 0618 04       		.byte	0x4
 1691 0619 15060000 		.4byte	0x615
 1692 061d 16       		.uleb128 0x16
 1693 061e F005     		.2byte	0x5f0
 1694 0620 0D       		.byte	0xd
 1695 0621 44       		.byte	0x44
 1696 0622 6C060000 		.4byte	0x66c
 1697 0626 07       		.uleb128 0x7
 1698 0627 543000   		.ascii	"T0\000"
 1699 062a 0D       		.byte	0xd
 1700 062b 45       		.byte	0x45
 1701 062c 6C060000 		.4byte	0x66c
 1702 0630 02       		.byte	0x2
 1703 0631 23       		.byte	0x23
 1704 0632 00       		.uleb128 0
 1705 0633 07       		.uleb128 0x7
 1706 0634 543100   		.ascii	"T1\000"
 1707 0637 0D       		.byte	0xd
 1708 0638 46       		.byte	0x46
 1709 0639 6C060000 		.4byte	0x66c
 1710 063d 03       		.byte	0x3
 1711 063e 23       		.byte	0x23
 1712 063f B002     		.uleb128 0x130
 1713 0641 07       		.uleb128 0x7
 1714 0642 543200   		.ascii	"T2\000"
 1715 0645 0D       		.byte	0xd
 1716 0646 47       		.byte	0x47
 1717 0647 6C060000 		.4byte	0x66c
 1718 064b 03       		.byte	0x3
 1719 064c 23       		.byte	0x23
 1720 064d E004     		.uleb128 0x260
 1721 064f 07       		.uleb128 0x7
 1722 0650 543300   		.ascii	"T3\000"
 1723 0653 0D       		.byte	0xd
 1724 0654 48       		.byte	0x48
 1725 0655 6C060000 		.4byte	0x66c
 1726 0659 03       		.byte	0x3
 1727 065a 23       		.byte	0x23
 1728 065b 9007     		.uleb128 0x390
 1729 065d 07       		.uleb128 0x7
 1730 065e 543400   		.ascii	"T4\000"
 1731 0661 0D       		.byte	0xd
 1732 0662 49       		.byte	0x49
 1733 0663 6C060000 		.4byte	0x66c
 1734 0667 03       		.byte	0x3
 1735 0668 23       		.byte	0x23
 1736 0669 C009     		.uleb128 0x4c0
 1737 066b 00       		.byte	0
 1738 066c 17       		.uleb128 0x17
ARM GAS  /tmp/cczhW0CV.s 			page 32


 1739 066d B3020000 		.4byte	0x2b3
 1740 0671 7C060000 		.4byte	0x67c
 1741 0675 18       		.uleb128 0x18
 1742 0676 6F030000 		.4byte	0x36f
 1743 067a 25       		.byte	0x25
 1744 067b 00       		.byte	0
 1745 067c 19       		.uleb128 0x19
 1746 067d F0040000 		.4byte	.LASF91
 1747 0681 F005     		.2byte	0x5f0
 1748 0683 0D       		.byte	0xd
 1749 0684 43       		.byte	0x43
 1750 0685 9F060000 		.4byte	0x69f
 1751 0689 13       		.uleb128 0x13
 1752 068a 776100   		.ascii	"wa\000"
 1753 068d 0D       		.byte	0xd
 1754 068e 4A       		.byte	0x4a
 1755 068f 1D060000 		.4byte	0x61d
 1756 0693 11       		.uleb128 0x11
 1757 0694 AA040000 		.4byte	.LASF92
 1758 0698 0D       		.byte	0xd
 1759 0699 4B       		.byte	0x4b
 1760 069a 9F060000 		.4byte	0x69f
 1761 069e 00       		.byte	0
 1762 069f 17       		.uleb128 0x17
 1763 06a0 49000000 		.4byte	0x49
 1764 06a4 B0060000 		.4byte	0x6b0
 1765 06a8 1A       		.uleb128 0x1a
 1766 06a9 6F030000 		.4byte	0x36f
 1767 06ad EF05     		.2byte	0x5ef
 1768 06af 00       		.byte	0
 1769 06b0 1B       		.uleb128 0x1b
 1770 06b1 1A050000 		.4byte	.LASF94
 1771 06b5 01       		.byte	0x1
 1772 06b6 BF       		.byte	0xbf
 1773 06b7 01       		.byte	0x1
 1774 06b8 A6000000 		.4byte	0xa6
 1775 06bc 00000000 		.4byte	.LFB12
 1776 06c0 24000000 		.4byte	.LFE12
 1777 06c4 00000000 		.4byte	.LLST0
 1778 06c8 01       		.byte	0x1
 1779 06c9 0C070000 		.4byte	0x70c
 1780 06cd 1C       		.uleb128 0x1c
 1781 06ce 747000   		.ascii	"tp\000"
 1782 06d1 01       		.byte	0x1
 1783 06d2 BF       		.byte	0xbf
 1784 06d3 73020000 		.4byte	0x273
 1785 06d7 20000000 		.4byte	.LLST1
 1786 06db 1D       		.uleb128 0x1d
 1787 06dc 66747000 		.ascii	"ftp\000"
 1788 06e0 01       		.byte	0x1
 1789 06e1 C0       		.byte	0xc0
 1790 06e2 73020000 		.4byte	0x273
 1791 06e6 3E000000 		.4byte	.LLST2
 1792 06ea 1E       		.uleb128 0x1e
 1793 06eb EA040000 		.4byte	.LASF93
 1794 06ef 01       		.byte	0x1
 1795 06f0 C1       		.byte	0xc1
ARM GAS  /tmp/cczhW0CV.s 			page 33


 1796 06f1 A6000000 		.4byte	0xa6
 1797 06f5 67000000 		.4byte	.LLST3
 1798 06f9 1F       		.uleb128 0x1f
 1799 06fa 08000000 		.4byte	.LVL1
 1800 06fe 330F0000 		.4byte	0xf33
 1801 0702 1F       		.uleb128 0x1f
 1802 0703 1A000000 		.4byte	.LVL4
 1803 0707 410F0000 		.4byte	0xf41
 1804 070b 00       		.byte	0
 1805 070c 20       		.uleb128 0x20
 1806 070d A8020000 		.4byte	.LASF96
 1807 0711 01       		.byte	0x1
 1808 0712 D0       		.byte	0xd0
 1809 0713 01       		.byte	0x1
 1810 0714 00000000 		.4byte	.LFB14
 1811 0718 48010000 		.4byte	.LFE14
 1812 071c 86000000 		.4byte	.LLST4
 1813 0720 01       		.byte	0x1
 1814 0721 16090000 		.4byte	0x916
 1815 0725 1D       		.uleb128 0x1d
 1816 0726 747000   		.ascii	"tp\000"
 1817 0729 01       		.byte	0x1
 1818 072a D1       		.byte	0xd1
 1819 072b 73020000 		.4byte	0x273
 1820 072f B2000000 		.4byte	.LLST5
 1821 0733 21       		.uleb128 0x21
 1822 0734 15000000 		.4byte	.LASF100
 1823 0738 01       		.byte	0x1
 1824 0739 D2       		.byte	0xd2
 1825 073a E4000000 		.4byte	0xe4
 1826 073e 22       		.uleb128 0x22
 1827 073f 1C000000 		.4byte	.LVL7
 1828 0743 590F0000 		.4byte	0xf59
 1829 0747 6C070000 		.4byte	0x76c
 1830 074b 23       		.uleb128 0x23
 1831 074c 01       		.byte	0x1
 1832 074d 53       		.byte	0x53
 1833 074e 05       		.byte	0x5
 1834 074f 03       		.byte	0x3
 1835 0750 00000000 		.4byte	thread
 1836 0754 23       		.uleb128 0x23
 1837 0755 01       		.byte	0x1
 1838 0756 51       		.byte	0x51
 1839 0757 03       		.byte	0x3
 1840 0758 0A       		.byte	0xa
 1841 0759 3001     		.2byte	0x130
 1842 075b 23       		.uleb128 0x23
 1843 075c 01       		.byte	0x1
 1844 075d 50       		.byte	0x50
 1845 075e 05       		.byte	0x5
 1846 075f 03       		.byte	0x3
 1847 0760 00000000 		.4byte	.LANCHOR0
 1848 0764 23       		.uleb128 0x23
 1849 0765 02       		.byte	0x2
 1850 0766 7D       		.byte	0x7d
 1851 0767 00       		.sleb128 0
 1852 0768 02       		.byte	0x2
ARM GAS  /tmp/cczhW0CV.s 			page 34


 1853 0769 74       		.byte	0x74
 1854 076a 00       		.sleb128 0
 1855 076b 00       		.byte	0
 1856 076c 22       		.uleb128 0x22
 1857 076d 34000000 		.4byte	.LVL10
 1858 0771 850F0000 		.4byte	0xf85
 1859 0775 7F070000 		.4byte	0x77f
 1860 0779 23       		.uleb128 0x23
 1861 077a 01       		.byte	0x1
 1862 077b 50       		.byte	0x50
 1863 077c 01       		.byte	0x1
 1864 077d 31       		.byte	0x31
 1865 077e 00       		.byte	0
 1866 077f 22       		.uleb128 0x22
 1867 0780 40000000 		.4byte	.LVL11
 1868 0784 A20F0000 		.4byte	0xfa2
 1869 0788 93070000 		.4byte	0x793
 1870 078c 23       		.uleb128 0x23
 1871 078d 01       		.byte	0x1
 1872 078e 50       		.byte	0x50
 1873 078f 02       		.byte	0x2
 1874 0790 74       		.byte	0x74
 1875 0791 00       		.sleb128 0
 1876 0792 00       		.byte	0
 1877 0793 22       		.uleb128 0x22
 1878 0794 56000000 		.4byte	.LVL12
 1879 0798 850F0000 		.4byte	0xf85
 1880 079c A6070000 		.4byte	0x7a6
 1881 07a0 23       		.uleb128 0x23
 1882 07a1 01       		.byte	0x1
 1883 07a2 50       		.byte	0x50
 1884 07a3 01       		.byte	0x1
 1885 07a4 32       		.byte	0x32
 1886 07a5 00       		.byte	0
 1887 07a6 22       		.uleb128 0x22
 1888 07a7 60000000 		.4byte	.LVL13
 1889 07ab BA0F0000 		.4byte	0xfba
 1890 07af BA070000 		.4byte	0x7ba
 1891 07b3 23       		.uleb128 0x23
 1892 07b4 01       		.byte	0x1
 1893 07b5 50       		.byte	0x50
 1894 07b6 02       		.byte	0x2
 1895 07b7 74       		.byte	0x74
 1896 07b8 00       		.sleb128 0
 1897 07b9 00       		.byte	0
 1898 07ba 22       		.uleb128 0x22
 1899 07bb 70000000 		.4byte	.LVL14
 1900 07bf 850F0000 		.4byte	0xf85
 1901 07c3 CD070000 		.4byte	0x7cd
 1902 07c7 23       		.uleb128 0x23
 1903 07c8 01       		.byte	0x1
 1904 07c9 50       		.byte	0x50
 1905 07ca 01       		.byte	0x1
 1906 07cb 33       		.byte	0x33
 1907 07cc 00       		.byte	0
 1908 07cd 22       		.uleb128 0x22
 1909 07ce 7A000000 		.4byte	.LVL15
ARM GAS  /tmp/cczhW0CV.s 			page 35


 1910 07d2 B0060000 		.4byte	0x6b0
 1911 07d6 E1070000 		.4byte	0x7e1
 1912 07da 23       		.uleb128 0x23
 1913 07db 01       		.byte	0x1
 1914 07dc 50       		.byte	0x50
 1915 07dd 02       		.byte	0x2
 1916 07de 74       		.byte	0x74
 1917 07df 00       		.sleb128 0
 1918 07e0 00       		.byte	0
 1919 07e1 22       		.uleb128 0x22
 1920 07e2 82000000 		.4byte	.LVL16
 1921 07e6 850F0000 		.4byte	0xf85
 1922 07ea F4070000 		.4byte	0x7f4
 1923 07ee 23       		.uleb128 0x23
 1924 07ef 01       		.byte	0x1
 1925 07f0 50       		.byte	0x50
 1926 07f1 01       		.byte	0x1
 1927 07f2 34       		.byte	0x34
 1928 07f3 00       		.byte	0
 1929 07f4 22       		.uleb128 0x22
 1930 07f5 8C000000 		.4byte	.LVL17
 1931 07f9 B0060000 		.4byte	0x6b0
 1932 07fd 08080000 		.4byte	0x808
 1933 0801 23       		.uleb128 0x23
 1934 0802 01       		.byte	0x1
 1935 0803 50       		.byte	0x50
 1936 0804 02       		.byte	0x2
 1937 0805 74       		.byte	0x74
 1938 0806 00       		.sleb128 0
 1939 0807 00       		.byte	0
 1940 0808 22       		.uleb128 0x22
 1941 0809 94000000 		.4byte	.LVL18
 1942 080d 850F0000 		.4byte	0xf85
 1943 0811 1B080000 		.4byte	0x81b
 1944 0815 23       		.uleb128 0x23
 1945 0816 01       		.byte	0x1
 1946 0817 50       		.byte	0x50
 1947 0818 01       		.byte	0x1
 1948 0819 35       		.byte	0x35
 1949 081a 00       		.byte	0
 1950 081b 22       		.uleb128 0x22
 1951 081c 9E000000 		.4byte	.LVL19
 1952 0820 BA0F0000 		.4byte	0xfba
 1953 0824 2F080000 		.4byte	0x82f
 1954 0828 23       		.uleb128 0x23
 1955 0829 01       		.byte	0x1
 1956 082a 50       		.byte	0x50
 1957 082b 02       		.byte	0x2
 1958 082c 74       		.byte	0x74
 1959 082d 00       		.sleb128 0
 1960 082e 00       		.byte	0
 1961 082f 22       		.uleb128 0x22
 1962 0830 B0000000 		.4byte	.LVL20
 1963 0834 850F0000 		.4byte	0xf85
 1964 0838 42080000 		.4byte	0x842
 1965 083c 23       		.uleb128 0x23
 1966 083d 01       		.byte	0x1
ARM GAS  /tmp/cczhW0CV.s 			page 36


 1967 083e 50       		.byte	0x50
 1968 083f 01       		.byte	0x1
 1969 0840 36       		.byte	0x36
 1970 0841 00       		.byte	0
 1971 0842 22       		.uleb128 0x22
 1972 0843 C6000000 		.4byte	.LVL21
 1973 0847 850F0000 		.4byte	0xf85
 1974 084b 55080000 		.4byte	0x855
 1975 084f 23       		.uleb128 0x23
 1976 0850 01       		.byte	0x1
 1977 0851 50       		.byte	0x50
 1978 0852 01       		.byte	0x1
 1979 0853 37       		.byte	0x37
 1980 0854 00       		.byte	0
 1981 0855 22       		.uleb128 0x22
 1982 0856 D0000000 		.4byte	.LVL22
 1983 085a B0060000 		.4byte	0x6b0
 1984 085e 69080000 		.4byte	0x869
 1985 0862 23       		.uleb128 0x23
 1986 0863 01       		.byte	0x1
 1987 0864 50       		.byte	0x50
 1988 0865 02       		.byte	0x2
 1989 0866 74       		.byte	0x74
 1990 0867 00       		.sleb128 0
 1991 0868 00       		.byte	0
 1992 0869 22       		.uleb128 0x22
 1993 086a D8000000 		.4byte	.LVL23
 1994 086e 850F0000 		.4byte	0xf85
 1995 0872 7C080000 		.4byte	0x87c
 1996 0876 23       		.uleb128 0x23
 1997 0877 01       		.byte	0x1
 1998 0878 50       		.byte	0x50
 1999 0879 01       		.byte	0x1
 2000 087a 38       		.byte	0x38
 2001 087b 00       		.byte	0
 2002 087c 22       		.uleb128 0x22
 2003 087d E2000000 		.4byte	.LVL24
 2004 0881 B0060000 		.4byte	0x6b0
 2005 0885 90080000 		.4byte	0x890
 2006 0889 23       		.uleb128 0x23
 2007 088a 01       		.byte	0x1
 2008 088b 50       		.byte	0x50
 2009 088c 02       		.byte	0x2
 2010 088d 74       		.byte	0x74
 2011 088e 00       		.sleb128 0
 2012 088f 00       		.byte	0
 2013 0890 22       		.uleb128 0x22
 2014 0891 EA000000 		.4byte	.LVL25
 2015 0895 850F0000 		.4byte	0xf85
 2016 0899 A3080000 		.4byte	0x8a3
 2017 089d 23       		.uleb128 0x23
 2018 089e 01       		.byte	0x1
 2019 089f 50       		.byte	0x50
 2020 08a0 01       		.byte	0x1
 2021 08a1 39       		.byte	0x39
 2022 08a2 00       		.byte	0
 2023 08a3 22       		.uleb128 0x22
ARM GAS  /tmp/cczhW0CV.s 			page 37


 2024 08a4 F4000000 		.4byte	.LVL26
 2025 08a8 CE0F0000 		.4byte	0xfce
 2026 08ac B7080000 		.4byte	0x8b7
 2027 08b0 23       		.uleb128 0x23
 2028 08b1 01       		.byte	0x1
 2029 08b2 50       		.byte	0x50
 2030 08b3 02       		.byte	0x2
 2031 08b4 08       		.byte	0x8
 2032 08b5 32       		.byte	0x32
 2033 08b6 00       		.byte	0
 2034 08b7 22       		.uleb128 0x22
 2035 08b8 08010000 		.4byte	.LVL27
 2036 08bc 850F0000 		.4byte	0xf85
 2037 08c0 CA080000 		.4byte	0x8ca
 2038 08c4 23       		.uleb128 0x23
 2039 08c5 01       		.byte	0x1
 2040 08c6 50       		.byte	0x50
 2041 08c7 01       		.byte	0x1
 2042 08c8 3A       		.byte	0x3a
 2043 08c9 00       		.byte	0
 2044 08ca 22       		.uleb128 0x22
 2045 08cb 12010000 		.4byte	.LVL28
 2046 08cf B0060000 		.4byte	0x6b0
 2047 08d3 DE080000 		.4byte	0x8de
 2048 08d7 23       		.uleb128 0x23
 2049 08d8 01       		.byte	0x1
 2050 08d9 50       		.byte	0x50
 2051 08da 02       		.byte	0x2
 2052 08db 74       		.byte	0x74
 2053 08dc 00       		.sleb128 0
 2054 08dd 00       		.byte	0
 2055 08de 22       		.uleb128 0x22
 2056 08df 1A010000 		.4byte	.LVL29
 2057 08e3 850F0000 		.4byte	0xf85
 2058 08e7 F1080000 		.4byte	0x8f1
 2059 08eb 23       		.uleb128 0x23
 2060 08ec 01       		.byte	0x1
 2061 08ed 50       		.byte	0x50
 2062 08ee 01       		.byte	0x1
 2063 08ef 3B       		.byte	0x3b
 2064 08f0 00       		.byte	0
 2065 08f1 22       		.uleb128 0x22
 2066 08f2 24010000 		.4byte	.LVL30
 2067 08f6 B0060000 		.4byte	0x6b0
 2068 08fa 05090000 		.4byte	0x905
 2069 08fe 23       		.uleb128 0x23
 2070 08ff 01       		.byte	0x1
 2071 0900 50       		.byte	0x50
 2072 0901 02       		.byte	0x2
 2073 0902 74       		.byte	0x74
 2074 0903 00       		.sleb128 0
 2075 0904 00       		.byte	0
 2076 0905 24       		.uleb128 0x24
 2077 0906 36010000 		.4byte	.LVL31
 2078 090a 01       		.byte	0x1
 2079 090b 850F0000 		.4byte	0xf85
 2080 090f 23       		.uleb128 0x23
ARM GAS  /tmp/cczhW0CV.s 			page 38


 2081 0910 01       		.byte	0x1
 2082 0911 50       		.byte	0x50
 2083 0912 01       		.byte	0x1
 2084 0913 3C       		.byte	0x3c
 2085 0914 00       		.byte	0
 2086 0915 00       		.byte	0
 2087 0916 1B       		.uleb128 0x1b
 2088 0917 75030000 		.4byte	.LASF95
 2089 091b 01       		.byte	0x1
 2090 091c 47       		.byte	0x47
 2091 091d 01       		.byte	0x1
 2092 091e EF000000 		.4byte	0xef
 2093 0922 00000000 		.4byte	.LFB7
 2094 0926 0C000000 		.4byte	.LFE7
 2095 092a D0000000 		.4byte	.LLST6
 2096 092e 01       		.byte	0x1
 2097 092f 4A090000 		.4byte	0x94a
 2098 0933 1C       		.uleb128 0x1c
 2099 0934 7000     		.ascii	"p\000"
 2100 0936 01       		.byte	0x1
 2101 0937 47       		.byte	0x47
 2102 0938 B1020000 		.4byte	0x2b1
 2103 093c F0000000 		.4byte	.LLST7
 2104 0940 1F       		.uleb128 0x1f
 2105 0941 08000000 		.4byte	.LVL34
 2106 0945 E30F0000 		.4byte	0xfe3
 2107 0949 00       		.byte	0
 2108 094a 25       		.uleb128 0x25
 2109 094b 64040000 		.4byte	.LASF97
 2110 094f 01       		.byte	0x1
 2111 0950 CB       		.byte	0xcb
 2112 0951 01       		.byte	0x1
 2113 0952 00000000 		.4byte	.LFB13
 2114 0956 18000000 		.4byte	.LFE13
 2115 095a 02       		.byte	0x2
 2116 095b 7D       		.byte	0x7d
 2117 095c 00       		.sleb128 0
 2118 095d 01       		.byte	0x1
 2119 095e 7E090000 		.4byte	0x97e
 2120 0962 24       		.uleb128 0x24
 2121 0963 18000000 		.4byte	.LVL35
 2122 0967 01       		.byte	0x1
 2123 0968 F70F0000 		.4byte	0xff7
 2124 096c 23       		.uleb128 0x23
 2125 096d 01       		.byte	0x1
 2126 096e 52       		.byte	0x52
 2127 096f 03       		.byte	0x3
 2128 0970 0A       		.byte	0xa
 2129 0971 F005     		.2byte	0x5f0
 2130 0973 23       		.uleb128 0x23
 2131 0974 01       		.byte	0x1
 2132 0975 50       		.byte	0x50
 2133 0976 05       		.byte	0x5
 2134 0977 03       		.byte	0x3
 2135 0978 00000000 		.4byte	.LANCHOR0
 2136 097c 00       		.byte	0
 2137 097d 00       		.byte	0
ARM GAS  /tmp/cczhW0CV.s 			page 39


 2138 097e 25       		.uleb128 0x25
 2139 097f BB010000 		.4byte	.LASF98
 2140 0983 01       		.byte	0x1
 2141 0984 4E       		.byte	0x4e
 2142 0985 01       		.byte	0x1
 2143 0986 00000000 		.4byte	.LFB8
 2144 098a 18000000 		.4byte	.LFE8
 2145 098e 02       		.byte	0x2
 2146 098f 7D       		.byte	0x7d
 2147 0990 00       		.sleb128 0
 2148 0991 01       		.byte	0x1
 2149 0992 B2090000 		.4byte	0x9b2
 2150 0996 24       		.uleb128 0x24
 2151 0997 18000000 		.4byte	.LVL36
 2152 099b 01       		.byte	0x1
 2153 099c F70F0000 		.4byte	0xff7
 2154 09a0 23       		.uleb128 0x23
 2155 09a1 01       		.byte	0x1
 2156 09a2 52       		.byte	0x52
 2157 09a3 03       		.byte	0x3
 2158 09a4 0A       		.byte	0xa
 2159 09a5 F005     		.2byte	0x5f0
 2160 09a7 23       		.uleb128 0x23
 2161 09a8 01       		.byte	0x1
 2162 09a9 50       		.byte	0x50
 2163 09aa 05       		.byte	0x5
 2164 09ab 03       		.byte	0x3
 2165 09ac 00000000 		.4byte	.LANCHOR0
 2166 09b0 00       		.byte	0
 2167 09b1 00       		.byte	0
 2168 09b2 20       		.uleb128 0x20
 2169 09b3 EB010000 		.4byte	.LASF99
 2170 09b7 01       		.byte	0x1
 2171 09b8 8D       		.byte	0x8d
 2172 09b9 01       		.byte	0x1
 2173 09ba 00000000 		.4byte	.LFB11
 2174 09be 40010000 		.4byte	.LFE11
 2175 09c2 11010000 		.4byte	.LLST8
 2176 09c6 01       		.byte	0x1
 2177 09c7 500C0000 		.4byte	0xc50
 2178 09cb 1D       		.uleb128 0x1d
 2179 09cc 6900     		.ascii	"i\000"
 2180 09ce 01       		.byte	0x1
 2181 09cf 8E       		.byte	0x8e
 2182 09d0 29000000 		.4byte	0x29
 2183 09d4 31010000 		.4byte	.LLST9
 2184 09d8 26       		.uleb128 0x26
 2185 09d9 15000000 		.4byte	.LASF100
 2186 09dd 01       		.byte	0x1
 2187 09de 8F       		.byte	0x8f
 2188 09df E4000000 		.4byte	0xe4
 2189 09e3 01       		.byte	0x1
 2190 09e4 55       		.byte	0x55
 2191 09e5 22       		.uleb128 0x22
 2192 09e6 12000000 		.4byte	.LVL38
 2193 09ea 15100000 		.4byte	0x1015
 2194 09ee 030A0000 		.4byte	0xa03
ARM GAS  /tmp/cczhW0CV.s 			page 40


 2195 09f2 23       		.uleb128 0x23
 2196 09f3 01       		.byte	0x1
 2197 09f4 51       		.byte	0x51
 2198 09f5 03       		.byte	0x3
 2199 09f6 74       		.byte	0x74
 2200 09f7 00       		.sleb128 0
 2201 09f8 06       		.byte	0x6
 2202 09f9 23       		.uleb128 0x23
 2203 09fa 01       		.byte	0x1
 2204 09fb 50       		.byte	0x50
 2205 09fc 05       		.byte	0x5
 2206 09fd 03       		.byte	0x3
 2207 09fe 00000000 		.4byte	.LANCHOR1
 2208 0a02 00       		.byte	0
 2209 0a03 22       		.uleb128 0x22
 2210 0a04 1A000000 		.4byte	.LVL39
 2211 0a08 15100000 		.4byte	0x1015
 2212 0a0c 210A0000 		.4byte	0xa21
 2213 0a10 23       		.uleb128 0x23
 2214 0a11 01       		.byte	0x1
 2215 0a12 51       		.byte	0x51
 2216 0a13 03       		.byte	0x3
 2217 0a14 74       		.byte	0x74
 2218 0a15 04       		.sleb128 4
 2219 0a16 06       		.byte	0x6
 2220 0a17 23       		.uleb128 0x23
 2221 0a18 01       		.byte	0x1
 2222 0a19 50       		.byte	0x50
 2223 0a1a 05       		.byte	0x5
 2224 0a1b 03       		.byte	0x3
 2225 0a1c 00000000 		.4byte	.LANCHOR1
 2226 0a20 00       		.byte	0
 2227 0a21 22       		.uleb128 0x22
 2228 0a22 22000000 		.4byte	.LVL40
 2229 0a26 15100000 		.4byte	0x1015
 2230 0a2a 3F0A0000 		.4byte	0xa3f
 2231 0a2e 23       		.uleb128 0x23
 2232 0a2f 01       		.byte	0x1
 2233 0a30 51       		.byte	0x51
 2234 0a31 03       		.byte	0x3
 2235 0a32 74       		.byte	0x74
 2236 0a33 08       		.sleb128 8
 2237 0a34 06       		.byte	0x6
 2238 0a35 23       		.uleb128 0x23
 2239 0a36 01       		.byte	0x1
 2240 0a37 50       		.byte	0x50
 2241 0a38 05       		.byte	0x5
 2242 0a39 03       		.byte	0x3
 2243 0a3a 00000000 		.4byte	.LANCHOR1
 2244 0a3e 00       		.byte	0
 2245 0a3f 22       		.uleb128 0x22
 2246 0a40 2A000000 		.4byte	.LVL41
 2247 0a44 15100000 		.4byte	0x1015
 2248 0a48 5D0A0000 		.4byte	0xa5d
 2249 0a4c 23       		.uleb128 0x23
 2250 0a4d 01       		.byte	0x1
 2251 0a4e 51       		.byte	0x51
ARM GAS  /tmp/cczhW0CV.s 			page 41


 2252 0a4f 03       		.byte	0x3
 2253 0a50 74       		.byte	0x74
 2254 0a51 0C       		.sleb128 12
 2255 0a52 06       		.byte	0x6
 2256 0a53 23       		.uleb128 0x23
 2257 0a54 01       		.byte	0x1
 2258 0a55 50       		.byte	0x50
 2259 0a56 05       		.byte	0x5
 2260 0a57 03       		.byte	0x3
 2261 0a58 00000000 		.4byte	.LANCHOR1
 2262 0a5c 00       		.byte	0
 2263 0a5d 22       		.uleb128 0x22
 2264 0a5e 36000000 		.4byte	.LVL42
 2265 0a62 34100000 		.4byte	0x1034
 2266 0a66 8C0A0000 		.4byte	0xa8c
 2267 0a6a 23       		.uleb128 0x23
 2268 0a6b 01       		.byte	0x1
 2269 0a6c 53       		.byte	0x53
 2270 0a6d 05       		.byte	0x5
 2271 0a6e 03       		.byte	0x3
 2272 0a6f 00000000 		.4byte	.LC0
 2273 0a73 23       		.uleb128 0x23
 2274 0a74 01       		.byte	0x1
 2275 0a75 52       		.byte	0x52
 2276 0a76 05       		.byte	0x5
 2277 0a77 03       		.byte	0x3
 2278 0a78 00000000 		.4byte	thread
 2279 0a7c 23       		.uleb128 0x23
 2280 0a7d 01       		.byte	0x1
 2281 0a7e 51       		.byte	0x51
 2282 0a7f 02       		.byte	0x2
 2283 0a80 75       		.byte	0x75
 2284 0a81 7F       		.sleb128 -1
 2285 0a82 23       		.uleb128 0x23
 2286 0a83 01       		.byte	0x1
 2287 0a84 50       		.byte	0x50
 2288 0a85 05       		.byte	0x5
 2289 0a86 03       		.byte	0x3
 2290 0a87 00000000 		.4byte	.LANCHOR1
 2291 0a8b 00       		.byte	0
 2292 0a8c 22       		.uleb128 0x22
 2293 0a8d 46000000 		.4byte	.LVL43
 2294 0a91 34100000 		.4byte	0x1034
 2295 0a95 BB0A0000 		.4byte	0xabb
 2296 0a99 23       		.uleb128 0x23
 2297 0a9a 01       		.byte	0x1
 2298 0a9b 53       		.byte	0x53
 2299 0a9c 05       		.byte	0x5
 2300 0a9d 03       		.byte	0x3
 2301 0a9e 04000000 		.4byte	.LC1
 2302 0aa2 23       		.uleb128 0x23
 2303 0aa3 01       		.byte	0x1
 2304 0aa4 52       		.byte	0x52
 2305 0aa5 05       		.byte	0x5
 2306 0aa6 03       		.byte	0x3
 2307 0aa7 00000000 		.4byte	thread
 2308 0aab 23       		.uleb128 0x23
ARM GAS  /tmp/cczhW0CV.s 			page 42


 2309 0aac 01       		.byte	0x1
 2310 0aad 51       		.byte	0x51
 2311 0aae 02       		.byte	0x2
 2312 0aaf 75       		.byte	0x75
 2313 0ab0 7E       		.sleb128 -2
 2314 0ab1 23       		.uleb128 0x23
 2315 0ab2 01       		.byte	0x1
 2316 0ab3 50       		.byte	0x50
 2317 0ab4 05       		.byte	0x5
 2318 0ab5 03       		.byte	0x3
 2319 0ab6 00000000 		.4byte	.LANCHOR1
 2320 0aba 00       		.byte	0
 2321 0abb 22       		.uleb128 0x22
 2322 0abc 54000000 		.4byte	.LVL44
 2323 0ac0 34100000 		.4byte	0x1034
 2324 0ac4 EA0A0000 		.4byte	0xaea
 2325 0ac8 23       		.uleb128 0x23
 2326 0ac9 01       		.byte	0x1
 2327 0aca 53       		.byte	0x53
 2328 0acb 05       		.byte	0x5
 2329 0acc 03       		.byte	0x3
 2330 0acd 08000000 		.4byte	.LC2
 2331 0ad1 23       		.uleb128 0x23
 2332 0ad2 01       		.byte	0x1
 2333 0ad3 52       		.byte	0x52
 2334 0ad4 05       		.byte	0x5
 2335 0ad5 03       		.byte	0x3
 2336 0ad6 00000000 		.4byte	thread
 2337 0ada 23       		.uleb128 0x23
 2338 0adb 01       		.byte	0x1
 2339 0adc 51       		.byte	0x51
 2340 0add 02       		.byte	0x2
 2341 0ade 75       		.byte	0x75
 2342 0adf 7D       		.sleb128 -3
 2343 0ae0 23       		.uleb128 0x23
 2344 0ae1 01       		.byte	0x1
 2345 0ae2 50       		.byte	0x50
 2346 0ae3 05       		.byte	0x5
 2347 0ae4 03       		.byte	0x3
 2348 0ae5 00000000 		.4byte	.LANCHOR1
 2349 0ae9 00       		.byte	0
 2350 0aea 22       		.uleb128 0x22
 2351 0aeb 62000000 		.4byte	.LVL45
 2352 0aef 34100000 		.4byte	0x1034
 2353 0af3 190B0000 		.4byte	0xb19
 2354 0af7 23       		.uleb128 0x23
 2355 0af8 01       		.byte	0x1
 2356 0af9 53       		.byte	0x53
 2357 0afa 05       		.byte	0x5
 2358 0afb 03       		.byte	0x3
 2359 0afc 0C000000 		.4byte	.LC3
 2360 0b00 23       		.uleb128 0x23
 2361 0b01 01       		.byte	0x1
 2362 0b02 52       		.byte	0x52
 2363 0b03 05       		.byte	0x5
 2364 0b04 03       		.byte	0x3
 2365 0b05 00000000 		.4byte	thread
ARM GAS  /tmp/cczhW0CV.s 			page 43


 2366 0b09 23       		.uleb128 0x23
 2367 0b0a 01       		.byte	0x1
 2368 0b0b 51       		.byte	0x51
 2369 0b0c 02       		.byte	0x2
 2370 0b0d 75       		.byte	0x75
 2371 0b0e 7C       		.sleb128 -4
 2372 0b0f 23       		.uleb128 0x23
 2373 0b10 01       		.byte	0x1
 2374 0b11 50       		.byte	0x50
 2375 0b12 05       		.byte	0x5
 2376 0b13 03       		.byte	0x3
 2377 0b14 00000000 		.4byte	.LANCHOR1
 2378 0b18 00       		.byte	0
 2379 0b19 22       		.uleb128 0x22
 2380 0b1a 70000000 		.4byte	.LVL46
 2381 0b1e 34100000 		.4byte	0x1034
 2382 0b22 480B0000 		.4byte	0xb48
 2383 0b26 23       		.uleb128 0x23
 2384 0b27 01       		.byte	0x1
 2385 0b28 53       		.byte	0x53
 2386 0b29 05       		.byte	0x5
 2387 0b2a 03       		.byte	0x3
 2388 0b2b 10000000 		.4byte	.LC4
 2389 0b2f 23       		.uleb128 0x23
 2390 0b30 01       		.byte	0x1
 2391 0b31 52       		.byte	0x52
 2392 0b32 05       		.byte	0x5
 2393 0b33 03       		.byte	0x3
 2394 0b34 00000000 		.4byte	thread
 2395 0b38 23       		.uleb128 0x23
 2396 0b39 01       		.byte	0x1
 2397 0b3a 51       		.byte	0x51
 2398 0b3b 02       		.byte	0x2
 2399 0b3c 75       		.byte	0x75
 2400 0b3d 7B       		.sleb128 -5
 2401 0b3e 23       		.uleb128 0x23
 2402 0b3f 01       		.byte	0x1
 2403 0b40 50       		.byte	0x50
 2404 0b41 05       		.byte	0x5
 2405 0b42 03       		.byte	0x3
 2406 0b43 00000000 		.4byte	.LANCHOR1
 2407 0b47 00       		.byte	0
 2408 0b48 22       		.uleb128 0x22
 2409 0b49 90000000 		.4byte	.LVL47
 2410 0b4d 850F0000 		.4byte	0xf85
 2411 0b51 5B0B0000 		.4byte	0xb5b
 2412 0b55 23       		.uleb128 0x23
 2413 0b56 01       		.byte	0x1
 2414 0b57 50       		.byte	0x50
 2415 0b58 01       		.byte	0x1
 2416 0b59 31       		.byte	0x31
 2417 0b5a 00       		.byte	0
 2418 0b5b 1F       		.uleb128 0x1f
 2419 0b5c 98000000 		.4byte	.LVL50
 2420 0b60 5B100000 		.4byte	0x105b
 2421 0b64 22       		.uleb128 0x22
 2422 0b65 A0000000 		.4byte	.LVL51
ARM GAS  /tmp/cczhW0CV.s 			page 44


 2423 0b69 65100000 		.4byte	0x1065
 2424 0b6d 800B0000 		.4byte	0xb80
 2425 0b71 23       		.uleb128 0x23
 2426 0b72 01       		.byte	0x1
 2427 0b73 51       		.byte	0x51
 2428 0b74 05       		.byte	0x5
 2429 0b75 03       		.byte	0x3
 2430 0b76 14000000 		.4byte	.LC5
 2431 0b7a 23       		.uleb128 0x23
 2432 0b7b 01       		.byte	0x1
 2433 0b7c 50       		.byte	0x50
 2434 0b7d 01       		.byte	0x1
 2435 0b7e 32       		.byte	0x32
 2436 0b7f 00       		.byte	0
 2437 0b80 22       		.uleb128 0x22
 2438 0b81 AA000000 		.4byte	.LVL52
 2439 0b85 88100000 		.4byte	0x1088
 2440 0b89 970B0000 		.4byte	0xb97
 2441 0b8d 23       		.uleb128 0x23
 2442 0b8e 01       		.byte	0x1
 2443 0b8f 50       		.byte	0x50
 2444 0b90 05       		.byte	0x5
 2445 0b91 03       		.byte	0x3
 2446 0b92 00000000 		.4byte	.LANCHOR1
 2447 0b96 00       		.byte	0
 2448 0b97 22       		.uleb128 0x22
 2449 0b98 B6000000 		.4byte	.LVL53
 2450 0b9c 850F0000 		.4byte	0xf85
 2451 0ba0 AA0B0000 		.4byte	0xbaa
 2452 0ba4 23       		.uleb128 0x23
 2453 0ba5 01       		.byte	0x1
 2454 0ba6 50       		.byte	0x50
 2455 0ba7 01       		.byte	0x1
 2456 0ba8 33       		.byte	0x33
 2457 0ba9 00       		.byte	0
 2458 0baa 22       		.uleb128 0x22
 2459 0bab C0000000 		.4byte	.LVL55
 2460 0baf 88100000 		.4byte	0x1088
 2461 0bb3 C10B0000 		.4byte	0xbc1
 2462 0bb7 23       		.uleb128 0x23
 2463 0bb8 01       		.byte	0x1
 2464 0bb9 50       		.byte	0x50
 2465 0bba 05       		.byte	0x5
 2466 0bbb 03       		.byte	0x3
 2467 0bbc 00000000 		.4byte	.LANCHOR1
 2468 0bc0 00       		.byte	0
 2469 0bc1 22       		.uleb128 0x22
 2470 0bc2 CC000000 		.4byte	.LVL56
 2471 0bc6 850F0000 		.4byte	0xf85
 2472 0bca D40B0000 		.4byte	0xbd4
 2473 0bce 23       		.uleb128 0x23
 2474 0bcf 01       		.byte	0x1
 2475 0bd0 50       		.byte	0x50
 2476 0bd1 01       		.byte	0x1
 2477 0bd2 33       		.byte	0x33
 2478 0bd3 00       		.byte	0
 2479 0bd4 22       		.uleb128 0x22
ARM GAS  /tmp/cczhW0CV.s 			page 45


 2480 0bd5 D6000000 		.4byte	.LVL58
 2481 0bd9 88100000 		.4byte	0x1088
 2482 0bdd EB0B0000 		.4byte	0xbeb
 2483 0be1 23       		.uleb128 0x23
 2484 0be2 01       		.byte	0x1
 2485 0be3 50       		.byte	0x50
 2486 0be4 05       		.byte	0x5
 2487 0be5 03       		.byte	0x3
 2488 0be6 00000000 		.4byte	.LANCHOR1
 2489 0bea 00       		.byte	0
 2490 0beb 22       		.uleb128 0x22
 2491 0bec E2000000 		.4byte	.LVL59
 2492 0bf0 850F0000 		.4byte	0xf85
 2493 0bf4 FE0B0000 		.4byte	0xbfe
 2494 0bf8 23       		.uleb128 0x23
 2495 0bf9 01       		.byte	0x1
 2496 0bfa 50       		.byte	0x50
 2497 0bfb 01       		.byte	0x1
 2498 0bfc 33       		.byte	0x33
 2499 0bfd 00       		.byte	0
 2500 0bfe 22       		.uleb128 0x22
 2501 0bff EC000000 		.4byte	.LVL61
 2502 0c03 88100000 		.4byte	0x1088
 2503 0c07 150C0000 		.4byte	0xc15
 2504 0c0b 23       		.uleb128 0x23
 2505 0c0c 01       		.byte	0x1
 2506 0c0d 50       		.byte	0x50
 2507 0c0e 05       		.byte	0x5
 2508 0c0f 03       		.byte	0x3
 2509 0c10 00000000 		.4byte	.LANCHOR1
 2510 0c14 00       		.byte	0
 2511 0c15 22       		.uleb128 0x22
 2512 0c16 F8000000 		.4byte	.LVL62
 2513 0c1a 850F0000 		.4byte	0xf85
 2514 0c1e 280C0000 		.4byte	0xc28
 2515 0c22 23       		.uleb128 0x23
 2516 0c23 01       		.byte	0x1
 2517 0c24 50       		.byte	0x50
 2518 0c25 01       		.byte	0x1
 2519 0c26 33       		.byte	0x33
 2520 0c27 00       		.byte	0
 2521 0c28 22       		.uleb128 0x22
 2522 0c29 02010000 		.4byte	.LVL64
 2523 0c2d 88100000 		.4byte	0x1088
 2524 0c31 3F0C0000 		.4byte	0xc3f
 2525 0c35 23       		.uleb128 0x23
 2526 0c36 01       		.byte	0x1
 2527 0c37 50       		.byte	0x50
 2528 0c38 05       		.byte	0x5
 2529 0c39 03       		.byte	0x3
 2530 0c3a 00000000 		.4byte	.LANCHOR1
 2531 0c3e 00       		.byte	0
 2532 0c3f 24       		.uleb128 0x24
 2533 0c40 14010000 		.4byte	.LVL65
 2534 0c44 01       		.byte	0x1
 2535 0c45 850F0000 		.4byte	0xf85
 2536 0c49 23       		.uleb128 0x23
ARM GAS  /tmp/cczhW0CV.s 			page 46


 2537 0c4a 01       		.byte	0x1
 2538 0c4b 50       		.byte	0x50
 2539 0c4c 01       		.byte	0x1
 2540 0c4d 34       		.byte	0x34
 2541 0c4e 00       		.byte	0
 2542 0c4f 00       		.byte	0
 2543 0c50 25       		.uleb128 0x25
 2544 0c51 A1000000 		.4byte	.LASF101
 2545 0c55 01       		.byte	0x1
 2546 0c56 88       		.byte	0x88
 2547 0c57 01       		.byte	0x1
 2548 0c58 00000000 		.4byte	.LFB10
 2549 0c5c 12000000 		.4byte	.LFE10
 2550 0c60 02       		.byte	0x2
 2551 0c61 7D       		.byte	0x7d
 2552 0c62 00       		.sleb128 0
 2553 0c63 01       		.byte	0x1
 2554 0c64 890C0000 		.4byte	0xc89
 2555 0c68 24       		.uleb128 0x24
 2556 0c69 12000000 		.4byte	.LVL66
 2557 0c6d 01       		.byte	0x1
 2558 0c6e A0100000 		.4byte	0x10a0
 2559 0c72 23       		.uleb128 0x23
 2560 0c73 01       		.byte	0x1
 2561 0c74 52       		.byte	0x52
 2562 0c75 01       		.byte	0x1
 2563 0c76 30       		.byte	0x30
 2564 0c77 23       		.uleb128 0x23
 2565 0c78 01       		.byte	0x1
 2566 0c79 51       		.byte	0x51
 2567 0c7a 03       		.byte	0x3
 2568 0c7b 0A       		.byte	0xa
 2569 0c7c 3001     		.2byte	0x130
 2570 0c7e 23       		.uleb128 0x23
 2571 0c7f 01       		.byte	0x1
 2572 0c80 50       		.byte	0x50
 2573 0c81 05       		.byte	0x5
 2574 0c82 03       		.byte	0x3
 2575 0c83 00000000 		.4byte	.LANCHOR1
 2576 0c87 00       		.byte	0
 2577 0c88 00       		.byte	0
 2578 0c89 20       		.uleb128 0x20
 2579 0c8a 36010000 		.4byte	.LASF102
 2580 0c8e 01       		.byte	0x1
 2581 0c8f 53       		.byte	0x53
 2582 0c90 01       		.byte	0x1
 2583 0c91 00000000 		.4byte	.LFB9
 2584 0c95 F4000000 		.4byte	.LFE9
 2585 0c99 B1010000 		.4byte	.LLST10
 2586 0c9d 01       		.byte	0x1
 2587 0c9e 560E0000 		.4byte	0xe56
 2588 0ca2 27       		.uleb128 0x27
 2589 0ca3 6E00     		.ascii	"n\000"
 2590 0ca5 01       		.byte	0x1
 2591 0ca6 54       		.byte	0x54
 2592 0ca7 30000000 		.4byte	0x30
 2593 0cab 02       		.byte	0x2
ARM GAS  /tmp/cczhW0CV.s 			page 47


 2594 0cac 91       		.byte	0x91
 2595 0cad 68       		.sleb128 -24
 2596 0cae 1D       		.uleb128 0x1d
 2597 0caf 737A00   		.ascii	"sz\000"
 2598 0cb2 01       		.byte	0x1
 2599 0cb3 54       		.byte	0x54
 2600 0cb4 30000000 		.4byte	0x30
 2601 0cb8 DD010000 		.4byte	.LLST11
 2602 0cbc 1D       		.uleb128 0x1d
 2603 0cbd 703100   		.ascii	"p1\000"
 2604 0cc0 01       		.byte	0x1
 2605 0cc1 55       		.byte	0x55
 2606 0cc2 B1020000 		.4byte	0x2b1
 2607 0cc6 F1010000 		.4byte	.LLST12
 2608 0cca 26       		.uleb128 0x26
 2609 0ccb 15000000 		.4byte	.LASF100
 2610 0ccf 01       		.byte	0x1
 2611 0cd0 56       		.byte	0x56
 2612 0cd1 E4000000 		.4byte	0xe4
 2613 0cd5 01       		.byte	0x1
 2614 0cd6 55       		.byte	0x55
 2615 0cd7 22       		.uleb128 0x22
 2616 0cd8 12000000 		.4byte	.LVL68
 2617 0cdc BE100000 		.4byte	0x10be
 2618 0ce0 F40C0000 		.4byte	0xcf4
 2619 0ce4 23       		.uleb128 0x23
 2620 0ce5 01       		.byte	0x1
 2621 0ce6 51       		.byte	0x51
 2622 0ce7 02       		.byte	0x2
 2623 0ce8 91       		.byte	0x91
 2624 0ce9 6C       		.sleb128 -20
 2625 0cea 23       		.uleb128 0x23
 2626 0ceb 01       		.byte	0x1
 2627 0cec 50       		.byte	0x50
 2628 0ced 05       		.byte	0x5
 2629 0cee 03       		.byte	0x3
 2630 0cef 00000000 		.4byte	.LANCHOR0
 2631 0cf3 00       		.byte	0
 2632 0cf4 22       		.uleb128 0x22
 2633 0cf5 24000000 		.4byte	.LVL69
 2634 0cf9 590F0000 		.4byte	0xf59
 2635 0cfd 2B0D0000 		.4byte	0xd2b
 2636 0d01 23       		.uleb128 0x23
 2637 0d02 01       		.byte	0x1
 2638 0d03 53       		.byte	0x53
 2639 0d04 05       		.byte	0x5
 2640 0d05 03       		.byte	0x3
 2641 0d06 00000000 		.4byte	thread
 2642 0d0a 23       		.uleb128 0x23
 2643 0d0b 01       		.byte	0x1
 2644 0d0c 52       		.byte	0x52
 2645 0d0d 02       		.byte	0x2
 2646 0d0e 75       		.byte	0x75
 2647 0d0f 7F       		.sleb128 -1
 2648 0d10 23       		.uleb128 0x23
 2649 0d11 01       		.byte	0x1
 2650 0d12 51       		.byte	0x51
ARM GAS  /tmp/cczhW0CV.s 			page 48


 2651 0d13 03       		.byte	0x3
 2652 0d14 0A       		.byte	0xa
 2653 0d15 3001     		.2byte	0x130
 2654 0d17 23       		.uleb128 0x23
 2655 0d18 01       		.byte	0x1
 2656 0d19 50       		.byte	0x50
 2657 0d1a 05       		.byte	0x5
 2658 0d1b 03       		.byte	0x3
 2659 0d1c 00000000 		.4byte	.LANCHOR0
 2660 0d20 23       		.uleb128 0x23
 2661 0d21 02       		.byte	0x2
 2662 0d22 7D       		.byte	0x7d
 2663 0d23 00       		.sleb128 0
 2664 0d24 05       		.byte	0x5
 2665 0d25 03       		.byte	0x3
 2666 0d26 00000000 		.4byte	.LC0
 2667 0d2a 00       		.byte	0
 2668 0d2b 22       		.uleb128 0x22
 2669 0d2c 3A000000 		.4byte	.LVL70
 2670 0d30 590F0000 		.4byte	0xf59
 2671 0d34 5F0D0000 		.4byte	0xd5f
 2672 0d38 23       		.uleb128 0x23
 2673 0d39 01       		.byte	0x1
 2674 0d3a 53       		.byte	0x53
 2675 0d3b 05       		.byte	0x5
 2676 0d3c 03       		.byte	0x3
 2677 0d3d 00000000 		.4byte	thread
 2678 0d41 23       		.uleb128 0x23
 2679 0d42 01       		.byte	0x1
 2680 0d43 52       		.byte	0x52
 2681 0d44 02       		.byte	0x2
 2682 0d45 75       		.byte	0x75
 2683 0d46 7E       		.sleb128 -2
 2684 0d47 23       		.uleb128 0x23
 2685 0d48 01       		.byte	0x1
 2686 0d49 51       		.byte	0x51
 2687 0d4a 03       		.byte	0x3
 2688 0d4b 0A       		.byte	0xa
 2689 0d4c 3001     		.2byte	0x130
 2690 0d4e 23       		.uleb128 0x23
 2691 0d4f 01       		.byte	0x1
 2692 0d50 50       		.byte	0x50
 2693 0d51 05       		.byte	0x5
 2694 0d52 03       		.byte	0x3
 2695 0d53 00000000 		.4byte	.LANCHOR0
 2696 0d57 23       		.uleb128 0x23
 2697 0d58 02       		.byte	0x2
 2698 0d59 7D       		.byte	0x7d
 2699 0d5a 00       		.sleb128 0
 2700 0d5b 02       		.byte	0x2
 2701 0d5c 76       		.byte	0x76
 2702 0d5d 00       		.sleb128 0
 2703 0d5e 00       		.byte	0
 2704 0d5f 22       		.uleb128 0x22
 2705 0d60 44000000 		.4byte	.LVL71
 2706 0d64 BE100000 		.4byte	0x10be
 2707 0d68 7C0D0000 		.4byte	0xd7c
ARM GAS  /tmp/cczhW0CV.s 			page 49


 2708 0d6c 23       		.uleb128 0x23
 2709 0d6d 01       		.byte	0x1
 2710 0d6e 51       		.byte	0x51
 2711 0d6f 02       		.byte	0x2
 2712 0d70 91       		.byte	0x91
 2713 0d71 68       		.sleb128 -24
 2714 0d72 23       		.uleb128 0x23
 2715 0d73 01       		.byte	0x1
 2716 0d74 50       		.byte	0x50
 2717 0d75 05       		.byte	0x5
 2718 0d76 03       		.byte	0x3
 2719 0d77 00000000 		.4byte	.LANCHOR0
 2720 0d7b 00       		.byte	0
 2721 0d7c 22       		.uleb128 0x22
 2722 0d7d 4C000000 		.4byte	.LVL72
 2723 0d81 E1100000 		.4byte	0x10e1
 2724 0d85 930D0000 		.4byte	0xd93
 2725 0d89 23       		.uleb128 0x23
 2726 0d8a 01       		.byte	0x1
 2727 0d8b 50       		.byte	0x50
 2728 0d8c 05       		.byte	0x5
 2729 0d8d 03       		.byte	0x3
 2730 0d8e 00000000 		.4byte	.LANCHOR0
 2731 0d92 00       		.byte	0
 2732 0d93 22       		.uleb128 0x22
 2733 0d94 60000000 		.4byte	.LVL75
 2734 0d98 590F0000 		.4byte	0xf59
 2735 0d9c CA0D0000 		.4byte	0xdca
 2736 0da0 23       		.uleb128 0x23
 2737 0da1 01       		.byte	0x1
 2738 0da2 53       		.byte	0x53
 2739 0da3 05       		.byte	0x5
 2740 0da4 03       		.byte	0x3
 2741 0da5 00000000 		.4byte	thread
 2742 0da9 23       		.uleb128 0x23
 2743 0daa 01       		.byte	0x1
 2744 0dab 52       		.byte	0x52
 2745 0dac 02       		.byte	0x2
 2746 0dad 75       		.byte	0x75
 2747 0dae 7D       		.sleb128 -3
 2748 0daf 23       		.uleb128 0x23
 2749 0db0 01       		.byte	0x1
 2750 0db1 51       		.byte	0x51
 2751 0db2 03       		.byte	0x3
 2752 0db3 0A       		.byte	0xa
 2753 0db4 3001     		.2byte	0x130
 2754 0db6 23       		.uleb128 0x23
 2755 0db7 01       		.byte	0x1
 2756 0db8 50       		.byte	0x50
 2757 0db9 05       		.byte	0x5
 2758 0dba 03       		.byte	0x3
 2759 0dbb 00000000 		.4byte	.LANCHOR0
 2760 0dbf 23       		.uleb128 0x23
 2761 0dc0 02       		.byte	0x2
 2762 0dc1 7D       		.byte	0x7d
 2763 0dc2 00       		.sleb128 0
 2764 0dc3 05       		.byte	0x5
ARM GAS  /tmp/cczhW0CV.s 			page 50


 2765 0dc4 03       		.byte	0x3
 2766 0dc5 08000000 		.4byte	.LC2
 2767 0dc9 00       		.byte	0
 2768 0dca 22       		.uleb128 0x22
 2769 0dcb 68000000 		.4byte	.LVL76
 2770 0dcf FE100000 		.4byte	0x10fe
 2771 0dd3 DE0D0000 		.4byte	0xdde
 2772 0dd7 23       		.uleb128 0x23
 2773 0dd8 01       		.byte	0x1
 2774 0dd9 50       		.byte	0x50
 2775 0dda 02       		.byte	0x2
 2776 0ddb 76       		.byte	0x76
 2777 0ddc 00       		.sleb128 0
 2778 0ddd 00       		.byte	0
 2779 0dde 22       		.uleb128 0x22
 2780 0ddf 7E000000 		.4byte	.LVL77
 2781 0de3 850F0000 		.4byte	0xf85
 2782 0de7 F10D0000 		.4byte	0xdf1
 2783 0deb 23       		.uleb128 0x23
 2784 0dec 01       		.byte	0x1
 2785 0ded 50       		.byte	0x50
 2786 0dee 01       		.byte	0x1
 2787 0def 31       		.byte	0x31
 2788 0df0 00       		.byte	0
 2789 0df1 1F       		.uleb128 0x1f
 2790 0df2 88000000 		.4byte	.LVL78
 2791 0df6 5B100000 		.4byte	0x105b
 2792 0dfa 22       		.uleb128 0x22
 2793 0dfb 90000000 		.4byte	.LVL79
 2794 0dff 65100000 		.4byte	0x1065
 2795 0e03 160E0000 		.4byte	0xe16
 2796 0e07 23       		.uleb128 0x23
 2797 0e08 01       		.byte	0x1
 2798 0e09 51       		.byte	0x51
 2799 0e0a 05       		.byte	0x5
 2800 0e0b 03       		.byte	0x3
 2801 0e0c 1C000000 		.4byte	.LC6
 2802 0e10 23       		.uleb128 0x23
 2803 0e11 01       		.byte	0x1
 2804 0e12 50       		.byte	0x50
 2805 0e13 01       		.byte	0x1
 2806 0e14 32       		.byte	0x32
 2807 0e15 00       		.byte	0
 2808 0e16 22       		.uleb128 0x22
 2809 0e17 9C000000 		.4byte	.LVL80
 2810 0e1b BE100000 		.4byte	0x10be
 2811 0e1f 330E0000 		.4byte	0xe33
 2812 0e23 23       		.uleb128 0x23
 2813 0e24 01       		.byte	0x1
 2814 0e25 51       		.byte	0x51
 2815 0e26 02       		.byte	0x2
 2816 0e27 91       		.byte	0x91
 2817 0e28 68       		.sleb128 -24
 2818 0e29 23       		.uleb128 0x23
 2819 0e2a 01       		.byte	0x1
 2820 0e2b 50       		.byte	0x50
 2821 0e2c 05       		.byte	0x5
ARM GAS  /tmp/cczhW0CV.s 			page 51


 2822 0e2d 03       		.byte	0x3
 2823 0e2e 00000000 		.4byte	.LANCHOR0
 2824 0e32 00       		.byte	0
 2825 0e33 22       		.uleb128 0x22
 2826 0e34 AA000000 		.4byte	.LVL81
 2827 0e38 850F0000 		.4byte	0xf85
 2828 0e3c 460E0000 		.4byte	0xe46
 2829 0e40 23       		.uleb128 0x23
 2830 0e41 01       		.byte	0x1
 2831 0e42 50       		.byte	0x50
 2832 0e43 01       		.byte	0x1
 2833 0e44 33       		.byte	0x33
 2834 0e45 00       		.byte	0
 2835 0e46 28       		.uleb128 0x28
 2836 0e47 C0000000 		.4byte	.LVL83
 2837 0e4b 850F0000 		.4byte	0xf85
 2838 0e4f 23       		.uleb128 0x23
 2839 0e50 01       		.byte	0x1
 2840 0e51 50       		.byte	0x50
 2841 0e52 01       		.byte	0x1
 2842 0e53 34       		.byte	0x34
 2843 0e54 00       		.byte	0
 2844 0e55 00       		.byte	0
 2845 0e56 26       		.uleb128 0x26
 2846 0e57 7A050000 		.4byte	.LASF103
 2847 0e5b 01       		.byte	0x1
 2848 0e5c 36       		.byte	0x36
 2849 0e5d 4C040000 		.4byte	0x44c
 2850 0e61 05       		.byte	0x5
 2851 0e62 03       		.byte	0x3
 2852 0e63 00000000 		.4byte	heap1
 2853 0e67 27       		.uleb128 0x27
 2854 0e68 6D703100 		.ascii	"mp1\000"
 2855 0e6c 01       		.byte	0x1
 2856 0e6d 39       		.byte	0x39
 2857 0e6e 51050000 		.4byte	0x551
 2858 0e72 05       		.byte	0x5
 2859 0e73 03       		.byte	0x3
 2860 0e74 00000000 		.4byte	mp1
 2861 0e78 29       		.uleb128 0x29
 2862 0e79 22050000 		.4byte	.LASF104
 2863 0e7d 08       		.byte	0x8
 2864 0e7e 68       		.byte	0x68
 2865 0e7f D8030000 		.4byte	0x3d8
 2866 0e83 01       		.byte	0x1
 2867 0e84 01       		.byte	0x1
 2868 0e85 17       		.uleb128 0x17
 2869 0e86 73020000 		.4byte	0x273
 2870 0e8a 950E0000 		.4byte	0xe95
 2871 0e8e 18       		.uleb128 0x18
 2872 0e8f 6F030000 		.4byte	0x36f
 2873 0e93 04       		.byte	0x4
 2874 0e94 00       		.byte	0
 2875 0e95 29       		.uleb128 0x29
 2876 0e96 C9030000 		.4byte	.LASF105
 2877 0e9a 0D       		.byte	0xd
 2878 0e9b A5       		.byte	0xa5
ARM GAS  /tmp/cczhW0CV.s 			page 52


 2879 0e9c 850E0000 		.4byte	0xe85
 2880 0ea0 01       		.byte	0x1
 2881 0ea1 01       		.byte	0x1
 2882 0ea2 29       		.uleb128 0x29
 2883 0ea3 69000000 		.4byte	.LASF106
 2884 0ea7 0D       		.byte	0xd
 2885 0ea8 A6       		.byte	0xa6
 2886 0ea9 7C060000 		.4byte	0x67c
 2887 0ead 01       		.byte	0x1
 2888 0eae 01       		.byte	0x1
 2889 0eaf 17       		.uleb128 0x17
 2890 0eb0 B1020000 		.4byte	0x2b1
 2891 0eb4 BA0E0000 		.4byte	0xeba
 2892 0eb8 2A       		.uleb128 0x2a
 2893 0eb9 00       		.byte	0
 2894 0eba 2B       		.uleb128 0x2b
 2895 0ebb 776100   		.ascii	"wa\000"
 2896 0ebe 0D       		.byte	0xd
 2897 0ebf A7       		.byte	0xa7
 2898 0ec0 C60E0000 		.4byte	0xec6
 2899 0ec4 01       		.byte	0x1
 2900 0ec5 01       		.byte	0x1
 2901 0ec6 14       		.uleb128 0x14
 2902 0ec7 AF0E0000 		.4byte	0xeaf
 2903 0ecb 2C       		.uleb128 0x2c
 2904 0ecc 8D020000 		.4byte	.LASF107
 2905 0ed0 01       		.byte	0x1
 2906 0ed1 75       		.byte	0x75
 2907 0ed2 DD0E0000 		.4byte	0xedd
 2908 0ed6 01       		.byte	0x1
 2909 0ed7 05       		.byte	0x5
 2910 0ed8 03       		.byte	0x3
 2911 0ed9 00000000 		.4byte	testdyn1
 2912 0edd 14       		.uleb128 0x14
 2913 0ede D0050000 		.4byte	0x5d0
 2914 0ee2 2C       		.uleb128 0x2c
 2915 0ee3 96020000 		.4byte	.LASF108
 2916 0ee7 01       		.byte	0x1
 2917 0ee8 AD       		.byte	0xad
 2918 0ee9 DD0E0000 		.4byte	0xedd
 2919 0eed 01       		.byte	0x1
 2920 0eee 05       		.byte	0x5
 2921 0eef 03       		.byte	0x3
 2922 0ef0 00000000 		.4byte	testdyn2
 2923 0ef4 2C       		.uleb128 0x2c
 2924 0ef5 9F020000 		.4byte	.LASF109
 2925 0ef9 01       		.byte	0x1
 2926 0efa EE       		.byte	0xee
 2927 0efb DD0E0000 		.4byte	0xedd
 2928 0eff 01       		.byte	0x1
 2929 0f00 05       		.byte	0x5
 2930 0f01 03       		.byte	0x3
 2931 0f02 00000000 		.4byte	testdyn3
 2932 0f06 17       		.uleb128 0x17
 2933 0f07 160F0000 		.4byte	0xf16
 2934 0f0b 160F0000 		.4byte	0xf16
 2935 0f0f 18       		.uleb128 0x18
ARM GAS  /tmp/cczhW0CV.s 			page 53


 2936 0f10 6F030000 		.4byte	0x36f
 2937 0f14 03       		.byte	0x3
 2938 0f15 00       		.byte	0
 2939 0f16 09       		.uleb128 0x9
 2940 0f17 04       		.byte	0x4
 2941 0f18 DD0E0000 		.4byte	0xedd
 2942 0f1c 2C       		.uleb128 0x2c
 2943 0f1d B1040000 		.4byte	.LASF110
 2944 0f21 01       		.byte	0x1
 2945 0f22 FA       		.byte	0xfa
 2946 0f23 2E0F0000 		.4byte	0xf2e
 2947 0f27 01       		.byte	0x1
 2948 0f28 05       		.byte	0x5
 2949 0f29 03       		.byte	0x3
 2950 0f2a 00000000 		.4byte	patterndyn
 2951 0f2e 14       		.uleb128 0x14
 2952 0f2f 060F0000 		.4byte	0xf06
 2953 0f33 2D       		.uleb128 0x2d
 2954 0f34 01       		.byte	0x1
 2955 0f35 6E000000 		.4byte	.LASF129
 2956 0f39 0E       		.byte	0xe
 2957 0f3a 78       		.byte	0x78
 2958 0f3b 01       		.byte	0x1
 2959 0f3c 73020000 		.4byte	0x273
 2960 0f40 01       		.byte	0x1
 2961 0f41 2E       		.uleb128 0x2e
 2962 0f42 01       		.byte	0x1
 2963 0f43 54040000 		.4byte	.LASF111
 2964 0f47 0E       		.byte	0xe
 2965 0f48 79       		.byte	0x79
 2966 0f49 01       		.byte	0x1
 2967 0f4a 73020000 		.4byte	0x273
 2968 0f4e 01       		.byte	0x1
 2969 0f4f 590F0000 		.4byte	0xf59
 2970 0f53 0F       		.uleb128 0xf
 2971 0f54 73020000 		.4byte	0x273
 2972 0f58 00       		.byte	0
 2973 0f59 2E       		.uleb128 0x2e
 2974 0f5a 01       		.byte	0x1
 2975 0f5b 11010000 		.4byte	.LASF112
 2976 0f5f 0F       		.byte	0xf
 2977 0f60 35       		.byte	0x35
 2978 0f61 01       		.byte	0x1
 2979 0f62 73020000 		.4byte	0x273
 2980 0f66 01       		.byte	0x1
 2981 0f67 850F0000 		.4byte	0xf85
 2982 0f6b 0F       		.uleb128 0xf
 2983 0f6c D4040000 		.4byte	0x4d4
 2984 0f70 0F       		.uleb128 0xf
 2985 0f71 30000000 		.4byte	0x30
 2986 0f75 0F       		.uleb128 0xf
 2987 0f76 E4000000 		.4byte	0xe4
 2988 0f7a 0F       		.uleb128 0xf
 2989 0f7b AF050000 		.4byte	0x5af
 2990 0f7f 0F       		.uleb128 0xf
 2991 0f80 B1020000 		.4byte	0x2b1
 2992 0f84 00       		.byte	0
ARM GAS  /tmp/cczhW0CV.s 			page 54


 2993 0f85 2E       		.uleb128 0x2e
 2994 0f86 01       		.byte	0x1
 2995 0f87 55050000 		.4byte	.LASF113
 2996 0f8b 0D       		.byte	0xd
 2997 0f8c 58       		.byte	0x58
 2998 0f8d 01       		.byte	0x1
 2999 0f8e A6000000 		.4byte	0xa6
 3000 0f92 01       		.byte	0x1
 3001 0f93 A20F0000 		.4byte	0xfa2
 3002 0f97 0F       		.uleb128 0xf
 3003 0f98 3B000000 		.4byte	0x3b
 3004 0f9c 0F       		.uleb128 0xf
 3005 0f9d A6000000 		.4byte	0xa6
 3006 0fa1 00       		.byte	0
 3007 0fa2 2E       		.uleb128 0x2e
 3008 0fa3 01       		.byte	0x1
 3009 0fa4 78020000 		.4byte	.LASF114
 3010 0fa8 0F       		.byte	0xf
 3011 0fa9 32       		.byte	0x32
 3012 0faa 01       		.byte	0x1
 3013 0fab 73020000 		.4byte	0x273
 3014 0faf 01       		.byte	0x1
 3015 0fb0 BA0F0000 		.4byte	0xfba
 3016 0fb4 0F       		.uleb128 0xf
 3017 0fb5 73020000 		.4byte	0x273
 3018 0fb9 00       		.byte	0
 3019 0fba 2F       		.uleb128 0x2f
 3020 0fbb 01       		.byte	0x1
 3021 0fbc FA030000 		.4byte	.LASF115
 3022 0fc0 0F       		.byte	0xf
 3023 0fc1 33       		.byte	0x33
 3024 0fc2 01       		.byte	0x1
 3025 0fc3 01       		.byte	0x1
 3026 0fc4 CE0F0000 		.4byte	0xfce
 3027 0fc8 0F       		.uleb128 0xf
 3028 0fc9 73020000 		.4byte	0x273
 3029 0fcd 00       		.byte	0
 3030 0fce 30       		.uleb128 0x30
 3031 0fcf 01       		.byte	0x1
 3032 0fd0 2E040000 		.4byte	.LASF116
 3033 0fd4 06       		.byte	0x6
 3034 0fd5 6E01     		.2byte	0x16e
 3035 0fd7 01       		.byte	0x1
 3036 0fd8 01       		.byte	0x1
 3037 0fd9 E30F0000 		.4byte	0xfe3
 3038 0fdd 0F       		.uleb128 0xf
 3039 0fde 05010000 		.4byte	0x105
 3040 0fe2 00       		.byte	0
 3041 0fe3 2F       		.uleb128 0x2f
 3042 0fe4 01       		.byte	0x1
 3043 0fe5 E3000000 		.4byte	.LASF117
 3044 0fe9 0D       		.byte	0xd
 3045 0fea 56       		.byte	0x56
 3046 0feb 01       		.byte	0x1
 3047 0fec 01       		.byte	0x1
 3048 0fed F70F0000 		.4byte	0xff7
 3049 0ff1 0F       		.uleb128 0xf
ARM GAS  /tmp/cczhW0CV.s 			page 55


 3050 0ff2 9C050000 		.4byte	0x59c
 3051 0ff6 00       		.byte	0
 3052 0ff7 2F       		.uleb128 0x2f
 3053 0ff8 01       		.byte	0x1
 3054 0ff9 8A000000 		.4byte	.LASF118
 3055 0ffd 0B       		.byte	0xb
 3056 0ffe 50       		.byte	0x50
 3057 0fff 01       		.byte	0x1
 3058 1000 01       		.byte	0x1
 3059 1001 15100000 		.4byte	0x1015
 3060 1005 0F       		.uleb128 0xf
 3061 1006 D4040000 		.4byte	0x4d4
 3062 100a 0F       		.uleb128 0xf
 3063 100b B1020000 		.4byte	0x2b1
 3064 100f 0F       		.uleb128 0xf
 3065 1010 30000000 		.4byte	0x30
 3066 1014 00       		.byte	0
 3067 1015 2F       		.uleb128 0x2f
 3068 1016 01       		.byte	0x1
 3069 1017 3C050000 		.4byte	.LASF119
 3070 101b 0C       		.byte	0xc
 3071 101c 7D       		.byte	0x7d
 3072 101d 01       		.byte	0x1
 3073 101e 01       		.byte	0x1
 3074 101f 2E100000 		.4byte	0x102e
 3075 1023 0F       		.uleb128 0xf
 3076 1024 2E100000 		.4byte	0x102e
 3077 1028 0F       		.uleb128 0xf
 3078 1029 B1020000 		.4byte	0x2b1
 3079 102d 00       		.byte	0
 3080 102e 09       		.uleb128 0x9
 3081 102f 04       		.byte	0x4
 3082 1030 51050000 		.4byte	0x551
 3083 1034 2E       		.uleb128 0x2e
 3084 1035 01       		.byte	0x1
 3085 1036 4B010000 		.4byte	.LASF120
 3086 103a 0F       		.byte	0xf
 3087 103b 39       		.byte	0x39
 3088 103c 01       		.byte	0x1
 3089 103d 73020000 		.4byte	0x273
 3090 1041 01       		.byte	0x1
 3091 1042 5B100000 		.4byte	0x105b
 3092 1046 0F       		.uleb128 0xf
 3093 1047 2E100000 		.4byte	0x102e
 3094 104b 0F       		.uleb128 0xf
 3095 104c E4000000 		.4byte	0xe4
 3096 1050 0F       		.uleb128 0xf
 3097 1051 AF050000 		.4byte	0x5af
 3098 1055 0F       		.uleb128 0xf
 3099 1056 B1020000 		.4byte	0x2b1
 3100 105a 00       		.byte	0
 3101 105b 31       		.uleb128 0x31
 3102 105c 01       		.byte	0x1
 3103 105d 7C040000 		.4byte	.LASF130
 3104 1061 0D       		.byte	0xd
 3105 1062 5C       		.byte	0x5c
 3106 1063 01       		.byte	0x1
ARM GAS  /tmp/cczhW0CV.s 			page 56


 3107 1064 01       		.byte	0x1
 3108 1065 2E       		.uleb128 0x2e
 3109 1066 01       		.byte	0x1
 3110 1067 E5020000 		.4byte	.LASF121
 3111 106b 0D       		.byte	0xd
 3112 106c 59       		.byte	0x59
 3113 106d 01       		.byte	0x1
 3114 106e A6000000 		.4byte	0xa6
 3115 1072 01       		.byte	0x1
 3116 1073 82100000 		.4byte	0x1082
 3117 1077 0F       		.uleb128 0xf
 3118 1078 3B000000 		.4byte	0x3b
 3119 107c 0F       		.uleb128 0xf
 3120 107d 82100000 		.4byte	0x1082
 3121 1081 00       		.byte	0
 3122 1082 09       		.uleb128 0x9
 3123 1083 04       		.byte	0x4
 3124 1084 9C050000 		.4byte	0x59c
 3125 1088 2E       		.uleb128 0x2e
 3126 1089 01       		.byte	0x1
 3127 108a 30050000 		.4byte	.LASF122
 3128 108e 0C       		.byte	0xc
 3129 108f 7B       		.byte	0x7b
 3130 1090 01       		.byte	0x1
 3131 1091 B1020000 		.4byte	0x2b1
 3132 1095 01       		.byte	0x1
 3133 1096 A0100000 		.4byte	0x10a0
 3134 109a 0F       		.uleb128 0xf
 3135 109b 2E100000 		.4byte	0x102e
 3136 109f 00       		.byte	0
 3137 10a0 2F       		.uleb128 0x2f
 3138 10a1 01       		.byte	0x1
 3139 10a2 7F000000 		.4byte	.LASF123
 3140 10a6 0C       		.byte	0xc
 3141 10a7 78       		.byte	0x78
 3142 10a8 01       		.byte	0x1
 3143 10a9 01       		.byte	0x1
 3144 10aa BE100000 		.4byte	0x10be
 3145 10ae 0F       		.uleb128 0xf
 3146 10af 2E100000 		.4byte	0x102e
 3147 10b3 0F       		.uleb128 0xf
 3148 10b4 30000000 		.4byte	0x30
 3149 10b8 0F       		.uleb128 0xf
 3150 10b9 2B040000 		.4byte	0x42b
 3151 10bd 00       		.byte	0
 3152 10be 2E       		.uleb128 0x2e
 3153 10bf 01       		.byte	0x1
 3154 10c0 6F040000 		.4byte	.LASF124
 3155 10c4 0B       		.byte	0xb
 3156 10c5 54       		.byte	0x54
 3157 10c6 01       		.byte	0x1
 3158 10c7 30000000 		.4byte	0x30
 3159 10cb 01       		.byte	0x1
 3160 10cc DB100000 		.4byte	0x10db
 3161 10d0 0F       		.uleb128 0xf
 3162 10d1 D4040000 		.4byte	0x4d4
 3163 10d5 0F       		.uleb128 0xf
ARM GAS  /tmp/cczhW0CV.s 			page 57


 3164 10d6 DB100000 		.4byte	0x10db
 3165 10da 00       		.byte	0
 3166 10db 09       		.uleb128 0x9
 3167 10dc 04       		.byte	0x4
 3168 10dd 30000000 		.4byte	0x30
 3169 10e1 2E       		.uleb128 0x2e
 3170 10e2 01       		.byte	0x1
 3171 10e3 0E040000 		.4byte	.LASF125
 3172 10e7 0B       		.byte	0xb
 3173 10e8 52       		.byte	0x52
 3174 10e9 01       		.byte	0x1
 3175 10ea B1020000 		.4byte	0x2b1
 3176 10ee 01       		.byte	0x1
 3177 10ef FE100000 		.4byte	0x10fe
 3178 10f3 0F       		.uleb128 0xf
 3179 10f4 D4040000 		.4byte	0x4d4
 3180 10f8 0F       		.uleb128 0xf
 3181 10f9 30000000 		.4byte	0x30
 3182 10fd 00       		.byte	0
 3183 10fe 32       		.uleb128 0x32
 3184 10ff 01       		.byte	0x1
 3185 1100 F3000000 		.4byte	.LASF131
 3186 1104 0B       		.byte	0xb
 3187 1105 53       		.byte	0x53
 3188 1106 01       		.byte	0x1
 3189 1107 01       		.byte	0x1
 3190 1108 0F       		.uleb128 0xf
 3191 1109 B1020000 		.4byte	0x2b1
 3192 110d 00       		.byte	0
 3193 110e 00       		.byte	0
 3194              		.section	.debug_abbrev,"",%progbits
 3195              	.Ldebug_abbrev0:
 3196 0000 01       		.uleb128 0x1
 3197 0001 11       		.uleb128 0x11
 3198 0002 01       		.byte	0x1
 3199 0003 25       		.uleb128 0x25
 3200 0004 0E       		.uleb128 0xe
 3201 0005 13       		.uleb128 0x13
 3202 0006 0B       		.uleb128 0xb
 3203 0007 03       		.uleb128 0x3
 3204 0008 0E       		.uleb128 0xe
 3205 0009 1B       		.uleb128 0x1b
 3206 000a 0E       		.uleb128 0xe
 3207 000b 55       		.uleb128 0x55
 3208 000c 06       		.uleb128 0x6
 3209 000d 11       		.uleb128 0x11
 3210 000e 01       		.uleb128 0x1
 3211 000f 52       		.uleb128 0x52
 3212 0010 01       		.uleb128 0x1
 3213 0011 10       		.uleb128 0x10
 3214 0012 06       		.uleb128 0x6
 3215 0013 00       		.byte	0
 3216 0014 00       		.byte	0
 3217 0015 02       		.uleb128 0x2
 3218 0016 24       		.uleb128 0x24
 3219 0017 00       		.byte	0
 3220 0018 0B       		.uleb128 0xb
ARM GAS  /tmp/cczhW0CV.s 			page 58


 3221 0019 0B       		.uleb128 0xb
 3222 001a 3E       		.uleb128 0x3e
 3223 001b 0B       		.uleb128 0xb
 3224 001c 03       		.uleb128 0x3
 3225 001d 08       		.uleb128 0x8
 3226 001e 00       		.byte	0
 3227 001f 00       		.byte	0
 3228 0020 03       		.uleb128 0x3
 3229 0021 16       		.uleb128 0x16
 3230 0022 00       		.byte	0
 3231 0023 03       		.uleb128 0x3
 3232 0024 0E       		.uleb128 0xe
 3233 0025 3A       		.uleb128 0x3a
 3234 0026 0B       		.uleb128 0xb
 3235 0027 3B       		.uleb128 0x3b
 3236 0028 0B       		.uleb128 0xb
 3237 0029 49       		.uleb128 0x49
 3238 002a 13       		.uleb128 0x13
 3239 002b 00       		.byte	0
 3240 002c 00       		.byte	0
 3241 002d 04       		.uleb128 0x4
 3242 002e 24       		.uleb128 0x24
 3243 002f 00       		.byte	0
 3244 0030 0B       		.uleb128 0xb
 3245 0031 0B       		.uleb128 0xb
 3246 0032 3E       		.uleb128 0x3e
 3247 0033 0B       		.uleb128 0xb
 3248 0034 03       		.uleb128 0x3
 3249 0035 0E       		.uleb128 0xe
 3250 0036 00       		.byte	0
 3251 0037 00       		.byte	0
 3252 0038 05       		.uleb128 0x5
 3253 0039 13       		.uleb128 0x13
 3254 003a 01       		.byte	0x1
 3255 003b 03       		.uleb128 0x3
 3256 003c 0E       		.uleb128 0xe
 3257 003d 0B       		.uleb128 0xb
 3258 003e 0B       		.uleb128 0xb
 3259 003f 3A       		.uleb128 0x3a
 3260 0040 0B       		.uleb128 0xb
 3261 0041 3B       		.uleb128 0x3b
 3262 0042 0B       		.uleb128 0xb
 3263 0043 01       		.uleb128 0x1
 3264 0044 13       		.uleb128 0x13
 3265 0045 00       		.byte	0
 3266 0046 00       		.byte	0
 3267 0047 06       		.uleb128 0x6
 3268 0048 0D       		.uleb128 0xd
 3269 0049 00       		.byte	0
 3270 004a 03       		.uleb128 0x3
 3271 004b 0E       		.uleb128 0xe
 3272 004c 3A       		.uleb128 0x3a
 3273 004d 0B       		.uleb128 0xb
 3274 004e 3B       		.uleb128 0x3b
 3275 004f 0B       		.uleb128 0xb
 3276 0050 49       		.uleb128 0x49
 3277 0051 13       		.uleb128 0x13
ARM GAS  /tmp/cczhW0CV.s 			page 59


 3278 0052 38       		.uleb128 0x38
 3279 0053 0A       		.uleb128 0xa
 3280 0054 00       		.byte	0
 3281 0055 00       		.byte	0
 3282 0056 07       		.uleb128 0x7
 3283 0057 0D       		.uleb128 0xd
 3284 0058 00       		.byte	0
 3285 0059 03       		.uleb128 0x3
 3286 005a 08       		.uleb128 0x8
 3287 005b 3A       		.uleb128 0x3a
 3288 005c 0B       		.uleb128 0xb
 3289 005d 3B       		.uleb128 0x3b
 3290 005e 0B       		.uleb128 0xb
 3291 005f 49       		.uleb128 0x49
 3292 0060 13       		.uleb128 0x13
 3293 0061 38       		.uleb128 0x38
 3294 0062 0A       		.uleb128 0xa
 3295 0063 00       		.byte	0
 3296 0064 00       		.byte	0
 3297 0065 08       		.uleb128 0x8
 3298 0066 13       		.uleb128 0x13
 3299 0067 01       		.byte	0x1
 3300 0068 0B       		.uleb128 0xb
 3301 0069 0B       		.uleb128 0xb
 3302 006a 3A       		.uleb128 0x3a
 3303 006b 0B       		.uleb128 0xb
 3304 006c 3B       		.uleb128 0x3b
 3305 006d 0B       		.uleb128 0xb
 3306 006e 01       		.uleb128 0x1
 3307 006f 13       		.uleb128 0x13
 3308 0070 00       		.byte	0
 3309 0071 00       		.byte	0
 3310 0072 09       		.uleb128 0x9
 3311 0073 0F       		.uleb128 0xf
 3312 0074 00       		.byte	0
 3313 0075 0B       		.uleb128 0xb
 3314 0076 0B       		.uleb128 0xb
 3315 0077 49       		.uleb128 0x49
 3316 0078 13       		.uleb128 0x13
 3317 0079 00       		.byte	0
 3318 007a 00       		.byte	0
 3319 007b 0A       		.uleb128 0xa
 3320 007c 0F       		.uleb128 0xf
 3321 007d 00       		.byte	0
 3322 007e 0B       		.uleb128 0xb
 3323 007f 0B       		.uleb128 0xb
 3324 0080 00       		.byte	0
 3325 0081 00       		.byte	0
 3326 0082 0B       		.uleb128 0xb
 3327 0083 13       		.uleb128 0x13
 3328 0084 01       		.byte	0x1
 3329 0085 03       		.uleb128 0x3
 3330 0086 0E       		.uleb128 0xe
 3331 0087 0B       		.uleb128 0xb
 3332 0088 0B       		.uleb128 0xb
 3333 0089 3A       		.uleb128 0x3a
 3334 008a 0B       		.uleb128 0xb
ARM GAS  /tmp/cczhW0CV.s 			page 60


 3335 008b 3B       		.uleb128 0x3b
 3336 008c 05       		.uleb128 0x5
 3337 008d 01       		.uleb128 0x1
 3338 008e 13       		.uleb128 0x13
 3339 008f 00       		.byte	0
 3340 0090 00       		.byte	0
 3341 0091 0C       		.uleb128 0xc
 3342 0092 0D       		.uleb128 0xd
 3343 0093 00       		.byte	0
 3344 0094 03       		.uleb128 0x3
 3345 0095 08       		.uleb128 0x8
 3346 0096 3A       		.uleb128 0x3a
 3347 0097 0B       		.uleb128 0xb
 3348 0098 3B       		.uleb128 0x3b
 3349 0099 05       		.uleb128 0x5
 3350 009a 49       		.uleb128 0x49
 3351 009b 13       		.uleb128 0x13
 3352 009c 38       		.uleb128 0x38
 3353 009d 0A       		.uleb128 0xa
 3354 009e 00       		.byte	0
 3355 009f 00       		.byte	0
 3356 00a0 0D       		.uleb128 0xd
 3357 00a1 35       		.uleb128 0x35
 3358 00a2 00       		.byte	0
 3359 00a3 49       		.uleb128 0x49
 3360 00a4 13       		.uleb128 0x13
 3361 00a5 00       		.byte	0
 3362 00a6 00       		.byte	0
 3363 00a7 0E       		.uleb128 0xe
 3364 00a8 15       		.uleb128 0x15
 3365 00a9 01       		.byte	0x1
 3366 00aa 27       		.uleb128 0x27
 3367 00ab 0C       		.uleb128 0xc
 3368 00ac 49       		.uleb128 0x49
 3369 00ad 13       		.uleb128 0x13
 3370 00ae 01       		.uleb128 0x1
 3371 00af 13       		.uleb128 0x13
 3372 00b0 00       		.byte	0
 3373 00b1 00       		.byte	0
 3374 00b2 0F       		.uleb128 0xf
 3375 00b3 05       		.uleb128 0x5
 3376 00b4 00       		.byte	0
 3377 00b5 49       		.uleb128 0x49
 3378 00b6 13       		.uleb128 0x13
 3379 00b7 00       		.byte	0
 3380 00b8 00       		.byte	0
 3381 00b9 10       		.uleb128 0x10
 3382 00ba 17       		.uleb128 0x17
 3383 00bb 01       		.byte	0x1
 3384 00bc 0B       		.uleb128 0xb
 3385 00bd 0B       		.uleb128 0xb
 3386 00be 3A       		.uleb128 0x3a
 3387 00bf 0B       		.uleb128 0xb
 3388 00c0 3B       		.uleb128 0x3b
 3389 00c1 0B       		.uleb128 0xb
 3390 00c2 01       		.uleb128 0x1
 3391 00c3 13       		.uleb128 0x13
ARM GAS  /tmp/cczhW0CV.s 			page 61


 3392 00c4 00       		.byte	0
 3393 00c5 00       		.byte	0
 3394 00c6 11       		.uleb128 0x11
 3395 00c7 0D       		.uleb128 0xd
 3396 00c8 00       		.byte	0
 3397 00c9 03       		.uleb128 0x3
 3398 00ca 0E       		.uleb128 0xe
 3399 00cb 3A       		.uleb128 0x3a
 3400 00cc 0B       		.uleb128 0xb
 3401 00cd 3B       		.uleb128 0x3b
 3402 00ce 0B       		.uleb128 0xb
 3403 00cf 49       		.uleb128 0x49
 3404 00d0 13       		.uleb128 0x13
 3405 00d1 00       		.byte	0
 3406 00d2 00       		.byte	0
 3407 00d3 12       		.uleb128 0x12
 3408 00d4 17       		.uleb128 0x17
 3409 00d5 01       		.byte	0x1
 3410 00d6 03       		.uleb128 0x3
 3411 00d7 0E       		.uleb128 0xe
 3412 00d8 0B       		.uleb128 0xb
 3413 00d9 0B       		.uleb128 0xb
 3414 00da 3A       		.uleb128 0x3a
 3415 00db 0B       		.uleb128 0xb
 3416 00dc 3B       		.uleb128 0x3b
 3417 00dd 0B       		.uleb128 0xb
 3418 00de 01       		.uleb128 0x1
 3419 00df 13       		.uleb128 0x13
 3420 00e0 00       		.byte	0
 3421 00e1 00       		.byte	0
 3422 00e2 13       		.uleb128 0x13
 3423 00e3 0D       		.uleb128 0xd
 3424 00e4 00       		.byte	0
 3425 00e5 03       		.uleb128 0x3
 3426 00e6 08       		.uleb128 0x8
 3427 00e7 3A       		.uleb128 0x3a
 3428 00e8 0B       		.uleb128 0xb
 3429 00e9 3B       		.uleb128 0x3b
 3430 00ea 0B       		.uleb128 0xb
 3431 00eb 49       		.uleb128 0x49
 3432 00ec 13       		.uleb128 0x13
 3433 00ed 00       		.byte	0
 3434 00ee 00       		.byte	0
 3435 00ef 14       		.uleb128 0x14
 3436 00f0 26       		.uleb128 0x26
 3437 00f1 00       		.byte	0
 3438 00f2 49       		.uleb128 0x49
 3439 00f3 13       		.uleb128 0x13
 3440 00f4 00       		.byte	0
 3441 00f5 00       		.byte	0
 3442 00f6 15       		.uleb128 0x15
 3443 00f7 15       		.uleb128 0x15
 3444 00f8 00       		.byte	0
 3445 00f9 27       		.uleb128 0x27
 3446 00fa 0C       		.uleb128 0xc
 3447 00fb 00       		.byte	0
 3448 00fc 00       		.byte	0
ARM GAS  /tmp/cczhW0CV.s 			page 62


 3449 00fd 16       		.uleb128 0x16
 3450 00fe 13       		.uleb128 0x13
 3451 00ff 01       		.byte	0x1
 3452 0100 0B       		.uleb128 0xb
 3453 0101 05       		.uleb128 0x5
 3454 0102 3A       		.uleb128 0x3a
 3455 0103 0B       		.uleb128 0xb
 3456 0104 3B       		.uleb128 0x3b
 3457 0105 0B       		.uleb128 0xb
 3458 0106 01       		.uleb128 0x1
 3459 0107 13       		.uleb128 0x13
 3460 0108 00       		.byte	0
 3461 0109 00       		.byte	0
 3462 010a 17       		.uleb128 0x17
 3463 010b 01       		.uleb128 0x1
 3464 010c 01       		.byte	0x1
 3465 010d 49       		.uleb128 0x49
 3466 010e 13       		.uleb128 0x13
 3467 010f 01       		.uleb128 0x1
 3468 0110 13       		.uleb128 0x13
 3469 0111 00       		.byte	0
 3470 0112 00       		.byte	0
 3471 0113 18       		.uleb128 0x18
 3472 0114 21       		.uleb128 0x21
 3473 0115 00       		.byte	0
 3474 0116 49       		.uleb128 0x49
 3475 0117 13       		.uleb128 0x13
 3476 0118 2F       		.uleb128 0x2f
 3477 0119 0B       		.uleb128 0xb
 3478 011a 00       		.byte	0
 3479 011b 00       		.byte	0
 3480 011c 19       		.uleb128 0x19
 3481 011d 17       		.uleb128 0x17
 3482 011e 01       		.byte	0x1
 3483 011f 03       		.uleb128 0x3
 3484 0120 0E       		.uleb128 0xe
 3485 0121 0B       		.uleb128 0xb
 3486 0122 05       		.uleb128 0x5
 3487 0123 3A       		.uleb128 0x3a
 3488 0124 0B       		.uleb128 0xb
 3489 0125 3B       		.uleb128 0x3b
 3490 0126 0B       		.uleb128 0xb
 3491 0127 01       		.uleb128 0x1
 3492 0128 13       		.uleb128 0x13
 3493 0129 00       		.byte	0
 3494 012a 00       		.byte	0
 3495 012b 1A       		.uleb128 0x1a
 3496 012c 21       		.uleb128 0x21
 3497 012d 00       		.byte	0
 3498 012e 49       		.uleb128 0x49
 3499 012f 13       		.uleb128 0x13
 3500 0130 2F       		.uleb128 0x2f
 3501 0131 05       		.uleb128 0x5
 3502 0132 00       		.byte	0
 3503 0133 00       		.byte	0
 3504 0134 1B       		.uleb128 0x1b
 3505 0135 2E       		.uleb128 0x2e
ARM GAS  /tmp/cczhW0CV.s 			page 63


 3506 0136 01       		.byte	0x1
 3507 0137 03       		.uleb128 0x3
 3508 0138 0E       		.uleb128 0xe
 3509 0139 3A       		.uleb128 0x3a
 3510 013a 0B       		.uleb128 0xb
 3511 013b 3B       		.uleb128 0x3b
 3512 013c 0B       		.uleb128 0xb
 3513 013d 27       		.uleb128 0x27
 3514 013e 0C       		.uleb128 0xc
 3515 013f 49       		.uleb128 0x49
 3516 0140 13       		.uleb128 0x13
 3517 0141 11       		.uleb128 0x11
 3518 0142 01       		.uleb128 0x1
 3519 0143 12       		.uleb128 0x12
 3520 0144 01       		.uleb128 0x1
 3521 0145 40       		.uleb128 0x40
 3522 0146 06       		.uleb128 0x6
 3523 0147 9742     		.uleb128 0x2117
 3524 0149 0C       		.uleb128 0xc
 3525 014a 01       		.uleb128 0x1
 3526 014b 13       		.uleb128 0x13
 3527 014c 00       		.byte	0
 3528 014d 00       		.byte	0
 3529 014e 1C       		.uleb128 0x1c
 3530 014f 05       		.uleb128 0x5
 3531 0150 00       		.byte	0
 3532 0151 03       		.uleb128 0x3
 3533 0152 08       		.uleb128 0x8
 3534 0153 3A       		.uleb128 0x3a
 3535 0154 0B       		.uleb128 0xb
 3536 0155 3B       		.uleb128 0x3b
 3537 0156 0B       		.uleb128 0xb
 3538 0157 49       		.uleb128 0x49
 3539 0158 13       		.uleb128 0x13
 3540 0159 02       		.uleb128 0x2
 3541 015a 06       		.uleb128 0x6
 3542 015b 00       		.byte	0
 3543 015c 00       		.byte	0
 3544 015d 1D       		.uleb128 0x1d
 3545 015e 34       		.uleb128 0x34
 3546 015f 00       		.byte	0
 3547 0160 03       		.uleb128 0x3
 3548 0161 08       		.uleb128 0x8
 3549 0162 3A       		.uleb128 0x3a
 3550 0163 0B       		.uleb128 0xb
 3551 0164 3B       		.uleb128 0x3b
 3552 0165 0B       		.uleb128 0xb
 3553 0166 49       		.uleb128 0x49
 3554 0167 13       		.uleb128 0x13
 3555 0168 02       		.uleb128 0x2
 3556 0169 06       		.uleb128 0x6
 3557 016a 00       		.byte	0
 3558 016b 00       		.byte	0
 3559 016c 1E       		.uleb128 0x1e
 3560 016d 34       		.uleb128 0x34
 3561 016e 00       		.byte	0
 3562 016f 03       		.uleb128 0x3
ARM GAS  /tmp/cczhW0CV.s 			page 64


 3563 0170 0E       		.uleb128 0xe
 3564 0171 3A       		.uleb128 0x3a
 3565 0172 0B       		.uleb128 0xb
 3566 0173 3B       		.uleb128 0x3b
 3567 0174 0B       		.uleb128 0xb
 3568 0175 49       		.uleb128 0x49
 3569 0176 13       		.uleb128 0x13
 3570 0177 02       		.uleb128 0x2
 3571 0178 06       		.uleb128 0x6
 3572 0179 00       		.byte	0
 3573 017a 00       		.byte	0
 3574 017b 1F       		.uleb128 0x1f
 3575 017c 898201   		.uleb128 0x4109
 3576 017f 00       		.byte	0
 3577 0180 11       		.uleb128 0x11
 3578 0181 01       		.uleb128 0x1
 3579 0182 31       		.uleb128 0x31
 3580 0183 13       		.uleb128 0x13
 3581 0184 00       		.byte	0
 3582 0185 00       		.byte	0
 3583 0186 20       		.uleb128 0x20
 3584 0187 2E       		.uleb128 0x2e
 3585 0188 01       		.byte	0x1
 3586 0189 03       		.uleb128 0x3
 3587 018a 0E       		.uleb128 0xe
 3588 018b 3A       		.uleb128 0x3a
 3589 018c 0B       		.uleb128 0xb
 3590 018d 3B       		.uleb128 0x3b
 3591 018e 0B       		.uleb128 0xb
 3592 018f 27       		.uleb128 0x27
 3593 0190 0C       		.uleb128 0xc
 3594 0191 11       		.uleb128 0x11
 3595 0192 01       		.uleb128 0x1
 3596 0193 12       		.uleb128 0x12
 3597 0194 01       		.uleb128 0x1
 3598 0195 40       		.uleb128 0x40
 3599 0196 06       		.uleb128 0x6
 3600 0197 9742     		.uleb128 0x2117
 3601 0199 0C       		.uleb128 0xc
 3602 019a 01       		.uleb128 0x1
 3603 019b 13       		.uleb128 0x13
 3604 019c 00       		.byte	0
 3605 019d 00       		.byte	0
 3606 019e 21       		.uleb128 0x21
 3607 019f 34       		.uleb128 0x34
 3608 01a0 00       		.byte	0
 3609 01a1 03       		.uleb128 0x3
 3610 01a2 0E       		.uleb128 0xe
 3611 01a3 3A       		.uleb128 0x3a
 3612 01a4 0B       		.uleb128 0xb
 3613 01a5 3B       		.uleb128 0x3b
 3614 01a6 0B       		.uleb128 0xb
 3615 01a7 49       		.uleb128 0x49
 3616 01a8 13       		.uleb128 0x13
 3617 01a9 00       		.byte	0
 3618 01aa 00       		.byte	0
 3619 01ab 22       		.uleb128 0x22
ARM GAS  /tmp/cczhW0CV.s 			page 65


 3620 01ac 898201   		.uleb128 0x4109
 3621 01af 01       		.byte	0x1
 3622 01b0 11       		.uleb128 0x11
 3623 01b1 01       		.uleb128 0x1
 3624 01b2 31       		.uleb128 0x31
 3625 01b3 13       		.uleb128 0x13
 3626 01b4 01       		.uleb128 0x1
 3627 01b5 13       		.uleb128 0x13
 3628 01b6 00       		.byte	0
 3629 01b7 00       		.byte	0
 3630 01b8 23       		.uleb128 0x23
 3631 01b9 8A8201   		.uleb128 0x410a
 3632 01bc 00       		.byte	0
 3633 01bd 02       		.uleb128 0x2
 3634 01be 0A       		.uleb128 0xa
 3635 01bf 9142     		.uleb128 0x2111
 3636 01c1 0A       		.uleb128 0xa
 3637 01c2 00       		.byte	0
 3638 01c3 00       		.byte	0
 3639 01c4 24       		.uleb128 0x24
 3640 01c5 898201   		.uleb128 0x4109
 3641 01c8 01       		.byte	0x1
 3642 01c9 11       		.uleb128 0x11
 3643 01ca 01       		.uleb128 0x1
 3644 01cb 9542     		.uleb128 0x2115
 3645 01cd 0C       		.uleb128 0xc
 3646 01ce 31       		.uleb128 0x31
 3647 01cf 13       		.uleb128 0x13
 3648 01d0 00       		.byte	0
 3649 01d1 00       		.byte	0
 3650 01d2 25       		.uleb128 0x25
 3651 01d3 2E       		.uleb128 0x2e
 3652 01d4 01       		.byte	0x1
 3653 01d5 03       		.uleb128 0x3
 3654 01d6 0E       		.uleb128 0xe
 3655 01d7 3A       		.uleb128 0x3a
 3656 01d8 0B       		.uleb128 0xb
 3657 01d9 3B       		.uleb128 0x3b
 3658 01da 0B       		.uleb128 0xb
 3659 01db 27       		.uleb128 0x27
 3660 01dc 0C       		.uleb128 0xc
 3661 01dd 11       		.uleb128 0x11
 3662 01de 01       		.uleb128 0x1
 3663 01df 12       		.uleb128 0x12
 3664 01e0 01       		.uleb128 0x1
 3665 01e1 40       		.uleb128 0x40
 3666 01e2 0A       		.uleb128 0xa
 3667 01e3 9742     		.uleb128 0x2117
 3668 01e5 0C       		.uleb128 0xc
 3669 01e6 01       		.uleb128 0x1
 3670 01e7 13       		.uleb128 0x13
 3671 01e8 00       		.byte	0
 3672 01e9 00       		.byte	0
 3673 01ea 26       		.uleb128 0x26
 3674 01eb 34       		.uleb128 0x34
 3675 01ec 00       		.byte	0
 3676 01ed 03       		.uleb128 0x3
ARM GAS  /tmp/cczhW0CV.s 			page 66


 3677 01ee 0E       		.uleb128 0xe
 3678 01ef 3A       		.uleb128 0x3a
 3679 01f0 0B       		.uleb128 0xb
 3680 01f1 3B       		.uleb128 0x3b
 3681 01f2 0B       		.uleb128 0xb
 3682 01f3 49       		.uleb128 0x49
 3683 01f4 13       		.uleb128 0x13
 3684 01f5 02       		.uleb128 0x2
 3685 01f6 0A       		.uleb128 0xa
 3686 01f7 00       		.byte	0
 3687 01f8 00       		.byte	0
 3688 01f9 27       		.uleb128 0x27
 3689 01fa 34       		.uleb128 0x34
 3690 01fb 00       		.byte	0
 3691 01fc 03       		.uleb128 0x3
 3692 01fd 08       		.uleb128 0x8
 3693 01fe 3A       		.uleb128 0x3a
 3694 01ff 0B       		.uleb128 0xb
 3695 0200 3B       		.uleb128 0x3b
 3696 0201 0B       		.uleb128 0xb
 3697 0202 49       		.uleb128 0x49
 3698 0203 13       		.uleb128 0x13
 3699 0204 02       		.uleb128 0x2
 3700 0205 0A       		.uleb128 0xa
 3701 0206 00       		.byte	0
 3702 0207 00       		.byte	0
 3703 0208 28       		.uleb128 0x28
 3704 0209 898201   		.uleb128 0x4109
 3705 020c 01       		.byte	0x1
 3706 020d 11       		.uleb128 0x11
 3707 020e 01       		.uleb128 0x1
 3708 020f 31       		.uleb128 0x31
 3709 0210 13       		.uleb128 0x13
 3710 0211 00       		.byte	0
 3711 0212 00       		.byte	0
 3712 0213 29       		.uleb128 0x29
 3713 0214 34       		.uleb128 0x34
 3714 0215 00       		.byte	0
 3715 0216 03       		.uleb128 0x3
 3716 0217 0E       		.uleb128 0xe
 3717 0218 3A       		.uleb128 0x3a
 3718 0219 0B       		.uleb128 0xb
 3719 021a 3B       		.uleb128 0x3b
 3720 021b 0B       		.uleb128 0xb
 3721 021c 49       		.uleb128 0x49
 3722 021d 13       		.uleb128 0x13
 3723 021e 3F       		.uleb128 0x3f
 3724 021f 0C       		.uleb128 0xc
 3725 0220 3C       		.uleb128 0x3c
 3726 0221 0C       		.uleb128 0xc
 3727 0222 00       		.byte	0
 3728 0223 00       		.byte	0
 3729 0224 2A       		.uleb128 0x2a
 3730 0225 21       		.uleb128 0x21
 3731 0226 00       		.byte	0
 3732 0227 00       		.byte	0
 3733 0228 00       		.byte	0
ARM GAS  /tmp/cczhW0CV.s 			page 67


 3734 0229 2B       		.uleb128 0x2b
 3735 022a 34       		.uleb128 0x34
 3736 022b 00       		.byte	0
 3737 022c 03       		.uleb128 0x3
 3738 022d 08       		.uleb128 0x8
 3739 022e 3A       		.uleb128 0x3a
 3740 022f 0B       		.uleb128 0xb
 3741 0230 3B       		.uleb128 0x3b
 3742 0231 0B       		.uleb128 0xb
 3743 0232 49       		.uleb128 0x49
 3744 0233 13       		.uleb128 0x13
 3745 0234 3F       		.uleb128 0x3f
 3746 0235 0C       		.uleb128 0xc
 3747 0236 3C       		.uleb128 0x3c
 3748 0237 0C       		.uleb128 0xc
 3749 0238 00       		.byte	0
 3750 0239 00       		.byte	0
 3751 023a 2C       		.uleb128 0x2c
 3752 023b 34       		.uleb128 0x34
 3753 023c 00       		.byte	0
 3754 023d 03       		.uleb128 0x3
 3755 023e 0E       		.uleb128 0xe
 3756 023f 3A       		.uleb128 0x3a
 3757 0240 0B       		.uleb128 0xb
 3758 0241 3B       		.uleb128 0x3b
 3759 0242 0B       		.uleb128 0xb
 3760 0243 49       		.uleb128 0x49
 3761 0244 13       		.uleb128 0x13
 3762 0245 3F       		.uleb128 0x3f
 3763 0246 0C       		.uleb128 0xc
 3764 0247 02       		.uleb128 0x2
 3765 0248 0A       		.uleb128 0xa
 3766 0249 00       		.byte	0
 3767 024a 00       		.byte	0
 3768 024b 2D       		.uleb128 0x2d
 3769 024c 2E       		.uleb128 0x2e
 3770 024d 00       		.byte	0
 3771 024e 3F       		.uleb128 0x3f
 3772 024f 0C       		.uleb128 0xc
 3773 0250 03       		.uleb128 0x3
 3774 0251 0E       		.uleb128 0xe
 3775 0252 3A       		.uleb128 0x3a
 3776 0253 0B       		.uleb128 0xb
 3777 0254 3B       		.uleb128 0x3b
 3778 0255 0B       		.uleb128 0xb
 3779 0256 27       		.uleb128 0x27
 3780 0257 0C       		.uleb128 0xc
 3781 0258 49       		.uleb128 0x49
 3782 0259 13       		.uleb128 0x13
 3783 025a 3C       		.uleb128 0x3c
 3784 025b 0C       		.uleb128 0xc
 3785 025c 00       		.byte	0
 3786 025d 00       		.byte	0
 3787 025e 2E       		.uleb128 0x2e
 3788 025f 2E       		.uleb128 0x2e
 3789 0260 01       		.byte	0x1
 3790 0261 3F       		.uleb128 0x3f
ARM GAS  /tmp/cczhW0CV.s 			page 68


 3791 0262 0C       		.uleb128 0xc
 3792 0263 03       		.uleb128 0x3
 3793 0264 0E       		.uleb128 0xe
 3794 0265 3A       		.uleb128 0x3a
 3795 0266 0B       		.uleb128 0xb
 3796 0267 3B       		.uleb128 0x3b
 3797 0268 0B       		.uleb128 0xb
 3798 0269 27       		.uleb128 0x27
 3799 026a 0C       		.uleb128 0xc
 3800 026b 49       		.uleb128 0x49
 3801 026c 13       		.uleb128 0x13
 3802 026d 3C       		.uleb128 0x3c
 3803 026e 0C       		.uleb128 0xc
 3804 026f 01       		.uleb128 0x1
 3805 0270 13       		.uleb128 0x13
 3806 0271 00       		.byte	0
 3807 0272 00       		.byte	0
 3808 0273 2F       		.uleb128 0x2f
 3809 0274 2E       		.uleb128 0x2e
 3810 0275 01       		.byte	0x1
 3811 0276 3F       		.uleb128 0x3f
 3812 0277 0C       		.uleb128 0xc
 3813 0278 03       		.uleb128 0x3
 3814 0279 0E       		.uleb128 0xe
 3815 027a 3A       		.uleb128 0x3a
 3816 027b 0B       		.uleb128 0xb
 3817 027c 3B       		.uleb128 0x3b
 3818 027d 0B       		.uleb128 0xb
 3819 027e 27       		.uleb128 0x27
 3820 027f 0C       		.uleb128 0xc
 3821 0280 3C       		.uleb128 0x3c
 3822 0281 0C       		.uleb128 0xc
 3823 0282 01       		.uleb128 0x1
 3824 0283 13       		.uleb128 0x13
 3825 0284 00       		.byte	0
 3826 0285 00       		.byte	0
 3827 0286 30       		.uleb128 0x30
 3828 0287 2E       		.uleb128 0x2e
 3829 0288 01       		.byte	0x1
 3830 0289 3F       		.uleb128 0x3f
 3831 028a 0C       		.uleb128 0xc
 3832 028b 03       		.uleb128 0x3
 3833 028c 0E       		.uleb128 0xe
 3834 028d 3A       		.uleb128 0x3a
 3835 028e 0B       		.uleb128 0xb
 3836 028f 3B       		.uleb128 0x3b
 3837 0290 05       		.uleb128 0x5
 3838 0291 27       		.uleb128 0x27
 3839 0292 0C       		.uleb128 0xc
 3840 0293 3C       		.uleb128 0x3c
 3841 0294 0C       		.uleb128 0xc
 3842 0295 01       		.uleb128 0x1
 3843 0296 13       		.uleb128 0x13
 3844 0297 00       		.byte	0
 3845 0298 00       		.byte	0
 3846 0299 31       		.uleb128 0x31
 3847 029a 2E       		.uleb128 0x2e
ARM GAS  /tmp/cczhW0CV.s 			page 69


 3848 029b 00       		.byte	0
 3849 029c 3F       		.uleb128 0x3f
 3850 029d 0C       		.uleb128 0xc
 3851 029e 03       		.uleb128 0x3
 3852 029f 0E       		.uleb128 0xe
 3853 02a0 3A       		.uleb128 0x3a
 3854 02a1 0B       		.uleb128 0xb
 3855 02a2 3B       		.uleb128 0x3b
 3856 02a3 0B       		.uleb128 0xb
 3857 02a4 27       		.uleb128 0x27
 3858 02a5 0C       		.uleb128 0xc
 3859 02a6 3C       		.uleb128 0x3c
 3860 02a7 0C       		.uleb128 0xc
 3861 02a8 00       		.byte	0
 3862 02a9 00       		.byte	0
 3863 02aa 32       		.uleb128 0x32
 3864 02ab 2E       		.uleb128 0x2e
 3865 02ac 01       		.byte	0x1
 3866 02ad 3F       		.uleb128 0x3f
 3867 02ae 0C       		.uleb128 0xc
 3868 02af 03       		.uleb128 0x3
 3869 02b0 0E       		.uleb128 0xe
 3870 02b1 3A       		.uleb128 0x3a
 3871 02b2 0B       		.uleb128 0xb
 3872 02b3 3B       		.uleb128 0x3b
 3873 02b4 0B       		.uleb128 0xb
 3874 02b5 27       		.uleb128 0x27
 3875 02b6 0C       		.uleb128 0xc
 3876 02b7 3C       		.uleb128 0x3c
 3877 02b8 0C       		.uleb128 0xc
 3878 02b9 00       		.byte	0
 3879 02ba 00       		.byte	0
 3880 02bb 00       		.byte	0
 3881              		.section	.debug_loc,"",%progbits
 3882              	.Ldebug_loc0:
 3883              	.LLST0:
 3884 0000 00000000 		.4byte	.LFB12
 3885 0004 02000000 		.4byte	.LCFI0
 3886 0008 0200     		.2byte	0x2
 3887 000a 7D       		.byte	0x7d
 3888 000b 00       		.sleb128 0
 3889 000c 02000000 		.4byte	.LCFI0
 3890 0010 24000000 		.4byte	.LFE12
 3891 0014 0200     		.2byte	0x2
 3892 0016 7D       		.byte	0x7d
 3893 0017 10       		.sleb128 16
 3894 0018 00000000 		.4byte	0
 3895 001c 00000000 		.4byte	0
 3896              	.LLST1:
 3897 0020 00000000 		.4byte	.LVL0
 3898 0024 07000000 		.4byte	.LVL1-1
 3899 0028 0100     		.2byte	0x1
 3900 002a 50       		.byte	0x50
 3901 002b 07000000 		.4byte	.LVL1-1
 3902 002f 24000000 		.4byte	.LFE12
 3903 0033 0100     		.2byte	0x1
 3904 0035 55       		.byte	0x55
ARM GAS  /tmp/cczhW0CV.s 			page 70


 3905 0036 00000000 		.4byte	0
 3906 003a 00000000 		.4byte	0
 3907              	.LLST2:
 3908 003e 0C000000 		.4byte	.LVL2
 3909 0042 19000000 		.4byte	.LVL4-1
 3910 0046 0100     		.2byte	0x1
 3911 0048 50       		.byte	0x50
 3912 0049 1A000000 		.4byte	.LVL4
 3913 004d 22000000 		.4byte	.LVL5
 3914 0051 0100     		.2byte	0x1
 3915 0053 50       		.byte	0x50
 3916 0054 22000000 		.4byte	.LVL5
 3917 0058 24000000 		.4byte	.LFE12
 3918 005c 0100     		.2byte	0x1
 3919 005e 53       		.byte	0x53
 3920 005f 00000000 		.4byte	0
 3921 0063 00000000 		.4byte	0
 3922              	.LLST3:
 3923 0067 00000000 		.4byte	.LVL0
 3924 006b 0C000000 		.4byte	.LVL2
 3925 006f 0200     		.2byte	0x2
 3926 0071 30       		.byte	0x30
 3927 0072 9F       		.byte	0x9f
 3928 0073 0C000000 		.4byte	.LVL2
 3929 0077 24000000 		.4byte	.LFE12
 3930 007b 0100     		.2byte	0x1
 3931 007d 54       		.byte	0x54
 3932 007e 00000000 		.4byte	0
 3933 0082 00000000 		.4byte	0
 3934              	.LLST4:
 3935 0086 00000000 		.4byte	.LFB14
 3936 008a 02000000 		.4byte	.LCFI1
 3937 008e 0200     		.2byte	0x2
 3938 0090 7D       		.byte	0x7d
 3939 0091 00       		.sleb128 0
 3940 0092 02000000 		.4byte	.LCFI1
 3941 0096 0A000000 		.4byte	.LCFI2
 3942 009a 0200     		.2byte	0x2
 3943 009c 7D       		.byte	0x7d
 3944 009d 08       		.sleb128 8
 3945 009e 0A000000 		.4byte	.LCFI2
 3946 00a2 48010000 		.4byte	.LFE14
 3947 00a6 0200     		.2byte	0x2
 3948 00a8 7D       		.byte	0x7d
 3949 00a9 10       		.sleb128 16
 3950 00aa 00000000 		.4byte	0
 3951 00ae 00000000 		.4byte	0
 3952              	.LLST5:
 3953 00b2 22000000 		.4byte	.LVL8
 3954 00b6 24000000 		.4byte	.LVL9
 3955 00ba 0100     		.2byte	0x1
 3956 00bc 50       		.byte	0x50
 3957 00bd 24000000 		.4byte	.LVL9
 3958 00c1 48010000 		.4byte	.LFE14
 3959 00c5 0100     		.2byte	0x1
 3960 00c7 54       		.byte	0x54
 3961 00c8 00000000 		.4byte	0
ARM GAS  /tmp/cczhW0CV.s 			page 71


 3962 00cc 00000000 		.4byte	0
 3963              	.LLST6:
 3964 00d0 00000000 		.4byte	.LFB7
 3965 00d4 02000000 		.4byte	.LCFI3
 3966 00d8 0200     		.2byte	0x2
 3967 00da 7D       		.byte	0x7d
 3968 00db 00       		.sleb128 0
 3969 00dc 02000000 		.4byte	.LCFI3
 3970 00e0 0C000000 		.4byte	.LFE7
 3971 00e4 0200     		.2byte	0x2
 3972 00e6 7D       		.byte	0x7d
 3973 00e7 08       		.sleb128 8
 3974 00e8 00000000 		.4byte	0
 3975 00ec 00000000 		.4byte	0
 3976              	.LLST7:
 3977 00f0 00000000 		.4byte	.LVL32
 3978 00f4 04000000 		.4byte	.LVL33
 3979 00f8 0100     		.2byte	0x1
 3980 00fa 50       		.byte	0x50
 3981 00fb 04000000 		.4byte	.LVL33
 3982 00ff 0C000000 		.4byte	.LFE7
 3983 0103 0400     		.2byte	0x4
 3984 0105 F3       		.byte	0xf3
 3985 0106 01       		.uleb128 0x1
 3986 0107 50       		.byte	0x50
 3987 0108 9F       		.byte	0x9f
 3988 0109 00000000 		.4byte	0
 3989 010d 00000000 		.4byte	0
 3990              	.LLST8:
 3991 0111 00000000 		.4byte	.LFB11
 3992 0115 02000000 		.4byte	.LCFI4
 3993 0119 0200     		.2byte	0x2
 3994 011b 7D       		.byte	0x7d
 3995 011c 00       		.sleb128 0
 3996 011d 02000000 		.4byte	.LCFI4
 3997 0121 40010000 		.4byte	.LFE11
 3998 0125 0200     		.2byte	0x2
 3999 0127 7D       		.byte	0x7d
 4000 0128 10       		.sleb128 16
 4001 0129 00000000 		.4byte	0
 4002 012d 00000000 		.4byte	0
 4003              	.LLST9:
 4004 0131 0E000000 		.4byte	.LVL37
 4005 0135 12000000 		.4byte	.LVL38
 4006 0139 0200     		.2byte	0x2
 4007 013b 30       		.byte	0x30
 4008 013c 9F       		.byte	0x9f
 4009 013d 12000000 		.4byte	.LVL38
 4010 0141 1A000000 		.4byte	.LVL39
 4011 0145 0200     		.2byte	0x2
 4012 0147 31       		.byte	0x31
 4013 0148 9F       		.byte	0x9f
 4014 0149 1A000000 		.4byte	.LVL39
 4015 014d 22000000 		.4byte	.LVL40
 4016 0151 0200     		.2byte	0x2
 4017 0153 32       		.byte	0x32
 4018 0154 9F       		.byte	0x9f
ARM GAS  /tmp/cczhW0CV.s 			page 72


 4019 0155 22000000 		.4byte	.LVL40
 4020 0159 2A000000 		.4byte	.LVL41
 4021 015d 0200     		.2byte	0x2
 4022 015f 33       		.byte	0x33
 4023 0160 9F       		.byte	0x9f
 4024 0161 2A000000 		.4byte	.LVL41
 4025 0165 92000000 		.4byte	.LVL48
 4026 0169 0200     		.2byte	0x2
 4027 016b 34       		.byte	0x34
 4028 016c 9F       		.byte	0x9f
 4029 016d 94000000 		.4byte	.LVL49
 4030 0171 BA000000 		.4byte	.LVL54
 4031 0175 0200     		.2byte	0x2
 4032 0177 34       		.byte	0x34
 4033 0178 9F       		.byte	0x9f
 4034 0179 BA000000 		.4byte	.LVL54
 4035 017d D0000000 		.4byte	.LVL57
 4036 0181 0200     		.2byte	0x2
 4037 0183 31       		.byte	0x31
 4038 0184 9F       		.byte	0x9f
 4039 0185 D0000000 		.4byte	.LVL57
 4040 0189 E6000000 		.4byte	.LVL60
 4041 018d 0200     		.2byte	0x2
 4042 018f 32       		.byte	0x32
 4043 0190 9F       		.byte	0x9f
 4044 0191 E6000000 		.4byte	.LVL60
 4045 0195 FC000000 		.4byte	.LVL63
 4046 0199 0200     		.2byte	0x2
 4047 019b 33       		.byte	0x33
 4048 019c 9F       		.byte	0x9f
 4049 019d FC000000 		.4byte	.LVL63
 4050 01a1 40010000 		.4byte	.LFE11
 4051 01a5 0200     		.2byte	0x2
 4052 01a7 34       		.byte	0x34
 4053 01a8 9F       		.byte	0x9f
 4054 01a9 00000000 		.4byte	0
 4055 01ad 00000000 		.4byte	0
 4056              	.LLST10:
 4057 01b1 00000000 		.4byte	.LFB9
 4058 01b5 02000000 		.4byte	.LCFI5
 4059 01b9 0200     		.2byte	0x2
 4060 01bb 7D       		.byte	0x7d
 4061 01bc 00       		.sleb128 0
 4062 01bd 02000000 		.4byte	.LCFI5
 4063 01c1 06000000 		.4byte	.LCFI6
 4064 01c5 0200     		.2byte	0x2
 4065 01c7 7D       		.byte	0x7d
 4066 01c8 10       		.sleb128 16
 4067 01c9 06000000 		.4byte	.LCFI6
 4068 01cd F4000000 		.4byte	.LFE9
 4069 01d1 0200     		.2byte	0x2
 4070 01d3 7D       		.byte	0x7d
 4071 01d4 20       		.sleb128 32
 4072 01d5 00000000 		.4byte	0
 4073 01d9 00000000 		.4byte	0
 4074              	.LLST11:
 4075 01dd AE000000 		.4byte	.LVL82
ARM GAS  /tmp/cczhW0CV.s 			page 73


 4076 01e1 C2000000 		.4byte	.LVL84
 4077 01e5 0200     		.2byte	0x2
 4078 01e7 91       		.byte	0x91
 4079 01e8 6C       		.sleb128 -20
 4080 01e9 00000000 		.4byte	0
 4081 01ed 00000000 		.4byte	0
 4082              	.LLST12:
 4083 01f1 4E000000 		.4byte	.LVL73
 4084 01f5 50000000 		.4byte	.LVL74
 4085 01f9 0100     		.2byte	0x1
 4086 01fb 50       		.byte	0x50
 4087 01fc 50000000 		.4byte	.LVL74
 4088 0200 F4000000 		.4byte	.LFE9
 4089 0204 0100     		.2byte	0x1
 4090 0206 56       		.byte	0x56
 4091 0207 00000000 		.4byte	0
 4092 020b 00000000 		.4byte	0
 4093              		.section	.debug_aranges,"",%progbits
 4094 0000 54000000 		.4byte	0x54
 4095 0004 0200     		.2byte	0x2
 4096 0006 00000000 		.4byte	.Ldebug_info0
 4097 000a 04       		.byte	0x4
 4098 000b 00       		.byte	0
 4099 000c 0000     		.2byte	0
 4100 000e 0000     		.2byte	0
 4101 0010 00000000 		.4byte	.LFB12
 4102 0014 24000000 		.4byte	.LFE12-.LFB12
 4103 0018 00000000 		.4byte	.LFB14
 4104 001c 48010000 		.4byte	.LFE14-.LFB14
 4105 0020 00000000 		.4byte	.LFB7
 4106 0024 0C000000 		.4byte	.LFE7-.LFB7
 4107 0028 00000000 		.4byte	.LFB13
 4108 002c 18000000 		.4byte	.LFE13-.LFB13
 4109 0030 00000000 		.4byte	.LFB8
 4110 0034 18000000 		.4byte	.LFE8-.LFB8
 4111 0038 00000000 		.4byte	.LFB11
 4112 003c 40010000 		.4byte	.LFE11-.LFB11
 4113 0040 00000000 		.4byte	.LFB10
 4114 0044 12000000 		.4byte	.LFE10-.LFB10
 4115 0048 00000000 		.4byte	.LFB9
 4116 004c F4000000 		.4byte	.LFE9-.LFB9
 4117 0050 00000000 		.4byte	0
 4118 0054 00000000 		.4byte	0
 4119              		.section	.debug_ranges,"",%progbits
 4120              	.Ldebug_ranges0:
 4121 0000 00000000 		.4byte	.LFB12
 4122 0004 24000000 		.4byte	.LFE12
 4123 0008 00000000 		.4byte	.LFB14
 4124 000c 48010000 		.4byte	.LFE14
 4125 0010 00000000 		.4byte	.LFB7
 4126 0014 0C000000 		.4byte	.LFE7
 4127 0018 00000000 		.4byte	.LFB13
 4128 001c 18000000 		.4byte	.LFE13
 4129 0020 00000000 		.4byte	.LFB8
 4130 0024 18000000 		.4byte	.LFE8
 4131 0028 00000000 		.4byte	.LFB11
 4132 002c 40010000 		.4byte	.LFE11
ARM GAS  /tmp/cczhW0CV.s 			page 74


 4133 0030 00000000 		.4byte	.LFB10
 4134 0034 12000000 		.4byte	.LFE10
 4135 0038 00000000 		.4byte	.LFB9
 4136 003c F4000000 		.4byte	.LFE9
 4137 0040 00000000 		.4byte	0
 4138 0044 00000000 		.4byte	0
 4139              		.section	.debug_line,"",%progbits
 4140              	.Ldebug_line0:
 4141 0000 CD020000 		.section	.debug_str,"MS",%progbits,1
 4141      02009301 
 4141      00000201 
 4141      FB0E0D00 
 4141      01010101 
 4142              	.LASF84:
 4143 0000 7466756E 		.ascii	"tfunc_t\000"
 4143      635F7400 
 4144              	.LASF40:
 4145 0008 705F6D73 		.ascii	"p_msg\000"
 4145      6700
 4146              	.LASF2:
 4147 000e 73697A65 		.ascii	"size_t\000"
 4147      5F7400
 4148              	.LASF100:
 4149 0015 7072696F 		.ascii	"prio\000"
 4149      00
 4150              	.LASF79:
 4151 001a 7264796D 		.ascii	"rdymsg\000"
 4151      736700
 4152              	.LASF12:
 4153 0021 75696E74 		.ascii	"uint64_t\000"
 4153      36345F74 
 4153      00
 4154              	.LASF78:
 4155 002a 4D656D6F 		.ascii	"MemoryPool\000"
 4155      7279506F 
 4155      6F6C00
 4156              	.LASF63:
 4157 0035 6D656D67 		.ascii	"memgetfunc_t\000"
 4157      65746675 
 4157      6E635F74 
 4157      00
 4158              	.LASF13:
 4159 0042 6C6F6E67 		.ascii	"long long unsigned int\000"
 4159      206C6F6E 
 4159      6720756E 
 4159      7369676E 
 4159      65642069 
 4160              	.LASF80:
 4161 0059 65786974 		.ascii	"exitcode\000"
 4161      636F6465 
 4161      00
 4162              	.LASF67:
 4163 0062 685F6672 		.ascii	"h_free\000"
 4163      656500
 4164              	.LASF106:
 4165 0069 74657374 		.ascii	"test\000"
 4165      00
ARM GAS  /tmp/cczhW0CV.s 			page 75


 4166              	.LASF129:
 4167 006e 63685265 		.ascii	"chRegFirstThread\000"
 4167      67466972 
 4167      73745468 
 4167      72656164 
 4167      00
 4168              	.LASF123:
 4169 007f 6368506F 		.ascii	"chPoolInit\000"
 4169      6F6C496E 
 4169      697400
 4170              	.LASF118:
 4171 008a 63684865 		.ascii	"chHeapInit\000"
 4171      6170496E 
 4171      697400
 4172              	.LASF69:
 4173 0095 6E657874 		.ascii	"next\000"
 4173      00
 4174              	.LASF27:
 4175 009a 705F7072 		.ascii	"p_prio\000"
 4175      696F00
 4176              	.LASF101:
 4177 00a1 64796E32 		.ascii	"dyn2_setup\000"
 4177      5F736574 
 4177      757000
 4178              	.LASF11:
 4179 00ac 6C6F6E67 		.ascii	"long long int\000"
 4179      206C6F6E 
 4179      6720696E 
 4179      7400
 4180              	.LASF1:
 4181 00ba 7369676E 		.ascii	"signed char\000"
 4181      65642063 
 4181      68617200 
 4182              	.LASF68:
 4183 00c6 685F6D74 		.ascii	"h_mtx\000"
 4183      7800
 4184              	.LASF44:
 4185 00cc 705F6D70 		.ascii	"p_mpool\000"
 4185      6F6F6C00 
 4186              	.LASF14:
 4187 00d4 626F6F6C 		.ascii	"bool_t\000"
 4187      5F7400
 4188              	.LASF60:
 4189 00db 6D5F7175 		.ascii	"m_queue\000"
 4189      65756500 
 4190              	.LASF117:
 4191 00e3 74657374 		.ascii	"test_emit_token\000"
 4191      5F656D69 
 4191      745F746F 
 4191      6B656E00 
 4192              	.LASF131:
 4193 00f3 63684865 		.ascii	"chHeapFree\000"
 4193      61704672 
 4193      656500
 4194              	.LASF19:
 4195 00fe 74736C69 		.ascii	"tslices_t\000"
 4195      6365735F 
ARM GAS  /tmp/cczhW0CV.s 			page 76


 4195      7400
 4196              	.LASF8:
 4197 0108 6C6F6E67 		.ascii	"long int\000"
 4197      20696E74 
 4197      00
 4198              	.LASF112:
 4199 0111 63685468 		.ascii	"chThdCreateFromHeap\000"
 4199      64437265 
 4199      61746546 
 4199      726F6D48 
 4199      65617000 
 4200              	.LASF17:
 4201 0125 74737461 		.ascii	"tstate_t\000"
 4201      74655F74 
 4201      00
 4202              	.LASF75:
 4203 012e 6D705F6E 		.ascii	"mp_next\000"
 4203      65787400 
 4204              	.LASF102:
 4205 0136 64796E31 		.ascii	"dyn1_execute\000"
 4205      5F657865 
 4205      63757465 
 4205      00
 4206              	.LASF29:
 4207 0143 705F6E65 		.ascii	"p_newer\000"
 4207      77657200 
 4208              	.LASF120:
 4209 014b 63685468 		.ascii	"chThdCreateFromMemoryPool\000"
 4209      64437265 
 4209      61746546 
 4209      726F6D4D 
 4209      656D6F72 
 4210              	.LASF55:
 4211 0165 725F6E65 		.ascii	"r_newer\000"
 4211      77657200 
 4212              	.LASF77:
 4213 016d 6D705F70 		.ascii	"mp_provider\000"
 4213      726F7669 
 4213      64657200 
 4214              	.LASF47:
 4215 0179 72656761 		.ascii	"regarm_t\000"
 4215      726D5F74 
 4215      00
 4216              	.LASF71:
 4217 0182 616C6967 		.ascii	"align\000"
 4217      6E00
 4218              	.LASF32:
 4219 0188 705F7374 		.ascii	"p_stklimit\000"
 4219      6B6C696D 
 4219      697400
 4220              	.LASF0:
 4221 0193 756E7369 		.ascii	"unsigned int\000"
 4221      676E6564 
 4221      20696E74 
 4221      00
 4222              	.LASF10:
 4223 01a0 6C6F6E67 		.ascii	"long unsigned int\000"
ARM GAS  /tmp/cczhW0CV.s 			page 77


 4223      20756E73 
 4223      69676E65 
 4223      6420696E 
 4223      7400
 4224              	.LASF88:
 4225 01b2 74656172 		.ascii	"teardown\000"
 4225      646F776E 
 4225      00
 4226              	.LASF98:
 4227 01bb 64796E31 		.ascii	"dyn1_setup\000"
 4227      5F736574 
 4227      757000
 4228              	.LASF86:
 4229 01c6 6E616D65 		.ascii	"name\000"
 4229      00
 4230              	.LASF50:
 4231 01cb 636F6E74 		.ascii	"context\000"
 4231      65787400 
 4232              	.LASF72:
 4233 01d3 73697A65 		.ascii	"size\000"
 4233      00
 4234              	.LASF6:
 4235 01d8 73686F72 		.ascii	"short unsigned int\000"
 4235      7420756E 
 4235      7369676E 
 4235      65642069 
 4235      6E7400
 4236              	.LASF99:
 4237 01eb 64796E32 		.ascii	"dyn2_execute\000"
 4237      5F657865 
 4237      63757465 
 4237      00
 4238              	.LASF21:
 4239 01f8 6D73675F 		.ascii	"msg_t\000"
 4239      7400
 4240              	.LASF16:
 4241 01fe 746D6F64 		.ascii	"tmode_t\000"
 4241      655F7400 
 4242              	.LASF46:
 4243 0206 54687265 		.ascii	"ThreadsList\000"
 4243      6164734C 
 4243      69737400 
 4244              	.LASF22:
 4245 0212 6576656E 		.ascii	"eventmask_t\000"
 4245      746D6173 
 4245      6B5F7400 
 4246              	.LASF59:
 4247 021e 4D757465 		.ascii	"Mutex\000"
 4247      7800
 4248              	.LASF126:
 4249 0224 474E5520 		.ascii	"GNU C 4.7.4 20130613 (release) [ARM/embedded-4_7-br"
 4249      4320342E 
 4249      372E3420 
 4249      32303133 
 4249      30363133 
 4250 0257 616E6368 		.ascii	"anch revision 200083]\000"
 4250      20726576 
ARM GAS  /tmp/cczhW0CV.s 			page 78


 4250      6973696F 
 4250      6E203230 
 4250      30303833 
 4251              	.LASF48:
 4252 026d 73746B61 		.ascii	"stkalign_t\000"
 4252      6C69676E 
 4252      5F7400
 4253              	.LASF114:
 4254 0278 63685468 		.ascii	"chThdAddRef\000"
 4254      64416464 
 4254      52656600 
 4255              	.LASF51:
 4256 0284 73697A65 		.ascii	"sizetype\000"
 4256      74797065 
 4256      00
 4257              	.LASF107:
 4258 028d 74657374 		.ascii	"testdyn1\000"
 4258      64796E31 
 4258      00
 4259              	.LASF108:
 4260 0296 74657374 		.ascii	"testdyn2\000"
 4260      64796E32 
 4260      00
 4261              	.LASF109:
 4262 029f 74657374 		.ascii	"testdyn3\000"
 4262      64796E33 
 4262      00
 4263              	.LASF96:
 4264 02a8 64796E33 		.ascii	"dyn3_execute\000"
 4264      5F657865 
 4264      63757465 
 4264      00
 4265              	.LASF30:
 4266 02b5 705F6F6C 		.ascii	"p_older\000"
 4266      64657200 
 4267              	.LASF54:
 4268 02bd 725F6374 		.ascii	"r_ctx\000"
 4268      7800
 4269              	.LASF45:
 4270 02c3 54687265 		.ascii	"ThreadsQueue\000"
 4270      61647351 
 4270      75657565 
 4270      00
 4271              	.LASF76:
 4272 02d0 6D705F6F 		.ascii	"mp_object_size\000"
 4272      626A6563 
 4272      745F7369 
 4272      7A6500
 4273              	.LASF87:
 4274 02df 73657475 		.ascii	"setup\000"
 4274      7000
 4275              	.LASF121:
 4276 02e5 5F746573 		.ascii	"_test_assert_sequence\000"
 4276      745F6173 
 4276      73657274 
 4276      5F736571 
 4276      75656E63 
ARM GAS  /tmp/cczhW0CV.s 			page 79


 4277              	.LASF57:
 4278 02fb 725F6375 		.ascii	"r_current\000"
 4278      7272656E 
 4278      7400
 4279              	.LASF56:
 4280 0305 725F6F6C 		.ascii	"r_older\000"
 4280      64657200 
 4281              	.LASF64:
 4282 030d 4D656D6F 		.ascii	"MemoryHeap\000"
 4282      72794865 
 4282      617000
 4283              	.LASF74:
 4284 0318 70685F6E 		.ascii	"ph_next\000"
 4284      65787400 
 4285              	.LASF18:
 4286 0320 74726566 		.ascii	"trefs_t\000"
 4286      735F7400 
 4287              	.LASF128:
 4288 0328 2F686F6D 		.ascii	"/home/ondra6ak/Documents/ARM/ChibiOS/demos/helloWor"
 4288      652F6F6E 
 4288      64726136 
 4288      616B2F44 
 4288      6F63756D 
 4289 035b 6C6400   		.ascii	"ld\000"
 4290              	.LASF26:
 4291 035e 705F7072 		.ascii	"p_prev\000"
 4291      657600
 4292              	.LASF89:
 4293 0365 65786563 		.ascii	"execute\000"
 4293      75746500 
 4294              	.LASF20:
 4295 036d 74707269 		.ascii	"tprio_t\000"
 4295      6F5F7400 
 4296              	.LASF95:
 4297 0375 74687265 		.ascii	"thread\000"
 4297      616400
 4298              	.LASF15:
 4299 037c 5F426F6F 		.ascii	"_Bool\000"
 4299      6C00
 4300              	.LASF7:
 4301 0382 696E7433 		.ascii	"int32_t\000"
 4301      325F7400 
 4302              	.LASF4:
 4303 038a 756E7369 		.ascii	"unsigned char\000"
 4303      676E6564 
 4303      20636861 
 4303      7200
 4304              	.LASF66:
 4305 0398 685F7072 		.ascii	"h_provider\000"
 4305      6F766964 
 4305      657200
 4306              	.LASF42:
 4307 03a3 705F6D74 		.ascii	"p_mtxlist\000"
 4307      786C6973 
 4307      7400
 4308              	.LASF5:
 4309 03ad 73686F72 		.ascii	"short int\000"
ARM GAS  /tmp/cczhW0CV.s 			page 80


 4309      7420696E 
 4309      7400
 4310              	.LASF33:
 4311 03b7 705F7374 		.ascii	"p_state\000"
 4311      61746500 
 4312              	.LASF36:
 4313 03bf 705F7072 		.ascii	"p_preempt\000"
 4313      65656D70 
 4313      7400
 4314              	.LASF105:
 4315 03c9 74687265 		.ascii	"threads\000"
 4315      61647300 
 4316              	.LASF53:
 4317 03d1 725F7072 		.ascii	"r_prio\000"
 4317      696F00
 4318              	.LASF90:
 4319 03d8 68656170 		.ascii	"heap_header\000"
 4319      5F686561 
 4319      64657200 
 4320              	.LASF82:
 4321 03e4 65776D61 		.ascii	"ewmask\000"
 4321      736B00
 4322              	.LASF25:
 4323 03eb 705F6E65 		.ascii	"p_next\000"
 4323      787400
 4324              	.LASF34:
 4325 03f2 705F666C 		.ascii	"p_flags\000"
 4325      61677300 
 4326              	.LASF115:
 4327 03fa 63685468 		.ascii	"chThdRelease\000"
 4327      6452656C 
 4327      65617365 
 4327      00
 4328              	.LASF24:
 4329 0407 54687265 		.ascii	"Thread\000"
 4329      616400
 4330              	.LASF125:
 4331 040e 63684865 		.ascii	"chHeapAlloc\000"
 4331      6170416C 
 4331      6C6F6300 
 4332              	.LASF85:
 4333 041a 74657374 		.ascii	"testcase\000"
 4333      63617365 
 4333      00
 4334              	.LASF41:
 4335 0423 705F6570 		.ascii	"p_epending\000"
 4335      656E6469 
 4335      6E6700
 4336              	.LASF116:
 4337 042e 63685468 		.ascii	"chThdSleep\000"
 4337      64536C65 
 4337      657000
 4338              	.LASF9:
 4339 0439 75696E74 		.ascii	"uint32_t\000"
 4339      33325F74 
 4339      00
 4340              	.LASF52:
ARM GAS  /tmp/cczhW0CV.s 			page 81


 4341 0442 725F7175 		.ascii	"r_queue\000"
 4341      65756500 
 4342              	.LASF70:
 4343 044a 68656170 		.ascii	"heap\000"
 4343      00
 4344              	.LASF83:
 4345 044f 63686172 		.ascii	"char\000"
 4345      00
 4346              	.LASF111:
 4347 0454 63685265 		.ascii	"chRegNextThread\000"
 4347      674E6578 
 4347      74546872 
 4347      65616400 
 4348              	.LASF97:
 4349 0464 64796E33 		.ascii	"dyn3_setup\000"
 4349      5F736574 
 4349      757000
 4350              	.LASF124:
 4351 046f 63684865 		.ascii	"chHeapStatus\000"
 4351      61705374 
 4351      61747573 
 4351      00
 4352              	.LASF130:
 4353 047c 74657374 		.ascii	"test_wait_threads\000"
 4353      5F776169 
 4353      745F7468 
 4353      72656164 
 4353      7300
 4354              	.LASF62:
 4355 048e 6D5F6E65 		.ascii	"m_next\000"
 4355      787400
 4356              	.LASF23:
 4357 0495 73797374 		.ascii	"systime_t\000"
 4357      696D655F 
 4357      7400
 4358              	.LASF43:
 4359 049f 705F7265 		.ascii	"p_realprio\000"
 4359      616C7072 
 4359      696F00
 4360              	.LASF92:
 4361 04aa 62756666 		.ascii	"buffer\000"
 4361      657200
 4362              	.LASF110:
 4363 04b1 70617474 		.ascii	"patterndyn\000"
 4363      65726E64 
 4363      796E00
 4364              	.LASF37:
 4365 04bc 705F7469 		.ascii	"p_time\000"
 4365      6D6500
 4366              	.LASF49:
 4367 04c3 696E7463 		.ascii	"intctx\000"
 4367      747800
 4368              	.LASF39:
 4369 04ca 705F6D73 		.ascii	"p_msgqueue\000"
 4369      67717565 
 4369      756500
 4370              	.LASF127:
ARM GAS  /tmp/cczhW0CV.s 			page 82


 4371 04d5 2E2E2F2E 		.ascii	"../../test/testdyn.c\000"
 4371      2E2F7465 
 4371      73742F74 
 4371      65737464 
 4371      796E2E63 
 4372              	.LASF93:
 4373 04ea 666F756E 		.ascii	"found\000"
 4373      6400
 4374              	.LASF91:
 4375 04f0 74657374 		.ascii	"test_buffers\000"
 4375      5F627566 
 4375      66657273 
 4375      00
 4376              	.LASF73:
 4377 04fd 706F6F6C 		.ascii	"pool_header\000"
 4377      5F686561 
 4377      64657200 
 4378              	.LASF35:
 4379 0509 705F7265 		.ascii	"p_refs\000"
 4379      667300
 4380              	.LASF58:
 4381 0510 52656164 		.ascii	"ReadyList\000"
 4381      794C6973 
 4381      7400
 4382              	.LASF94:
 4383 051a 72656766 		.ascii	"regfind\000"
 4383      696E6400 
 4384              	.LASF104:
 4385 0522 726C6973 		.ascii	"rlist\000"
 4385      7400
 4386              	.LASF3:
 4387 0528 75696E74 		.ascii	"uint8_t\000"
 4387      385F7400 
 4388              	.LASF122:
 4389 0530 6368506F 		.ascii	"chPoolAlloc\000"
 4389      6F6C416C 
 4389      6C6F6300 
 4390              	.LASF119:
 4391 053c 6368506F 		.ascii	"chPoolFree\000"
 4391      6F6C4672 
 4391      656500
 4392              	.LASF81:
 4393 0547 77746F62 		.ascii	"wtobjp\000"
 4393      6A7000
 4394              	.LASF31:
 4395 054e 705F6E61 		.ascii	"p_name\000"
 4395      6D6500
 4396              	.LASF113:
 4397 0555 5F746573 		.ascii	"_test_assert\000"
 4397      745F6173 
 4397      73657274 
 4397      00
 4398              	.LASF61:
 4399 0562 6D5F6F77 		.ascii	"m_owner\000"
 4399      6E657200 
 4400              	.LASF28:
 4401 056a 705F6374 		.ascii	"p_ctx\000"
ARM GAS  /tmp/cczhW0CV.s 			page 83


 4401      7800
 4402              	.LASF38:
 4403 0570 705F7761 		.ascii	"p_waiting\000"
 4403      6974696E 
 4403      6700
 4404              	.LASF103:
 4405 057a 68656170 		.ascii	"heap1\000"
 4405      3100
 4406              	.LASF65:
 4407 0580 6D656D6F 		.ascii	"memory_heap\000"
 4407      72795F68 
 4407      65617000 
 4408              		.ident	"GCC: (GNU Tools for ARM Embedded Processors) 4.7.4 20130613 (release) [ARM/embedded-4_7-br
ARM GAS  /tmp/cczhW0CV.s 			page 84


DEFINED SYMBOLS
                            *ABS*:00000000 testdyn.c
     /tmp/cczhW0CV.s:19     .text.regfind:00000000 $t
     /tmp/cczhW0CV.s:24     .text.regfind:00000000 regfind
     /tmp/cczhW0CV.s:72     .text.dyn3_execute:00000000 $t
     /tmp/cczhW0CV.s:77     .text.dyn3_execute:00000000 dyn3_execute
     /tmp/cczhW0CV.s:259    .text.dyn3_execute:00000138 $d
     /tmp/cczhW0CV.s:272    .text.thread:00000000 thread
     /tmp/cczhW0CV.s:267    .text.thread:00000000 $t
     /tmp/cczhW0CV.s:296    .text.dyn3_setup:00000000 $t
     /tmp/cczhW0CV.s:301    .text.dyn3_setup:00000000 dyn3_setup
     /tmp/cczhW0CV.s:835    .bss.heap1:00000000 .LANCHOR0
     /tmp/cczhW0CV.s:322    .text.dyn1_setup:00000000 $t
     /tmp/cczhW0CV.s:327    .text.dyn1_setup:00000000 dyn1_setup
     /tmp/cczhW0CV.s:348    .text.dyn2_execute:00000000 $t
     /tmp/cczhW0CV.s:353    .text.dyn2_execute:00000000 dyn2_execute
     /tmp/cczhW0CV.s:546    .text.dyn2_execute:00000114 $d
     /tmp/cczhW0CV.s:561    .text.dyn2_setup:00000000 $t
     /tmp/cczhW0CV.s:566    .text.dyn2_setup:00000000 dyn2_setup
     /tmp/cczhW0CV.s:789    .bss.mp1:00000000 .LANCHOR1
     /tmp/cczhW0CV.s:586    .text.dyn1_execute:00000000 $t
     /tmp/cczhW0CV.s:591    .text.dyn1_execute:00000000 dyn1_execute
     /tmp/cczhW0CV.s:745    .text.dyn1_execute:000000d4 $d
     /tmp/cczhW0CV.s:828    .rodata.patterndyn:00000000 patterndyn
     /tmp/cczhW0CV.s:782    .rodata.testdyn3:00000000 testdyn3
     /tmp/cczhW0CV.s:773    .rodata.testdyn2:00000000 testdyn2
     /tmp/cczhW0CV.s:764    .rodata.testdyn1:00000000 testdyn1
     /tmp/cczhW0CV.s:761    .rodata.testdyn1:00000000 $d
     /tmp/cczhW0CV.s:770    .rodata.testdyn2:00000000 $d
     /tmp/cczhW0CV.s:779    .rodata.testdyn3:00000000 $d
     /tmp/cczhW0CV.s:788    .bss.mp1:00000000 $d
     /tmp/cczhW0CV.s:792    .bss.mp1:00000000 mp1
     /tmp/cczhW0CV.s:795    .rodata.str1.4:00000000 $d
     /tmp/cczhW0CV.s:825    .rodata.patterndyn:00000000 $d
     /tmp/cczhW0CV.s:834    .bss.heap1:00000000 $d
     /tmp/cczhW0CV.s:838    .bss.heap1:00000000 heap1
                     .debug_frame:00000010 $d
     /tmp/cczhW0CV.s:266    .text.dyn3_execute:00000148 $t
     /tmp/cczhW0CV.s:760    .text.dyn1_execute:000000f4 $t

UNDEFINED SYMBOLS
chRegFirstThread
chRegNextThread
chThdCreateFromHeap
_test_assert
chThdAddRef
chThdRelease
chThdSleep
rlist
test_emit_token
test
chHeapInit
chPoolFree
chThdCreateFromMemoryPool
test_wait_threads
_test_assert_sequence
chPoolAlloc
ARM GAS  /tmp/cczhW0CV.s 			page 85


wa
threads
chPoolInit
chHeapStatus
chHeapAlloc
chHeapFree
