ARM GAS  /tmp/cclD4Ht8.s 			page 1


   1              		.syntax unified
   2              		.cpu cortex-m3
   3              		.fpu softvfp
   4              		.eabi_attribute 20, 1
   5              		.eabi_attribute 21, 1
   6              		.eabi_attribute 23, 3
   7              		.eabi_attribute 24, 1
   8              		.eabi_attribute 25, 1
   9              		.eabi_attribute 26, 1
  10              		.eabi_attribute 30, 2
  11              		.eabi_attribute 34, 1
  12              		.eabi_attribute 18, 4
  13              		.thumb
  14              		.file	"testbmk.c"
  15              		.text
  16              	.Ltext0:
  17              		.cfi_sections	.debug_frame
  18              		.section	.text.thread2,"ax",%progbits
  19              		.align	2
  20              		.p2align 4,,15
  21              		.thumb
  22              		.thumb_func
  23              		.type	thread2, %function
  24              	thread2:
  25              	.LFB11:
  26              		.file 1 "../../test/testbmk.c"
  27              		.loc 1 154 0
  28              		.cfi_startproc
  29              		@ args = 0, pretend = 0, frame = 0
  30              		@ frame_needed = 0, uses_anonymous_args = 0
  31              		@ link register save eliminated.
  32              	.LVL0:
  33              		.loc 1 157 0
  34 0000 7047     		bx	lr
  35              		.cfi_endproc
  36              	.LFE11:
  37              		.size	thread2, .-thread2
  38 0002 00BFAFF3 		.section	.text.tmo,"ax",%progbits
  38      0080AFF3 
  38      0080AFF3 
  38      0080
  39              		.align	2
  40              		.p2align 4,,15
  41              		.thumb
  42              		.thumb_func
  43              		.type	tmo, %function
  44              	tmo:
  45              	.LFB23:
  46              		.loc 1 502 0
  47              		.cfi_startproc
  48              		@ args = 0, pretend = 0, frame = 0
  49              		@ frame_needed = 0, uses_anonymous_args = 0
  50              		@ link register save eliminated.
  51              	.LVL1:
  52 0000 7047     		bx	lr
  53              		.cfi_endproc
  54              	.LFE23:
ARM GAS  /tmp/cclD4Ht8.s 			page 2


  55              		.size	tmo, .-tmo
  56 0002 00BFAFF3 		.section	.text.bmk13_execute,"ax",%progbits
  56      0080AFF3 
  56      0080AFF3 
  56      0080
  57              		.align	2
  58              		.p2align 4,,15
  59              		.thumb
  60              		.thumb_func
  61              		.type	bmk13_execute, %function
  62              	bmk13_execute:
  63              	.LFB29:
  64              		.loc 1 637 0
  65              		.cfi_startproc
  66              		@ args = 0, pretend = 0, frame = 0
  67              		@ frame_needed = 0, uses_anonymous_args = 0
  68              		.loc 1 639 0
  69 0000 40F20000 		movw	r0, #:lower16:.LC0
  70              		.loc 1 637 0
  71 0004 10B5     		push	{r4, lr}
  72              	.LCFI0:
  73              		.cfi_def_cfa_offset 8
  74              		.cfi_offset 4, -8
  75              		.cfi_offset 14, -4
  76              		.loc 1 639 0
  77 0006 C0F20000 		movt	r0, #:upper16:.LC0
  78              		.loc 1 645 0
  79 000a 40F20004 		movw	r4, #:lower16:.LC1
  80 000e C0F20004 		movt	r4, #:upper16:.LC1
  81              		.loc 1 639 0
  82 0012 FFF7FEFF 		bl	test_print
  83              	.LVL2:
  84              		.loc 1 640 0
  85 0016 4FF4CE70 		mov	r0, #412
  86 001a FFF7FEFF 		bl	test_printn
  87              	.LVL3:
  88              		.loc 1 645 0
  89 001e 2046     		mov	r0, r4
  90 0020 FFF7FEFF 		bl	test_println
  91              	.LVL4:
  92              		.loc 1 646 0
  93 0024 40F20000 		movw	r0, #:lower16:.LC2
  94 0028 C0F20000 		movt	r0, #:upper16:.LC2
  95 002c FFF7FEFF 		bl	test_print
  96              	.LVL5:
  97              		.loc 1 647 0
  98 0030 4C20     		movs	r0, #76
  99 0032 FFF7FEFF 		bl	test_printn
 100              	.LVL6:
 101              		.loc 1 648 0
 102 0036 2046     		mov	r0, r4
 103 0038 FFF7FEFF 		bl	test_println
 104              	.LVL7:
 105              		.loc 1 649 0
 106 003c 40F20000 		movw	r0, #:lower16:.LC3
 107 0040 C0F20000 		movt	r0, #:upper16:.LC3
 108 0044 FFF7FEFF 		bl	test_print
ARM GAS  /tmp/cclD4Ht8.s 			page 3


 109              	.LVL8:
 110              		.loc 1 650 0
 111 0048 1420     		movs	r0, #20
 112 004a FFF7FEFF 		bl	test_printn
 113              	.LVL9:
 114              		.loc 1 651 0
 115 004e 2046     		mov	r0, r4
 116 0050 FFF7FEFF 		bl	test_println
 117              	.LVL10:
 118              		.loc 1 653 0
 119 0054 40F20000 		movw	r0, #:lower16:.LC4
 120 0058 C0F20000 		movt	r0, #:upper16:.LC4
 121 005c FFF7FEFF 		bl	test_print
 122              	.LVL11:
 123              		.loc 1 654 0
 124 0060 0C20     		movs	r0, #12
 125 0062 FFF7FEFF 		bl	test_printn
 126              	.LVL12:
 127              		.loc 1 655 0
 128 0066 2046     		mov	r0, r4
 129 0068 FFF7FEFF 		bl	test_println
 130              	.LVL13:
 131              		.loc 1 658 0
 132 006c 40F20000 		movw	r0, #:lower16:.LC5
 133 0070 C0F20000 		movt	r0, #:upper16:.LC5
 134 0074 FFF7FEFF 		bl	test_print
 135              	.LVL14:
 136              		.loc 1 659 0
 137 0078 0420     		movs	r0, #4
 138 007a FFF7FEFF 		bl	test_printn
 139              	.LVL15:
 140              		.loc 1 660 0
 141 007e 2046     		mov	r0, r4
 142 0080 FFF7FEFF 		bl	test_println
 143              	.LVL16:
 144              		.loc 1 661 0
 145 0084 40F20000 		movw	r0, #:lower16:.LC6
 146 0088 C0F20000 		movt	r0, #:upper16:.LC6
 147 008c FFF7FEFF 		bl	test_print
 148              	.LVL17:
 149              		.loc 1 662 0
 150 0090 1020     		movs	r0, #16
 151 0092 FFF7FEFF 		bl	test_printn
 152              	.LVL18:
 153              		.loc 1 663 0
 154 0096 2046     		mov	r0, r4
 155 0098 FFF7FEFF 		bl	test_println
 156              	.LVL19:
 157              		.loc 1 666 0
 158 009c 40F20000 		movw	r0, #:lower16:.LC7
 159 00a0 C0F20000 		movt	r0, #:upper16:.LC7
 160 00a4 FFF7FEFF 		bl	test_print
 161              	.LVL20:
 162              		.loc 1 667 0
 163 00a8 1020     		movs	r0, #16
 164 00aa FFF7FEFF 		bl	test_printn
 165              	.LVL21:
ARM GAS  /tmp/cclD4Ht8.s 			page 4


 166              		.loc 1 668 0
 167 00ae 2046     		mov	r0, r4
 168 00b0 FFF7FEFF 		bl	test_println
 169              	.LVL22:
 170              		.loc 1 671 0
 171 00b4 40F20000 		movw	r0, #:lower16:.LC8
 172 00b8 C0F20000 		movt	r0, #:upper16:.LC8
 173 00bc FFF7FEFF 		bl	test_print
 174              	.LVL23:
 175              		.loc 1 672 0
 176 00c0 0820     		movs	r0, #8
 177 00c2 FFF7FEFF 		bl	test_printn
 178              	.LVL24:
 179              		.loc 1 673 0
 180 00c6 2046     		mov	r0, r4
 181 00c8 FFF7FEFF 		bl	test_println
 182              	.LVL25:
 183              		.loc 1 676 0
 184 00cc 40F20000 		movw	r0, #:lower16:.LC9
 185 00d0 C0F20000 		movt	r0, #:upper16:.LC9
 186 00d4 FFF7FEFF 		bl	test_print
 187              	.LVL26:
 188              		.loc 1 677 0
 189 00d8 2420     		movs	r0, #36
 190 00da FFF7FEFF 		bl	test_printn
 191              	.LVL27:
 192              		.loc 1 678 0
 193 00de 2046     		mov	r0, r4
 194 00e0 FFF7FEFF 		bl	test_println
 195              	.LVL28:
 196              		.loc 1 681 0
 197 00e4 40F20000 		movw	r0, #:lower16:.LC10
 198 00e8 C0F20000 		movt	r0, #:upper16:.LC10
 199 00ec FFF7FEFF 		bl	test_print
 200              	.LVL29:
 201              		.loc 1 682 0
 202 00f0 2820     		movs	r0, #40
 203 00f2 FFF7FEFF 		bl	test_printn
 204              	.LVL30:
 205              		.loc 1 683 0
 206 00f6 2046     		mov	r0, r4
 207              		.loc 1 685 0
 208 00f8 BDE81040 		pop	{r4, lr}
 209              		.loc 1 683 0
 210 00fc FFF7FEBF 		b	test_println
 211              	.LVL31:
 212              		.cfi_endproc
 213              	.LFE29:
 214              		.size	bmk13_execute, .-bmk13_execute
 215              		.section	.text.bmk12_execute,"ax",%progbits
 216              		.align	2
 217              		.p2align 4,,15
 218              		.thumb
 219              		.thumb_func
 220              		.type	bmk12_execute, %function
 221              	bmk12_execute:
 222              	.LFB28:
ARM GAS  /tmp/cclD4Ht8.s 			page 5


 223              		.loc 1 598 0
 224              		.cfi_startproc
 225              		@ args = 0, pretend = 0, frame = 0
 226              		@ frame_needed = 0, uses_anonymous_args = 0
 227              	.LVL32:
 228 0000 38B5     		push	{r3, r4, r5, lr}
 229              	.LCFI1:
 230              		.cfi_def_cfa_offset 16
 231              		.cfi_offset 3, -16
 232              		.cfi_offset 4, -12
 233              		.cfi_offset 5, -8
 234              		.cfi_offset 14, -4
 235              		.loc 1 601 0
 236 0002 FFF7FEFF 		bl	test_wait_tick
 237              	.LVL33:
 238              		.loc 1 602 0
 239 0006 4FF47A70 		mov	r0, #1000
 240 000a FFF7FEFF 		bl	test_start_timer
 241              	.LVL34:
 242 000e 124D     		ldr	r5, .L11
 243              		.loc 1 599 0
 244 0010 0024     		movs	r4, #0
 245              	.LVL35:
 246              	.L5:
 247              		.loc 1 604 0 discriminator 1
 248 0012 1248     		ldr	r0, .L11+4
 249 0014 FFF7FEFF 		bl	chMtxLock
 250              	.LVL36:
 251              		.loc 1 605 0 discriminator 1
 252 0018 FFF7FEFF 		bl	chMtxUnlock
 253              	.LVL37:
 254              		.loc 1 606 0 discriminator 1
 255 001c 0F48     		ldr	r0, .L11+4
 256 001e FFF7FEFF 		bl	chMtxLock
 257              	.LVL38:
 258              		.loc 1 607 0 discriminator 1
 259 0022 FFF7FEFF 		bl	chMtxUnlock
 260              	.LVL39:
 261              		.loc 1 608 0 discriminator 1
 262 0026 0D48     		ldr	r0, .L11+4
 263 0028 FFF7FEFF 		bl	chMtxLock
 264              	.LVL40:
 265              		.loc 1 609 0 discriminator 1
 266 002c FFF7FEFF 		bl	chMtxUnlock
 267              	.LVL41:
 268              		.loc 1 610 0 discriminator 1
 269 0030 0A48     		ldr	r0, .L11+4
 270 0032 FFF7FEFF 		bl	chMtxLock
 271              	.LVL42:
 272              		.loc 1 611 0 discriminator 1
 273 0036 FFF7FEFF 		bl	chMtxUnlock
 274              	.LVL43:
 275              		.loc 1 616 0 discriminator 1
 276 003a 2B78     		ldrb	r3, [r5, #0]	@ zero_extendqisi2
 277              		.loc 1 612 0 discriminator 1
 278 003c 0134     		adds	r4, r4, #1
 279              	.LVL44:
ARM GAS  /tmp/cclD4Ht8.s 			page 6


 280              		.loc 1 616 0 discriminator 1
 281 003e 002B     		cmp	r3, #0
 282 0040 E7D0     		beq	.L5
 283              		.loc 1 617 0
 284 0042 0748     		ldr	r0, .L11+8
 285 0044 FFF7FEFF 		bl	test_print
 286              	.LVL45:
 287              		.loc 1 618 0
 288 0048 A000     		lsls	r0, r4, #2
 289 004a FFF7FEFF 		bl	test_printn
 290              	.LVL46:
 291              		.loc 1 619 0
 292 004e 0548     		ldr	r0, .L11+12
 293              		.loc 1 620 0
 294 0050 BDE83840 		pop	{r3, r4, r5, lr}
 295              		.loc 1 619 0
 296 0054 FFF7FEBF 		b	test_println
 297              	.LVL47:
 298              	.L12:
 299              		.align	2
 300              	.L11:
 301 0058 00000000 		.word	test_timer_done
 302 005c 00000000 		.word	.LANCHOR0
 303 0060 A8000000 		.word	.LC11
 304 0064 B8000000 		.word	.LC12
 305              		.cfi_endproc
 306              	.LFE28:
 307              		.size	bmk12_execute, .-bmk12_execute
 308 0068 AFF30080 		.section	.text.bmk12_setup,"ax",%progbits
 308      AFF30080 
 309              		.align	2
 310              		.p2align 4,,15
 311              		.thumb
 312              		.thumb_func
 313              		.type	bmk12_setup, %function
 314              	bmk12_setup:
 315              	.LFB27:
 316              		.loc 1 593 0
 317              		.cfi_startproc
 318              		@ args = 0, pretend = 0, frame = 0
 319              		@ frame_needed = 0, uses_anonymous_args = 0
 320              		@ link register save eliminated.
 321              		.loc 1 595 0
 322 0000 40F20000 		movw	r0, #:lower16:.LANCHOR0
 323 0004 C0F20000 		movt	r0, #:upper16:.LANCHOR0
 324              		.loc 1 596 0
 325              		.loc 1 595 0
 326 0008 FFF7FEBF 		b	chMtxInit
 327              	.LVL48:
 328              		.cfi_endproc
 329              	.LFE27:
 330              		.size	bmk12_setup, .-bmk12_setup
 331 000c AFF30080 		.section	.text.thread3,"ax",%progbits
 332              		.align	2
 333              		.p2align 4,,15
 334              		.thumb
 335              		.thumb_func
ARM GAS  /tmp/cclD4Ht8.s 			page 7


 336              		.type	thread3, %function
 337              	thread3:
 338              	.LFB17:
 339              		.loc 1 341 0
 340              		.cfi_startproc
 341              		@ args = 0, pretend = 0, frame = 0
 342              		@ frame_needed = 0, uses_anonymous_args = 0
 343              	.LVL49:
 344 0000 10B5     		push	{r4, lr}
 345              	.LCFI2:
 346              		.cfi_def_cfa_offset 8
 347              		.cfi_offset 4, -8
 348              		.cfi_offset 14, -4
 349              		.loc 1 344 0
 350 0002 074C     		ldr	r4, .L27
 351 0004 02E0     		b	.L25
 352              	.LVL50:
 353              	.L26:
 354              		.loc 1 345 0
 355 0006 0748     		ldr	r0, .L27+4
 356 0008 FFF7FEFF 		bl	chSemWait
 357              	.LVL51:
 358              	.L25:
 359              		.loc 1 344 0
 360 000c A369     		ldr	r3, [r4, #24]
 361 000e 93F82100 		ldrb	r0, [r3, #33]	@ zero_extendqisi2
 362 0012 00F00401 		and	r1, r0, #4
 363 0016 CAB2     		uxtb	r2, r1
 364 0018 002A     		cmp	r2, #0
 365 001a F4D0     		beq	.L26
 366              		.loc 1 347 0
 367 001c 0020     		movs	r0, #0
 368 001e 10BD     		pop	{r4, pc}
 369              	.L28:
 370              		.align	2
 371              	.L27:
 372 0020 00000000 		.word	rlist
 373 0024 00000000 		.word	.LANCHOR1
 374              		.cfi_endproc
 375              	.LFE17:
 376              		.size	thread3, .-thread3
 377 0028 AFF30080 		.section	.text.bmk11_execute,"ax",%progbits
 377      AFF30080 
 378              		.align	2
 379              		.p2align 4,,15
 380              		.thumb
 381              		.thumb_func
 382              		.type	bmk11_execute, %function
 383              	bmk11_execute:
 384              	.LFB26:
 385              		.loc 1 550 0
 386              		.cfi_startproc
 387              		@ args = 0, pretend = 0, frame = 0
 388              		@ frame_needed = 0, uses_anonymous_args = 0
 389              	.LVL52:
 390 0000 38B5     		push	{r3, r4, r5, lr}
 391              	.LCFI3:
ARM GAS  /tmp/cclD4Ht8.s 			page 8


 392              		.cfi_def_cfa_offset 16
 393              		.cfi_offset 3, -16
 394              		.cfi_offset 4, -12
 395              		.cfi_offset 5, -8
 396              		.cfi_offset 14, -4
 397              		.loc 1 553 0
 398 0002 FFF7FEFF 		bl	test_wait_tick
 399              	.LVL53:
 400              		.loc 1 554 0
 401 0006 4FF47A70 		mov	r0, #1000
 402 000a FFF7FEFF 		bl	test_start_timer
 403              	.LVL54:
 404 000e 144D     		ldr	r5, .L35
 405              		.loc 1 551 0
 406 0010 0024     		movs	r4, #0
 407              	.LVL55:
 408              	.L30:
 409              		.loc 1 556 0 discriminator 1
 410 0012 1448     		ldr	r0, .L35+4
 411 0014 FFF7FEFF 		bl	chSemWait
 412              	.LVL56:
 413              		.loc 1 557 0 discriminator 1
 414 0018 1248     		ldr	r0, .L35+4
 415 001a FFF7FEFF 		bl	chSemSignal
 416              	.LVL57:
 417              		.loc 1 558 0 discriminator 1
 418 001e 1148     		ldr	r0, .L35+4
 419 0020 FFF7FEFF 		bl	chSemWait
 420              	.LVL58:
 421              		.loc 1 559 0 discriminator 1
 422 0024 0F48     		ldr	r0, .L35+4
 423 0026 FFF7FEFF 		bl	chSemSignal
 424              	.LVL59:
 425              		.loc 1 560 0 discriminator 1
 426 002a 0E48     		ldr	r0, .L35+4
 427 002c FFF7FEFF 		bl	chSemWait
 428              	.LVL60:
 429              		.loc 1 561 0 discriminator 1
 430 0030 0C48     		ldr	r0, .L35+4
 431 0032 FFF7FEFF 		bl	chSemSignal
 432              	.LVL61:
 433              		.loc 1 562 0 discriminator 1
 434 0036 0B48     		ldr	r0, .L35+4
 435 0038 FFF7FEFF 		bl	chSemWait
 436              	.LVL62:
 437              		.loc 1 563 0 discriminator 1
 438 003c 0948     		ldr	r0, .L35+4
 439 003e FFF7FEFF 		bl	chSemSignal
 440              	.LVL63:
 441              		.loc 1 568 0 discriminator 1
 442 0042 2B78     		ldrb	r3, [r5, #0]	@ zero_extendqisi2
 443              		.loc 1 564 0 discriminator 1
 444 0044 0134     		adds	r4, r4, #1
 445              	.LVL64:
 446              		.loc 1 568 0 discriminator 1
 447 0046 002B     		cmp	r3, #0
 448 0048 E3D0     		beq	.L30
ARM GAS  /tmp/cclD4Ht8.s 			page 9


 449              		.loc 1 569 0
 450 004a 0748     		ldr	r0, .L35+8
 451 004c FFF7FEFF 		bl	test_print
 452              	.LVL65:
 453              		.loc 1 570 0
 454 0050 A000     		lsls	r0, r4, #2
 455 0052 FFF7FEFF 		bl	test_printn
 456              	.LVL66:
 457              		.loc 1 571 0
 458 0056 0548     		ldr	r0, .L35+12
 459              		.loc 1 572 0
 460 0058 BDE83840 		pop	{r3, r4, r5, lr}
 461              		.loc 1 571 0
 462 005c FFF7FEBF 		b	test_println
 463              	.LVL67:
 464              	.L36:
 465              		.align	2
 466              	.L35:
 467 0060 00000000 		.word	test_timer_done
 468 0064 00000000 		.word	.LANCHOR1
 469 0068 A8000000 		.word	.LC11
 470 006c C8000000 		.word	.LC13
 471              		.cfi_endproc
 472              	.LFE26:
 473              		.size	bmk11_execute, .-bmk11_execute
 474              		.section	.text.bmk11_setup,"ax",%progbits
 475              		.align	2
 476              		.p2align 4,,15
 477              		.thumb
 478              		.thumb_func
 479              		.type	bmk11_setup, %function
 480              	bmk11_setup:
 481              	.LFB25:
 482              		.loc 1 545 0
 483              		.cfi_startproc
 484              		@ args = 0, pretend = 0, frame = 0
 485              		@ frame_needed = 0, uses_anonymous_args = 0
 486              		@ link register save eliminated.
 487              		.loc 1 547 0
 488 0000 40F20000 		movw	r0, #:lower16:.LANCHOR1
 489 0004 C0F20000 		movt	r0, #:upper16:.LANCHOR1
 490 0008 0121     		movs	r1, #1
 491              		.loc 1 548 0
 492              		.loc 1 547 0
 493 000a FFF7FEBF 		b	chSemInit
 494              	.LVL68:
 495              		.cfi_endproc
 496              	.LFE25:
 497              		.size	bmk11_setup, .-bmk11_setup
 498 000e 00BF     		.section	.text.bmk7_setup,"ax",%progbits
 499              		.align	2
 500              		.p2align 4,,15
 501              		.thumb
 502              		.thumb_func
 503              		.type	bmk7_setup, %function
 504              	bmk7_setup:
 505              	.LFB18:
ARM GAS  /tmp/cclD4Ht8.s 			page 10


 506              		.loc 1 349 0
 507              		.cfi_startproc
 508              		@ args = 0, pretend = 0, frame = 0
 509              		@ frame_needed = 0, uses_anonymous_args = 0
 510              		@ link register save eliminated.
 511              		.loc 1 351 0
 512 0000 40F20000 		movw	r0, #:lower16:.LANCHOR1
 513 0004 C0F20000 		movt	r0, #:upper16:.LANCHOR1
 514 0008 0021     		movs	r1, #0
 515              		.loc 1 352 0
 516              		.loc 1 351 0
 517 000a FFF7FEBF 		b	chSemInit
 518              	.LVL69:
 519              		.cfi_endproc
 520              	.LFE18:
 521              		.size	bmk7_setup, .-bmk7_setup
 522 000e 00BF     		.section	.text.bmk10_execute,"ax",%progbits
 523              		.align	2
 524              		.p2align 4,,15
 525              		.thumb
 526              		.thumb_func
 527              		.type	bmk10_execute, %function
 528              	bmk10_execute:
 529              	.LFB24:
 530              		.loc 1 504 0
 531              		.cfi_startproc
 532              		@ args = 0, pretend = 0, frame = 0
 533              		@ frame_needed = 0, uses_anonymous_args = 0
 534              	.LVL70:
 535 0000 38B5     		push	{r3, r4, r5, lr}
 536              	.LCFI4:
 537              		.cfi_def_cfa_offset 16
 538              		.cfi_offset 3, -16
 539              		.cfi_offset 4, -12
 540              		.cfi_offset 5, -8
 541              		.cfi_offset 14, -4
 542              		.loc 1 508 0
 543 0002 FFF7FEFF 		bl	test_wait_tick
 544              	.LVL71:
 545              		.loc 1 509 0
 546 0006 4FF47A70 		mov	r0, #1000
 547 000a FFF7FEFF 		bl	test_start_timer
 548              	.LVL72:
 549 000e 174D     		ldr	r5, .L45
 550              		.loc 1 506 0
 551 0010 0024     		movs	r4, #0
 552              	.LVL73:
 553              	.L40:
 554              	.LBB2:
 555              		.loc 1 511 0 discriminator 1
 556 0012 2023     		movs	r3, #32
 557              	.LVL74:
 558              	@ 511 "../../test/testbmk.c" 1
 559 0014 83F31188 		msr     BASEPRI, r3
 560              	@ 0 "" 2
 561              	.LVL75:
 562              		.thumb
ARM GAS  /tmp/cclD4Ht8.s 			page 11


 563              	.LBE2:
 564 0018 FFF7FEFF 		bl	dbg_check_lock
 565              	.LVL76:
 566              		.loc 1 512 0 discriminator 1
 567 001c 0121     		movs	r1, #1
 568 001e 0023     		movs	r3, #0
 569 0020 1348     		ldr	r0, .L45+4
 570 0022 144A     		ldr	r2, .L45+8
 571 0024 FFF7FEFF 		bl	chVTSetI
 572              	.LVL77:
 573              		.loc 1 513 0 discriminator 1
 574 0028 0023     		movs	r3, #0
 575 002a 42F21071 		movw	r1, #10000
 576 002e 114A     		ldr	r2, .L45+8
 577 0030 1148     		ldr	r0, .L45+12
 578 0032 FFF7FEFF 		bl	chVTSetI
 579              	.LVL78:
 580              		.loc 1 514 0 discriminator 1
 581 0036 0E48     		ldr	r0, .L45+4
 582 0038 FFF7FEFF 		bl	chVTResetI
 583              	.LVL79:
 584              		.loc 1 515 0 discriminator 1
 585 003c 0E48     		ldr	r0, .L45+12
 586 003e FFF7FEFF 		bl	chVTResetI
 587              	.LVL80:
 588              		.loc 1 516 0 discriminator 1
 589 0042 FFF7FEFF 		bl	dbg_check_unlock
 590              	.LVL81:
 591              	.LBB3:
 592 0046 0023     		movs	r3, #0
 593              	.LVL82:
 594              	@ 516 "../../test/testbmk.c" 1
 595 0048 83F31188 		msr     BASEPRI, r3
 596              	@ 0 "" 2
 597              	.LVL83:
 598              		.thumb
 599              	.LBE3:
 600              		.loc 1 521 0 discriminator 1
 601 004c 2B78     		ldrb	r3, [r5, #0]	@ zero_extendqisi2
 602              	.LVL84:
 603              		.loc 1 517 0 discriminator 1
 604 004e 0134     		adds	r4, r4, #1
 605              	.LVL85:
 606              		.loc 1 521 0 discriminator 1
 607 0050 002B     		cmp	r3, #0
 608 0052 DED0     		beq	.L40
 609              		.loc 1 522 0
 610 0054 0948     		ldr	r0, .L45+16
 611 0056 FFF7FEFF 		bl	test_print
 612              	.LVL86:
 613              		.loc 1 523 0
 614 005a 6000     		lsls	r0, r4, #1
 615 005c FFF7FEFF 		bl	test_printn
 616              	.LVL87:
 617              		.loc 1 524 0
 618 0060 0748     		ldr	r0, .L45+20
 619              		.loc 1 525 0
ARM GAS  /tmp/cclD4Ht8.s 			page 12


 620 0062 BDE83840 		pop	{r3, r4, r5, lr}
 621              		.loc 1 524 0
 622 0066 FFF7FEBF 		b	test_println
 623              	.LVL88:
 624              	.L46:
 625 006a 00BF     		.align	2
 626              	.L45:
 627 006c 00000000 		.word	test_timer_done
 628 0070 00000000 		.word	.LANCHOR2
 629 0074 00000000 		.word	tmo
 630 0078 00000000 		.word	.LANCHOR3
 631 007c A8000000 		.word	.LC11
 632 0080 D8000000 		.word	.LC14
 633              		.cfi_endproc
 634              	.LFE24:
 635              		.size	bmk10_execute, .-bmk10_execute
 636 0084 AFF30080 		.section	.text.bmk9_execute,"ax",%progbits
 636      AFF30080 
 636      AFF30080 
 637              		.align	2
 638              		.p2align 4,,15
 639              		.thumb
 640              		.thumb_func
 641              		.type	bmk9_execute, %function
 642              	bmk9_execute:
 643              	.LFB22:
 644              		.loc 1 455 0
 645              		.cfi_startproc
 646              		@ args = 0, pretend = 0, frame = 0
 647              		@ frame_needed = 0, uses_anonymous_args = 0
 648 0000 30B5     		push	{r4, r5, lr}
 649              	.LCFI5:
 650              		.cfi_def_cfa_offset 12
 651              		.cfi_offset 4, -12
 652              		.cfi_offset 5, -8
 653              		.cfi_offset 14, -4
 654              		.loc 1 460 0
 655 0002 0024     		movs	r4, #0
 656              		.loc 1 455 0
 657 0004 83B0     		sub	sp, sp, #12
 658              	.LCFI6:
 659              		.cfi_def_cfa_offset 24
 660              		.loc 1 460 0
 661 0006 2649     		ldr	r1, .L53
 662 0008 1022     		movs	r2, #16
 663 000a 2346     		mov	r3, r4
 664 000c 2548     		ldr	r0, .L53+4
 665 000e 0094     		str	r4, [sp, #0]
 666 0010 FFF7FEFF 		bl	chIQInit
 667              	.LVL89:
 668              		.loc 1 462 0
 669 0014 FFF7FEFF 		bl	test_wait_tick
 670              	.LVL90:
 671              		.loc 1 463 0
 672 0018 4FF47A70 		mov	r0, #1000
 673 001c FFF7FEFF 		bl	test_start_timer
 674              	.LVL91:
ARM GAS  /tmp/cclD4Ht8.s 			page 13


 675 0020 214D     		ldr	r5, .L53+8
 676              	.LVL92:
 677              	.L48:
 678              	.LBB4:
 679              		.loc 1 465 0 discriminator 1
 680 0022 2023     		movs	r3, #32
 681              	.LVL93:
 682              	@ 465 "../../test/testbmk.c" 1
 683 0024 83F31188 		msr     BASEPRI, r3
 684              	@ 0 "" 2
 685              	.LVL94:
 686              		.thumb
 687              	.LBE4:
 688 0028 FFF7FEFF 		bl	dbg_check_lock
 689              	.LVL95:
 690              		.loc 1 466 0 discriminator 1
 691 002c 0021     		movs	r1, #0
 692 002e 1D48     		ldr	r0, .L53+4
 693 0030 FFF7FEFF 		bl	chIQPutI
 694              	.LVL96:
 695              		.loc 1 467 0 discriminator 1
 696 0034 0121     		movs	r1, #1
 697 0036 1B48     		ldr	r0, .L53+4
 698 0038 FFF7FEFF 		bl	chIQPutI
 699              	.LVL97:
 700              		.loc 1 468 0 discriminator 1
 701 003c 0221     		movs	r1, #2
 702 003e 1948     		ldr	r0, .L53+4
 703 0040 FFF7FEFF 		bl	chIQPutI
 704              	.LVL98:
 705              		.loc 1 469 0 discriminator 1
 706 0044 0321     		movs	r1, #3
 707 0046 1748     		ldr	r0, .L53+4
 708 0048 FFF7FEFF 		bl	chIQPutI
 709              	.LVL99:
 710              		.loc 1 470 0 discriminator 1
 711 004c FFF7FEFF 		bl	dbg_check_unlock
 712              	.LVL100:
 713              	.LBB5:
 714 0050 0023     		movs	r3, #0
 715              	.LVL101:
 716              	@ 470 "../../test/testbmk.c" 1
 717 0052 83F31188 		msr     BASEPRI, r3
 718              	@ 0 "" 2
 719              	.LVL102:
 720              		.thumb
 721              	.LBE5:
 722              		.loc 1 471 0 discriminator 1
 723 0056 4FF0FF31 		mov	r1, #-1
 724 005a 1248     		ldr	r0, .L53+4
 725 005c FFF7FEFF 		bl	chIQGetTimeout
 726              	.LVL103:
 727              		.loc 1 472 0 discriminator 1
 728 0060 4FF0FF31 		mov	r1, #-1
 729 0064 0F48     		ldr	r0, .L53+4
 730 0066 FFF7FEFF 		bl	chIQGetTimeout
 731              	.LVL104:
ARM GAS  /tmp/cclD4Ht8.s 			page 14


 732              		.loc 1 473 0 discriminator 1
 733 006a 4FF0FF31 		mov	r1, #-1
 734 006e 0D48     		ldr	r0, .L53+4
 735 0070 FFF7FEFF 		bl	chIQGetTimeout
 736              	.LVL105:
 737              		.loc 1 474 0 discriminator 1
 738 0074 0B48     		ldr	r0, .L53+4
 739 0076 4FF0FF31 		mov	r1, #-1
 740 007a FFF7FEFF 		bl	chIQGetTimeout
 741              	.LVL106:
 742              		.loc 1 479 0 discriminator 1
 743 007e 2B78     		ldrb	r3, [r5, #0]	@ zero_extendqisi2
 744              		.loc 1 475 0 discriminator 1
 745 0080 0134     		adds	r4, r4, #1
 746              	.LVL107:
 747              		.loc 1 479 0 discriminator 1
 748 0082 002B     		cmp	r3, #0
 749 0084 CDD0     		beq	.L48
 750              		.loc 1 480 0
 751 0086 0948     		ldr	r0, .L53+12
 752 0088 FFF7FEFF 		bl	test_print
 753              	.LVL108:
 754              		.loc 1 481 0
 755 008c A000     		lsls	r0, r4, #2
 756 008e FFF7FEFF 		bl	test_printn
 757              	.LVL109:
 758              		.loc 1 482 0
 759 0092 0748     		ldr	r0, .L53+16
 760              		.loc 1 483 0
 761 0094 03B0     		add	sp, sp, #12
 762 0096 BDE83040 		pop	{r4, r5, lr}
 763              		.loc 1 482 0
 764 009a FFF7FEBF 		b	test_println
 765              	.LVL110:
 766              	.L54:
 767 009e 00BF     		.align	2
 768              	.L53:
 769 00a0 00000000 		.word	.LANCHOR5
 770 00a4 00000000 		.word	.LANCHOR4
 771 00a8 00000000 		.word	test_timer_done
 772 00ac A8000000 		.word	.LC11
 773 00b0 E4000000 		.word	.LC15
 774              		.cfi_endproc
 775              	.LFE22:
 776              		.size	bmk9_execute, .-bmk9_execute
 777 00b4 AFF30080 		.section	.text.bmk6_execute,"ax",%progbits
 777      AFF30080 
 777      AFF30080 
 778              		.align	2
 779              		.p2align 4,,15
 780              		.thumb
 781              		.thumb_func
 782              		.type	bmk6_execute, %function
 783              	bmk6_execute:
 784              	.LFB16:
 785              		.loc 1 304 0
 786              		.cfi_startproc
ARM GAS  /tmp/cclD4Ht8.s 			page 15


 787              		@ args = 0, pretend = 0, frame = 0
 788              		@ frame_needed = 0, uses_anonymous_args = 0
 789              	.LVL111:
 790 0000 2DE9F041 		push	{r4, r5, r6, r7, r8, lr}
 791              	.LCFI7:
 792              		.cfi_def_cfa_offset 24
 793              		.cfi_offset 4, -24
 794              		.cfi_offset 5, -20
 795              		.cfi_offset 6, -16
 796              		.cfi_offset 7, -12
 797              		.cfi_offset 8, -8
 798              		.cfi_offset 14, -4
 799              		.loc 1 308 0
 800 0004 144B     		ldr	r3, .L61
 801              		.loc 1 307 0
 802 0006 154A     		ldr	r2, .L61+4
 803              		.loc 1 308 0
 804 0008 9869     		ldr	r0, [r3, #24]
 805              		.loc 1 304 0
 806 000a 82B0     		sub	sp, sp, #8
 807              	.LCFI8:
 808              		.cfi_def_cfa_offset 32
 809              		.loc 1 307 0
 810 000c D2F80080 		ldr	r8, [r2, #0]
 811              	.LVL112:
 812              		.loc 1 308 0
 813 0010 8768     		ldr	r7, [r0, #8]
 814              		.loc 1 309 0
 815 0012 FFF7FEFF 		bl	test_wait_tick
 816              	.LVL113:
 817              		.loc 1 310 0
 818 0016 4FF47A70 		mov	r0, #1000
 819 001a FFF7FEFF 		bl	test_start_timer
 820              	.LVL114:
 821              		.loc 1 306 0
 822 001e 0024     		movs	r4, #0
 823 0020 0F4E     		ldr	r6, .L61+8
 824              		.loc 1 308 0
 825 0022 0137     		adds	r7, r7, #1
 826              	.LVL115:
 827              		.loc 1 312 0
 828 0024 2546     		mov	r5, r4
 829              	.LVL116:
 830              	.L56:
 831              		.loc 1 312 0 is_stmt 0 discriminator 1
 832 0026 4FF49871 		mov	r1, #304
 833 002a 0095     		str	r5, [sp, #0]
 834 002c 4046     		mov	r0, r8
 835 002e 3A46     		mov	r2, r7
 836 0030 0C4B     		ldr	r3, .L61+12
 837 0032 FFF7FEFF 		bl	chThdCreateStatic
 838              	.LVL117:
 839              		.loc 1 317 0 is_stmt 1 discriminator 1
 840 0036 3178     		ldrb	r1, [r6, #0]	@ zero_extendqisi2
 841              		.loc 1 313 0 discriminator 1
 842 0038 0134     		adds	r4, r4, #1
 843              	.LVL118:
ARM GAS  /tmp/cclD4Ht8.s 			page 16


 844              		.loc 1 317 0 discriminator 1
 845 003a 0029     		cmp	r1, #0
 846 003c F3D0     		beq	.L56
 847              		.loc 1 318 0
 848 003e 0A48     		ldr	r0, .L61+16
 849 0040 FFF7FEFF 		bl	test_print
 850              	.LVL119:
 851              		.loc 1 319 0
 852 0044 2046     		mov	r0, r4
 853 0046 FFF7FEFF 		bl	test_printn
 854              	.LVL120:
 855              		.loc 1 320 0
 856 004a 0848     		ldr	r0, .L61+20
 857              		.loc 1 321 0
 858 004c 02B0     		add	sp, sp, #8
 859 004e BDE8F041 		pop	{r4, r5, r6, r7, r8, lr}
 860              		.loc 1 320 0
 861 0052 FFF7FEBF 		b	test_println
 862              	.LVL121:
 863              	.L62:
 864 0056 00BF     		.align	2
 865              	.L61:
 866 0058 00000000 		.word	rlist
 867 005c 00000000 		.word	wa
 868 0060 00000000 		.word	test_timer_done
 869 0064 00000000 		.word	thread2
 870 0068 A8000000 		.word	.LC11
 871 006c F0000000 		.word	.LC16
 872              		.cfi_endproc
 873              	.LFE16:
 874              		.size	bmk6_execute, .-bmk6_execute
 875              		.section	.text.bmk8_execute,"ax",%progbits
 876              		.align	2
 877              		.p2align 4,,15
 878              		.thumb
 879              		.thumb_func
 880              		.type	bmk8_execute, %function
 881              	bmk8_execute:
 882              	.LFB21:
 883              		.loc 1 416 0
 884              		.cfi_startproc
 885              		@ args = 0, pretend = 0, frame = 8
 886              		@ frame_needed = 0, uses_anonymous_args = 0
 887 0000 2DE9F043 		push	{r4, r5, r6, r7, r8, r9, lr}
 888              	.LCFI9:
 889              		.cfi_def_cfa_offset 28
 890              		.cfi_offset 4, -28
 891              		.cfi_offset 5, -24
 892              		.cfi_offset 6, -20
 893              		.cfi_offset 7, -16
 894              		.cfi_offset 8, -12
 895              		.cfi_offset 9, -8
 896              		.cfi_offset 14, -4
 897              		.loc 1 422 0
 898 0004 40F20009 		movw	r9, #:lower16:rlist
 899              		.loc 1 416 0
 900 0008 85B0     		sub	sp, sp, #20
ARM GAS  /tmp/cclD4Ht8.s 			page 17


 901              	.LCFI10:
 902              		.cfi_def_cfa_offset 48
 903              		.loc 1 419 0
 904 000a 04AC     		add	r4, sp, #16
 905              		.loc 1 422 0
 906 000c C0F20009 		movt	r9, #:upper16:rlist
 907              		.loc 1 419 0
 908 0010 0023     		movs	r3, #0
 909 0012 44F8043D 		str	r3, [r4, #-4]!
 910              	.LVL122:
 911              		.loc 1 420 0
 912 0016 FFF7FEFF 		bl	test_wait_tick
 913              	.LVL123:
 914              		.loc 1 422 0
 915 001a D9F81800 		ldr	r0, [r9, #24]
 916 001e 40F20008 		movw	r8, #:lower16:wa
 917 0022 8268     		ldr	r2, [r0, #8]
 918 0024 40F20006 		movw	r6, #:lower16:thread8
 919 0028 C0F20008 		movt	r8, #:upper16:wa
 920 002c C0F20006 		movt	r6, #:upper16:thread8
 921 0030 013A     		subs	r2, r2, #1
 922 0032 3346     		mov	r3, r6
 923 0034 D8F80000 		ldr	r0, [r8, #0]
 924 0038 4FF49871 		mov	r1, #304
 925 003c 0094     		str	r4, [sp, #0]
 926 003e FFF7FEFF 		bl	chThdCreateStatic
 927              	.LVL124:
 928              		.loc 1 423 0
 929 0042 D9F81810 		ldr	r1, [r9, #24]
 930 0046 D8F80470 		ldr	r7, [r8, #4]
 931 004a 8B68     		ldr	r3, [r1, #8]
 932              		.loc 1 422 0
 933 004c 40F20005 		movw	r5, #:lower16:threads
 934 0050 C0F20005 		movt	r5, #:upper16:threads
 935              		.loc 1 423 0
 936 0054 5A1E     		subs	r2, r3, #1
 937              		.loc 1 422 0
 938 0056 2860     		str	r0, [r5, #0]
 939              		.loc 1 423 0
 940 0058 3346     		mov	r3, r6
 941 005a 4FF49871 		mov	r1, #304
 942 005e 0094     		str	r4, [sp, #0]
 943 0060 3846     		mov	r0, r7
 944 0062 FFF7FEFF 		bl	chThdCreateStatic
 945              	.LVL125:
 946              		.loc 1 424 0
 947 0066 D9F81820 		ldr	r2, [r9, #24]
 948 006a D8F80870 		ldr	r7, [r8, #8]
 949 006e 9368     		ldr	r3, [r2, #8]
 950 0070 4FF49871 		mov	r1, #304
 951 0074 5A1E     		subs	r2, r3, #1
 952              		.loc 1 423 0
 953 0076 6860     		str	r0, [r5, #4]
 954              		.loc 1 424 0
 955 0078 3346     		mov	r3, r6
 956 007a 0094     		str	r4, [sp, #0]
 957 007c 3846     		mov	r0, r7
ARM GAS  /tmp/cclD4Ht8.s 			page 18


 958 007e FFF7FEFF 		bl	chThdCreateStatic
 959              	.LVL126:
 960              		.loc 1 425 0
 961 0082 D9F81810 		ldr	r1, [r9, #24]
 962 0086 D8F80C70 		ldr	r7, [r8, #12]
 963 008a 8A68     		ldr	r2, [r1, #8]
 964 008c 3346     		mov	r3, r6
 965              		.loc 1 424 0
 966 008e A860     		str	r0, [r5, #8]
 967              		.loc 1 425 0
 968 0090 013A     		subs	r2, r2, #1
 969 0092 4FF49871 		mov	r1, #304
 970 0096 0094     		str	r4, [sp, #0]
 971 0098 3846     		mov	r0, r7
 972 009a FFF7FEFF 		bl	chThdCreateStatic
 973              	.LVL127:
 974              		.loc 1 426 0
 975 009e D9F81830 		ldr	r3, [r9, #24]
 976 00a2 D8F81070 		ldr	r7, [r8, #16]
 977 00a6 9A68     		ldr	r2, [r3, #8]
 978 00a8 4FF49871 		mov	r1, #304
 979 00ac 013A     		subs	r2, r2, #1
 980 00ae 3346     		mov	r3, r6
 981              		.loc 1 425 0
 982 00b0 E860     		str	r0, [r5, #12]
 983              		.loc 1 426 0
 984 00b2 0094     		str	r4, [sp, #0]
 985 00b4 3846     		mov	r0, r7
 986 00b6 FFF7FEFF 		bl	chThdCreateStatic
 987              	.LVL128:
 988 00ba 2861     		str	r0, [r5, #16]
 989              		.loc 1 428 0
 990 00bc 4FF47A70 		mov	r0, #1000
 991 00c0 FFF7FEFF 		bl	chThdSleep
 992              	.LVL129:
 993              		.loc 1 429 0
 994 00c4 FFF7FEFF 		bl	test_terminate_threads
 995              	.LVL130:
 996              		.loc 1 430 0
 997 00c8 FFF7FEFF 		bl	test_wait_threads
 998              	.LVL131:
 999              		.loc 1 432 0
 1000 00cc 40F20000 		movw	r0, #:lower16:.LC11
 1001 00d0 C0F20000 		movt	r0, #:upper16:.LC11
 1002 00d4 FFF7FEFF 		bl	test_print
 1003              	.LVL132:
 1004              		.loc 1 433 0
 1005 00d8 0398     		ldr	r0, [sp, #12]
 1006 00da FFF7FEFF 		bl	test_printn
 1007              	.LVL133:
 1008              		.loc 1 434 0
 1009 00de 40F20000 		movw	r0, #:lower16:.LC17
 1010 00e2 C0F20000 		movt	r0, #:upper16:.LC17
 1011 00e6 FFF7FEFF 		bl	test_println
 1012              	.LVL134:
 1013              		.loc 1 435 0
 1014 00ea 05B0     		add	sp, sp, #20
ARM GAS  /tmp/cclD4Ht8.s 			page 19


 1015 00ec BDE8F083 		pop	{r4, r5, r6, r7, r8, r9, pc}
 1016              		.cfi_endproc
 1017              	.LFE21:
 1018              		.size	bmk8_execute, .-bmk8_execute
 1019              		.section	.text.thread8,"ax",%progbits
 1020              		.align	2
 1021              		.p2align 4,,15
 1022              		.thumb
 1023              		.thumb_func
 1024              		.type	thread8, %function
 1025              	thread8:
 1026              	.LFB20:
 1027              		.loc 1 401 0
 1028              		.cfi_startproc
 1029              		@ args = 0, pretend = 0, frame = 0
 1030              		@ frame_needed = 0, uses_anonymous_args = 0
 1031              	.LVL135:
 1032 0000 38B5     		push	{r3, r4, r5, lr}
 1033              	.LCFI11:
 1034              		.cfi_def_cfa_offset 16
 1035              		.cfi_offset 3, -16
 1036              		.cfi_offset 4, -12
 1037              		.cfi_offset 5, -8
 1038              		.cfi_offset 14, -4
 1039 0002 0B4D     		ldr	r5, .L70
 1040              		.loc 1 401 0
 1041 0004 0446     		mov	r4, r0
 1042              	.LVL136:
 1043              	.L65:
 1044              		.loc 1 404 0 discriminator 1
 1045 0006 FFF7FEFF 		bl	chThdYield
 1046              	.LVL137:
 1047              		.loc 1 405 0 discriminator 1
 1048 000a FFF7FEFF 		bl	chThdYield
 1049              	.LVL138:
 1050              		.loc 1 406 0 discriminator 1
 1051 000e FFF7FEFF 		bl	chThdYield
 1052              	.LVL139:
 1053              		.loc 1 407 0 discriminator 1
 1054 0012 FFF7FEFF 		bl	chThdYield
 1055              	.LVL140:
 1056              		.loc 1 408 0 discriminator 1
 1057 0016 2268     		ldr	r2, [r4, #0]
 1058              		.loc 1 412 0 discriminator 1
 1059 0018 AB69     		ldr	r3, [r5, #24]
 1060              		.loc 1 408 0 discriminator 1
 1061 001a 101D     		adds	r0, r2, #4
 1062 001c 2060     		str	r0, [r4, #0]
 1063              		.loc 1 412 0 discriminator 1
 1064 001e 93F82110 		ldrb	r1, [r3, #33]	@ zero_extendqisi2
 1065 0022 01F00402 		and	r2, r1, #4
 1066 0026 D3B2     		uxtb	r3, r2
 1067 0028 002B     		cmp	r3, #0
 1068 002a ECD0     		beq	.L65
 1069              		.loc 1 414 0
 1070 002c 0020     		movs	r0, #0
 1071 002e 38BD     		pop	{r3, r4, r5, pc}
ARM GAS  /tmp/cclD4Ht8.s 			page 20


 1072              	.L71:
 1073              		.align	2
 1074              	.L70:
 1075 0030 00000000 		.word	rlist
 1076              		.cfi_endproc
 1077              	.LFE20:
 1078              		.size	thread8, .-thread8
 1079 0034 AFF30080 		.section	.text.bmk7_execute,"ax",%progbits
 1079      AFF30080 
 1079      AFF30080 
 1080              		.align	2
 1081              		.p2align 4,,15
 1082              		.thumb
 1083              		.thumb_func
 1084              		.type	bmk7_execute, %function
 1085              	bmk7_execute:
 1086              	.LFB19:
 1087              		.loc 1 354 0
 1088              		.cfi_startproc
 1089              		@ args = 0, pretend = 0, frame = 8
 1090              		@ frame_needed = 0, uses_anonymous_args = 0
 1091 0000 F0B5     		push	{r4, r5, r6, r7, lr}
 1092              	.LCFI12:
 1093              		.cfi_def_cfa_offset 20
 1094              		.cfi_offset 4, -20
 1095              		.cfi_offset 5, -16
 1096              		.cfi_offset 6, -12
 1097              		.cfi_offset 7, -8
 1098              		.cfi_offset 14, -4
 1099              		.loc 1 357 0
 1100 0002 374F     		ldr	r7, .L78
 1101 0004 374E     		ldr	r6, .L78+4
 1102 0006 BB69     		ldr	r3, [r7, #24]
 1103              		.loc 1 354 0
 1104 0008 85B0     		sub	sp, sp, #20
 1105              	.LCFI13:
 1106              		.cfi_def_cfa_offset 40
 1107              		.loc 1 357 0
 1108 000a 9A68     		ldr	r2, [r3, #8]
 1109 000c 0024     		movs	r4, #0
 1110 000e 3068     		ldr	r0, [r6, #0]
 1111 0010 4FF49871 		mov	r1, #304
 1112 0014 0532     		adds	r2, r2, #5
 1113 0016 344B     		ldr	r3, .L78+8
 1114 0018 0094     		str	r4, [sp, #0]
 1115 001a FFF7FEFF 		bl	chThdCreateStatic
 1116              	.LVL141:
 1117              		.loc 1 358 0
 1118 001e B969     		ldr	r1, [r7, #24]
 1119 0020 7368     		ldr	r3, [r6, #4]
 1120              		.loc 1 357 0
 1121 0022 324D     		ldr	r5, .L78+12
 1122              		.loc 1 358 0
 1123 0024 8A68     		ldr	r2, [r1, #8]
 1124 0026 0393     		str	r3, [sp, #12]
 1125              		.loc 1 357 0
 1126 0028 2860     		str	r0, [r5, #0]
ARM GAS  /tmp/cclD4Ht8.s 			page 21


 1127              		.loc 1 358 0
 1128 002a 4FF49871 		mov	r1, #304
 1129 002e 0432     		adds	r2, r2, #4
 1130 0030 2D4B     		ldr	r3, .L78+8
 1131 0032 0094     		str	r4, [sp, #0]
 1132 0034 0398     		ldr	r0, [sp, #12]
 1133 0036 FFF7FEFF 		bl	chThdCreateStatic
 1134              	.LVL142:
 1135              		.loc 1 359 0
 1136 003a B969     		ldr	r1, [r7, #24]
 1137 003c B268     		ldr	r2, [r6, #8]
 1138 003e 8B68     		ldr	r3, [r1, #8]
 1139 0040 0392     		str	r2, [sp, #12]
 1140              		.loc 1 358 0
 1141 0042 6860     		str	r0, [r5, #4]
 1142              		.loc 1 359 0
 1143 0044 DA1C     		adds	r2, r3, #3
 1144 0046 4FF49871 		mov	r1, #304
 1145 004a 274B     		ldr	r3, .L78+8
 1146 004c 0094     		str	r4, [sp, #0]
 1147 004e 0398     		ldr	r0, [sp, #12]
 1148 0050 FFF7FEFF 		bl	chThdCreateStatic
 1149              	.LVL143:
 1150              		.loc 1 360 0
 1151 0054 B969     		ldr	r1, [r7, #24]
 1152 0056 F268     		ldr	r2, [r6, #12]
 1153 0058 8B68     		ldr	r3, [r1, #8]
 1154 005a 0392     		str	r2, [sp, #12]
 1155              		.loc 1 359 0
 1156 005c A860     		str	r0, [r5, #8]
 1157              		.loc 1 360 0
 1158 005e 9A1C     		adds	r2, r3, #2
 1159 0060 4FF49871 		mov	r1, #304
 1160 0064 204B     		ldr	r3, .L78+8
 1161 0066 0094     		str	r4, [sp, #0]
 1162 0068 0398     		ldr	r0, [sp, #12]
 1163 006a FFF7FEFF 		bl	chThdCreateStatic
 1164              	.LVL144:
 1165              		.loc 1 361 0
 1166 006e B969     		ldr	r1, [r7, #24]
 1167 0070 3669     		ldr	r6, [r6, #16]
 1168 0072 8A68     		ldr	r2, [r1, #8]
 1169 0074 1C4B     		ldr	r3, .L78+8
 1170              		.loc 1 360 0
 1171 0076 E860     		str	r0, [r5, #12]
 1172              		.loc 1 361 0
 1173 0078 4FF49871 		mov	r1, #304
 1174 007c 0132     		adds	r2, r2, #1
 1175 007e 0094     		str	r4, [sp, #0]
 1176 0080 3046     		mov	r0, r6
 1177 0082 FFF7FEFF 		bl	chThdCreateStatic
 1178              	.LVL145:
 1179 0086 2861     		str	r0, [r5, #16]
 1180              	.LVL146:
 1181              		.loc 1 364 0
 1182 0088 FFF7FEFF 		bl	test_wait_tick
 1183              	.LVL147:
ARM GAS  /tmp/cclD4Ht8.s 			page 22


 1184              		.loc 1 365 0
 1185 008c 4FF47A70 		mov	r0, #1000
 1186 0090 FFF7FEFF 		bl	test_start_timer
 1187              	.LVL148:
 1188 0094 164D     		ldr	r5, .L78+16
 1189              	.LVL149:
 1190              	.L73:
 1191              		.loc 1 367 0 discriminator 1
 1192 0096 1748     		ldr	r0, .L78+20
 1193 0098 0021     		movs	r1, #0
 1194 009a FFF7FEFF 		bl	chSemReset
 1195              	.LVL150:
 1196              		.loc 1 372 0 discriminator 1
 1197 009e 2878     		ldrb	r0, [r5, #0]	@ zero_extendqisi2
 1198              		.loc 1 368 0 discriminator 1
 1199 00a0 0134     		adds	r4, r4, #1
 1200              	.LVL151:
 1201              		.loc 1 372 0 discriminator 1
 1202 00a2 0028     		cmp	r0, #0
 1203 00a4 F7D0     		beq	.L73
 1204              		.loc 1 373 0
 1205 00a6 FFF7FEFF 		bl	test_terminate_threads
 1206              	.LVL152:
 1207              		.loc 1 374 0
 1208 00aa 0021     		movs	r1, #0
 1209 00ac 1148     		ldr	r0, .L78+20
 1210 00ae FFF7FEFF 		bl	chSemReset
 1211              	.LVL153:
 1212              		.loc 1 375 0
 1213 00b2 FFF7FEFF 		bl	test_wait_threads
 1214              	.LVL154:
 1215              		.loc 1 377 0
 1216 00b6 1048     		ldr	r0, .L78+24
 1217 00b8 FFF7FEFF 		bl	test_print
 1218              	.LVL155:
 1219              		.loc 1 378 0
 1220 00bc 2046     		mov	r0, r4
 1221 00be FFF7FEFF 		bl	test_printn
 1222              	.LVL156:
 1223              		.loc 1 379 0
 1224 00c2 0E48     		ldr	r0, .L78+28
 1225 00c4 FFF7FEFF 		bl	test_print
 1226              	.LVL157:
 1227              		.loc 1 380 0
 1228 00c8 04EB4403 		add	r3, r4, r4, lsl #1
 1229 00cc 5800     		lsls	r0, r3, #1
 1230 00ce FFF7FEFF 		bl	test_printn
 1231              	.LVL158:
 1232              		.loc 1 381 0
 1233 00d2 0B48     		ldr	r0, .L78+32
 1234              		.loc 1 382 0
 1235 00d4 05B0     		add	sp, sp, #20
 1236 00d6 BDE8F040 		pop	{r4, r5, r6, r7, lr}
 1237              		.loc 1 381 0
 1238 00da FFF7FEBF 		b	test_println
 1239              	.LVL159:
 1240              	.L79:
ARM GAS  /tmp/cclD4Ht8.s 			page 23


 1241 00de 00BF     		.align	2
 1242              	.L78:
 1243 00e0 00000000 		.word	rlist
 1244 00e4 00000000 		.word	wa
 1245 00e8 00000000 		.word	thread3
 1246 00ec 00000000 		.word	threads
 1247 00f0 00000000 		.word	test_timer_done
 1248 00f4 00000000 		.word	.LANCHOR1
 1249 00f8 A8000000 		.word	.LC11
 1250 00fc 08010000 		.word	.LC18
 1251 0100 FC000000 		.word	.LC17
 1252              		.cfi_endproc
 1253              	.LFE19:
 1254              		.size	bmk7_execute, .-bmk7_execute
 1255 0104 AFF30080 		.section	.text.bmk5_execute,"ax",%progbits
 1255      AFF30080 
 1255      AFF30080 
 1256              		.align	2
 1257              		.p2align 4,,15
 1258              		.thumb
 1259              		.thumb_func
 1260              		.type	bmk5_execute, %function
 1261              	bmk5_execute:
 1262              	.LFB15:
 1263              		.loc 1 265 0
 1264              		.cfi_startproc
 1265              		@ args = 0, pretend = 0, frame = 0
 1266              		@ frame_needed = 0, uses_anonymous_args = 0
 1267              	.LVL160:
 1268 0000 2DE9F041 		push	{r4, r5, r6, r7, r8, lr}
 1269              	.LCFI14:
 1270              		.cfi_def_cfa_offset 24
 1271              		.cfi_offset 4, -24
 1272              		.cfi_offset 5, -20
 1273              		.cfi_offset 6, -16
 1274              		.cfi_offset 7, -12
 1275              		.cfi_offset 8, -8
 1276              		.cfi_offset 14, -4
 1277              		.loc 1 269 0
 1278 0004 154B     		ldr	r3, .L86
 1279              		.loc 1 268 0
 1280 0006 164A     		ldr	r2, .L86+4
 1281              		.loc 1 269 0
 1282 0008 9869     		ldr	r0, [r3, #24]
 1283              		.loc 1 265 0
 1284 000a 82B0     		sub	sp, sp, #8
 1285              	.LCFI15:
 1286              		.cfi_def_cfa_offset 32
 1287              		.loc 1 268 0
 1288 000c D2F80080 		ldr	r8, [r2, #0]
 1289              	.LVL161:
 1290              		.loc 1 269 0
 1291 0010 8768     		ldr	r7, [r0, #8]
 1292              		.loc 1 270 0
 1293 0012 FFF7FEFF 		bl	test_wait_tick
 1294              	.LVL162:
 1295              		.loc 1 271 0
ARM GAS  /tmp/cclD4Ht8.s 			page 24


 1296 0016 4FF47A70 		mov	r0, #1000
 1297 001a FFF7FEFF 		bl	test_start_timer
 1298              	.LVL163:
 1299              		.loc 1 267 0
 1300 001e 0024     		movs	r4, #0
 1301 0020 104E     		ldr	r6, .L86+8
 1302              		.loc 1 269 0
 1303 0022 013F     		subs	r7, r7, #1
 1304              	.LVL164:
 1305              		.loc 1 273 0
 1306 0024 2546     		mov	r5, r4
 1307              	.LVL165:
 1308              	.L81:
 1309              		.loc 1 273 0 is_stmt 0 discriminator 1
 1310 0026 4FF49871 		mov	r1, #304
 1311 002a 3A46     		mov	r2, r7
 1312 002c 0E4B     		ldr	r3, .L86+12
 1313 002e 0095     		str	r5, [sp, #0]
 1314 0030 4046     		mov	r0, r8
 1315 0032 FFF7FEFF 		bl	chThdCreateStatic
 1316              	.LVL166:
 1317 0036 FFF7FEFF 		bl	chThdWait
 1318              	.LVL167:
 1319              		.loc 1 278 0 is_stmt 1 discriminator 1
 1320 003a 3178     		ldrb	r1, [r6, #0]	@ zero_extendqisi2
 1321              		.loc 1 274 0 discriminator 1
 1322 003c 0134     		adds	r4, r4, #1
 1323              	.LVL168:
 1324              		.loc 1 278 0 discriminator 1
 1325 003e 0029     		cmp	r1, #0
 1326 0040 F1D0     		beq	.L81
 1327              		.loc 1 279 0
 1328 0042 0A48     		ldr	r0, .L86+16
 1329 0044 FFF7FEFF 		bl	test_print
 1330              	.LVL169:
 1331              		.loc 1 280 0
 1332 0048 2046     		mov	r0, r4
 1333 004a FFF7FEFF 		bl	test_printn
 1334              	.LVL170:
 1335              		.loc 1 281 0
 1336 004e 0848     		ldr	r0, .L86+20
 1337              		.loc 1 282 0
 1338 0050 02B0     		add	sp, sp, #8
 1339 0052 BDE8F041 		pop	{r4, r5, r6, r7, r8, lr}
 1340              		.loc 1 281 0
 1341 0056 FFF7FEBF 		b	test_println
 1342              	.LVL171:
 1343              	.L87:
 1344 005a 00BF     		.align	2
 1345              	.L86:
 1346 005c 00000000 		.word	rlist
 1347 0060 00000000 		.word	wa
 1348 0064 00000000 		.word	test_timer_done
 1349 0068 00000000 		.word	thread2
 1350 006c A8000000 		.word	.LC11
 1351 0070 F0000000 		.word	.LC16
 1352              		.cfi_endproc
ARM GAS  /tmp/cclD4Ht8.s 			page 25


 1353              	.LFE15:
 1354              		.size	bmk5_execute, .-bmk5_execute
 1355 0074 AFF30080 		.section	.text.bmk4_execute,"ax",%progbits
 1355      AFF30080 
 1355      AFF30080 
 1356              		.align	2
 1357              		.p2align 4,,15
 1358              		.thumb
 1359              		.thumb_func
 1360              		.type	bmk4_execute, %function
 1361              	bmk4_execute:
 1362              	.LFB14:
 1363              		.loc 1 217 0
 1364              		.cfi_startproc
 1365              		@ args = 0, pretend = 0, frame = 0
 1366              		@ frame_needed = 0, uses_anonymous_args = 0
 1367 0000 70B5     		push	{r4, r5, r6, lr}
 1368              	.LCFI16:
 1369              		.cfi_def_cfa_offset 16
 1370              		.cfi_offset 4, -16
 1371              		.cfi_offset 5, -12
 1372              		.cfi_offset 6, -8
 1373              		.cfi_offset 14, -4
 1374              		.loc 1 221 0
 1375 0002 294B     		ldr	r3, .L94
 1376 0004 294C     		ldr	r4, .L94+4
 1377 0006 9869     		ldr	r0, [r3, #24]
 1378              		.loc 1 217 0
 1379 0008 82B0     		sub	sp, sp, #8
 1380              	.LCFI17:
 1381              		.cfi_def_cfa_offset 24
 1382              		.loc 1 221 0
 1383 000a 8268     		ldr	r2, [r0, #8]
 1384 000c 0025     		movs	r5, #0
 1385 000e 4FF49871 		mov	r1, #304
 1386 0012 0132     		adds	r2, r2, #1
 1387 0014 264B     		ldr	r3, .L94+8
 1388 0016 2068     		ldr	r0, [r4, #0]
 1389 0018 0095     		str	r5, [sp, #0]
 1390 001a FFF7FEFF 		bl	chThdCreateStatic
 1391              	.LVL172:
 1392 001e 2549     		ldr	r1, .L94+12
 1393 0020 0446     		mov	r4, r0
 1394 0022 0860     		str	r0, [r1, #0]
 1395              	.LVL173:
 1396              		.loc 1 223 0
 1397 0024 FFF7FEFF 		bl	test_wait_tick
 1398              	.LVL174:
 1399              		.loc 1 224 0
 1400 0028 4FF47A70 		mov	r0, #1000
 1401 002c 224E     		ldr	r6, .L94+16
 1402 002e FFF7FEFF 		bl	test_start_timer
 1403              	.LVL175:
 1404              	.L89:
 1405              	.LBB6:
 1406              		.loc 1 226 0 discriminator 1
 1407 0032 2023     		movs	r3, #32
ARM GAS  /tmp/cclD4Ht8.s 			page 26


 1408              	.LVL176:
 1409              	@ 226 "../../test/testbmk.c" 1
 1410 0034 83F31188 		msr     BASEPRI, r3
 1411              	@ 0 "" 2
 1412              	.LVL177:
 1413              		.thumb
 1414              	.LBE6:
 1415 0038 FFF7FEFF 		bl	dbg_check_lock
 1416              	.LVL178:
 1417              		.loc 1 227 0 discriminator 1
 1418 003c 2046     		mov	r0, r4
 1419 003e 0021     		movs	r1, #0
 1420 0040 FFF7FEFF 		bl	chSchWakeupS
 1421              	.LVL179:
 1422              		.loc 1 228 0 discriminator 1
 1423 0044 2046     		mov	r0, r4
 1424 0046 0021     		movs	r1, #0
 1425 0048 FFF7FEFF 		bl	chSchWakeupS
 1426              	.LVL180:
 1427              		.loc 1 229 0 discriminator 1
 1428 004c 2046     		mov	r0, r4
 1429 004e 0021     		movs	r1, #0
 1430 0050 FFF7FEFF 		bl	chSchWakeupS
 1431              	.LVL181:
 1432              		.loc 1 230 0 discriminator 1
 1433 0054 2046     		mov	r0, r4
 1434 0056 0021     		movs	r1, #0
 1435 0058 FFF7FEFF 		bl	chSchWakeupS
 1436              	.LVL182:
 1437              		.loc 1 231 0 discriminator 1
 1438 005c FFF7FEFF 		bl	dbg_check_unlock
 1439              	.LVL183:
 1440              	.LBB7:
 1441 0060 0023     		movs	r3, #0
 1442              	.LVL184:
 1443              	@ 231 "../../test/testbmk.c" 1
 1444 0062 83F31188 		msr     BASEPRI, r3
 1445              	@ 0 "" 2
 1446              	.LVL185:
 1447              		.thumb
 1448              	.LBE7:
 1449              		.loc 1 236 0 discriminator 1
 1450 0066 3378     		ldrb	r3, [r6, #0]	@ zero_extendqisi2
 1451              	.LVL186:
 1452              		.loc 1 232 0 discriminator 1
 1453 0068 0435     		adds	r5, r5, #4
 1454              	.LVL187:
 1455              		.loc 1 236 0 discriminator 1
 1456 006a 002B     		cmp	r3, #0
 1457 006c E1D0     		beq	.L89
 1458              	.LBB8:
 1459              		.loc 1 237 0
 1460 006e 2023     		movs	r3, #32
 1461              	.LVL188:
 1462              	@ 237 "../../test/testbmk.c" 1
 1463 0070 83F31188 		msr     BASEPRI, r3
 1464              	@ 0 "" 2
ARM GAS  /tmp/cclD4Ht8.s 			page 27


 1465              	.LVL189:
 1466              		.thumb
 1467              	.LBE8:
 1468 0074 FFF7FEFF 		bl	dbg_check_lock
 1469              	.LVL190:
 1470              		.loc 1 238 0
 1471 0078 2046     		mov	r0, r4
 1472 007a 4FF0FF31 		mov	r1, #-1
 1473 007e FFF7FEFF 		bl	chSchWakeupS
 1474              	.LVL191:
 1475              		.loc 1 239 0
 1476 0082 FFF7FEFF 		bl	dbg_check_unlock
 1477              	.LVL192:
 1478              	.LBB9:
 1479 0086 0023     		movs	r3, #0
 1480              	.LVL193:
 1481              	@ 239 "../../test/testbmk.c" 1
 1482 0088 83F31188 		msr     BASEPRI, r3
 1483              	@ 0 "" 2
 1484              	.LVL194:
 1485              		.thumb
 1486              	.LBE9:
 1487              		.loc 1 241 0
 1488 008c FFF7FEFF 		bl	test_wait_threads
 1489              	.LVL195:
 1490              		.loc 1 242 0
 1491 0090 0A48     		ldr	r0, .L94+20
 1492 0092 FFF7FEFF 		bl	test_print
 1493              	.LVL196:
 1494              		.loc 1 243 0
 1495 0096 6800     		lsls	r0, r5, #1
 1496 0098 FFF7FEFF 		bl	test_printn
 1497              	.LVL197:
 1498              		.loc 1 244 0
 1499 009c 0848     		ldr	r0, .L94+24
 1500              		.loc 1 245 0
 1501 009e 02B0     		add	sp, sp, #8
 1502 00a0 BDE87040 		pop	{r4, r5, r6, lr}
 1503              		.loc 1 244 0
 1504 00a4 FFF7FEBF 		b	test_println
 1505              	.LVL198:
 1506              	.L95:
 1507              		.align	2
 1508              	.L94:
 1509 00a8 00000000 		.word	rlist
 1510 00ac 00000000 		.word	wa
 1511 00b0 00000000 		.word	thread4
 1512 00b4 00000000 		.word	threads
 1513 00b8 00000000 		.word	test_timer_done
 1514 00bc A8000000 		.word	.LC11
 1515 00c0 FC000000 		.word	.LC17
 1516              		.cfi_endproc
 1517              	.LFE14:
 1518              		.size	bmk4_execute, .-bmk4_execute
 1519              		.section	.text.msg_loop_test,"ax",%progbits
 1520              		.align	2
 1521              		.p2align 4,,15
ARM GAS  /tmp/cclD4Ht8.s 			page 28


 1522              		.thumb
 1523              		.thumb_func
 1524              		.type	msg_loop_test, %function
 1525              	msg_loop_test:
 1526              	.LFB8:
 1527              		.loc 1 80 0
 1528              		.cfi_startproc
 1529              		@ args = 0, pretend = 0, frame = 0
 1530              		@ frame_needed = 0, uses_anonymous_args = 0
 1531              	.LVL199:
 1532 0000 70B5     		push	{r4, r5, r6, lr}
 1533              	.LCFI18:
 1534              		.cfi_def_cfa_offset 16
 1535              		.cfi_offset 4, -16
 1536              		.cfi_offset 5, -12
 1537              		.cfi_offset 6, -8
 1538              		.cfi_offset 14, -4
 1539              		.loc 1 80 0
 1540 0002 0546     		mov	r5, r0
 1541              		.loc 1 83 0
 1542 0004 FFF7FEFF 		bl	test_wait_tick
 1543              	.LVL200:
 1544              		.loc 1 84 0
 1545 0008 4FF47A70 		mov	r0, #1000
 1546 000c FFF7FEFF 		bl	test_start_timer
 1547              	.LVL201:
 1548 0010 074E     		ldr	r6, .L102
 1549              		.loc 1 82 0
 1550 0012 0024     		movs	r4, #0
 1551              	.LVL202:
 1552              	.L97:
 1553              		.loc 1 86 0 discriminator 1
 1554 0014 2846     		mov	r0, r5
 1555 0016 0121     		movs	r1, #1
 1556 0018 FFF7FEFF 		bl	chMsgSend
 1557              	.LVL203:
 1558              		.loc 1 91 0 discriminator 1
 1559 001c 3378     		ldrb	r3, [r6, #0]	@ zero_extendqisi2
 1560              		.loc 1 87 0 discriminator 1
 1561 001e 0134     		adds	r4, r4, #1
 1562              	.LVL204:
 1563              		.loc 1 91 0 discriminator 1
 1564 0020 002B     		cmp	r3, #0
 1565 0022 F7D0     		beq	.L97
 1566              		.loc 1 92 0
 1567 0024 2846     		mov	r0, r5
 1568 0026 0021     		movs	r1, #0
 1569 0028 FFF7FEFF 		bl	chMsgSend
 1570              	.LVL205:
 1571              		.loc 1 94 0
 1572 002c 2046     		mov	r0, r4
 1573 002e 70BD     		pop	{r4, r5, r6, pc}
 1574              	.L103:
 1575              		.align	2
 1576              	.L102:
 1577 0030 00000000 		.word	test_timer_done
 1578              		.cfi_endproc
ARM GAS  /tmp/cclD4Ht8.s 			page 29


 1579              	.LFE8:
 1580              		.size	msg_loop_test, .-msg_loop_test
 1581 0034 AFF30080 		.section	.text.bmk3_execute,"ax",%progbits
 1581      AFF30080 
 1581      AFF30080 
 1582              		.align	2
 1583              		.p2align 4,,15
 1584              		.thumb
 1585              		.thumb_func
 1586              		.type	bmk3_execute, %function
 1587              	bmk3_execute:
 1588              	.LFB12:
 1589              		.loc 1 169 0
 1590              		.cfi_startproc
 1591              		@ args = 0, pretend = 0, frame = 0
 1592              		@ frame_needed = 0, uses_anonymous_args = 0
 1593 0000 2DE9F041 		push	{r4, r5, r6, r7, r8, lr}
 1594              	.LCFI19:
 1595              		.cfi_def_cfa_offset 24
 1596              		.cfi_offset 4, -24
 1597              		.cfi_offset 5, -20
 1598              		.cfi_offset 6, -16
 1599              		.cfi_offset 7, -12
 1600              		.cfi_offset 8, -8
 1601              		.cfi_offset 14, -4
 1602              		.loc 1 172 0
 1603 0004 40F20006 		movw	r6, #:lower16:rlist
 1604 0008 C0F20006 		movt	r6, #:upper16:rlist
 1605 000c B369     		ldr	r3, [r6, #24]
 1606 000e 40F20005 		movw	r5, #:lower16:wa
 1607 0012 9A68     		ldr	r2, [r3, #8]
 1608              		.loc 1 169 0
 1609 0014 82B0     		sub	sp, sp, #8
 1610              	.LCFI20:
 1611              		.cfi_def_cfa_offset 32
 1612              		.loc 1 172 0
 1613 0016 0027     		movs	r7, #0
 1614 0018 C0F20005 		movt	r5, #:upper16:wa
 1615 001c 40F20003 		movw	r3, #:lower16:thread1
 1616 0020 0132     		adds	r2, r2, #1
 1617 0022 2868     		ldr	r0, [r5, #0]
 1618 0024 4FF49871 		mov	r1, #304
 1619 0028 C0F20003 		movt	r3, #:upper16:thread1
 1620 002c 0097     		str	r7, [sp, #0]
 1621 002e FFF7FEFF 		bl	chThdCreateStatic
 1622              	.LVL206:
 1623              		.loc 1 173 0
 1624 0032 B169     		ldr	r1, [r6, #24]
 1625              		.loc 1 172 0
 1626 0034 40F20004 		movw	r4, #:lower16:threads
 1627              		.loc 1 173 0
 1628 0038 8B68     		ldr	r3, [r1, #8]
 1629 003a 40F20008 		movw	r8, #:lower16:thread2
 1630              		.loc 1 172 0
 1631 003e C0F20004 		movt	r4, #:upper16:threads
 1632              		.loc 1 173 0
 1633 0042 C0F20008 		movt	r8, #:upper16:thread2
ARM GAS  /tmp/cclD4Ht8.s 			page 30


 1634              		.loc 1 172 0
 1635 0046 2060     		str	r0, [r4, #0]
 1636              		.loc 1 173 0
 1637 0048 9A1E     		subs	r2, r3, #2
 1638 004a 4FF49871 		mov	r1, #304
 1639 004e 4346     		mov	r3, r8
 1640 0050 0097     		str	r7, [sp, #0]
 1641 0052 6868     		ldr	r0, [r5, #4]
 1642 0054 FFF7FEFF 		bl	chThdCreateStatic
 1643              	.LVL207:
 1644              		.loc 1 174 0
 1645 0058 B269     		ldr	r2, [r6, #24]
 1646 005a 4FF49871 		mov	r1, #304
 1647 005e 9368     		ldr	r3, [r2, #8]
 1648              		.loc 1 173 0
 1649 0060 6060     		str	r0, [r4, #4]
 1650              		.loc 1 174 0
 1651 0062 DA1E     		subs	r2, r3, #3
 1652 0064 0097     		str	r7, [sp, #0]
 1653 0066 4346     		mov	r3, r8
 1654 0068 A868     		ldr	r0, [r5, #8]
 1655 006a FFF7FEFF 		bl	chThdCreateStatic
 1656              	.LVL208:
 1657              		.loc 1 175 0
 1658 006e B169     		ldr	r1, [r6, #24]
 1659 0070 4346     		mov	r3, r8
 1660 0072 8A68     		ldr	r2, [r1, #8]
 1661              		.loc 1 174 0
 1662 0074 A060     		str	r0, [r4, #8]
 1663              		.loc 1 175 0
 1664 0076 043A     		subs	r2, r2, #4
 1665 0078 4FF49871 		mov	r1, #304
 1666 007c 0097     		str	r7, [sp, #0]
 1667 007e E868     		ldr	r0, [r5, #12]
 1668 0080 FFF7FEFF 		bl	chThdCreateStatic
 1669              	.LVL209:
 1670              		.loc 1 176 0
 1671 0084 B369     		ldr	r3, [r6, #24]
 1672 0086 2D69     		ldr	r5, [r5, #16]
 1673 0088 9A68     		ldr	r2, [r3, #8]
 1674 008a 4FF49871 		mov	r1, #304
 1675 008e 053A     		subs	r2, r2, #5
 1676 0090 4346     		mov	r3, r8
 1677              		.loc 1 175 0
 1678 0092 E060     		str	r0, [r4, #12]
 1679              		.loc 1 176 0
 1680 0094 0097     		str	r7, [sp, #0]
 1681 0096 2846     		mov	r0, r5
 1682 0098 FFF7FEFF 		bl	chThdCreateStatic
 1683              	.LVL210:
 1684 009c 2061     		str	r0, [r4, #16]
 1685              		.loc 1 177 0
 1686 009e 2068     		ldr	r0, [r4, #0]
 1687 00a0 FFF7FEFF 		bl	msg_loop_test
 1688              	.LVL211:
 1689 00a4 0446     		mov	r4, r0
 1690              	.LVL212:
ARM GAS  /tmp/cclD4Ht8.s 			page 31


 1691              		.loc 1 178 0
 1692 00a6 FFF7FEFF 		bl	test_wait_threads
 1693              	.LVL213:
 1694              		.loc 1 179 0
 1695 00aa 40F20000 		movw	r0, #:lower16:.LC11
 1696 00ae C0F20000 		movt	r0, #:upper16:.LC11
 1697 00b2 FFF7FEFF 		bl	test_print
 1698              	.LVL214:
 1699              		.loc 1 180 0
 1700 00b6 2046     		mov	r0, r4
 1701 00b8 FFF7FEFF 		bl	test_printn
 1702              	.LVL215:
 1703              		.loc 1 181 0
 1704 00bc 40F20000 		movw	r0, #:lower16:.LC19
 1705 00c0 C0F20000 		movt	r0, #:upper16:.LC19
 1706 00c4 FFF7FEFF 		bl	test_print
 1707              	.LVL216:
 1708              		.loc 1 182 0
 1709 00c8 6000     		lsls	r0, r4, #1
 1710 00ca FFF7FEFF 		bl	test_printn
 1711              	.LVL217:
 1712              		.loc 1 183 0
 1713 00ce 40F20000 		movw	r0, #:lower16:.LC17
 1714 00d2 C0F20000 		movt	r0, #:upper16:.LC17
 1715              		.loc 1 184 0
 1716 00d6 02B0     		add	sp, sp, #8
 1717 00d8 BDE8F041 		pop	{r4, r5, r6, r7, r8, lr}
 1718              		.loc 1 183 0
 1719 00dc FFF7FEBF 		b	test_println
 1720              	.LVL218:
 1721              		.cfi_endproc
 1722              	.LFE12:
 1723              		.size	bmk3_execute, .-bmk3_execute
 1724              		.section	.text.bmk2_execute,"ax",%progbits
 1725              		.align	2
 1726              		.p2align 4,,15
 1727              		.thumb
 1728              		.thumb_func
 1729              		.type	bmk2_execute, %function
 1730              	bmk2_execute:
 1731              	.LFB10:
 1732              		.loc 1 134 0
 1733              		.cfi_startproc
 1734              		@ args = 0, pretend = 0, frame = 0
 1735              		@ frame_needed = 0, uses_anonymous_args = 0
 1736              		.loc 1 137 0
 1737 0000 40F20003 		movw	r3, #:lower16:rlist
 1738              		.loc 1 134 0
 1739 0004 10B5     		push	{r4, lr}
 1740              	.LCFI21:
 1741              		.cfi_def_cfa_offset 8
 1742              		.cfi_offset 4, -8
 1743              		.cfi_offset 14, -4
 1744              		.loc 1 137 0
 1745 0006 C0F20003 		movt	r3, #:upper16:rlist
 1746 000a 9A69     		ldr	r2, [r3, #24]
 1747 000c 40F20000 		movw	r0, #:lower16:wa
ARM GAS  /tmp/cclD4Ht8.s 			page 32


 1748 0010 9468     		ldr	r4, [r2, #8]
 1749              		.loc 1 134 0
 1750 0012 82B0     		sub	sp, sp, #8
 1751              	.LCFI22:
 1752              		.cfi_def_cfa_offset 16
 1753              		.loc 1 137 0
 1754 0014 621C     		adds	r2, r4, #1
 1755 0016 C0F20000 		movt	r0, #:upper16:wa
 1756 001a 0024     		movs	r4, #0
 1757 001c 40F20003 		movw	r3, #:lower16:thread1
 1758 0020 C0F20003 		movt	r3, #:upper16:thread1
 1759 0024 0094     		str	r4, [sp, #0]
 1760 0026 4FF49871 		mov	r1, #304
 1761 002a 0068     		ldr	r0, [r0, #0]
 1762 002c FFF7FEFF 		bl	chThdCreateStatic
 1763              	.LVL219:
 1764 0030 40F20001 		movw	r1, #:lower16:threads
 1765 0034 C0F20001 		movt	r1, #:upper16:threads
 1766 0038 0860     		str	r0, [r1, #0]
 1767              		.loc 1 138 0
 1768 003a FFF7FEFF 		bl	msg_loop_test
 1769              	.LVL220:
 1770 003e 0446     		mov	r4, r0
 1771              	.LVL221:
 1772              		.loc 1 139 0
 1773 0040 FFF7FEFF 		bl	test_wait_threads
 1774              	.LVL222:
 1775              		.loc 1 140 0
 1776 0044 40F20000 		movw	r0, #:lower16:.LC11
 1777 0048 C0F20000 		movt	r0, #:upper16:.LC11
 1778 004c FFF7FEFF 		bl	test_print
 1779              	.LVL223:
 1780              		.loc 1 141 0
 1781 0050 2046     		mov	r0, r4
 1782 0052 FFF7FEFF 		bl	test_printn
 1783              	.LVL224:
 1784              		.loc 1 142 0
 1785 0056 40F20000 		movw	r0, #:lower16:.LC19
 1786 005a C0F20000 		movt	r0, #:upper16:.LC19
 1787 005e FFF7FEFF 		bl	test_print
 1788              	.LVL225:
 1789              		.loc 1 143 0
 1790 0062 6000     		lsls	r0, r4, #1
 1791 0064 FFF7FEFF 		bl	test_printn
 1792              	.LVL226:
 1793              		.loc 1 144 0
 1794 0068 40F20000 		movw	r0, #:lower16:.LC17
 1795 006c C0F20000 		movt	r0, #:upper16:.LC17
 1796              		.loc 1 145 0
 1797 0070 02B0     		add	sp, sp, #8
 1798 0072 BDE81040 		pop	{r4, lr}
 1799              		.loc 1 144 0
 1800 0076 FFF7FEBF 		b	test_println
 1801              	.LVL227:
 1802              		.cfi_endproc
 1803              	.LFE10:
 1804              		.size	bmk2_execute, .-bmk2_execute
ARM GAS  /tmp/cclD4Ht8.s 			page 33


 1805 007a 00BFAFF3 		.section	.text.bmk1_execute,"ax",%progbits
 1805      0080
 1806              		.align	2
 1807              		.p2align 4,,15
 1808              		.thumb
 1809              		.thumb_func
 1810              		.type	bmk1_execute, %function
 1811              	bmk1_execute:
 1812              	.LFB9:
 1813              		.loc 1 105 0
 1814              		.cfi_startproc
 1815              		@ args = 0, pretend = 0, frame = 0
 1816              		@ frame_needed = 0, uses_anonymous_args = 0
 1817              		.loc 1 108 0
 1818 0000 40F20003 		movw	r3, #:lower16:rlist
 1819              		.loc 1 105 0
 1820 0004 10B5     		push	{r4, lr}
 1821              	.LCFI23:
 1822              		.cfi_def_cfa_offset 8
 1823              		.cfi_offset 4, -8
 1824              		.cfi_offset 14, -4
 1825              		.loc 1 108 0
 1826 0006 C0F20003 		movt	r3, #:upper16:rlist
 1827 000a 9A69     		ldr	r2, [r3, #24]
 1828 000c 40F20000 		movw	r0, #:lower16:wa
 1829 0010 9468     		ldr	r4, [r2, #8]
 1830              		.loc 1 105 0
 1831 0012 82B0     		sub	sp, sp, #8
 1832              	.LCFI24:
 1833              		.cfi_def_cfa_offset 16
 1834              		.loc 1 108 0
 1835 0014 621E     		subs	r2, r4, #1
 1836 0016 C0F20000 		movt	r0, #:upper16:wa
 1837 001a 0024     		movs	r4, #0
 1838 001c 40F20003 		movw	r3, #:lower16:thread1
 1839 0020 C0F20003 		movt	r3, #:upper16:thread1
 1840 0024 0094     		str	r4, [sp, #0]
 1841 0026 4FF49871 		mov	r1, #304
 1842 002a 0068     		ldr	r0, [r0, #0]
 1843 002c FFF7FEFF 		bl	chThdCreateStatic
 1844              	.LVL228:
 1845 0030 40F20001 		movw	r1, #:lower16:threads
 1846 0034 C0F20001 		movt	r1, #:upper16:threads
 1847 0038 0860     		str	r0, [r1, #0]
 1848              		.loc 1 109 0
 1849 003a FFF7FEFF 		bl	msg_loop_test
 1850              	.LVL229:
 1851 003e 0446     		mov	r4, r0
 1852              	.LVL230:
 1853              		.loc 1 110 0
 1854 0040 FFF7FEFF 		bl	test_wait_threads
 1855              	.LVL231:
 1856              		.loc 1 111 0
 1857 0044 40F20000 		movw	r0, #:lower16:.LC11
 1858 0048 C0F20000 		movt	r0, #:upper16:.LC11
 1859 004c FFF7FEFF 		bl	test_print
 1860              	.LVL232:
ARM GAS  /tmp/cclD4Ht8.s 			page 34


 1861              		.loc 1 112 0
 1862 0050 2046     		mov	r0, r4
 1863 0052 FFF7FEFF 		bl	test_printn
 1864              	.LVL233:
 1865              		.loc 1 113 0
 1866 0056 40F20000 		movw	r0, #:lower16:.LC19
 1867 005a C0F20000 		movt	r0, #:upper16:.LC19
 1868 005e FFF7FEFF 		bl	test_print
 1869              	.LVL234:
 1870              		.loc 1 114 0
 1871 0062 6000     		lsls	r0, r4, #1
 1872 0064 FFF7FEFF 		bl	test_printn
 1873              	.LVL235:
 1874              		.loc 1 115 0
 1875 0068 40F20000 		movw	r0, #:lower16:.LC17
 1876 006c C0F20000 		movt	r0, #:upper16:.LC17
 1877              		.loc 1 116 0
 1878 0070 02B0     		add	sp, sp, #8
 1879 0072 BDE81040 		pop	{r4, lr}
 1880              		.loc 1 115 0
 1881 0076 FFF7FEBF 		b	test_println
 1882              	.LVL236:
 1883              		.cfi_endproc
 1884              	.LFE9:
 1885              		.size	bmk1_execute, .-bmk1_execute
 1886 007a 00BFAFF3 		.section	.text.thread1,"ax",%progbits
 1886      0080
 1887              		.align	2
 1888              		.p2align 4,,15
 1889              		.thumb
 1890              		.thumb_func
 1891              		.type	thread1, %function
 1892              	thread1:
 1893              	.LFB7:
 1894              		.loc 1 64 0
 1895              		.cfi_startproc
 1896              		@ args = 0, pretend = 0, frame = 0
 1897              		@ frame_needed = 0, uses_anonymous_args = 0
 1898              	.LVL237:
 1899 0000 10B5     		push	{r4, lr}
 1900              	.LCFI25:
 1901              		.cfi_def_cfa_offset 8
 1902              		.cfi_offset 4, -8
 1903              		.cfi_offset 14, -4
 1904              	.LVL238:
 1905              	.L108:
 1906              		.loc 1 70 0 discriminator 1
 1907 0002 FFF7FEFF 		bl	chMsgWait
 1908              	.LVL239:
 1909              		.loc 1 71 0 discriminator 1
 1910 0006 846B     		ldr	r4, [r0, #56]
 1911              	.LVL240:
 1912              		.loc 1 72 0 discriminator 1
 1913 0008 2146     		mov	r1, r4
 1914 000a FFF7FEFF 		bl	chMsgRelease
 1915              	.LVL241:
 1916              		.loc 1 73 0 discriminator 1
ARM GAS  /tmp/cclD4Ht8.s 			page 35


 1917 000e 002C     		cmp	r4, #0
 1918 0010 F7D1     		bne	.L108
 1919              		.loc 1 75 0
 1920 0012 2046     		mov	r0, r4
 1921 0014 10BD     		pop	{r4, pc}
 1922              		.cfi_endproc
 1923              	.LFE7:
 1924              		.size	thread1, .-thread1
 1925 0016 00BFAFF3 		.section	.text.thread4,"ax",%progbits
 1925      0080AFF3 
 1925      0080
 1926              		.align	2
 1927              		.p2align 4,,15
 1928              		.global	thread4
 1929              		.thumb
 1930              		.thumb_func
 1931              		.type	thread4, %function
 1932              	thread4:
 1933              	.LFB13:
 1934              		.loc 1 203 0
 1935              		.cfi_startproc
 1936              		@ args = 0, pretend = 0, frame = 0
 1937              		@ frame_needed = 0, uses_anonymous_args = 0
 1938              	.LVL242:
 1939              		.loc 1 205 0
 1940 0000 0A4A     		ldr	r2, .L116
 1941              		.loc 1 203 0
 1942 0002 10B5     		push	{r4, lr}
 1943              	.LCFI26:
 1944              		.cfi_def_cfa_offset 8
 1945              		.cfi_offset 4, -8
 1946              		.cfi_offset 14, -4
 1947              	.LBB10:
 1948              		.loc 1 208 0
 1949 0004 2023     		movs	r3, #32
 1950              	.LVL243:
 1951              	.LBE10:
 1952              		.loc 1 205 0
 1953 0006 9469     		ldr	r4, [r2, #24]
 1954              	.LVL244:
 1955              	.LBB11:
 1956              		.loc 1 208 0
 1957              	@ 208 "../../test/testbmk.c" 1
 1958 0008 83F31188 		msr     BASEPRI, r3
 1959              	@ 0 "" 2
 1960              	.LVL245:
 1961              		.thumb
 1962              	.LBE11:
 1963 000c FFF7FEFF 		bl	dbg_check_lock
 1964              	.LVL246:
 1965              	.L111:
 1966              		.loc 1 210 0 discriminator 1
 1967 0010 0220     		movs	r0, #2
 1968 0012 FFF7FEFF 		bl	chSchGoSleepS
 1969              	.LVL247:
 1970              		.loc 1 212 0 discriminator 1
 1971 0016 A36A     		ldr	r3, [r4, #40]
ARM GAS  /tmp/cclD4Ht8.s 			page 36


 1972 0018 002B     		cmp	r3, #0
 1973 001a F9D0     		beq	.L111
 1974              		.loc 1 213 0
 1975 001c FFF7FEFF 		bl	dbg_check_unlock
 1976              	.LVL248:
 1977              	.LBB12:
 1978 0020 0023     		movs	r3, #0
 1979              	.LVL249:
 1980              	@ 213 "../../test/testbmk.c" 1
 1981 0022 83F31188 		msr     BASEPRI, r3
 1982              	@ 0 "" 2
 1983              	.LVL250:
 1984              		.thumb
 1985              	.LBE12:
 1986              		.loc 1 215 0
 1987 0026 1846     		mov	r0, r3
 1988 0028 10BD     		pop	{r4, pc}
 1989              	.L117:
 1990 002a 00BF     		.align	2
 1991              	.L116:
 1992 002c 00000000 		.word	rlist
 1993              		.cfi_endproc
 1994              	.LFE13:
 1995              		.size	thread4, .-thread4
 1996              		.global	patternbmk
 1997              		.global	testbmk13
 1998              		.global	testbmk12
 1999              		.global	testbmk11
 2000              		.global	testbmk10
 2001              		.global	testbmk9
 2002              		.global	testbmk8
 2003              		.global	testbmk7
 2004              		.global	testbmk6
 2005              		.global	testbmk5
 2006              		.global	testbmk4
 2007              		.global	testbmk3
 2008              		.global	testbmk2
 2009              		.global	testbmk1
 2010              		.section	.bss.iq.4972,"aw",%nobits
 2011              		.align	2
 2012              		.set	.LANCHOR4,. + 0
 2013              		.type	iq.4972, %object
 2014              		.size	iq.4972, 36
 2015              	iq.4972:
 2016 0000 00000000 		.space	36
 2016      00000000 
 2016      00000000 
 2016      00000000 
 2016      00000000 
 2017              		.section	.rodata.patternbmk,"a",%progbits
 2018              		.align	2
 2019              		.type	patternbmk, %object
 2020              		.size	patternbmk, 56
 2021              	patternbmk:
 2022 0000 00000000 		.word	testbmk1
 2023 0004 00000000 		.word	testbmk2
 2024 0008 00000000 		.word	testbmk3
ARM GAS  /tmp/cclD4Ht8.s 			page 37


 2025 000c 00000000 		.word	testbmk4
 2026 0010 00000000 		.word	testbmk5
 2027 0014 00000000 		.word	testbmk6
 2028 0018 00000000 		.word	testbmk7
 2029 001c 00000000 		.word	testbmk8
 2030 0020 00000000 		.word	testbmk9
 2031 0024 00000000 		.word	testbmk10
 2032 0028 00000000 		.word	testbmk11
 2033 002c 00000000 		.word	testbmk12
 2034 0030 00000000 		.word	testbmk13
 2035 0034 00000000 		.word	0
 2036              		.section	.rodata.testbmk8,"a",%progbits
 2037              		.align	2
 2038              		.type	testbmk8, %object
 2039              		.size	testbmk8, 16
 2040              	testbmk8:
 2041 0000 D0010000 		.word	.LC25
 2042 0004 00000000 		.word	0
 2043 0008 00000000 		.word	0
 2044 000c 00000000 		.word	bmk8_execute
 2045              		.section	.rodata.testbmk2,"a",%progbits
 2046              		.align	2
 2047              		.type	testbmk2, %object
 2048              		.size	testbmk2, 16
 2049              	testbmk2:
 2050 0000 98020000 		.word	.LC31
 2051 0004 00000000 		.word	0
 2052 0008 00000000 		.word	0
 2053 000c 00000000 		.word	bmk2_execute
 2054              		.section	.rodata.testbmk10,"a",%progbits
 2055              		.align	2
 2056              		.type	testbmk10, %object
 2057              		.size	testbmk10, 16
 2058              	testbmk10:
 2059 0000 88010000 		.word	.LC23
 2060 0004 00000000 		.word	0
 2061 0008 00000000 		.word	0
 2062 000c 00000000 		.word	bmk10_execute
 2063              		.section	.rodata.testbmk4,"a",%progbits
 2064              		.align	2
 2065              		.type	testbmk4, %object
 2066              		.size	testbmk4, 16
 2067              	testbmk4:
 2068 0000 64020000 		.word	.LC29
 2069 0004 00000000 		.word	0
 2070 0008 00000000 		.word	0
 2071 000c 00000000 		.word	bmk4_execute
 2072              		.section	.bss.mtx1,"aw",%nobits
 2073              		.align	2
 2074              		.set	.LANCHOR0,. + 0
 2075              		.type	mtx1, %object
 2076              		.size	mtx1, 16
 2077              	mtx1:
 2078 0000 00000000 		.space	16
 2078      00000000 
 2078      00000000 
 2078      00000000 
ARM GAS  /tmp/cclD4Ht8.s 			page 38


 2079              		.section	.rodata.testbmk3,"a",%progbits
 2080              		.align	2
 2081              		.type	testbmk3, %object
 2082              		.size	testbmk3, 16
 2083              	testbmk3:
 2084 0000 80020000 		.word	.LC30
 2085 0004 00000000 		.word	0
 2086 0008 00000000 		.word	0
 2087 000c 00000000 		.word	bmk3_execute
 2088              		.section	.bss.ib.4971,"aw",%nobits
 2089              		.align	2
 2090              		.set	.LANCHOR5,. + 0
 2091              		.type	ib.4971, %object
 2092              		.size	ib.4971, 16
 2093              	ib.4971:
 2094 0000 00000000 		.space	16
 2094      00000000 
 2094      00000000 
 2094      00000000 
 2095              		.section	.rodata.str1.4,"aMS",%progbits,1
 2096              		.align	2
 2097              	.LC0:
 2098 0000 2D2D2D20 		.ascii	"--- System: \000"
 2098      53797374 
 2098      656D3A20 
 2098      00
 2099 000d 000000   		.space	3
 2100              	.LC1:
 2101 0010 20627974 		.ascii	" bytes\000"
 2101      657300
 2102 0017 00       		.space	1
 2103              	.LC2:
 2104 0018 2D2D2D20 		.ascii	"--- Thread: \000"
 2104      54687265 
 2104      61643A20 
 2104      00
 2105 0025 000000   		.space	3
 2106              	.LC3:
 2107 0028 2D2D2D20 		.ascii	"--- Timer : \000"
 2107      54696D65 
 2107      72203A20 
 2107      00
 2108 0035 000000   		.space	3
 2109              	.LC4:
 2110 0038 2D2D2D20 		.ascii	"--- Semaph: \000"
 2110      53656D61 
 2110      70683A20 
 2110      00
 2111 0045 000000   		.space	3
 2112              	.LC5:
 2113 0048 2D2D2D20 		.ascii	"--- EventS: \000"
 2113      4576656E 
 2113      74533A20 
 2113      00
 2114 0055 000000   		.space	3
 2115              	.LC6:
 2116 0058 2D2D2D20 		.ascii	"--- EventL: \000"
ARM GAS  /tmp/cclD4Ht8.s 			page 39


 2116      4576656E 
 2116      744C3A20 
 2116      00
 2117 0065 000000   		.space	3
 2118              	.LC7:
 2119 0068 2D2D2D20 		.ascii	"--- Mutex : \000"
 2119      4D757465 
 2119      78203A20 
 2119      00
 2120 0075 000000   		.space	3
 2121              	.LC8:
 2122 0078 2D2D2D20 		.ascii	"--- CondV.: \000"
 2122      436F6E64 
 2122      562E3A20 
 2122      00
 2123 0085 000000   		.space	3
 2124              	.LC9:
 2125 0088 2D2D2D20 		.ascii	"--- Queue : \000"
 2125      51756575 
 2125      65203A20 
 2125      00
 2126 0095 000000   		.space	3
 2127              	.LC10:
 2128 0098 2D2D2D20 		.ascii	"--- MailB.: \000"
 2128      4D61696C 
 2128      422E3A20 
 2128      00
 2129 00a5 000000   		.space	3
 2130              	.LC11:
 2131 00a8 2D2D2D20 		.ascii	"--- Score : \000"
 2131      53636F72 
 2131      65203A20 
 2131      00
 2132 00b5 000000   		.space	3
 2133              	.LC12:
 2134 00b8 206C6F63 		.ascii	" lock+unlock/S\000"
 2134      6B2B756E 
 2134      6C6F636B 
 2134      2F5300
 2135 00c7 00       		.space	1
 2136              	.LC13:
 2137 00c8 20776169 		.ascii	" wait+signal/S\000"
 2137      742B7369 
 2137      676E616C 
 2137      2F5300
 2138 00d7 00       		.space	1
 2139              	.LC14:
 2140 00d8 2074696D 		.ascii	" timers/S\000"
 2140      6572732F 
 2140      5300
 2141 00e2 0000     		.space	2
 2142              	.LC15:
 2143 00e4 20627974 		.ascii	" bytes/S\000"
 2143      65732F53 
 2143      00
 2144 00ed 000000   		.space	3
 2145              	.LC16:
ARM GAS  /tmp/cclD4Ht8.s 			page 40


 2146 00f0 20746872 		.ascii	" threads/S\000"
 2146      65616473 
 2146      2F5300
 2147 00fb 00       		.space	1
 2148              	.LC17:
 2149 00fc 20637478 		.ascii	" ctxswc/S\000"
 2149      7377632F 
 2149      5300
 2150 0106 0000     		.space	2
 2151              	.LC18:
 2152 0108 20726573 		.ascii	" reschedules/S, \000"
 2152      63686564 
 2152      756C6573 
 2152      2F532C20 
 2152      00
 2153 0119 000000   		.space	3
 2154              	.LC19:
 2155 011c 206D7367 		.ascii	" msgs/S, \000"
 2155      732F532C 
 2155      2000
 2156 0126 0000     		.space	2
 2157              	.LC20:
 2158 0128 42656E63 		.ascii	"Benchmark, RAM footprint\000"
 2158      686D6172 
 2158      6B2C2052 
 2158      414D2066 
 2158      6F6F7470 
 2159 0141 000000   		.space	3
 2160              	.LC21:
 2161 0144 42656E63 		.ascii	"Benchmark, mutexes lock/unlock\000"
 2161      686D6172 
 2161      6B2C206D 
 2161      75746578 
 2161      6573206C 
 2162 0163 00       		.space	1
 2163              	.LC22:
 2164 0164 42656E63 		.ascii	"Benchmark, semaphores wait/signal\000"
 2164      686D6172 
 2164      6B2C2073 
 2164      656D6170 
 2164      686F7265 
 2165 0186 0000     		.space	2
 2166              	.LC23:
 2167 0188 42656E63 		.ascii	"Benchmark, virtual timers set/reset\000"
 2167      686D6172 
 2167      6B2C2076 
 2167      69727475 
 2167      616C2074 
 2168              	.LC24:
 2169 01ac 42656E63 		.ascii	"Benchmark, I/O Queues throughput\000"
 2169      686D6172 
 2169      6B2C2049 
 2169      2F4F2051 
 2169      75657565 
 2170 01cd 000000   		.space	3
 2171              	.LC25:
 2172 01d0 42656E63 		.ascii	"Benchmark, round robin context switching\000"
ARM GAS  /tmp/cclD4Ht8.s 			page 41


 2172      686D6172 
 2172      6B2C2072 
 2172      6F756E64 
 2172      20726F62 
 2173 01f9 000000   		.space	3
 2174              	.LC26:
 2175 01fc 42656E63 		.ascii	"Benchmark, mass reschedule, 5 threads\000"
 2175      686D6172 
 2175      6B2C206D 
 2175      61737320 
 2175      72657363 
 2176 0222 0000     		.space	2
 2177              	.LC27:
 2178 0224 42656E63 		.ascii	"Benchmark, threads, create only\000"
 2178      686D6172 
 2178      6B2C2074 
 2178      68726561 
 2178      64732C20 
 2179              	.LC28:
 2180 0244 42656E63 		.ascii	"Benchmark, threads, full cycle\000"
 2180      686D6172 
 2180      6B2C2074 
 2180      68726561 
 2180      64732C20 
 2181 0263 00       		.space	1
 2182              	.LC29:
 2183 0264 42656E63 		.ascii	"Benchmark, context switch\000"
 2183      686D6172 
 2183      6B2C2063 
 2183      6F6E7465 
 2183      78742073 
 2184 027e 0000     		.space	2
 2185              	.LC30:
 2186 0280 42656E63 		.ascii	"Benchmark, messages #3\000"
 2186      686D6172 
 2186      6B2C206D 
 2186      65737361 
 2186      67657320 
 2187 0297 00       		.space	1
 2188              	.LC31:
 2189 0298 42656E63 		.ascii	"Benchmark, messages #2\000"
 2189      686D6172 
 2189      6B2C206D 
 2189      65737361 
 2189      67657320 
 2190 02af 00       		.space	1
 2191              	.LC32:
 2192 02b0 42656E63 		.ascii	"Benchmark, messages #1\000"
 2192      686D6172 
 2192      6B2C206D 
 2192      65737361 
 2192      67657320 
 2193 02c7 00       		.section	.bss.vt2.4985,"aw",%nobits
 2194              		.align	2
 2195              		.set	.LANCHOR3,. + 0
 2196              		.type	vt2.4985, %object
 2197              		.size	vt2.4985, 20
ARM GAS  /tmp/cclD4Ht8.s 			page 42


 2198              	vt2.4985:
 2199 0000 00000000 		.space	20
 2199      00000000 
 2199      00000000 
 2199      00000000 
 2199      00000000 
 2200              		.section	.rodata.testbmk9,"a",%progbits
 2201              		.align	2
 2202              		.type	testbmk9, %object
 2203              		.size	testbmk9, 16
 2204              	testbmk9:
 2205 0000 AC010000 		.word	.LC24
 2206 0004 00000000 		.word	0
 2207 0008 00000000 		.word	0
 2208 000c 00000000 		.word	bmk9_execute
 2209              		.section	.bss.sem1,"aw",%nobits
 2210              		.align	2
 2211              		.set	.LANCHOR1,. + 0
 2212              		.type	sem1, %object
 2213              		.size	sem1, 12
 2214              	sem1:
 2215 0000 00000000 		.space	12
 2215      00000000 
 2215      00000000 
 2216              		.section	.bss.vt1.4984,"aw",%nobits
 2217              		.align	2
 2218              		.set	.LANCHOR2,. + 0
 2219              		.type	vt1.4984, %object
 2220              		.size	vt1.4984, 20
 2221              	vt1.4984:
 2222 0000 00000000 		.space	20
 2222      00000000 
 2222      00000000 
 2222      00000000 
 2222      00000000 
 2223              		.section	.rodata.testbmk1,"a",%progbits
 2224              		.align	2
 2225              		.type	testbmk1, %object
 2226              		.size	testbmk1, 16
 2227              	testbmk1:
 2228 0000 B0020000 		.word	.LC32
 2229 0004 00000000 		.word	0
 2230 0008 00000000 		.word	0
 2231 000c 00000000 		.word	bmk1_execute
 2232              		.section	.rodata.testbmk11,"a",%progbits
 2233              		.align	2
 2234              		.type	testbmk11, %object
 2235              		.size	testbmk11, 16
 2236              	testbmk11:
 2237 0000 64010000 		.word	.LC22
 2238 0004 00000000 		.word	bmk11_setup
 2239 0008 00000000 		.word	0
 2240 000c 00000000 		.word	bmk11_execute
 2241              		.section	.rodata.testbmk12,"a",%progbits
 2242              		.align	2
 2243              		.type	testbmk12, %object
 2244              		.size	testbmk12, 16
ARM GAS  /tmp/cclD4Ht8.s 			page 43


 2245              	testbmk12:
 2246 0000 44010000 		.word	.LC21
 2247 0004 00000000 		.word	bmk12_setup
 2248 0008 00000000 		.word	0
 2249 000c 00000000 		.word	bmk12_execute
 2250              		.section	.rodata.testbmk13,"a",%progbits
 2251              		.align	2
 2252              		.type	testbmk13, %object
 2253              		.size	testbmk13, 16
 2254              	testbmk13:
 2255 0000 28010000 		.word	.LC20
 2256 0004 00000000 		.word	0
 2257 0008 00000000 		.word	0
 2258 000c 00000000 		.word	bmk13_execute
 2259              		.section	.rodata.testbmk5,"a",%progbits
 2260              		.align	2
 2261              		.type	testbmk5, %object
 2262              		.size	testbmk5, 16
 2263              	testbmk5:
 2264 0000 44020000 		.word	.LC28
 2265 0004 00000000 		.word	0
 2266 0008 00000000 		.word	0
 2267 000c 00000000 		.word	bmk5_execute
 2268              		.section	.rodata.testbmk6,"a",%progbits
 2269              		.align	2
 2270              		.type	testbmk6, %object
 2271              		.size	testbmk6, 16
 2272              	testbmk6:
 2273 0000 24020000 		.word	.LC27
 2274 0004 00000000 		.word	0
 2275 0008 00000000 		.word	0
 2276 000c 00000000 		.word	bmk6_execute
 2277              		.section	.rodata.testbmk7,"a",%progbits
 2278              		.align	2
 2279              		.type	testbmk7, %object
 2280              		.size	testbmk7, 16
 2281              	testbmk7:
 2282 0000 FC010000 		.word	.LC26
 2283 0004 00000000 		.word	bmk7_setup
 2284 0008 00000000 		.word	0
 2285 000c 00000000 		.word	bmk7_execute
 2286              		.text
 2287              	.Letext0:
 2288              		.file 2 "/usr/bin/../lib/gcc/arm-none-eabi/4.7.4/include/stddef.h"
 2289              		.file 3 "/usr/bin/../lib/gcc/arm-none-eabi/4.7.4/../../../../arm-none-eabi/include/stdint.h"
 2290              		.file 4 "../../os/ports/GCC/ARMCMx/chtypes.h"
 2291              		.file 5 "../../os/kernel/include/chlists.h"
 2292              		.file 6 "../../os/kernel/include/chthreads.h"
 2293              		.file 7 "../../os/ports/GCC/ARMCMx/chcore_v7m.h"
 2294              		.file 8 "../../os/kernel/include/chvt.h"
 2295              		.file 9 "../../os/kernel/include/chschd.h"
 2296              		.file 10 "../../os/kernel/include/chsem.h"
 2297              		.file 11 "../../os/kernel/include/chmtx.h"
 2298              		.file 12 "../../os/kernel/include/chqueues.h"
 2299              		.file 13 "../../test/test.h"
 2300              		.file 14 "../../os/kernel/include/chdebug.h"
 2301              		.file 15 "../../os/kernel/include/chmsg.h"
ARM GAS  /tmp/cclD4Ht8.s 			page 44

