ARM GAS  /tmp/cc5wL9ap.s 			page 1


   1              		.syntax unified
   2              		.cpu cortex-m3
   3              		.fpu softvfp
   4              		.eabi_attribute 20, 1
   5              		.eabi_attribute 21, 1
   6              		.eabi_attribute 23, 3
   7              		.eabi_attribute 24, 1
   8              		.eabi_attribute 25, 1
   9              		.eabi_attribute 26, 1
  10              		.eabi_attribute 30, 2
  11              		.eabi_attribute 34, 1
  12              		.eabi_attribute 18, 4
  13              		.thumb
  14              		.file	"chsem.c"
  15              		.text
  16              	.Ltext0:
  17              		.cfi_sections	.debug_frame
  18              		.section	.text.chSemInit,"ax",%progbits
  19              		.align	2
  20              		.p2align 4,,15
  21              		.global	chSemInit
  22              		.thumb
  23              		.thumb_func
  24              		.type	chSemInit, %function
  25              	chSemInit:
  26              	.LFB7:
  27              		.file 1 "../../os/kernel/src/chsem.c"
  28              		.loc 1 79 0
  29              		.cfi_startproc
  30              		@ args = 0, pretend = 0, frame = 0
  31              		@ frame_needed = 0, uses_anonymous_args = 0
  32              	.LVL0:
  33 0000 38B5     		push	{r3, r4, r5, lr}
  34              	.LCFI0:
  35              		.cfi_def_cfa_offset 16
  36              		.cfi_offset 3, -16
  37              		.cfi_offset 4, -12
  38              		.cfi_offset 5, -8
  39              		.cfi_offset 14, -4
  40              		.loc 1 81 0
  41 0002 0446     		mov	r4, r0
  42              		.loc 1 79 0
  43 0004 0D46     		mov	r5, r1
  44              		.loc 1 81 0
  45 0006 28B1     		cbz	r0, .L2
  46              		.loc 1 81 0 is_stmt 0 discriminator 2
  47 0008 0029     		cmp	r1, #0
  48 000a 03DB     		blt	.L2
  49              	.LVL1:
  50              	.L3:
  51              		.loc 1 83 0 is_stmt 1
  52 000c 6460     		str	r4, [r4, #4]
  53 000e 2460     		str	r4, [r4, #0]
  54              		.loc 1 84 0
  55 0010 A560     		str	r5, [r4, #8]
  56 0012 38BD     		pop	{r3, r4, r5, pc}
  57              	.LVL2:
ARM GAS  /tmp/cc5wL9ap.s 			page 2


  58              	.L2:
  59              		.loc 1 81 0 discriminator 1
  60 0014 0148     		ldr	r0, .L8
  61              	.LVL3:
  62 0016 FFF7FEFF 		bl	chDbgPanic
  63              	.LVL4:
  64 001a F7E7     		b	.L3
  65              	.L9:
  66              		.align	2
  67              	.L8:
  68 001c 00000000 		.word	.LC0
  69              		.cfi_endproc
  70              	.LFE7:
  71              		.size	chSemInit, .-chSemInit
  72              		.section	.text.chSemResetI,"ax",%progbits
  73              		.align	2
  74              		.p2align 4,,15
  75              		.global	chSemResetI
  76              		.thumb
  77              		.thumb_func
  78              		.type	chSemResetI, %function
  79              	chSemResetI:
  80              	.LFB9:
  81              		.loc 1 129 0
  82              		.cfi_startproc
  83              		@ args = 0, pretend = 0, frame = 0
  84              		@ frame_needed = 0, uses_anonymous_args = 0
  85              	.LVL5:
  86 0000 F8B5     		push	{r3, r4, r5, r6, r7, lr}
  87              	.LCFI1:
  88              		.cfi_def_cfa_offset 24
  89              		.cfi_offset 3, -24
  90              		.cfi_offset 4, -20
  91              		.cfi_offset 5, -16
  92              		.cfi_offset 6, -12
  93              		.cfi_offset 7, -8
  94              		.cfi_offset 14, -4
  95              		.loc 1 129 0
  96 0002 0446     		mov	r4, r0
  97 0004 0E46     		mov	r6, r1
  98              		.loc 1 132 0
  99 0006 FFF7FEFF 		bl	chDbgCheckClassI
 100              	.LVL6:
 101              		.loc 1 133 0
 102 000a 002C     		cmp	r4, #0
 103 000c 3DD0     		beq	.L11
 104              		.loc 1 133 0 is_stmt 0 discriminator 2
 105 000e 002E     		cmp	r6, #0
 106 0010 3BDB     		blt	.L11
 107              	.L12:
 108              		.loc 1 134 0 is_stmt 1
 109 0012 A568     		ldr	r5, [r4, #8]
 110 0014 2368     		ldr	r3, [r4, #0]
 111 0016 002D     		cmp	r5, #0
 112 0018 34DB     		blt	.L13
 113              		.loc 1 134 0 is_stmt 0 discriminator 2
 114 001a A342     		cmp	r3, r4
ARM GAS  /tmp/cc5wL9ap.s 			page 3


 115 001c 03D0     		beq	.L15
 116              	.L14:
 117              		.loc 1 134 0 discriminator 3
 118 001e 1E48     		ldr	r0, .L32
 119 0020 FFF7FEFF 		bl	chDbgPanic
 120              	.LVL7:
 121 0024 A568     		ldr	r5, [r4, #8]
 122              	.L15:
 123              	.LVL8:
 124              		.loc 1 141 0 is_stmt 1
 125 0026 0135     		adds	r5, r5, #1
 126              	.LVL9:
 127 0028 002D     		cmp	r5, #0
 128              		.loc 1 140 0
 129 002a A660     		str	r6, [r4, #8]
 130              	.LVL10:
 131              		.loc 1 141 0
 132 002c 29DC     		bgt	.L10
 133              	.LBB24:
 134              	.LBB25:
 135              		.file 2 "../../os/kernel/include/chinline.h"
 136              		.loc 2 60 0
 137 002e 6068     		ldr	r0, [r4, #4]
 138              	.LBE25:
 139              	.LBE24:
 140              		.loc 1 142 0
 141 0030 6FF00107 		mvn	r7, #1
 142              	.LBB34:
 143              	.LBB26:
 144              		.loc 2 62 0
 145 0034 4168     		ldr	r1, [r0, #4]
 146              	.LBE26:
 147              	.LBE34:
 148              		.loc 1 141 0
 149 0036 6E1C     		adds	r6, r5, #1
 150              	.LVL11:
 151              	.LBB35:
 152              	.LBB27:
 153              		.loc 2 62 0
 154 0038 6160     		str	r1, [r4, #4]
 155 003a 0C60     		str	r4, [r1, #0]
 156              	.LBE27:
 157              	.LBE35:
 158              		.loc 1 142 0
 159 003c FFF7FEFF 		bl	chSchReadyI
 160              	.LVL12:
 161 0040 05F00102 		and	r2, r5, #1
 162              	.LVL13:
 163 0044 8762     		str	r7, [r0, #40]
 164              		.loc 1 141 0
 165 0046 25B3     		cbz	r5, .L30
 166 0048 4AB1     		cbz	r2, .L21
 167              	.LBB36:
 168              	.LBB28:
 169              		.loc 2 60 0
 170 004a 6068     		ldr	r0, [r4, #4]
 171              	.LBE28:
ARM GAS  /tmp/cc5wL9ap.s 			page 4


 172              	.LBE36:
 173              		.loc 1 141 0
 174 004c 0136     		adds	r6, r6, #1
 175              	.LBB37:
 176              	.LBB29:
 177              		.loc 2 62 0
 178 004e 4368     		ldr	r3, [r0, #4]
 179 0050 6360     		str	r3, [r4, #4]
 180 0052 1C60     		str	r4, [r3, #0]
 181              	.LBE29:
 182              	.LBE37:
 183              		.loc 1 142 0
 184 0054 FFF7FEFF 		bl	chSchReadyI
 185              	.LVL14:
 186              		.loc 1 141 0
 187 0058 012E     		cmp	r6, #1
 188              		.loc 1 142 0
 189 005a 8762     		str	r7, [r0, #40]
 190              	.LVL15:
 191              		.loc 1 141 0
 192 005c 1AD0     		beq	.L31
 193              	.L21:
 194              	.LBB38:
 195              	.LBB30:
 196              		.loc 2 60 0
 197 005e 6068     		ldr	r0, [r4, #4]
 198              	.LBE30:
 199              	.LBE38:
 200              		.loc 1 141 0
 201 0060 751C     		adds	r5, r6, #1
 202              	.LBB39:
 203              	.LBB31:
 204              		.loc 2 62 0
 205 0062 4168     		ldr	r1, [r0, #4]
 206              	.LBE31:
 207              	.LBE39:
 208              		.loc 1 141 0
 209 0064 0236     		adds	r6, r6, #2
 210              	.LBB40:
 211              	.LBB32:
 212              		.loc 2 62 0
 213 0066 6160     		str	r1, [r4, #4]
 214 0068 0C60     		str	r4, [r1, #0]
 215              	.LBE32:
 216              	.LBE40:
 217              		.loc 1 142 0
 218 006a FFF7FEFF 		bl	chSchReadyI
 219              	.LVL16:
 220 006e 8762     		str	r7, [r0, #40]
 221              	.LBB41:
 222              	.LBB33:
 223              		.loc 2 60 0
 224 0070 6068     		ldr	r0, [r4, #4]
 225              		.loc 2 62 0
 226 0072 4268     		ldr	r2, [r0, #4]
 227 0074 6260     		str	r2, [r4, #4]
 228 0076 1460     		str	r4, [r2, #0]
ARM GAS  /tmp/cc5wL9ap.s 			page 5


 229              	.LBE33:
 230              	.LBE41:
 231              		.loc 1 142 0
 232 0078 FFF7FEFF 		bl	chSchReadyI
 233              	.LVL17:
 234 007c 8762     		str	r7, [r0, #40]
 235              		.loc 1 141 0
 236 007e 002D     		cmp	r5, #0
 237 0080 EDD1     		bne	.L21
 238              	.LVL18:
 239              	.L10:
 240 0082 F8BD     		pop	{r3, r4, r5, r6, r7, pc}
 241              	.LVL19:
 242              	.L13:
 243              		.loc 1 134 0 discriminator 4
 244 0084 A342     		cmp	r3, r4
 245 0086 CED1     		bne	.L15
 246 0088 C9E7     		b	.L14
 247              	.L11:
 248              		.loc 1 133 0 discriminator 1
 249 008a 0448     		ldr	r0, .L32+4
 250 008c FFF7FEFF 		bl	chDbgPanic
 251              	.LVL20:
 252 0090 BFE7     		b	.L12
 253              	.LVL21:
 254              	.L30:
 255 0092 F8BD     		pop	{r3, r4, r5, r6, r7, pc}
 256              	.LVL22:
 257              	.L31:
 258 0094 F8BD     		pop	{r3, r4, r5, r6, r7, pc}
 259              	.L33:
 260 0096 00BF     		.align	2
 261              	.L32:
 262 0098 20000000 		.word	.LC2
 263 009c 10000000 		.word	.LC1
 264              		.cfi_endproc
 265              	.LFE9:
 266              		.size	chSemResetI, .-chSemResetI
 267              		.section	.text.chSemReset,"ax",%progbits
 268              		.align	2
 269              		.p2align 4,,15
 270              		.global	chSemReset
 271              		.thumb
 272              		.thumb_func
 273              		.type	chSemReset, %function
 274              	chSemReset:
 275              	.LFB8:
 276              		.loc 1 102 0
 277              		.cfi_startproc
 278              		@ args = 0, pretend = 0, frame = 0
 279              		@ frame_needed = 0, uses_anonymous_args = 0
 280              	.LVL23:
 281 0000 38B5     		push	{r3, r4, r5, lr}
 282              	.LCFI2:
 283              		.cfi_def_cfa_offset 16
 284              		.cfi_offset 3, -16
 285              		.cfi_offset 4, -12
ARM GAS  /tmp/cc5wL9ap.s 			page 6


 286              		.cfi_offset 5, -8
 287              		.cfi_offset 14, -4
 288              		.loc 1 102 0
 289 0002 0546     		mov	r5, r0
 290 0004 0C46     		mov	r4, r1
 291              	.LBB42:
 292              		.loc 1 104 0
 293 0006 2023     		movs	r3, #32
 294              	.LVL24:
 295              	@ 104 "../../os/kernel/src/chsem.c" 1
 296 0008 83F31188 		msr     BASEPRI, r3
 297              	@ 0 "" 2
 298              	.LVL25:
 299              		.thumb
 300              	.LBE42:
 301 000c FFF7FEFF 		bl	dbg_check_lock
 302              	.LVL26:
 303              		.loc 1 105 0
 304 0010 2846     		mov	r0, r5
 305 0012 2146     		mov	r1, r4
 306 0014 FFF7FEFF 		bl	chSemResetI
 307              	.LVL27:
 308              		.loc 1 106 0
 309 0018 FFF7FEFF 		bl	chSchRescheduleS
 310              	.LVL28:
 311              		.loc 1 107 0
 312 001c FFF7FEFF 		bl	dbg_check_unlock
 313              	.LVL29:
 314              	.LBB43:
 315 0020 0023     		movs	r3, #0
 316              	.LVL30:
 317              	@ 107 "../../os/kernel/src/chsem.c" 1
 318 0022 83F31188 		msr     BASEPRI, r3
 319              	@ 0 "" 2
 320              	.LVL31:
 321              		.thumb
 322 0026 38BD     		pop	{r3, r4, r5, pc}
 323              	.LBE43:
 324              		.cfi_endproc
 325              	.LFE8:
 326              		.size	chSemReset, .-chSemReset
 327 0028 AFF30080 		.section	.text.chSemWaitS,"ax",%progbits
 327      AFF30080 
 328              		.align	2
 329              		.p2align 4,,15
 330              		.global	chSemWaitS
 331              		.thumb
 332              		.thumb_func
 333              		.type	chSemWaitS, %function
 334              	chSemWaitS:
 335              	.LFB11:
 336              		.loc 1 178 0
 337              		.cfi_startproc
 338              		@ args = 0, pretend = 0, frame = 0
 339              		@ frame_needed = 0, uses_anonymous_args = 0
 340              	.LVL32:
 341 0000 38B5     		push	{r3, r4, r5, lr}
ARM GAS  /tmp/cc5wL9ap.s 			page 7


 342              	.LCFI3:
 343              		.cfi_def_cfa_offset 16
 344              		.cfi_offset 3, -16
 345              		.cfi_offset 4, -12
 346              		.cfi_offset 5, -8
 347              		.cfi_offset 14, -4
 348              		.loc 1 178 0
 349 0002 0446     		mov	r4, r0
 350              		.loc 1 180 0
 351 0004 FFF7FEFF 		bl	chDbgCheckClassS
 352              	.LVL33:
 353              		.loc 1 181 0
 354 0008 1CB3     		cbz	r4, .L43
 355              	.L36:
 356              		.loc 1 182 0
 357 000a A368     		ldr	r3, [r4, #8]
 358 000c 2268     		ldr	r2, [r4, #0]
 359 000e 002B     		cmp	r3, #0
 360 0010 0BDB     		blt	.L37
 361              		.loc 1 182 0 is_stmt 0 discriminator 2
 362 0012 A242     		cmp	r2, r4
 363 0014 03D0     		beq	.L39
 364              	.L38:
 365              		.loc 1 182 0 discriminator 3
 366 0016 1148     		ldr	r0, .L45
 367 0018 FFF7FEFF 		bl	chDbgPanic
 368              	.LVL34:
 369 001c A368     		ldr	r3, [r4, #8]
 370              	.L39:
 371              		.loc 1 187 0 is_stmt 1
 372 001e 581E     		subs	r0, r3, #1
 373 0020 0028     		cmp	r0, #0
 374 0022 A060     		str	r0, [r4, #8]
 375 0024 07DB     		blt	.L44
 376              	.L41:
 377              		.loc 1 193 0
 378 0026 0020     		movs	r0, #0
 379              		.loc 1 194 0
 380 0028 38BD     		pop	{r3, r4, r5, pc}
 381              	.L37:
 382              		.loc 1 182 0 discriminator 4
 383 002a A242     		cmp	r2, r4
 384 002c F3D0     		beq	.L38
 385              		.loc 1 187 0
 386 002e 581E     		subs	r0, r3, #1
 387 0030 0028     		cmp	r0, #0
 388 0032 A060     		str	r0, [r4, #8]
 389 0034 F7DA     		bge	.L41
 390              	.L44:
 391              		.loc 1 188 0
 392 0036 0A4D     		ldr	r5, .L45+4
 393              		.loc 1 190 0
 394 0038 0320     		movs	r0, #3
 395              		.loc 1 188 0
 396 003a A969     		ldr	r1, [r5, #24]
 397 003c 8C62     		str	r4, [r1, #40]
 398              	.LVL35:
ARM GAS  /tmp/cc5wL9ap.s 			page 8


 399              	.LBB44:
 400              	.LBB45:
 401              		.loc 2 48 0
 402 003e 6268     		ldr	r2, [r4, #4]
 403              		.loc 2 47 0
 404 0040 0C60     		str	r4, [r1, #0]
 405              		.loc 2 48 0
 406 0042 4A60     		str	r2, [r1, #4]
 407              		.loc 2 49 0
 408 0044 6160     		str	r1, [r4, #4]
 409 0046 1160     		str	r1, [r2, #0]
 410              	.LBE45:
 411              	.LBE44:
 412              		.loc 1 190 0
 413 0048 FFF7FEFF 		bl	chSchGoSleepS
 414              	.LVL36:
 415              		.loc 1 191 0
 416 004c AB69     		ldr	r3, [r5, #24]
 417 004e 986A     		ldr	r0, [r3, #40]
 418 0050 38BD     		pop	{r3, r4, r5, pc}
 419              	.LVL37:
 420              	.L43:
 421              		.loc 1 181 0 discriminator 1
 422 0052 0448     		ldr	r0, .L45+8
 423 0054 FFF7FEFF 		bl	chDbgPanic
 424              	.LVL38:
 425 0058 D7E7     		b	.L36
 426              	.L46:
 427 005a 00BF     		.align	2
 428              	.L45:
 429 005c 44000000 		.word	.LC4
 430 0060 00000000 		.word	rlist
 431 0064 34000000 		.word	.LC3
 432              		.cfi_endproc
 433              	.LFE11:
 434              		.size	chSemWaitS, .-chSemWaitS
 435 0068 AFF30080 		.section	.text.chSemWait,"ax",%progbits
 435      AFF30080 
 436              		.align	2
 437              		.p2align 4,,15
 438              		.global	chSemWait
 439              		.thumb
 440              		.thumb_func
 441              		.type	chSemWait, %function
 442              	chSemWait:
 443              	.LFB10:
 444              		.loc 1 157 0
 445              		.cfi_startproc
 446              		@ args = 0, pretend = 0, frame = 0
 447              		@ frame_needed = 0, uses_anonymous_args = 0
 448              	.LVL39:
 449 0000 10B5     		push	{r4, lr}
 450              	.LCFI4:
 451              		.cfi_def_cfa_offset 8
 452              		.cfi_offset 4, -8
 453              		.cfi_offset 14, -4
 454              	.LBB46:
ARM GAS  /tmp/cc5wL9ap.s 			page 9


 455              		.loc 1 160 0
 456 0002 2023     		movs	r3, #32
 457              	.LVL40:
 458              	.LBE46:
 459              		.loc 1 157 0
 460 0004 0446     		mov	r4, r0
 461              	.LBB47:
 462              		.loc 1 160 0
 463              	@ 160 "../../os/kernel/src/chsem.c" 1
 464 0006 83F31188 		msr     BASEPRI, r3
 465              	@ 0 "" 2
 466              	.LVL41:
 467              		.thumb
 468              	.LBE47:
 469 000a FFF7FEFF 		bl	dbg_check_lock
 470              	.LVL42:
 471              		.loc 1 161 0
 472 000e 2046     		mov	r0, r4
 473 0010 FFF7FEFF 		bl	chSemWaitS
 474              	.LVL43:
 475 0014 0446     		mov	r4, r0
 476              	.LVL44:
 477              		.loc 1 162 0
 478 0016 FFF7FEFF 		bl	dbg_check_unlock
 479              	.LVL45:
 480              	.LBB48:
 481 001a 0023     		movs	r3, #0
 482              	.LVL46:
 483              	@ 162 "../../os/kernel/src/chsem.c" 1
 484 001c 83F31188 		msr     BASEPRI, r3
 485              	@ 0 "" 2
 486              	.LVL47:
 487              		.thumb
 488              	.LBE48:
 489              		.loc 1 164 0
 490 0020 2046     		mov	r0, r4
 491 0022 10BD     		pop	{r4, pc}
 492              		.cfi_endproc
 493              	.LFE10:
 494              		.size	chSemWait, .-chSemWait
 495 0024 AFF30080 		.section	.text.chSemWaitTimeoutS,"ax",%progbits
 495      AFF30080 
 495      AFF30080 
 496              		.align	2
 497              		.p2align 4,,15
 498              		.global	chSemWaitTimeoutS
 499              		.thumb
 500              		.thumb_func
 501              		.type	chSemWaitTimeoutS, %function
 502              	chSemWaitTimeoutS:
 503              	.LFB13:
 504              		.loc 1 243 0
 505              		.cfi_startproc
 506              		@ args = 0, pretend = 0, frame = 0
 507              		@ frame_needed = 0, uses_anonymous_args = 0
 508              	.LVL48:
 509 0000 38B5     		push	{r3, r4, r5, lr}
ARM GAS  /tmp/cc5wL9ap.s 			page 10


 510              	.LCFI5:
 511              		.cfi_def_cfa_offset 16
 512              		.cfi_offset 3, -16
 513              		.cfi_offset 4, -12
 514              		.cfi_offset 5, -8
 515              		.cfi_offset 14, -4
 516              		.loc 1 243 0
 517 0002 0446     		mov	r4, r0
 518 0004 0D46     		mov	r5, r1
 519              		.loc 1 245 0
 520 0006 FFF7FEFF 		bl	chDbgCheckClassS
 521              	.LVL49:
 522              		.loc 1 246 0
 523 000a 002C     		cmp	r4, #0
 524 000c 24D0     		beq	.L57
 525              	.L49:
 526              		.loc 1 247 0
 527 000e A368     		ldr	r3, [r4, #8]
 528 0010 2268     		ldr	r2, [r4, #0]
 529 0012 002B     		cmp	r3, #0
 530 0014 0BDB     		blt	.L50
 531              		.loc 1 247 0 is_stmt 0 discriminator 2
 532 0016 A242     		cmp	r2, r4
 533 0018 03D0     		beq	.L52
 534              	.L51:
 535              		.loc 1 247 0 discriminator 3
 536 001a 1348     		ldr	r0, .L60
 537 001c FFF7FEFF 		bl	chDbgPanic
 538              	.LVL50:
 539 0020 A368     		ldr	r3, [r4, #8]
 540              	.L52:
 541              		.loc 1 252 0 is_stmt 1
 542 0022 581E     		subs	r0, r3, #1
 543 0024 0028     		cmp	r0, #0
 544 0026 A060     		str	r0, [r4, #8]
 545 0028 07DB     		blt	.L58
 546              	.L55:
 547              		.loc 1 261 0
 548 002a 0020     		movs	r0, #0
 549              		.loc 1 262 0
 550 002c 38BD     		pop	{r3, r4, r5, pc}
 551              	.L50:
 552              		.loc 1 247 0 discriminator 4
 553 002e A242     		cmp	r2, r4
 554 0030 F3D0     		beq	.L51
 555              		.loc 1 252 0
 556 0032 581E     		subs	r0, r3, #1
 557 0034 0028     		cmp	r0, #0
 558 0036 A060     		str	r0, [r4, #8]
 559 0038 F7DA     		bge	.L55
 560              	.L58:
 561              		.loc 1 253 0
 562 003a 8DB1     		cbz	r5, .L59
 563              		.loc 1 257 0
 564 003c 0B49     		ldr	r1, .L60+4
 565              		.loc 1 259 0
 566 003e 0320     		movs	r0, #3
ARM GAS  /tmp/cc5wL9ap.s 			page 11


 567              		.loc 1 257 0
 568 0040 8B69     		ldr	r3, [r1, #24]
 569              		.loc 1 259 0
 570 0042 2946     		mov	r1, r5
 571              		.loc 1 257 0
 572 0044 9C62     		str	r4, [r3, #40]
 573              	.LVL51:
 574              	.LBB49:
 575              	.LBB50:
 576              		.loc 2 48 0
 577 0046 6268     		ldr	r2, [r4, #4]
 578              		.loc 2 47 0
 579 0048 1C60     		str	r4, [r3, #0]
 580              		.loc 2 48 0
 581 004a 5A60     		str	r2, [r3, #4]
 582              		.loc 2 49 0
 583 004c 6360     		str	r3, [r4, #4]
 584 004e 1360     		str	r3, [r2, #0]
 585              	.LBE50:
 586              	.LBE49:
 587              		.loc 1 262 0
 588 0050 BDE83840 		pop	{r3, r4, r5, lr}
 589              		.loc 1 259 0
 590 0054 FFF7FEBF 		b	chSchGoSleepTimeoutS
 591              	.LVL52:
 592              	.L57:
 593              		.loc 1 246 0 discriminator 1
 594 0058 0548     		ldr	r0, .L60+8
 595 005a FFF7FEFF 		bl	chDbgPanic
 596              	.LVL53:
 597 005e D6E7     		b	.L49
 598              	.L59:
 599              		.loc 1 254 0
 600 0060 A360     		str	r3, [r4, #8]
 601              		.loc 1 255 0
 602 0062 4FF0FF30 		mov	r0, #-1
 603 0066 38BD     		pop	{r3, r4, r5, pc}
 604              	.L61:
 605              		.align	2
 606              	.L60:
 607 0068 70000000 		.word	.LC6
 608 006c 00000000 		.word	rlist
 609 0070 58000000 		.word	.LC5
 610              		.cfi_endproc
 611              	.LFE13:
 612              		.size	chSemWaitTimeoutS, .-chSemWaitTimeoutS
 613 0074 AFF30080 		.section	.text.chSemWaitTimeout,"ax",%progbits
 613      AFF30080 
 613      AFF30080 
 614              		.align	2
 615              		.p2align 4,,15
 616              		.global	chSemWaitTimeout
 617              		.thumb
 618              		.thumb_func
 619              		.type	chSemWaitTimeout, %function
 620              	chSemWaitTimeout:
 621              	.LFB12:
ARM GAS  /tmp/cc5wL9ap.s 			page 12


 622              		.loc 1 215 0
 623              		.cfi_startproc
 624              		@ args = 0, pretend = 0, frame = 0
 625              		@ frame_needed = 0, uses_anonymous_args = 0
 626              	.LVL54:
 627 0000 38B5     		push	{r3, r4, r5, lr}
 628              	.LCFI6:
 629              		.cfi_def_cfa_offset 16
 630              		.cfi_offset 3, -16
 631              		.cfi_offset 4, -12
 632              		.cfi_offset 5, -8
 633              		.cfi_offset 14, -4
 634              		.loc 1 215 0
 635 0002 0546     		mov	r5, r0
 636 0004 0C46     		mov	r4, r1
 637              	.LBB51:
 638              		.loc 1 218 0
 639 0006 2023     		movs	r3, #32
 640              	.LVL55:
 641              	@ 218 "../../os/kernel/src/chsem.c" 1
 642 0008 83F31188 		msr     BASEPRI, r3
 643              	@ 0 "" 2
 644              	.LVL56:
 645              		.thumb
 646              	.LBE51:
 647 000c FFF7FEFF 		bl	dbg_check_lock
 648              	.LVL57:
 649              		.loc 1 219 0
 650 0010 2146     		mov	r1, r4
 651 0012 2846     		mov	r0, r5
 652 0014 FFF7FEFF 		bl	chSemWaitTimeoutS
 653              	.LVL58:
 654 0018 0446     		mov	r4, r0
 655              	.LVL59:
 656              		.loc 1 220 0
 657 001a FFF7FEFF 		bl	dbg_check_unlock
 658              	.LVL60:
 659              	.LBB52:
 660 001e 0023     		movs	r3, #0
 661              	.LVL61:
 662              	@ 220 "../../os/kernel/src/chsem.c" 1
 663 0020 83F31188 		msr     BASEPRI, r3
 664              	@ 0 "" 2
 665              	.LVL62:
 666              		.thumb
 667              	.LBE52:
 668              		.loc 1 222 0
 669 0024 2046     		mov	r0, r4
 670 0026 38BD     		pop	{r3, r4, r5, pc}
 671              		.cfi_endproc
 672              	.LFE12:
 673              		.size	chSemWaitTimeout, .-chSemWaitTimeout
 674 0028 AFF30080 		.section	.text.chSemSignal,"ax",%progbits
 674      AFF30080 
 675              		.align	2
 676              		.p2align 4,,15
 677              		.global	chSemSignal
ARM GAS  /tmp/cc5wL9ap.s 			page 13


 678              		.thumb
 679              		.thumb_func
 680              		.type	chSemSignal, %function
 681              	chSemSignal:
 682              	.LFB14:
 683              		.loc 1 271 0
 684              		.cfi_startproc
 685              		@ args = 0, pretend = 0, frame = 0
 686              		@ frame_needed = 0, uses_anonymous_args = 0
 687              	.LVL63:
 688 0000 10B5     		push	{r4, lr}
 689              	.LCFI7:
 690              		.cfi_def_cfa_offset 8
 691              		.cfi_offset 4, -8
 692              		.cfi_offset 14, -4
 693              		.loc 1 273 0
 694 0002 0446     		mov	r4, r0
 695 0004 18B3     		cbz	r0, .L69
 696              	.LVL64:
 697              	.L64:
 698              		.loc 1 274 0
 699 0006 A368     		ldr	r3, [r4, #8]
 700 0008 2068     		ldr	r0, [r4, #0]
 701 000a 002B     		cmp	r3, #0
 702 000c 14DB     		blt	.L65
 703              		.loc 1 274 0 is_stmt 0 discriminator 2
 704 000e A042     		cmp	r0, r4
 705 0010 02D0     		beq	.L67
 706              	.L66:
 707              		.loc 1 274 0 discriminator 3
 708 0012 1148     		ldr	r0, .L71
 709 0014 FFF7FEFF 		bl	chDbgPanic
 710              	.LVL65:
 711              	.L67:
 712              	.LBB53:
 713              		.loc 1 279 0 is_stmt 1
 714 0018 2023     		movs	r3, #32
 715              	.LVL66:
 716              	@ 279 "../../os/kernel/src/chsem.c" 1
 717 001a 83F31188 		msr     BASEPRI, r3
 718              	@ 0 "" 2
 719              	.LVL67:
 720              		.thumb
 721              	.LBE53:
 722 001e FFF7FEFF 		bl	dbg_check_lock
 723              	.LVL68:
 724              		.loc 1 280 0
 725 0022 A168     		ldr	r1, [r4, #8]
 726 0024 4A1C     		adds	r2, r1, #1
 727 0026 002A     		cmp	r2, #0
 728 0028 A260     		str	r2, [r4, #8]
 729 002a 08DD     		ble	.L70
 730              	.L68:
 731              		.loc 1 282 0
 732 002c FFF7FEFF 		bl	dbg_check_unlock
 733              	.LVL69:
 734              	.LBB54:
ARM GAS  /tmp/cc5wL9ap.s 			page 14


 735 0030 0023     		movs	r3, #0
 736              	.LVL70:
 737              	@ 282 "../../os/kernel/src/chsem.c" 1
 738 0032 83F31188 		msr     BASEPRI, r3
 739              	@ 0 "" 2
 740              	.LVL71:
 741              		.thumb
 742 0036 10BD     		pop	{r4, pc}
 743              	.LVL72:
 744              	.L65:
 745              	.LBE54:
 746              		.loc 1 274 0 discriminator 4
 747 0038 A042     		cmp	r0, r4
 748 003a EDD1     		bne	.L67
 749 003c E9E7     		b	.L66
 750              	.L70:
 751              	.LVL73:
 752              	.LBB55:
 753              	.LBB56:
 754              		.loc 2 53 0
 755 003e 2068     		ldr	r0, [r4, #0]
 756              	.LVL74:
 757              	.LBE56:
 758              	.LBE55:
 759              		.loc 1 281 0
 760 0040 0021     		movs	r1, #0
 761              	.LBB58:
 762              	.LBB57:
 763              		.loc 2 55 0
 764 0042 0368     		ldr	r3, [r0, #0]
 765 0044 2360     		str	r3, [r4, #0]
 766 0046 5C60     		str	r4, [r3, #4]
 767              	.LBE57:
 768              	.LBE58:
 769              		.loc 1 281 0
 770 0048 FFF7FEFF 		bl	chSchWakeupS
 771              	.LVL75:
 772 004c EEE7     		b	.L68
 773              	.LVL76:
 774              	.L69:
 775              		.loc 1 273 0 discriminator 1
 776 004e 0348     		ldr	r0, .L71+4
 777              	.LVL77:
 778 0050 FFF7FEFF 		bl	chDbgPanic
 779              	.LVL78:
 780 0054 D7E7     		b	.L64
 781              	.L72:
 782 0056 00BF     		.align	2
 783              	.L71:
 784 0058 98000000 		.word	.LC8
 785 005c 88000000 		.word	.LC7
 786              		.cfi_endproc
 787              	.LFE14:
 788              		.size	chSemSignal, .-chSemSignal
 789              		.section	.text.chSemSignalI,"ax",%progbits
 790              		.align	2
 791              		.p2align 4,,15
ARM GAS  /tmp/cc5wL9ap.s 			page 15


 792              		.global	chSemSignalI
 793              		.thumb
 794              		.thumb_func
 795              		.type	chSemSignalI, %function
 796              	chSemSignalI:
 797              	.LFB15:
 798              		.loc 1 296 0
 799              		.cfi_startproc
 800              		@ args = 0, pretend = 0, frame = 0
 801              		@ frame_needed = 0, uses_anonymous_args = 0
 802              	.LVL79:
 803 0000 10B5     		push	{r4, lr}
 804              	.LCFI8:
 805              		.cfi_def_cfa_offset 8
 806              		.cfi_offset 4, -8
 807              		.cfi_offset 14, -4
 808              		.loc 1 296 0
 809 0002 0446     		mov	r4, r0
 810              		.loc 1 298 0
 811 0004 FFF7FEFF 		bl	chDbgCheckClassI
 812              	.LVL80:
 813              		.loc 1 299 0
 814 0008 002C     		cmp	r4, #0
 815 000a 1FD0     		beq	.L80
 816              	.L74:
 817              		.loc 1 300 0
 818 000c A368     		ldr	r3, [r4, #8]
 819 000e 2268     		ldr	r2, [r4, #0]
 820 0010 002B     		cmp	r3, #0
 821 0012 0ADB     		blt	.L75
 822              		.loc 1 300 0 is_stmt 0 discriminator 2
 823 0014 A242     		cmp	r2, r4
 824 0016 03D0     		beq	.L77
 825              	.L76:
 826              		.loc 1 300 0 discriminator 3
 827 0018 0E48     		ldr	r0, .L82
 828 001a FFF7FEFF 		bl	chDbgPanic
 829              	.LVL81:
 830 001e A368     		ldr	r3, [r4, #8]
 831              	.L77:
 832              		.loc 1 305 0 is_stmt 1
 833 0020 581C     		adds	r0, r3, #1
 834 0022 0028     		cmp	r0, #0
 835 0024 A060     		str	r0, [r4, #8]
 836 0026 06DD     		ble	.L81
 837              	.L73:
 838 0028 10BD     		pop	{r4, pc}
 839              	.L75:
 840              		.loc 1 300 0 discriminator 4
 841 002a A242     		cmp	r2, r4
 842 002c F4D0     		beq	.L76
 843              		.loc 1 305 0
 844 002e 581C     		adds	r0, r3, #1
 845 0030 0028     		cmp	r0, #0
 846 0032 A060     		str	r0, [r4, #8]
 847 0034 F8DC     		bgt	.L73
 848              	.L81:
ARM GAS  /tmp/cc5wL9ap.s 			page 16


 849              	.LVL82:
 850              	.LBB59:
 851              	.LBB60:
 852              	.LBB61:
 853              		.loc 2 53 0
 854 0036 2168     		ldr	r1, [r4, #0]
 855              	.LVL83:
 856              	.LBE61:
 857              	.LBE60:
 858              		.loc 1 309 0
 859 0038 0023     		movs	r3, #0
 860              	.LBB64:
 861              	.LBB62:
 862              		.loc 2 55 0
 863 003a 0A68     		ldr	r2, [r1, #0]
 864              	.LBE62:
 865              	.LBE64:
 866              		.loc 1 310 0
 867 003c 0846     		mov	r0, r1
 868              	.LBB65:
 869              	.LBB63:
 870              		.loc 2 55 0
 871 003e 2260     		str	r2, [r4, #0]
 872 0040 5460     		str	r4, [r2, #4]
 873              	.LBE63:
 874              	.LBE65:
 875              		.loc 1 309 0
 876 0042 8B62     		str	r3, [r1, #40]
 877              	.LBE59:
 878              		.loc 1 312 0
 879 0044 BDE81040 		pop	{r4, lr}
 880              	.LBB66:
 881              		.loc 1 310 0
 882 0048 FFF7FEBF 		b	chSchReadyI
 883              	.LVL84:
 884              	.L80:
 885              	.LBE66:
 886              		.loc 1 299 0 discriminator 1
 887 004c 0248     		ldr	r0, .L82+4
 888 004e FFF7FEFF 		bl	chDbgPanic
 889              	.LVL85:
 890 0052 DBE7     		b	.L74
 891              	.L83:
 892              		.align	2
 893              	.L82:
 894 0054 C0000000 		.word	.LC10
 895 0058 AC000000 		.word	.LC9
 896              		.cfi_endproc
 897              	.LFE15:
 898              		.size	chSemSignalI, .-chSemSignalI
 899 005c AFF30080 		.section	.text.chSemAddCounterI,"ax",%progbits
 900              		.align	2
 901              		.p2align 4,,15
 902              		.global	chSemAddCounterI
 903              		.thumb
 904              		.thumb_func
 905              		.type	chSemAddCounterI, %function
ARM GAS  /tmp/cc5wL9ap.s 			page 17


 906              	chSemAddCounterI:
 907              	.LFB16:
 908              		.loc 1 327 0
 909              		.cfi_startproc
 910              		@ args = 0, pretend = 0, frame = 0
 911              		@ frame_needed = 0, uses_anonymous_args = 0
 912              	.LVL86:
 913 0000 F8B5     		push	{r3, r4, r5, r6, r7, lr}
 914              	.LCFI9:
 915              		.cfi_def_cfa_offset 24
 916              		.cfi_offset 3, -24
 917              		.cfi_offset 4, -20
 918              		.cfi_offset 5, -16
 919              		.cfi_offset 6, -12
 920              		.cfi_offset 7, -8
 921              		.cfi_offset 14, -4
 922              		.loc 1 327 0
 923 0002 0446     		mov	r4, r0
 924 0004 0D46     		mov	r5, r1
 925              		.loc 1 329 0
 926 0006 FFF7FEFF 		bl	chDbgCheckClassI
 927              	.LVL87:
 928              		.loc 1 330 0
 929 000a 002C     		cmp	r4, #0
 930 000c 47D0     		beq	.L85
 931              		.loc 1 330 0 is_stmt 0 discriminator 2
 932 000e 002D     		cmp	r5, #0
 933 0010 45DD     		ble	.L85
 934              	.L86:
 935              		.loc 1 331 0 is_stmt 1
 936 0012 A368     		ldr	r3, [r4, #8]
 937 0014 2068     		ldr	r0, [r4, #0]
 938 0016 002B     		cmp	r3, #0
 939 0018 3EDB     		blt	.L87
 940              		.loc 1 331 0 is_stmt 0 discriminator 2
 941 001a A042     		cmp	r0, r4
 942 001c 02D0     		beq	.L89
 943              	.L88:
 944              		.loc 1 331 0 discriminator 3
 945 001e 2A48     		ldr	r0, .L116
 946 0020 FFF7FEFF 		bl	chDbgPanic
 947              	.LVL88:
 948              	.L89:
 949              		.loc 1 336 0 is_stmt 1 discriminator 1
 950 0024 002D     		cmp	r5, #0
 951 0026 36DD     		ble	.L84
 952              		.loc 1 337 0
 953 0028 A168     		ldr	r1, [r4, #8]
 954              		.loc 1 338 0
 955 002a 0026     		movs	r6, #0
 956              		.loc 1 337 0
 957 002c 4B1C     		adds	r3, r1, #1
 958 002e 6A1E     		subs	r2, r5, #1
 959 0030 B342     		cmp	r3, r6
 960 0032 A360     		str	r3, [r4, #8]
 961 0034 02F00107 		and	r7, r2, #1
 962 0038 35DD     		ble	.L110
ARM GAS  /tmp/cc5wL9ap.s 			page 18


 963              	.L98:
 964              		.loc 1 336 0
 965 003a 013D     		subs	r5, r5, #1
 966              	.LVL89:
 967 003c 2BD0     		beq	.L84
 968 003e 77B1     		cbz	r7, .L96
 969              		.loc 1 337 0
 970 0040 A068     		ldr	r0, [r4, #8]
 971 0042 421C     		adds	r2, r0, #1
 972 0044 002A     		cmp	r2, #0
 973 0046 A260     		str	r2, [r4, #8]
 974 0048 35DD     		ble	.L111
 975              	.L100:
 976              	.LVL90:
 977              		.loc 1 336 0
 978 004a 013D     		subs	r5, r5, #1
 979 004c 07D1     		bne	.L96
 980 004e 3AE0     		b	.L115
 981              	.L91:
 982              		.loc 1 337 0
 983 0050 A368     		ldr	r3, [r4, #8]
 984 0052 591C     		adds	r1, r3, #1
 985 0054 0029     		cmp	r1, #0
 986 0056 A160     		str	r1, [r4, #8]
 987 0058 13DD     		ble	.L113
 988              	.L103:
 989              		.loc 1 336 0
 990 005a 013D     		subs	r5, r5, #1
 991 005c 1AD0     		beq	.L114
 992              	.L96:
 993              		.loc 1 337 0
 994 005e A168     		ldr	r1, [r4, #8]
 995              		.loc 1 339 0
 996 0060 013D     		subs	r5, r5, #1
 997              		.loc 1 337 0
 998 0062 481C     		adds	r0, r1, #1
 999 0064 0028     		cmp	r0, #0
 1000 0066 A060     		str	r0, [r4, #8]
 1001 0068 F2DC     		bgt	.L91
 1002              	.LVL91:
 1003              	.LBB67:
 1004              	.LBB68:
 1005              		.loc 2 53 0
 1006 006a 2068     		ldr	r0, [r4, #0]
 1007              	.LVL92:
 1008              		.loc 2 55 0
 1009 006c 0268     		ldr	r2, [r0, #0]
 1010 006e 2260     		str	r2, [r4, #0]
 1011 0070 5460     		str	r4, [r2, #4]
 1012              	.LBE68:
 1013              	.LBE67:
 1014              		.loc 1 338 0
 1015 0072 FFF7FEFF 		bl	chSchReadyI
 1016              	.LVL93:
 1017 0076 8662     		str	r6, [r0, #40]
 1018              		.loc 1 337 0
 1019 0078 A368     		ldr	r3, [r4, #8]
ARM GAS  /tmp/cc5wL9ap.s 			page 19


 1020 007a 591C     		adds	r1, r3, #1
 1021 007c 0029     		cmp	r1, #0
 1022 007e A160     		str	r1, [r4, #8]
 1023 0080 EBDC     		bgt	.L103
 1024              	.LVL94:
 1025              	.L113:
 1026              	.LBB72:
 1027              	.LBB69:
 1028              		.loc 2 53 0
 1029 0082 2068     		ldr	r0, [r4, #0]
 1030              		.loc 2 55 0
 1031 0084 0268     		ldr	r2, [r0, #0]
 1032 0086 2260     		str	r2, [r4, #0]
 1033 0088 5460     		str	r4, [r2, #4]
 1034              	.LBE69:
 1035              	.LBE72:
 1036              		.loc 1 338 0
 1037 008a FFF7FEFF 		bl	chSchReadyI
 1038              	.LVL95:
 1039              		.loc 1 336 0
 1040 008e 013D     		subs	r5, r5, #1
 1041              		.loc 1 338 0
 1042 0090 8662     		str	r6, [r0, #40]
 1043              		.loc 1 336 0
 1044 0092 E4D1     		bne	.L96
 1045              	.LVL96:
 1046              	.L114:
 1047 0094 F8BD     		pop	{r3, r4, r5, r6, r7, pc}
 1048              	.L84:
 1049 0096 F8BD     		pop	{r3, r4, r5, r6, r7, pc}
 1050              	.LVL97:
 1051              	.L87:
 1052              		.loc 1 331 0 discriminator 4
 1053 0098 A042     		cmp	r0, r4
 1054 009a C3D1     		bne	.L89
 1055 009c BFE7     		b	.L88
 1056              	.L85:
 1057              		.loc 1 330 0 discriminator 1
 1058 009e 0B48     		ldr	r0, .L116+4
 1059 00a0 FFF7FEFF 		bl	chDbgPanic
 1060              	.LVL98:
 1061 00a4 B5E7     		b	.L86
 1062              	.L110:
 1063              	.LVL99:
 1064              	.LBB73:
 1065              	.LBB70:
 1066              		.loc 2 53 0
 1067 00a6 2068     		ldr	r0, [r4, #0]
 1068              		.loc 2 55 0
 1069 00a8 0168     		ldr	r1, [r0, #0]
 1070 00aa 2160     		str	r1, [r4, #0]
 1071 00ac 4C60     		str	r4, [r1, #4]
 1072              	.LBE70:
 1073              	.LBE73:
 1074              		.loc 1 338 0
 1075 00ae FFF7FEFF 		bl	chSchReadyI
 1076              	.LVL100:
ARM GAS  /tmp/cc5wL9ap.s 			page 20


 1077 00b2 8662     		str	r6, [r0, #40]
 1078 00b4 C1E7     		b	.L98
 1079              	.LVL101:
 1080              	.L111:
 1081              	.LBB74:
 1082              	.LBB71:
 1083              		.loc 2 53 0
 1084 00b6 2068     		ldr	r0, [r4, #0]
 1085              		.loc 2 55 0
 1086 00b8 0368     		ldr	r3, [r0, #0]
 1087 00ba 2360     		str	r3, [r4, #0]
 1088 00bc 5C60     		str	r4, [r3, #4]
 1089              	.LBE71:
 1090              	.LBE74:
 1091              		.loc 1 338 0
 1092 00be FFF7FEFF 		bl	chSchReadyI
 1093              	.LVL102:
 1094 00c2 8662     		str	r6, [r0, #40]
 1095 00c4 C1E7     		b	.L100
 1096              	.LVL103:
 1097              	.L115:
 1098 00c6 F8BD     		pop	{r3, r4, r5, r6, r7, pc}
 1099              	.L117:
 1100              		.align	2
 1101              	.L116:
 1102 00c8 EC000000 		.word	.LC12
 1103 00cc D4000000 		.word	.LC11
 1104              		.cfi_endproc
 1105              	.LFE16:
 1106              		.size	chSemAddCounterI, .-chSemAddCounterI
 1107              		.section	.text.chSemSignalWait,"ax",%progbits
 1108              		.align	2
 1109              		.p2align 4,,15
 1110              		.global	chSemSignalWait
 1111              		.thumb
 1112              		.thumb_func
 1113              		.type	chSemSignalWait, %function
 1114              	chSemSignalWait:
 1115              	.LFB17:
 1116              		.loc 1 359 0
 1117              		.cfi_startproc
 1118              		@ args = 0, pretend = 0, frame = 0
 1119              		@ frame_needed = 0, uses_anonymous_args = 0
 1120              	.LVL104:
 1121 0000 38B5     		push	{r3, r4, r5, lr}
 1122              	.LCFI10:
 1123              		.cfi_def_cfa_offset 16
 1124              		.cfi_offset 3, -16
 1125              		.cfi_offset 4, -12
 1126              		.cfi_offset 5, -8
 1127              		.cfi_offset 14, -4
 1128              		.loc 1 362 0
 1129 0002 0546     		mov	r5, r0
 1130              		.loc 1 359 0
 1131 0004 0C46     		mov	r4, r1
 1132              		.loc 1 362 0
 1133 0006 0028     		cmp	r0, #0
ARM GAS  /tmp/cc5wL9ap.s 			page 21


 1134 0008 35D0     		beq	.L119
 1135              		.loc 1 362 0 is_stmt 0 discriminator 2
 1136 000a 0029     		cmp	r1, #0
 1137 000c 33D0     		beq	.L119
 1138              	.LVL105:
 1139              	.L120:
 1140              		.loc 1 363 0 is_stmt 1
 1141 000e AB68     		ldr	r3, [r5, #8]
 1142 0010 2868     		ldr	r0, [r5, #0]
 1143 0012 002B     		cmp	r3, #0
 1144 0014 26DB     		blt	.L121
 1145              		.loc 1 363 0 is_stmt 0 discriminator 2
 1146 0016 A842     		cmp	r0, r5
 1147 0018 02D0     		beq	.L123
 1148              	.L122:
 1149              		.loc 1 363 0 discriminator 3
 1150 001a 2448     		ldr	r0, .L137
 1151 001c FFF7FEFF 		bl	chDbgPanic
 1152              	.LVL106:
 1153              	.L123:
 1154              		.loc 1 367 0 is_stmt 1
 1155 0020 A168     		ldr	r1, [r4, #8]
 1156 0022 2268     		ldr	r2, [r4, #0]
 1157 0024 0029     		cmp	r1, #0
 1158 0026 23DB     		blt	.L124
 1159              	.L136:
 1160              		.loc 1 367 0 is_stmt 0 discriminator 2
 1161 0028 A242     		cmp	r2, r4
 1162 002a 02D0     		beq	.L126
 1163              	.L125:
 1164              		.loc 1 367 0 discriminator 3
 1165 002c 2048     		ldr	r0, .L137+4
 1166 002e FFF7FEFF 		bl	chDbgPanic
 1167              	.LVL107:
 1168              	.L126:
 1169              	.LBB75:
 1170              		.loc 1 372 0 is_stmt 1
 1171 0032 2023     		movs	r3, #32
 1172              	.LVL108:
 1173              	@ 372 "../../os/kernel/src/chsem.c" 1
 1174 0034 83F31188 		msr     BASEPRI, r3
 1175              	@ 0 "" 2
 1176              	.LVL109:
 1177              		.thumb
 1178              	.LBE75:
 1179 0038 FFF7FEFF 		bl	dbg_check_lock
 1180              	.LVL110:
 1181              		.loc 1 373 0
 1182 003c AB68     		ldr	r3, [r5, #8]
 1183 003e 581C     		adds	r0, r3, #1
 1184 0040 0028     		cmp	r0, #0
 1185 0042 A860     		str	r0, [r5, #8]
 1186 0044 28DD     		ble	.L134
 1187              	.L127:
 1188              		.loc 1 375 0
 1189 0046 A368     		ldr	r3, [r4, #8]
 1190 0048 581E     		subs	r0, r3, #1
ARM GAS  /tmp/cc5wL9ap.s 			page 22


 1191 004a 0028     		cmp	r0, #0
 1192 004c A060     		str	r0, [r4, #8]
 1193 004e 16DB     		blt	.L135
 1194              		.loc 1 383 0
 1195 0050 FFF7FEFF 		bl	chSchRescheduleS
 1196              	.LVL111:
 1197              		.loc 1 384 0
 1198 0054 0024     		movs	r4, #0
 1199              	.LVL112:
 1200              	.L129:
 1201              		.loc 1 386 0
 1202 0056 FFF7FEFF 		bl	dbg_check_unlock
 1203              	.LVL113:
 1204              	.LBB76:
 1205 005a 0023     		movs	r3, #0
 1206              	.LVL114:
 1207              	@ 386 "../../os/kernel/src/chsem.c" 1
 1208 005c 83F31188 		msr     BASEPRI, r3
 1209              	@ 0 "" 2
 1210              	.LVL115:
 1211              		.thumb
 1212              	.LBE76:
 1213              		.loc 1 388 0
 1214 0060 2046     		mov	r0, r4
 1215 0062 38BD     		pop	{r3, r4, r5, pc}
 1216              	.LVL116:
 1217              	.L121:
 1218              		.loc 1 363 0 discriminator 4
 1219 0064 A842     		cmp	r0, r5
 1220 0066 D8D0     		beq	.L122
 1221              		.loc 1 367 0
 1222 0068 A168     		ldr	r1, [r4, #8]
 1223 006a 2268     		ldr	r2, [r4, #0]
 1224 006c 0029     		cmp	r1, #0
 1225 006e DBDA     		bge	.L136
 1226              	.L124:
 1227              		.loc 1 367 0 is_stmt 0 discriminator 4
 1228 0070 A242     		cmp	r2, r4
 1229 0072 DED1     		bne	.L126
 1230 0074 DAE7     		b	.L125
 1231              	.LVL117:
 1232              	.L119:
 1233              		.loc 1 362 0 is_stmt 1 discriminator 1
 1234 0076 0F48     		ldr	r0, .L137+8
 1235              	.LVL118:
 1236 0078 FFF7FEFF 		bl	chDbgPanic
 1237              	.LVL119:
 1238 007c C7E7     		b	.L120
 1239              	.L135:
 1240              	.LBB77:
 1241              		.loc 1 376 0
 1242 007e 0E4D     		ldr	r5, .L137+12
 1243              	.LVL120:
 1244              	.LBB78:
 1245              	.LBB79:
 1246              		.loc 2 48 0
 1247 0080 6168     		ldr	r1, [r4, #4]
ARM GAS  /tmp/cc5wL9ap.s 			page 23


 1248              	.LBE79:
 1249              	.LBE78:
 1250              		.loc 1 376 0
 1251 0082 AD69     		ldr	r5, [r5, #24]
 1252              	.LVL121:
 1253              		.loc 1 379 0
 1254 0084 0320     		movs	r0, #3
 1255              	.LBB82:
 1256              	.LBB80:
 1257              		.loc 2 47 0
 1258 0086 2C60     		str	r4, [r5, #0]
 1259              		.loc 2 48 0
 1260 0088 6960     		str	r1, [r5, #4]
 1261              		.loc 2 49 0
 1262 008a 6560     		str	r5, [r4, #4]
 1263              	.LBE80:
 1264              	.LBE82:
 1265              		.loc 1 378 0
 1266 008c AC62     		str	r4, [r5, #40]
 1267              	.LBB83:
 1268              	.LBB81:
 1269              		.loc 2 49 0
 1270 008e 0D60     		str	r5, [r1, #0]
 1271              	.LBE81:
 1272              	.LBE83:
 1273              		.loc 1 379 0
 1274 0090 FFF7FEFF 		bl	chSchGoSleepS
 1275              	.LVL122:
 1276              		.loc 1 380 0
 1277 0094 AC6A     		ldr	r4, [r5, #40]
 1278              	.LVL123:
 1279 0096 DEE7     		b	.L129
 1280              	.LVL124:
 1281              	.L134:
 1282              	.LBE77:
 1283              	.LBB84:
 1284              	.LBB85:
 1285              		.loc 2 53 0
 1286 0098 2868     		ldr	r0, [r5, #0]
 1287              	.LVL125:
 1288              		.loc 2 55 0
 1289 009a 0168     		ldr	r1, [r0, #0]
 1290 009c 2960     		str	r1, [r5, #0]
 1291 009e 4D60     		str	r5, [r1, #4]
 1292              	.LBE85:
 1293              	.LBE84:
 1294              		.loc 1 374 0
 1295 00a0 FFF7FEFF 		bl	chSchReadyI
 1296              	.LVL126:
 1297 00a4 0022     		movs	r2, #0
 1298 00a6 8262     		str	r2, [r0, #40]
 1299 00a8 CDE7     		b	.L127
 1300              	.L138:
 1301 00aa 00BF     		.align	2
 1302              	.L137:
 1303 00ac 18010000 		.word	.LC14
 1304 00b0 30010000 		.word	.LC15
ARM GAS  /tmp/cc5wL9ap.s 			page 24


 1305 00b4 04010000 		.word	.LC13
 1306 00b8 00000000 		.word	rlist
 1307              		.cfi_endproc
 1308              	.LFE17:
 1309              		.size	chSemSignalWait, .-chSemSignalWait
 1310 00bc AFF30080 		.section	.rodata.str1.4,"aMS",%progbits,1
 1311              		.align	2
 1312              	.LC0:
 1313 0000 22636853 		.ascii	"\"chSemInit\"()\000"
 1313      656D496E 
 1313      69742228 
 1313      2900
 1314 000e 0000     		.space	2
 1315              	.LC1:
 1316 0010 22636853 		.ascii	"\"chSemResetI\"()\000"
 1316      656D5265 
 1316      73657449 
 1316      22282900 
 1317              	.LC2:
 1318 0020 63685365 		.ascii	"chSemResetI(), #1\000"
 1318      6D526573 
 1318      65744928 
 1318      292C2023 
 1318      3100
 1319 0032 0000     		.space	2
 1320              	.LC3:
 1321 0034 22636853 		.ascii	"\"chSemWaitS\"()\000"
 1321      656D5761 
 1321      69745322 
 1321      282900
 1322 0043 00       		.space	1
 1323              	.LC4:
 1324 0044 63685365 		.ascii	"chSemWaitS(), #1\000"
 1324      6D576169 
 1324      74532829 
 1324      2C202331 
 1324      00
 1325 0055 000000   		.space	3
 1326              	.LC5:
 1327 0058 22636853 		.ascii	"\"chSemWaitTimeoutS\"()\000"
 1327      656D5761 
 1327      69745469 
 1327      6D656F75 
 1327      74532228 
 1328 006e 0000     		.space	2
 1329              	.LC6:
 1330 0070 63685365 		.ascii	"chSemWaitTimeoutS(), #1\000"
 1330      6D576169 
 1330      7454696D 
 1330      656F7574 
 1330      5328292C 
 1331              	.LC7:
 1332 0088 22636853 		.ascii	"\"chSemSignal\"()\000"
 1332      656D5369 
 1332      676E616C 
 1332      22282900 
 1333              	.LC8:
ARM GAS  /tmp/cc5wL9ap.s 			page 25


 1334 0098 63685365 		.ascii	"chSemSignal(), #1\000"
 1334      6D536967 
 1334      6E616C28 
 1334      292C2023 
 1334      3100
 1335 00aa 0000     		.space	2
 1336              	.LC9:
 1337 00ac 22636853 		.ascii	"\"chSemSignalI\"()\000"
 1337      656D5369 
 1337      676E616C 
 1337      49222829 
 1337      00
 1338 00bd 000000   		.space	3
 1339              	.LC10:
 1340 00c0 63685365 		.ascii	"chSemSignalI(), #1\000"
 1340      6D536967 
 1340      6E616C49 
 1340      28292C20 
 1340      233100
 1341 00d3 00       		.space	1
 1342              	.LC11:
 1343 00d4 22636853 		.ascii	"\"chSemAddCounterI\"()\000"
 1343      656D4164 
 1343      64436F75 
 1343      6E746572 
 1343      49222829 
 1344 00e9 000000   		.space	3
 1345              	.LC12:
 1346 00ec 63685365 		.ascii	"chSemAddCounterI(), #1\000"
 1346      6D416464 
 1346      436F756E 
 1346      74657249 
 1346      28292C20 
 1347 0103 00       		.space	1
 1348              	.LC13:
 1349 0104 22636853 		.ascii	"\"chSemSignalWait\"()\000"
 1349      656D5369 
 1349      676E616C 
 1349      57616974 
 1349      22282900 
 1350              	.LC14:
 1351 0118 63685365 		.ascii	"chSemSignalWait(), #1\000"
 1351      6D536967 
 1351      6E616C57 
 1351      61697428 
 1351      292C2023 
 1352 012e 0000     		.space	2
 1353              	.LC15:
 1354 0130 63685365 		.ascii	"chSemSignalWait(), #2\000"
 1354      6D536967 
 1354      6E616C57 
 1354      61697428 
 1354      292C2023 
 1355 0146 0000     		.text
 1356              	.Letext0:
 1357              		.file 3 "/usr/bin/../lib/gcc/arm-none-eabi/4.7.4/../../../../arm-none-eabi/include/stdint.h"
 1358              		.file 4 "../../os/ports/GCC/ARMCMx/chtypes.h"
ARM GAS  /tmp/cc5wL9ap.s 			page 26


 1359              		.file 5 "../../os/kernel/include/chlists.h"
 1360              		.file 6 "../../os/kernel/include/chthreads.h"
 1361              		.file 7 "../../os/ports/GCC/ARMCMx/chcore_v7m.h"
 1362              		.file 8 "../../os/kernel/include/chschd.h"
 1363              		.file 9 "../../os/kernel/include/chsem.h"
 1364              		.file 10 "../../os/kernel/include/chmtx.h"
 1365              		.file 11 "../../os/kernel/include/chdebug.h"