ARM GAS  /tmp/ccxa6AW6.s 			page 1


   1              		.syntax unified
   2              		.cpu cortex-m3
   3              		.fpu softvfp
   4              		.eabi_attribute 20, 1
   5              		.eabi_attribute 21, 1
   6              		.eabi_attribute 23, 3
   7              		.eabi_attribute 24, 1
   8              		.eabi_attribute 25, 1
   9              		.eabi_attribute 26, 1
  10              		.eabi_attribute 30, 2
  11              		.eabi_attribute 34, 1
  12              		.eabi_attribute 18, 4
  13              		.thumb
  14              		.file	"main.c"
  15              		.text
  16              	.Ltext0:
  17              		.cfi_sections	.debug_frame
  18              		.section	.text.chprintf.constprop.0,"ax",%progbits
  19              		.align	2
  20              		.p2align 4,,15
  21              		.thumb
  22              		.thumb_func
  23              		.type	chprintf.constprop.0, %function
  24              	chprintf.constprop.0:
  25              	.LFB67:
  26              		.file 1 "../../os/various/chprintf.h"
  27              		.loc 1 68 0
  28              		.cfi_startproc
  29              		@ args = 4, pretend = 12, frame = 8
  30              		@ frame_needed = 0, uses_anonymous_args = 1
  31              	.LVL0:
  32 0000 0EB4     		push	{r1, r2, r3}
  33              	.LCFI0:
  34              		.cfi_def_cfa_offset 12
  35              		.cfi_offset 1, -12
  36              		.cfi_offset 2, -8
  37              		.cfi_offset 3, -4
  38 0002 00B5     		push	{lr}
  39              	.LCFI1:
  40              		.cfi_def_cfa_offset 16
  41              		.cfi_offset 14, -16
  42 0004 82B0     		sub	sp, sp, #8
  43              	.LCFI2:
  44              		.cfi_def_cfa_offset 24
  45              		.loc 1 68 0
  46 0006 03AB     		add	r3, sp, #12
  47 0008 53F8041B 		ldr	r1, [r3], #4
  48              		.loc 1 72 0
  49 000c 40F20000 		movw	r0, #:lower16:SD2
  50              	.LVL1:
  51 0010 C0F20000 		movt	r0, #:upper16:SD2
  52 0014 1A46     		mov	r2, r3
  53              		.loc 1 71 0
  54 0016 0193     		str	r3, [sp, #4]
  55              		.loc 1 72 0
  56 0018 FFF7FEFF 		bl	chvprintf
  57              	.LVL2:
ARM GAS  /tmp/ccxa6AW6.s 			page 2


  58              		.loc 1 74 0
  59 001c 02B0     		add	sp, sp, #8
  60 001e 5DF804EB 		pop	{lr}
  61 0022 03B0     		add	sp, sp, #12
  62 0024 7047     		bx	lr
  63              		.cfi_endproc
  64              	.LFE67:
  65              		.size	chprintf.constprop.0, .-chprintf.constprop.0
  66              		.section	.text.heartBeat,"ax",%progbits
  67              		.align	2
  68              		.p2align 4,,15
  69              		.thumb
  70              		.thumb_func
  71              		.type	heartBeat, %function
  72              	heartBeat:
  73              	.LFB64:
  74              		.file 2 "main.c"
  75              		.loc 2 9 0
  76              		.cfi_startproc
  77              		@ args = 0, pretend = 0, frame = 0
  78              		@ frame_needed = 0, uses_anonymous_args = 0
  79              	.LVL3:
  80 0000 F8B5     		push	{r3, r4, r5, r6, r7, lr}
  81              	.LCFI3:
  82              		.cfi_def_cfa_offset 24
  83              		.cfi_offset 3, -24
  84              		.cfi_offset 4, -20
  85              		.cfi_offset 5, -16
  86              		.cfi_offset 6, -12
  87              		.cfi_offset 7, -8
  88              		.cfi_offset 14, -4
  89              		.loc 2 10 0
  90 0002 0B48     		ldr	r0, .L5
  91              	.LVL4:
  92 0004 0B49     		ldr	r1, .L5+4
  93 0006 FFF7FEFF 		bl	chprintf.constprop.0
  94              	.LVL5:
  95              		.loc 2 14 0
  96 000a 4FF44064 		mov	r4, #3072
  97 000e 4FF48076 		mov	r6, #256
  98 0012 C4F20104 		movt	r4, 16385
  99 0016 3746     		mov	r7, r6
 100              		.loc 2 15 0
 101 0018 8025     		movs	r5, #128
 102              	.L3:
 103              		.loc 2 14 0 discriminator 1
 104 001a 2761     		str	r7, [r4, #16]
 105              		.loc 2 16 0 discriminator 1
 106 001c FA20     		movs	r0, #250
 107              		.loc 2 15 0 discriminator 1
 108 001e 6561     		str	r5, [r4, #20]
 109              		.loc 2 16 0 discriminator 1
 110 0020 FFF7FEFF 		bl	chThdSleep
 111              	.LVL6:
 112              		.loc 2 17 0 discriminator 1
 113 0024 6661     		str	r6, [r4, #20]
 114              		.loc 2 19 0 discriminator 1
ARM GAS  /tmp/ccxa6AW6.s 			page 3


 115 0026 FA20     		movs	r0, #250
 116              		.loc 2 18 0 discriminator 1
 117 0028 2561     		str	r5, [r4, #16]
 118              		.loc 2 19 0 discriminator 1
 119 002a FFF7FEFF 		bl	chThdSleep
 120              	.LVL7:
 121 002e F4E7     		b	.L3
 122              	.L6:
 123              		.align	2
 124              	.L5:
 125 0030 00000000 		.word	SD2
 126 0034 00000000 		.word	.LC0
 127              		.cfi_endproc
 128              	.LFE64:
 129              		.size	heartBeat, .-heartBeat
 130 0038 AFF30080 		.section	.text.communication,"ax",%progbits
 130      AFF30080 
 131              		.align	2
 132              		.p2align 4,,15
 133              		.thumb
 134              		.thumb_func
 135              		.type	communication, %function
 136              	communication:
 137              	.LFB65:
 138              		.loc 2 26 0
 139              		.cfi_startproc
 140              		@ args = 0, pretend = 0, frame = 0
 141              		@ frame_needed = 0, uses_anonymous_args = 0
 142              	.LVL8:
 143 0000 08B5     		push	{r3, lr}
 144              	.LCFI4:
 145              		.cfi_def_cfa_offset 8
 146              		.cfi_offset 3, -8
 147              		.cfi_offset 14, -4
 148              		.loc 2 29 0
 149 0002 0A48     		ldr	r0, .L12
 150              	.LVL9:
 151 0004 0A49     		ldr	r1, .L12+4
 152 0006 FFF7FEFF 		bl	chprintf.constprop.0
 153              	.LVL10:
 154 000a 02E0     		b	.L11
 155              	.LVL11:
 156              	.L9:
 157              		.loc 2 36 0
 158 000c 0949     		ldr	r1, .L12+8
 159 000e FFF7FEFF 		bl	chprintf.constprop.0
 160              	.LVL12:
 161              	.L11:
 162              		.loc 2 33 0
 163 0012 4FF0FF31 		mov	r1, #-1
 164 0016 0848     		ldr	r0, .L12+12
 165 0018 FFF7FEFF 		bl	chIQGetTimeout
 166              	.LVL13:
 167 001c 0246     		mov	r2, r0
 168              	.LVL14:
 169              		.loc 2 35 0
 170 001e 0D2A     		cmp	r2, #13
ARM GAS  /tmp/ccxa6AW6.s 			page 4


 171 0020 0248     		ldr	r0, .L12
 172              	.LVL15:
 173 0022 F3D1     		bne	.L9
 174              		.loc 2 35 0 is_stmt 0 discriminator 1
 175 0024 0549     		ldr	r1, .L12+16
 176 0026 FFF7FEFF 		bl	chprintf.constprop.0
 177              	.LVL16:
 178 002a F2E7     		b	.L11
 179              	.L13:
 180              		.align	2
 181              	.L12:
 182 002c 00000000 		.word	SD2
 183 0030 14000000 		.word	.LC1
 184 0034 1C000000 		.word	.LC3
 185 0038 0C000000 		.word	SD2+12
 186 003c 18000000 		.word	.LC2
 187              		.cfi_endproc
 188              	.LFE65:
 189              		.size	communication, .-communication
 190              		.section	.text.startup.main,"ax",%progbits
 191              		.align	2
 192              		.p2align 4,,15
 193              		.global	main
 194              		.thumb
 195              		.thumb_func
 196              		.type	main, %function
 197              	main:
 198              	.LFB66:
 199              		.loc 2 42 0 is_stmt 1
 200              		.cfi_startproc
 201              		@ args = 0, pretend = 0, frame = 0
 202              		@ frame_needed = 0, uses_anonymous_args = 0
 203 0000 10B5     		push	{r4, lr}
 204              	.LCFI5:
 205              		.cfi_def_cfa_offset 8
 206              		.cfi_offset 4, -8
 207              		.cfi_offset 14, -4
 208 0002 82B0     		sub	sp, sp, #8
 209              	.LCFI6:
 210              		.cfi_def_cfa_offset 16
 211              		.loc 2 43 0
 212 0004 FFF7FEFF 		bl	halInit
 213              	.LVL17:
 214              		.loc 2 44 0
 215 0008 FFF7FEFF 		bl	chSysInit
 216              	.LVL18:
 217              		.loc 2 46 0
 218 000c 40F20000 		movw	r0, #:lower16:SD2
 219 0010 0021     		movs	r1, #0
 220 0012 C0F20000 		movt	r0, #:upper16:SD2
 221 0016 FFF7FEFF 		bl	sdStart
 222              	.LVL19:
 223              		.loc 2 48 0
 224 001a 0024     		movs	r4, #0
 225 001c 40F20003 		movw	r3, #:lower16:heartBeat
 226 0020 40F20000 		movw	r0, #:lower16:.LANCHOR0
 227 0024 F021     		movs	r1, #240
ARM GAS  /tmp/ccxa6AW6.s 			page 5


 228 0026 4022     		movs	r2, #64
 229 0028 C0F20003 		movt	r3, #:upper16:heartBeat
 230 002c 0094     		str	r4, [sp, #0]
 231 002e C0F20000 		movt	r0, #:upper16:.LANCHOR0
 232 0032 FFF7FEFF 		bl	chThdCreateStatic
 233              	.LVL20:
 234              		.loc 2 49 0
 235 0036 40F20000 		movw	r0, #:lower16:.LANCHOR1
 236 003a 40F20003 		movw	r3, #:lower16:communication
 237 003e 0094     		str	r4, [sp, #0]
 238 0040 4FF49871 		mov	r1, #304
 239 0044 4022     		movs	r2, #64
 240 0046 C0F20003 		movt	r3, #:upper16:communication
 241 004a C0F20000 		movt	r0, #:upper16:.LANCHOR1
 242 004e FFF7FEFF 		bl	chThdCreateStatic
 243              	.LVL21:
 244              		.loc 2 50 0
 245 0052 2046     		mov	r0, r4
 246 0054 02B0     		add	sp, sp, #8
 247 0056 10BD     		pop	{r4, pc}
 248              		.cfi_endproc
 249              	.LFE66:
 250              		.size	main, .-main
 251 0058 AFF30080 		.section	.bss.commWrkArea,"aw",%nobits
 251      AFF30080 
 252              		.align	3
 253              		.set	.LANCHOR1,. + 0
 254              		.type	commWrkArea, %object
 255              		.size	commWrkArea, 304
 256              	commWrkArea:
 257 0000 00000000 		.space	304
 257      00000000 
 257      00000000 
 257      00000000 
 257      00000000 
 258              		.section	.rodata.str1.4,"aMS",%progbits,1
 259              		.align	2
 260              	.LC0:
 261 0000 0A0D4865 		.ascii	"\012\015Hello world!\012\015\000"
 261      6C6C6F20 
 261      776F726C 
 261      64210A0D 
 261      00
 262 0011 000000   		.space	3
 263              	.LC1:
 264 0014 3E00     		.ascii	">\000"
 265 0016 0000     		.space	2
 266              	.LC2:
 267 0018 0A0D3E00 		.ascii	"\012\015>\000"
 268              	.LC3:
 269 001c 256300   		.ascii	"%c\000"
 270 001f 00       		.section	.bss.heartWrkArea,"aw",%nobits
 271              		.align	3
 272              		.set	.LANCHOR0,. + 0
 273              		.type	heartWrkArea, %object
 274              		.size	heartWrkArea, 240
 275              	heartWrkArea:
ARM GAS  /tmp/ccxa6AW6.s 			page 6


 276 0000 00000000 		.space	240
 276      00000000 
 276      00000000 
 276      00000000 
 276      00000000 
 277              		.text
 278              	.Letext0:
 279              		.file 3 "/usr/bin/../lib/gcc/arm-none-eabi/4.7.4/include/stddef.h"
 280              		.file 4 "/usr/bin/../lib/gcc/arm-none-eabi/4.7.4/../../../../arm-none-eabi/include/stdint.h"
 281              		.file 5 "../../os/ports/GCC/ARMCMx/chtypes.h"
 282              		.file 6 "../../os/kernel/include/chlists.h"
 283              		.file 7 "../../os/kernel/include/chthreads.h"
 284              		.file 8 "../../os/ports/GCC/ARMCMx/chcore_v7m.h"
 285              		.file 9 "../../os/kernel/include/chmtx.h"
 286              		.file 10 "../../os/kernel/include/chevents.h"
 287              		.file 11 "../../os/kernel/include/chqueues.h"
 288              		.file 12 "../../os/kernel/include/chstreams.h"
 289              		.file 13 "../../os/hal/platforms/STM32F1xx/stm32f10x.h"
 290              		.file 14 "../../os/hal/platforms/STM32/GPIOv1/pal_lld.h"
 291              		.file 15 "../../os/hal/include/serial.h"
 292              		.file 16 "../../os/hal/platforms/STM32/USARTv1/serial_lld.h"
 293              		.file 17 "/usr/bin/../lib/gcc/arm-none-eabi/4.7.4/include/stdarg.h"
 294              		.file 18 "<built-in>"
 295              		.file 19 "../../os/hal/include/hal.h"
 296              		.file 20 "../../os/kernel/include/chsys.h"
 297              		.file 21 "../../os/ports/common/ARMCMx/CMSIS/include/core_cm3.h"