ARM GAS  /tmp/ccNf8Zmn.s 			page 1


   1              		.syntax unified
   2              		.cpu cortex-m3
   3              		.fpu softvfp
   4              		.eabi_attribute 20, 1
   5              		.eabi_attribute 21, 1
   6              		.eabi_attribute 23, 3
   7              		.eabi_attribute 24, 1
   8              		.eabi_attribute 25, 1
   9              		.eabi_attribute 26, 1
  10              		.eabi_attribute 30, 2
  11              		.eabi_attribute 34, 1
  12              		.eabi_attribute 18, 4
  13              		.thumb
  14              		.file	"serial.c"
  15              		.text
  16              	.Ltext0:
  17              		.cfi_sections	.debug_frame
  18              		.section	.text.readt,"ax",%progbits
  19              		.align	2
  20              		.p2align 4,,15
  21              		.thumb
  22              		.thumb_func
  23              		.type	readt, %function
  24              	readt:
  25              	.LFB70:
  26              		.file 1 "../../os/hal/src/serial.c"
  27              		.loc 1 92 0
  28              		.cfi_startproc
  29              		@ args = 0, pretend = 0, frame = 0
  30              		@ frame_needed = 0, uses_anonymous_args = 0
  31              		@ link register save eliminated.
  32              	.LVL0:
  33              		.loc 1 94 0
  34 0000 0C30     		adds	r0, r0, #12
  35              	.LVL1:
  36              		.loc 1 95 0
  37              		.loc 1 94 0
  38 0002 FFF7FEBF 		b	chIQReadTimeout
  39              	.LVL2:
  40              		.cfi_endproc
  41              	.LFE70:
  42              		.size	readt, .-readt
  43 0006 00BFAFF3 		.section	.text.read,"ax",%progbits
  43      0080AFF3 
  43      0080
  44              		.align	2
  45              		.p2align 4,,15
  46              		.thumb
  47              		.thumb_func
  48              		.type	read, %function
  49              	read:
  50              	.LFB64:
  51              		.loc 1 61 0
  52              		.cfi_startproc
  53              		@ args = 0, pretend = 0, frame = 0
  54              		@ frame_needed = 0, uses_anonymous_args = 0
  55              		@ link register save eliminated.
ARM GAS  /tmp/ccNf8Zmn.s 			page 2


  56              	.LVL3:
  57              		.loc 1 63 0
  58 0000 0C30     		adds	r0, r0, #12
  59              	.LVL4:
  60 0002 4FF0FF33 		mov	r3, #-1
  61              		.loc 1 65 0
  62              		.loc 1 63 0
  63 0006 FFF7FEBF 		b	chIQReadTimeout
  64              	.LVL5:
  65              		.cfi_endproc
  66              	.LFE64:
  67              		.size	read, .-read
  68 000a 00BFAFF3 		.section	.text.writet,"ax",%progbits
  68      0080
  69              		.align	2
  70              		.p2align 4,,15
  71              		.thumb
  72              		.thumb_func
  73              		.type	writet, %function
  74              	writet:
  75              	.LFB69:
  76              		.loc 1 87 0
  77              		.cfi_startproc
  78              		@ args = 0, pretend = 0, frame = 0
  79              		@ frame_needed = 0, uses_anonymous_args = 0
  80              		@ link register save eliminated.
  81              	.LVL6:
  82              		.loc 1 89 0
  83 0000 3030     		adds	r0, r0, #48
  84              	.LVL7:
  85              		.loc 1 90 0
  86              		.loc 1 89 0
  87 0002 FFF7FEBF 		b	chOQWriteTimeout
  88              	.LVL8:
  89              		.cfi_endproc
  90              	.LFE69:
  91              		.size	writet, .-writet
  92 0006 00BFAFF3 		.section	.text.write,"ax",%progbits
  92      0080AFF3 
  92      0080
  93              		.align	2
  94              		.p2align 4,,15
  95              		.thumb
  96              		.thumb_func
  97              		.type	write, %function
  98              	write:
  99              	.LFB63:
 100              		.loc 1 55 0
 101              		.cfi_startproc
 102              		@ args = 0, pretend = 0, frame = 0
 103              		@ frame_needed = 0, uses_anonymous_args = 0
 104              		@ link register save eliminated.
 105              	.LVL9:
 106              		.loc 1 57 0
 107 0000 3030     		adds	r0, r0, #48
 108              	.LVL10:
 109 0002 4FF0FF33 		mov	r3, #-1
ARM GAS  /tmp/ccNf8Zmn.s 			page 3


 110              		.loc 1 59 0
 111              		.loc 1 57 0
 112 0006 FFF7FEBF 		b	chOQWriteTimeout
 113              	.LVL11:
 114              		.cfi_endproc
 115              	.LFE63:
 116              		.size	write, .-write
 117 000a 00BFAFF3 		.section	.text.gett,"ax",%progbits
 117      0080
 118              		.align	2
 119              		.p2align 4,,15
 120              		.thumb
 121              		.thumb_func
 122              		.type	gett, %function
 123              	gett:
 124              	.LFB68:
 125              		.loc 1 82 0
 126              		.cfi_startproc
 127              		@ args = 0, pretend = 0, frame = 0
 128              		@ frame_needed = 0, uses_anonymous_args = 0
 129              		@ link register save eliminated.
 130              	.LVL12:
 131              		.loc 1 84 0
 132 0000 0C30     		adds	r0, r0, #12
 133              	.LVL13:
 134              		.loc 1 85 0
 135              		.loc 1 84 0
 136 0002 FFF7FEBF 		b	chIQGetTimeout
 137              	.LVL14:
 138              		.cfi_endproc
 139              	.LFE68:
 140              		.size	gett, .-gett
 141 0006 00BFAFF3 		.section	.text.get,"ax",%progbits
 141      0080AFF3 
 141      0080
 142              		.align	2
 143              		.p2align 4,,15
 144              		.thumb
 145              		.thumb_func
 146              		.type	get, %function
 147              	get:
 148              	.LFB66:
 149              		.loc 1 72 0
 150              		.cfi_startproc
 151              		@ args = 0, pretend = 0, frame = 0
 152              		@ frame_needed = 0, uses_anonymous_args = 0
 153              		@ link register save eliminated.
 154              	.LVL15:
 155              		.loc 1 74 0
 156 0000 0C30     		adds	r0, r0, #12
 157              	.LVL16:
 158 0002 4FF0FF31 		mov	r1, #-1
 159              		.loc 1 75 0
 160              		.loc 1 74 0
 161 0006 FFF7FEBF 		b	chIQGetTimeout
 162              	.LVL17:
 163              		.cfi_endproc
ARM GAS  /tmp/ccNf8Zmn.s 			page 4


 164              	.LFE66:
 165              		.size	get, .-get
 166 000a 00BFAFF3 		.section	.text.putt,"ax",%progbits
 166      0080
 167              		.align	2
 168              		.p2align 4,,15
 169              		.thumb
 170              		.thumb_func
 171              		.type	putt, %function
 172              	putt:
 173              	.LFB67:
 174              		.loc 1 77 0
 175              		.cfi_startproc
 176              		@ args = 0, pretend = 0, frame = 0
 177              		@ frame_needed = 0, uses_anonymous_args = 0
 178              		@ link register save eliminated.
 179              	.LVL18:
 180              		.loc 1 79 0
 181 0000 3030     		adds	r0, r0, #48
 182              	.LVL19:
 183              		.loc 1 80 0
 184              		.loc 1 79 0
 185 0002 FFF7FEBF 		b	chOQPutTimeout
 186              	.LVL20:
 187              		.cfi_endproc
 188              	.LFE67:
 189              		.size	putt, .-putt
 190 0006 00BFAFF3 		.section	.text.put,"ax",%progbits
 190      0080AFF3 
 190      0080
 191              		.align	2
 192              		.p2align 4,,15
 193              		.thumb
 194              		.thumb_func
 195              		.type	put, %function
 196              	put:
 197              	.LFB65:
 198              		.loc 1 67 0
 199              		.cfi_startproc
 200              		@ args = 0, pretend = 0, frame = 0
 201              		@ frame_needed = 0, uses_anonymous_args = 0
 202              		@ link register save eliminated.
 203              	.LVL21:
 204              		.loc 1 69 0
 205 0000 3030     		adds	r0, r0, #48
 206              	.LVL22:
 207 0002 4FF0FF32 		mov	r2, #-1
 208              		.loc 1 70 0
 209              		.loc 1 69 0
 210 0006 FFF7FEBF 		b	chOQPutTimeout
 211              	.LVL23:
 212              		.cfi_endproc
 213              	.LFE65:
 214              		.size	put, .-put
 215 000a 00BFAFF3 		.section	.text.sdInit,"ax",%progbits
 215      0080
 216              		.align	2
ARM GAS  /tmp/ccNf8Zmn.s 			page 5


 217              		.p2align 4,,15
 218              		.global	sdInit
 219              		.thumb
 220              		.thumb_func
 221              		.type	sdInit, %function
 222              	sdInit:
 223              	.LFB71:
 224              		.loc 1 113 0
 225              		.cfi_startproc
 226              		@ args = 0, pretend = 0, frame = 0
 227              		@ frame_needed = 0, uses_anonymous_args = 0
 228              		@ link register save eliminated.
 229              		.loc 1 116 0
 230              		.loc 1 115 0
 231 0000 FFF7FEBF 		b	sd_lld_init
 232              	.LVL24:
 233              		.cfi_endproc
 234              	.LFE71:
 235              		.size	sdInit, .-sdInit
 236 0004 AFF30080 		.section	.text.sdObjectInit,"ax",%progbits
 236      AFF30080 
 236      AFF30080 
 237              		.align	2
 238              		.p2align 4,,15
 239              		.global	sdObjectInit
 240              		.thumb
 241              		.thumb_func
 242              		.type	sdObjectInit, %function
 243              	sdObjectInit:
 244              	.LFB72:
 245              		.loc 1 133 0
 246              		.cfi_startproc
 247              		@ args = 0, pretend = 0, frame = 0
 248              		@ frame_needed = 0, uses_anonymous_args = 0
 249              	.LVL25:
 250 0000 70B5     		push	{r4, r5, r6, lr}
 251              	.LCFI0:
 252              		.cfi_def_cfa_offset 16
 253              		.cfi_offset 4, -16
 254              		.cfi_offset 5, -12
 255              		.cfi_offset 6, -8
 256              		.cfi_offset 14, -4
 257 0002 0B46     		mov	r3, r1
 258              		.loc 1 135 0
 259 0004 40F20001 		movw	r1, #:lower16:.LANCHOR0
 260              	.LVL26:
 261 0008 0546     		mov	r5, r0
 262 000a C0F20001 		movt	r1, #:upper16:.LANCHOR0
 263              		.loc 1 133 0
 264 000e 0446     		mov	r4, r0
 265              		.loc 1 135 0
 266 0010 45F8041B 		str	r1, [r5], #4
 267              		.loc 1 133 0
 268 0014 82B0     		sub	sp, sp, #8
 269              	.LCFI1:
 270              		.cfi_def_cfa_offset 24
 271              		.loc 1 136 0
ARM GAS  /tmp/ccNf8Zmn.s 			page 6


 272 0016 6560     		str	r5, [r4, #4]
 273              		.loc 1 137 0
 274 0018 0125     		movs	r5, #1
 275              		.loc 1 133 0
 276 001a 1646     		mov	r6, r2
 277              		.loc 1 138 0
 278 001c 04F15401 		add	r1, r4, #84
 279 0020 1022     		movs	r2, #16
 280              	.LVL27:
 281              		.loc 1 137 0
 282 0022 2572     		strb	r5, [r4, #8]
 283              		.loc 1 138 0
 284 0024 00F10C00 		add	r0, r0, #12
 285              	.LVL28:
 286 0028 0094     		str	r4, [sp, #0]
 287 002a FFF7FEFF 		bl	chIQInit
 288              	.LVL29:
 289              		.loc 1 139 0
 290 002e 0094     		str	r4, [sp, #0]
 291 0030 04F13000 		add	r0, r4, #48
 292 0034 04F16401 		add	r1, r4, #100
 293 0038 1022     		movs	r2, #16
 294 003a 3346     		mov	r3, r6
 295 003c FFF7FEFF 		bl	chOQInit
 296              	.LVL30:
 297              		.loc 1 140 0
 298 0040 02B0     		add	sp, sp, #8
 299 0042 70BD     		pop	{r4, r5, r6, pc}
 300              		.cfi_endproc
 301              	.LFE72:
 302              		.size	sdObjectInit, .-sdObjectInit
 303 0044 AFF30080 		.section	.text.sdStart,"ax",%progbits
 303      AFF30080 
 303      AFF30080 
 304              		.align	2
 305              		.p2align 4,,15
 306              		.global	sdStart
 307              		.thumb
 308              		.thumb_func
 309              		.type	sdStart, %function
 310              	sdStart:
 311              	.LFB73:
 312              		.loc 1 152 0
 313              		.cfi_startproc
 314              		@ args = 0, pretend = 0, frame = 0
 315              		@ frame_needed = 0, uses_anonymous_args = 0
 316              	.LVL31:
 317 0000 38B5     		push	{r3, r4, r5, lr}
 318              	.LCFI2:
 319              		.cfi_def_cfa_offset 16
 320              		.cfi_offset 3, -16
 321              		.cfi_offset 4, -12
 322              		.cfi_offset 5, -8
 323              		.cfi_offset 14, -4
 324              		.loc 1 154 0
 325 0002 0446     		mov	r4, r0
 326              		.loc 1 152 0
ARM GAS  /tmp/ccNf8Zmn.s 			page 7


 327 0004 0D46     		mov	r5, r1
 328              		.loc 1 154 0
 329 0006 B8B1     		cbz	r0, .L15
 330              	.LVL32:
 331              	.L12:
 332              	.LBB2:
 333              		.loc 1 156 0
 334 0008 2023     		movs	r3, #32
 335              	.LVL33:
 336              	@ 156 "../../os/hal/src/serial.c" 1
 337 000a 83F31188 		msr     BASEPRI, r3
 338              	@ 0 "" 2
 339              	.LVL34:
 340              		.thumb
 341              	.LBE2:
 342 000e FFF7FEFF 		bl	dbg_check_lock
 343              	.LVL35:
 344              		.loc 1 157 0
 345 0012 237A     		ldrb	r3, [r4, #8]	@ zero_extendqisi2
 346 0014 581E     		subs	r0, r3, #1
 347 0016 0128     		cmp	r0, #1
 348 0018 02D9     		bls	.L13
 349              		.loc 1 157 0 is_stmt 0 discriminator 1
 350 001a 0948     		ldr	r0, .L16
 351 001c FFF7FEFF 		bl	chDbgPanic
 352              	.LVL36:
 353              	.L13:
 354              		.loc 1 160 0 is_stmt 1
 355 0020 2046     		mov	r0, r4
 356 0022 2946     		mov	r1, r5
 357 0024 FFF7FEFF 		bl	sd_lld_start
 358              	.LVL37:
 359              		.loc 1 161 0
 360 0028 0221     		movs	r1, #2
 361 002a 2172     		strb	r1, [r4, #8]
 362              		.loc 1 162 0
 363 002c FFF7FEFF 		bl	dbg_check_unlock
 364              	.LVL38:
 365              	.LBB3:
 366 0030 0023     		movs	r3, #0
 367              	.LVL39:
 368              	@ 162 "../../os/hal/src/serial.c" 1
 369 0032 83F31188 		msr     BASEPRI, r3
 370              	@ 0 "" 2
 371              	.LVL40:
 372              		.thumb
 373 0036 38BD     		pop	{r3, r4, r5, pc}
 374              	.LVL41:
 375              	.L15:
 376              	.LBE3:
 377              		.loc 1 154 0 discriminator 1
 378 0038 0248     		ldr	r0, .L16+4
 379              	.LVL42:
 380 003a FFF7FEFF 		bl	chDbgPanic
 381              	.LVL43:
 382 003e E3E7     		b	.L12
 383              	.L17:
ARM GAS  /tmp/ccNf8Zmn.s 			page 8


 384              		.align	2
 385              	.L16:
 386 0040 0C000000 		.word	.LC1
 387 0044 00000000 		.word	.LC0
 388              		.cfi_endproc
 389              	.LFE73:
 390              		.size	sdStart, .-sdStart
 391 0048 AFF30080 		.section	.text.sdStop,"ax",%progbits
 391      AFF30080 
 392              		.align	2
 393              		.p2align 4,,15
 394              		.global	sdStop
 395              		.thumb
 396              		.thumb_func
 397              		.type	sdStop, %function
 398              	sdStop:
 399              	.LFB74:
 400              		.loc 1 174 0
 401              		.cfi_startproc
 402              		@ args = 0, pretend = 0, frame = 0
 403              		@ frame_needed = 0, uses_anonymous_args = 0
 404              	.LVL44:
 405 0000 10B5     		push	{r4, lr}
 406              	.LCFI3:
 407              		.cfi_def_cfa_offset 8
 408              		.cfi_offset 4, -8
 409              		.cfi_offset 14, -4
 410              		.loc 1 176 0
 411 0002 0446     		mov	r4, r0
 412 0004 00B3     		cbz	r0, .L21
 413              	.LVL45:
 414              	.L19:
 415              	.LBB4:
 416              		.loc 1 178 0
 417 0006 2023     		movs	r3, #32
 418              	.LVL46:
 419              	@ 178 "../../os/hal/src/serial.c" 1
 420 0008 83F31188 		msr     BASEPRI, r3
 421              	@ 0 "" 2
 422              	.LVL47:
 423              		.thumb
 424              	.LBE4:
 425 000c FFF7FEFF 		bl	dbg_check_lock
 426              	.LVL48:
 427              		.loc 1 179 0
 428 0010 237A     		ldrb	r3, [r4, #8]	@ zero_extendqisi2
 429 0012 581E     		subs	r0, r3, #1
 430 0014 0128     		cmp	r0, #1
 431 0016 02D9     		bls	.L20
 432              		.loc 1 179 0 is_stmt 0 discriminator 1
 433 0018 0D48     		ldr	r0, .L22
 434 001a FFF7FEFF 		bl	chDbgPanic
 435              	.LVL49:
 436              	.L20:
 437              		.loc 1 182 0 is_stmt 1
 438 001e 2046     		mov	r0, r4
 439 0020 FFF7FEFF 		bl	sd_lld_stop
ARM GAS  /tmp/ccNf8Zmn.s 			page 9


 440              	.LVL50:
 441              		.loc 1 183 0
 442 0024 0121     		movs	r1, #1
 443 0026 2172     		strb	r1, [r4, #8]
 444              		.loc 1 184 0
 445 0028 04F13000 		add	r0, r4, #48
 446 002c FFF7FEFF 		bl	chOQResetI
 447              	.LVL51:
 448              		.loc 1 185 0
 449 0030 04F10C00 		add	r0, r4, #12
 450 0034 FFF7FEFF 		bl	chIQResetI
 451              	.LVL52:
 452              		.loc 1 186 0
 453 0038 FFF7FEFF 		bl	chSchRescheduleS
 454              	.LVL53:
 455              		.loc 1 187 0
 456 003c FFF7FEFF 		bl	dbg_check_unlock
 457              	.LVL54:
 458              	.LBB5:
 459 0040 0023     		movs	r3, #0
 460              	.LVL55:
 461              	@ 187 "../../os/hal/src/serial.c" 1
 462 0042 83F31188 		msr     BASEPRI, r3
 463              	@ 0 "" 2
 464              	.LVL56:
 465              		.thumb
 466 0046 10BD     		pop	{r4, pc}
 467              	.LVL57:
 468              	.L21:
 469              	.LBE5:
 470              		.loc 1 176 0 discriminator 1
 471 0048 0248     		ldr	r0, .L22+4
 472              	.LVL58:
 473 004a FFF7FEFF 		bl	chDbgPanic
 474              	.LVL59:
 475 004e DAE7     		b	.L19
 476              	.L23:
 477              		.align	2
 478              	.L22:
 479 0050 28000000 		.word	.LC3
 480 0054 1C000000 		.word	.LC2
 481              		.cfi_endproc
 482              	.LFE74:
 483              		.size	sdStop, .-sdStop
 484 0058 AFF30080 		.section	.text.sdIncomingDataI,"ax",%progbits
 484      AFF30080 
 485              		.align	2
 486              		.p2align 4,,15
 487              		.global	sdIncomingDataI
 488              		.thumb
 489              		.thumb_func
 490              		.type	sdIncomingDataI, %function
 491              	sdIncomingDataI:
 492              	.LFB75:
 493              		.loc 1 206 0
 494              		.cfi_startproc
 495              		@ args = 0, pretend = 0, frame = 0
ARM GAS  /tmp/ccNf8Zmn.s 			page 10


 496              		@ frame_needed = 0, uses_anonymous_args = 0
 497              	.LVL60:
 498 0000 38B5     		push	{r3, r4, r5, lr}
 499              	.LCFI4:
 500              		.cfi_def_cfa_offset 16
 501              		.cfi_offset 3, -16
 502              		.cfi_offset 4, -12
 503              		.cfi_offset 5, -8
 504              		.cfi_offset 14, -4
 505              		.loc 1 206 0
 506 0002 0446     		mov	r4, r0
 507 0004 0D46     		mov	r5, r1
 508              		.loc 1 208 0
 509 0006 FFF7FEFF 		bl	chDbgCheckClassI
 510              	.LVL61:
 511              		.loc 1 209 0
 512 000a D4B1     		cbz	r4, .L28
 513              	.L25:
 514              		.loc 1 211 0
 515 000c 6369     		ldr	r3, [r4, #20]
 516 000e 3BB1     		cbz	r3, .L29
 517              		.loc 1 213 0
 518 0010 04F10C00 		add	r0, r4, #12
 519 0014 2946     		mov	r1, r5
 520 0016 FFF7FEFF 		bl	chIQPutI
 521              	.LVL62:
 522 001a 0028     		cmp	r0, #0
 523 001c 0BDB     		blt	.L30
 524              	.L24:
 525 001e 38BD     		pop	{r3, r4, r5, pc}
 526              	.L29:
 527              		.loc 1 212 0
 528 0020 201D     		adds	r0, r4, #4
 529 0022 0421     		movs	r1, #4
 530 0024 FFF7FEFF 		bl	chEvtBroadcastFlagsI
 531              	.LVL63:
 532              		.loc 1 213 0
 533 0028 04F10C00 		add	r0, r4, #12
 534 002c 2946     		mov	r1, r5
 535 002e FFF7FEFF 		bl	chIQPutI
 536              	.LVL64:
 537 0032 0028     		cmp	r0, #0
 538 0034 F3DA     		bge	.L24
 539              	.L30:
 540              		.loc 1 214 0
 541 0036 201D     		adds	r0, r4, #4
 542 0038 8021     		movs	r1, #128
 543              		.loc 1 215 0
 544 003a BDE83840 		pop	{r3, r4, r5, lr}
 545              		.loc 1 214 0
 546 003e FFF7FEBF 		b	chEvtBroadcastFlagsI
 547              	.LVL65:
 548              	.L28:
 549              		.loc 1 209 0 discriminator 1
 550 0042 0248     		ldr	r0, .L31
 551 0044 FFF7FEFF 		bl	chDbgPanic
 552              	.LVL66:
ARM GAS  /tmp/ccNf8Zmn.s 			page 11


 553 0048 E0E7     		b	.L25
 554              	.L32:
 555 004a 00BF     		.align	2
 556              	.L31:
 557 004c 38000000 		.word	.LC4
 558              		.cfi_endproc
 559              	.LFE75:
 560              		.size	sdIncomingDataI, .-sdIncomingDataI
 561              		.section	.text.sdRequestDataI,"ax",%progbits
 562              		.align	2
 563              		.p2align 4,,15
 564              		.global	sdRequestDataI
 565              		.thumb
 566              		.thumb_func
 567              		.type	sdRequestDataI, %function
 568              	sdRequestDataI:
 569              	.LFB76:
 570              		.loc 1 232 0
 571              		.cfi_startproc
 572              		@ args = 0, pretend = 0, frame = 0
 573              		@ frame_needed = 0, uses_anonymous_args = 0
 574              	.LVL67:
 575 0000 38B5     		push	{r3, r4, r5, lr}
 576              	.LCFI5:
 577              		.cfi_def_cfa_offset 16
 578              		.cfi_offset 3, -16
 579              		.cfi_offset 4, -12
 580              		.cfi_offset 5, -8
 581              		.cfi_offset 14, -4
 582              		.loc 1 232 0
 583 0002 0446     		mov	r4, r0
 584              		.loc 1 235 0
 585 0004 FFF7FEFF 		bl	chDbgCheckClassI
 586              	.LVL68:
 587              		.loc 1 236 0
 588 0008 6CB1     		cbz	r4, .L36
 589              	.L34:
 590              		.loc 1 238 0
 591 000a 04F13000 		add	r0, r4, #48
 592 000e FFF7FEFF 		bl	chOQGetI
 593              	.LVL69:
 594              		.loc 1 239 0
 595 0012 051E     		subs	r5, r0, #0
 596 0014 01DB     		blt	.L37
 597              		.loc 1 242 0
 598 0016 2846     		mov	r0, r5
 599 0018 38BD     		pop	{r3, r4, r5, pc}
 600              	.L37:
 601              		.loc 1 240 0
 602 001a 201D     		adds	r0, r4, #4
 603 001c 0821     		movs	r1, #8
 604 001e FFF7FEFF 		bl	chEvtBroadcastFlagsI
 605              	.LVL70:
 606              		.loc 1 242 0
 607 0022 2846     		mov	r0, r5
 608 0024 38BD     		pop	{r3, r4, r5, pc}
 609              	.LVL71:
ARM GAS  /tmp/ccNf8Zmn.s 			page 12


 610              	.L36:
 611              		.loc 1 236 0 discriminator 1
 612 0026 0248     		ldr	r0, .L38
 613 0028 FFF7FEFF 		bl	chDbgPanic
 614              	.LVL72:
 615 002c EDE7     		b	.L34
 616              	.L39:
 617 002e 00BF     		.align	2
 618              	.L38:
 619 0030 4C000000 		.word	.LC5
 620              		.cfi_endproc
 621              	.LFE76:
 622              		.size	sdRequestDataI, .-sdRequestDataI
 623 0034 AFF30080 		.section	.rodata.str1.4,"aMS",%progbits,1
 623      AFF30080 
 623      AFF30080 
 624              		.align	2
 625              	.LC0:
 626 0000 22736453 		.ascii	"\"sdStart\"()\000"
 626      74617274 
 626      22282900 
 627              	.LC1:
 628 000c 73645374 		.ascii	"sdStart(), #1\000"
 628      61727428 
 628      292C2023 
 628      3100
 629 001a 0000     		.space	2
 630              	.LC2:
 631 001c 22736453 		.ascii	"\"sdStop\"()\000"
 631      746F7022 
 631      282900
 632 0027 00       		.space	1
 633              	.LC3:
 634 0028 73645374 		.ascii	"sdStop(), #1\000"
 634      6F702829 
 634      2C202331 
 634      00
 635 0035 000000   		.space	3
 636              	.LC4:
 637 0038 22736449 		.ascii	"\"sdIncomingDataI\"()\000"
 637      6E636F6D 
 637      696E6744 
 637      61746149 
 637      22282900 
 638              	.LC5:
 639 004c 22736452 		.ascii	"\"sdRequestDataI\"()\000"
 639      65717565 
 639      73744461 
 639      74614922 
 639      282900
 640 005f 00       		.section	.rodata.vmt,"a",%progbits
 641              		.align	2
 642              		.set	.LANCHOR0,. + 0
 643              		.type	vmt, %object
 644              		.size	vmt, 32
 645              	vmt:
 646 0000 00000000 		.word	write
ARM GAS  /tmp/ccNf8Zmn.s 			page 13


 647 0004 00000000 		.word	read
 648 0008 00000000 		.word	put
 649 000c 00000000 		.word	get
 650 0010 00000000 		.word	putt
 651 0014 00000000 		.word	gett
 652 0018 00000000 		.word	writet
 653 001c 00000000 		.word	readt
 654              		.text
 655              	.Letext0:
 656              		.file 2 "/usr/bin/../lib/gcc/arm-none-eabi/4.7.4/include/stddef.h"
 657              		.file 3 "/usr/bin/../lib/gcc/arm-none-eabi/4.7.4/../../../../arm-none-eabi/include/stdint.h"
 658              		.file 4 "../../os/ports/GCC/ARMCMx/chtypes.h"
 659              		.file 5 "../../os/kernel/include/chlists.h"
 660              		.file 6 "../../os/kernel/include/chthreads.h"
 661              		.file 7 "../../os/ports/GCC/ARMCMx/chcore_v7m.h"
 662              		.file 8 "../../os/kernel/include/chmtx.h"
 663              		.file 9 "../../os/kernel/include/chevents.h"
 664              		.file 10 "../../os/kernel/include/chqueues.h"
 665              		.file 11 "../../os/hal/platforms/STM32F1xx/stm32f10x.h"
 666              		.file 12 "../../os/hal/include/serial.h"
 667              		.file 13 "../../os/hal/platforms/STM32/USARTv1/serial_lld.h"
 668              		.file 14 "../../os/kernel/include/chdebug.h"
 669              		.file 15 "../../os/kernel/include/chschd.h"
 670              		.file 16 "../../os/ports/common/ARMCMx/CMSIS/include/core_cm3.h"