ARM GAS  /tmp/ccsSfBGF.s 			page 1


   1              		.syntax unified
   2              		.cpu cortex-m3
   3              		.fpu softvfp
   4              		.eabi_attribute 20, 1
   5              		.eabi_attribute 21, 1
   6              		.eabi_attribute 23, 3
   7              		.eabi_attribute 24, 1
   8              		.eabi_attribute 25, 1
   9              		.eabi_attribute 26, 1
  10              		.eabi_attribute 30, 2
  11              		.eabi_attribute 34, 1
  12              		.eabi_attribute 18, 4
  13              		.thumb
  14              		.file	"test.c"
  15              		.text
  16              	.Ltext0:
  17              		.cfi_sections	.debug_frame
  18              		.section	.text.tmr,"ax",%progbits
  19              		.align	2
  20              		.p2align 4,,15
  21              		.thumb
  22              		.thumb_func
  23              		.type	tmr, %function
  24              	tmr:
  25              	.LFB77:
  26              		.file 1 "../../test/test.c"
  27              		.loc 1 261 0
  28              		.cfi_startproc
  29              		@ args = 0, pretend = 0, frame = 0
  30              		@ frame_needed = 0, uses_anonymous_args = 0
  31              		@ link register save eliminated.
  32              	.LVL0:
  33              		.loc 1 264 0
  34 0000 40F20003 		movw	r3, #:lower16:.LANCHOR0
  35 0004 C0F20003 		movt	r3, #:upper16:.LANCHOR0
  36 0008 0122     		movs	r2, #1
  37 000a 1A70     		strb	r2, [r3, #0]
  38 000c 7047     		bx	lr
  39              		.cfi_endproc
  40              	.LFE77:
  41              		.size	tmr, .-tmr
  42              		.section	.text.print_line,"ax",%progbits
  43              		.align	2
  44              		.p2align 4,,15
  45              		.thumb
  46              		.thumb_func
  47              		.type	print_line, %function
  48              	print_line:
  49              	.LFB80:
  50              		.loc 1 300 0
  51              		.cfi_startproc
  52              		@ args = 0, pretend = 0, frame = 0
  53              		@ frame_needed = 0, uses_anonymous_args = 0
  54              	.LVL1:
  55 0000 38B5     		push	{r3, r4, r5, lr}
  56              	.LCFI0:
  57              		.cfi_def_cfa_offset 16
ARM GAS  /tmp/ccsSfBGF.s 			page 2


  58              		.cfi_offset 3, -16
  59              		.cfi_offset 4, -12
  60              		.cfi_offset 5, -8
  61              		.cfi_offset 14, -4
  62 0002 0B4D     		ldr	r5, .L7
  63              		.loc 1 300 0
  64 0004 4C24     		movs	r4, #76
  65              	.LVL2:
  66              	.L3:
  67              		.loc 1 304 0 discriminator 2
  68 0006 2868     		ldr	r0, [r5, #0]
  69 0008 2D21     		movs	r1, #45
  70 000a 0368     		ldr	r3, [r0, #0]
  71 000c 013C     		subs	r4, r4, #1
  72 000e 9A68     		ldr	r2, [r3, #8]
  73 0010 9047     		blx	r2
  74              	.LVL3:
  75 0012 2868     		ldr	r0, [r5, #0]
  76 0014 0168     		ldr	r1, [r0, #0]
  77 0016 8B68     		ldr	r3, [r1, #8]
  78 0018 2D21     		movs	r1, #45
  79 001a 9847     		blx	r3
  80              	.LVL4:
  81              		.loc 1 303 0 discriminator 2
  82 001c 013C     		subs	r4, r4, #1
  83 001e F2D1     		bne	.L3
  84              		.loc 1 305 0
  85 0020 0348     		ldr	r0, .L7
  86 0022 0449     		ldr	r1, .L7+4
  87 0024 0068     		ldr	r0, [r0, #0]
  88 0026 0268     		ldr	r2, [r0, #0]
  89 0028 1368     		ldr	r3, [r2, #0]
  90 002a 0222     		movs	r2, #2
  91 002c 9847     		blx	r3
  92              	.LVL5:
  93 002e 38BD     		pop	{r3, r4, r5, pc}
  94              	.L8:
  95              		.align	2
  96              	.L7:
  97 0030 00000000 		.word	.LANCHOR1
  98 0034 00000000 		.word	.LC0
  99              		.cfi_endproc
 100              	.LFE80:
 101              		.size	print_line, .-print_line
 102 0038 AFF30080 		.section	.text.test_printn,"ax",%progbits
 102      AFF30080 
 103              		.align	2
 104              		.p2align 4,,15
 105              		.global	test_printn
 106              		.thumb
 107              		.thumb_func
 108              		.type	test_printn, %function
 109              	test_printn:
 110              	.LFB63:
 111              		.loc 1 91 0
 112              		.cfi_startproc
 113              		@ args = 0, pretend = 0, frame = 16
ARM GAS  /tmp/ccsSfBGF.s 			page 3


 114              		@ frame_needed = 0, uses_anonymous_args = 0
 115              	.LVL6:
 116 0000 F0B5     		push	{r4, r5, r6, r7, lr}
 117              	.LCFI1:
 118              		.cfi_def_cfa_offset 20
 119              		.cfi_offset 4, -20
 120              		.cfi_offset 5, -16
 121              		.cfi_offset 6, -12
 122              		.cfi_offset 7, -8
 123              		.cfi_offset 14, -4
 124 0002 85B0     		sub	sp, sp, #20
 125              	.LCFI2:
 126              		.cfi_def_cfa_offset 40
 127              		.loc 1 94 0
 128 0004 0028     		cmp	r0, #0
 129 0006 37D0     		beq	.L23
 130              	.LBB50:
 131              	.LBB51:
 132              		.loc 1 91 0
 133 0008 0DF10105 		add	r5, sp, #1
 134              	.LBE51:
 135              	.LBE50:
 136              		.loc 1 99 0
 137 000c 4CF6CD46 		movw	r6, #52429
 138              	.LBB54:
 139              	.LBB52:
 140              		.loc 1 91 0
 141 0010 2B46     		mov	r3, r5
 142              	.LBE52:
 143              	.LBE54:
 144              		.loc 1 99 0
 145 0012 CCF6CC46 		movt	r6, 52428
 146              	.LVL7:
 147              	.L12:
 148 0016 A6FB0012 		umull	r1, r2, r6, r0
 149 001a D408     		lsrs	r4, r2, #3
 150 001c 04EB8401 		add	r1, r4, r4, lsl #2
 151 0020 A0EB4100 		sub	r0, r0, r1, lsl #1
 152 0024 3030     		adds	r0, r0, #48
 153 0026 C1B2     		uxtb	r1, r0
 154              		.loc 1 98 0
 155 0028 2046     		mov	r0, r4
 156              		.loc 1 99 0
 157 002a 03F8011C 		strb	r1, [r3, #-1]
 158              	.LVL8:
 159              		.loc 1 91 0
 160 002e 1C46     		mov	r4, r3
 161 0030 0133     		adds	r3, r3, #1
 162              	.LVL9:
 163              		.loc 1 98 0
 164 0032 0028     		cmp	r0, #0
 165 0034 EFD1     		bne	.L12
 166              		.loc 1 100 0 discriminator 1
 167 0036 6A46     		mov	r2, sp
 168 0038 9442     		cmp	r4, r2
 169 003a 1BD9     		bls	.L9
 170 003c 601B     		subs	r0, r4, r5
ARM GAS  /tmp/ccsSfBGF.s 			page 4


 171              	.LVL10:
 172 003e C307     		lsls	r3, r0, #31
 173 0040 114F     		ldr	r7, .L25
 174 0042 11D5     		bpl	.L15
 175              		.loc 1 101 0
 176 0044 3868     		ldr	r0, [r7, #0]
 177              	.LVL11:
 178 0046 0368     		ldr	r3, [r0, #0]
 179 0048 9A68     		ldr	r2, [r3, #8]
 180 004a 9047     		blx	r2
 181              	.LVL12:
 182 004c 14F8021C 		ldrb	r1, [r4, #-2]	@ zero_extendqisi2
 183 0050 013C     		subs	r4, r4, #1
 184 0052 09E0     		b	.L15
 185              	.L24:
 186 0054 3868     		ldr	r0, [r7, #0]
 187 0056 14F8021C 		ldrb	r1, [r4, #-2]	@ zero_extendqisi2
 188 005a 0368     		ldr	r3, [r0, #0]
 189 005c 661E     		subs	r6, r4, #1
 190 005e 9A68     		ldr	r2, [r3, #8]
 191 0060 9047     		blx	r2
 192              	.LVL13:
 193 0062 16F8021C 		ldrb	r1, [r6, #-2]	@ zero_extendqisi2
 194 0066 023C     		subs	r4, r4, #2
 195              	.L15:
 196 0068 3868     		ldr	r0, [r7, #0]
 197 006a 0368     		ldr	r3, [r0, #0]
 198 006c 9A68     		ldr	r2, [r3, #8]
 199 006e 9047     		blx	r2
 200              	.LVL14:
 201              		.loc 1 100 0
 202 0070 AC42     		cmp	r4, r5
 203 0072 EFD1     		bne	.L24
 204              	.L9:
 205              		.loc 1 103 0
 206 0074 05B0     		add	sp, sp, #20
 207 0076 F0BD     		pop	{r4, r5, r6, r7, pc}
 208              	.LVL15:
 209              	.L23:
 210              	.LBB55:
 211              	.LBB53:
 212              		.loc 1 95 0
 213 0078 0348     		ldr	r0, .L25
 214              	.LVL16:
 215 007a 3021     		movs	r1, #48
 216 007c 0068     		ldr	r0, [r0, #0]
 217 007e 0368     		ldr	r3, [r0, #0]
 218 0080 9A68     		ldr	r2, [r3, #8]
 219 0082 9047     		blx	r2
 220              	.LVL17:
 221 0084 F6E7     		b	.L9
 222              	.L26:
 223 0086 00BF     		.align	2
 224              	.L25:
 225 0088 00000000 		.word	.LANCHOR1
 226              	.LBE53:
 227              	.LBE55:
ARM GAS  /tmp/ccsSfBGF.s 			page 5


 228              		.cfi_endproc
 229              	.LFE63:
 230              		.size	test_printn, .-test_printn
 231 008c AFF30080 		.section	.text.test_print,"ax",%progbits
 232              		.align	2
 233              		.p2align 4,,15
 234              		.global	test_print
 235              		.thumb
 236              		.thumb_func
 237              		.type	test_print, %function
 238              	test_print:
 239              	.LFB64:
 240              		.loc 1 110 0
 241              		.cfi_startproc
 242              		@ args = 0, pretend = 0, frame = 0
 243              		@ frame_needed = 0, uses_anonymous_args = 0
 244              	.LVL18:
 245 0000 38B5     		push	{r3, r4, r5, lr}
 246              	.LCFI3:
 247              		.cfi_def_cfa_offset 16
 248              		.cfi_offset 3, -16
 249              		.cfi_offset 4, -12
 250              		.cfi_offset 5, -8
 251              		.cfi_offset 14, -4
 252              		.loc 1 112 0
 253 0002 0178     		ldrb	r1, [r0, #0]	@ zero_extendqisi2
 254 0004 49B1     		cbz	r1, .L27
 255 0006 054D     		ldr	r5, .L32
 256 0008 0446     		mov	r4, r0
 257              	.LVL19:
 258              	.L29:
 259              		.loc 1 113 0
 260 000a 2868     		ldr	r0, [r5, #0]
 261 000c 0368     		ldr	r3, [r0, #0]
 262 000e 9A68     		ldr	r2, [r3, #8]
 263 0010 9047     		blx	r2
 264              	.LVL20:
 265              		.loc 1 112 0
 266 0012 14F8011F 		ldrb	r1, [r4, #1]!	@ zero_extendqisi2
 267 0016 0029     		cmp	r1, #0
 268 0018 F7D1     		bne	.L29
 269              	.L27:
 270 001a 38BD     		pop	{r3, r4, r5, pc}
 271              	.L33:
 272              		.align	2
 273              	.L32:
 274 001c 00000000 		.word	.LANCHOR1
 275              		.cfi_endproc
 276              	.LFE64:
 277              		.size	test_print, .-test_print
 278              		.section	.text.test_println,"ax",%progbits
 279              		.align	2
 280              		.p2align 4,,15
 281              		.global	test_println
 282              		.thumb
 283              		.thumb_func
 284              		.type	test_println, %function
ARM GAS  /tmp/ccsSfBGF.s 			page 6


 285              	test_println:
 286              	.LFB65:
 287              		.loc 1 121 0
 288              		.cfi_startproc
 289              		@ args = 0, pretend = 0, frame = 0
 290              		@ frame_needed = 0, uses_anonymous_args = 0
 291              	.LVL21:
 292 0000 38B5     		push	{r3, r4, r5, lr}
 293              	.LCFI4:
 294              		.cfi_def_cfa_offset 16
 295              		.cfi_offset 3, -16
 296              		.cfi_offset 4, -12
 297              		.cfi_offset 5, -8
 298              		.cfi_offset 14, -4
 299              	.LBB56:
 300              	.LBB57:
 301              		.loc 1 112 0
 302 0002 0178     		ldrb	r1, [r0, #0]	@ zero_extendqisi2
 303 0004 084D     		ldr	r5, .L40
 304 0006 41B1     		cbz	r1, .L37
 305 0008 0446     		mov	r4, r0
 306              	.LVL22:
 307              	.L36:
 308              		.loc 1 113 0
 309 000a 2868     		ldr	r0, [r5, #0]
 310 000c 0368     		ldr	r3, [r0, #0]
 311 000e 9A68     		ldr	r2, [r3, #8]
 312 0010 9047     		blx	r2
 313              	.LVL23:
 314              		.loc 1 112 0
 315 0012 14F8011F 		ldrb	r1, [r4, #1]!	@ zero_extendqisi2
 316 0016 0029     		cmp	r1, #0
 317 0018 F7D1     		bne	.L36
 318              	.L37:
 319              	.LBE57:
 320              	.LBE56:
 321              		.loc 1 124 0
 322 001a 2868     		ldr	r0, [r5, #0]
 323 001c 0349     		ldr	r1, .L40+4
 324 001e 0368     		ldr	r3, [r0, #0]
 325 0020 0222     		movs	r2, #2
 326 0022 1B68     		ldr	r3, [r3, #0]
 327 0024 9847     		blx	r3
 328              	.LVL24:
 329 0026 38BD     		pop	{r3, r4, r5, pc}
 330              	.L41:
 331              		.align	2
 332              	.L40:
 333 0028 00000000 		.word	.LANCHOR1
 334 002c 00000000 		.word	.LC0
 335              		.cfi_endproc
 336              	.LFE65:
 337              		.size	test_println, .-test_println
 338              		.section	.text.test_emit_token,"ax",%progbits
 339              		.align	2
 340              		.p2align 4,,15
 341              		.global	test_emit_token
ARM GAS  /tmp/ccsSfBGF.s 			page 7


 342              		.thumb
 343              		.thumb_func
 344              		.type	test_emit_token, %function
 345              	test_emit_token:
 346              	.LFB68:
 347              		.loc 1 147 0
 348              		.cfi_startproc
 349              		@ args = 0, pretend = 0, frame = 0
 350              		@ frame_needed = 0, uses_anonymous_args = 0
 351              	.LVL25:
 352 0000 10B5     		push	{r4, lr}
 353              	.LCFI5:
 354              		.cfi_def_cfa_offset 8
 355              		.cfi_offset 4, -8
 356              		.cfi_offset 14, -4
 357              	.LBB58:
 358              		.loc 1 149 0
 359 0002 2023     		movs	r3, #32
 360              	.LVL26:
 361              	.LBE58:
 362              		.loc 1 147 0
 363 0004 0446     		mov	r4, r0
 364              	.LBB59:
 365              		.loc 1 149 0
 366              	@ 149 "../../test/test.c" 1
 367 0006 83F31188 		msr     BASEPRI, r3
 368              	@ 0 "" 2
 369              	.LVL27:
 370              		.thumb
 371              	.LBE59:
 372 000a FFF7FEFF 		bl	dbg_check_lock
 373              	.LVL28:
 374              		.loc 1 150 0
 375 000e 40F20003 		movw	r3, #:lower16:.LANCHOR2
 376 0012 C0F20003 		movt	r3, #:upper16:.LANCHOR2
 377 0016 1A68     		ldr	r2, [r3, #0]
 378 0018 02F8014B 		strb	r4, [r2], #1
 379 001c 1A60     		str	r2, [r3, #0]
 380              		.loc 1 151 0
 381 001e FFF7FEFF 		bl	dbg_check_unlock
 382              	.LVL29:
 383              	.LBB60:
 384 0022 0023     		movs	r3, #0
 385              	.LVL30:
 386              	@ 151 "../../test/test.c" 1
 387 0024 83F31188 		msr     BASEPRI, r3
 388              	@ 0 "" 2
 389              	.LVL31:
 390              		.thumb
 391 0028 10BD     		pop	{r4, pc}
 392              	.LBE60:
 393              		.cfi_endproc
 394              	.LFE68:
 395              		.size	test_emit_token, .-test_emit_token
 396 002a 00BFAFF3 		.section	.text._test_fail,"ax",%progbits
 396      0080
 397              		.align	2
ARM GAS  /tmp/ccsSfBGF.s 			page 8


 398              		.p2align 4,,15
 399              		.global	_test_fail
 400              		.thumb
 401              		.thumb_func
 402              		.type	_test_fail, %function
 403              	_test_fail:
 404              	.LFB69:
 405              		.loc 1 157 0
 406              		.cfi_startproc
 407              		@ args = 0, pretend = 0, frame = 0
 408              		@ frame_needed = 0, uses_anonymous_args = 0
 409              		@ link register save eliminated.
 410              	.LVL32:
 411 0000 10B4     		push	{r4}
 412              	.LCFI6:
 413              		.cfi_def_cfa_offset 4
 414              		.cfi_offset 4, -4
 415              		.loc 1 159 0
 416 0002 40F20001 		movw	r1, #:lower16:.LANCHOR3
 417              		.loc 1 160 0
 418 0006 40F20002 		movw	r2, #:lower16:.LANCHOR4
 419              		.loc 1 161 0
 420 000a 40F20004 		movw	r4, #:lower16:.LANCHOR5
 421              		.loc 1 159 0
 422 000e 0123     		movs	r3, #1
 423 0010 C0F20001 		movt	r1, #:upper16:.LANCHOR3
 424              		.loc 1 160 0
 425 0014 C0F20002 		movt	r2, #:upper16:.LANCHOR4
 426              		.loc 1 161 0
 427 0018 C0F20004 		movt	r4, #:upper16:.LANCHOR5
 428 001c 2060     		str	r0, [r4, #0]
 429              		.loc 1 159 0
 430 001e 0B70     		strb	r3, [r1, #0]
 431              		.loc 1 160 0
 432 0020 1370     		strb	r3, [r2, #0]
 433              		.loc 1 163 0
 434 0022 1846     		mov	r0, r3
 435              	.LVL33:
 436 0024 10BC     		pop	{r4}
 437 0026 7047     		bx	lr
 438              		.cfi_endproc
 439              	.LFE69:
 440              		.size	_test_fail, .-_test_fail
 441 0028 AFF30080 		.section	.text._test_assert,"ax",%progbits
 441      AFF30080 
 442              		.align	2
 443              		.p2align 4,,15
 444              		.global	_test_assert
 445              		.thumb
 446              		.thumb_func
 447              		.type	_test_assert, %function
 448              	_test_assert:
 449              	.LFB70:
 450              		.loc 1 165 0
 451              		.cfi_startproc
 452              		@ args = 0, pretend = 0, frame = 0
 453              		@ frame_needed = 0, uses_anonymous_args = 0
ARM GAS  /tmp/ccsSfBGF.s 			page 9


 454              		@ link register save eliminated.
 455              	.LVL34:
 456              		.loc 1 167 0
 457 0000 41B9     		cbnz	r1, .L46
 458              	.LVL35:
 459              	.LBB61:
 460              	.LBB62:
 461              		.loc 1 159 0
 462 0002 054A     		ldr	r2, .L47
 463 0004 0123     		movs	r3, #1
 464 0006 1370     		strb	r3, [r2, #0]
 465              		.loc 1 160 0
 466 0008 0449     		ldr	r1, .L47+4
 467              	.LVL36:
 468              		.loc 1 161 0
 469 000a 054A     		ldr	r2, .L47+8
 470              		.loc 1 160 0
 471 000c 0B70     		strb	r3, [r1, #0]
 472              		.loc 1 161 0
 473 000e 1060     		str	r0, [r2, #0]
 474              	.LBE62:
 475              	.LBE61:
 476              		.loc 1 168 0
 477 0010 1846     		mov	r0, r3
 478              	.LVL37:
 479 0012 7047     		bx	lr
 480              	.LVL38:
 481              	.L46:
 482              		.loc 1 169 0
 483 0014 0020     		movs	r0, #0
 484              	.LVL39:
 485              		.loc 1 170 0
 486 0016 7047     		bx	lr
 487              	.L48:
 488              		.align	2
 489              	.L47:
 490 0018 00000000 		.word	.LANCHOR3
 491 001c 00000000 		.word	.LANCHOR4
 492 0020 00000000 		.word	.LANCHOR5
 493              		.cfi_endproc
 494              	.LFE70:
 495              		.size	_test_assert, .-_test_assert
 496 0024 AFF30080 		.section	.text._test_assert_sequence,"ax",%progbits
 496      AFF30080 
 496      AFF30080 
 497              		.align	2
 498              		.p2align 4,,15
 499              		.global	_test_assert_sequence
 500              		.thumb
 501              		.thumb_func
 502              		.type	_test_assert_sequence, %function
 503              	_test_assert_sequence:
 504              	.LFB71:
 505              		.loc 1 172 0
 506              		.cfi_startproc
 507              		@ args = 0, pretend = 0, frame = 0
 508              		@ frame_needed = 0, uses_anonymous_args = 0
ARM GAS  /tmp/ccsSfBGF.s 			page 10


 509              		@ link register save eliminated.
 510              	.LVL40:
 511 0000 2DE9F001 		push	{r4, r5, r6, r7, r8}
 512              	.LCFI7:
 513              		.cfi_def_cfa_offset 20
 514              		.cfi_offset 4, -20
 515              		.cfi_offset 5, -16
 516              		.cfi_offset 6, -12
 517              		.cfi_offset 7, -8
 518              		.cfi_offset 8, -4
 519 0004 DFF87880 		ldr	r8, .L66+12
 520              		.loc 1 173 0
 521 0008 DFF878C0 		ldr	ip, .L66+16
 522 000c D8F80070 		ldr	r7, [r8, #0]
 523 0010 6346     		mov	r3, ip
 524 0012 CCEB0702 		rsb	r2, ip, r7
 525 0016 D207     		lsls	r2, r2, #31
 526 0018 15D5     		bpl	.L50
 527              	.LVL41:
 528              		.loc 1 174 0
 529 001a 6745     		cmp	r7, ip
 530 001c 18D9     		bls	.L63
 531              		.loc 1 175 0
 532 001e 11F8012B 		ldrb	r2, [r1], #1	@ zero_extendqisi2
 533              	.LVL42:
 534 0022 9CF80040 		ldrb	r4, [ip, #0]	@ zero_extendqisi2
 535 0026 0CF10103 		add	r3, ip, #1
 536 002a 9442     		cmp	r4, r2
 537 002c 0BD0     		beq	.L50
 538 002e 15E0     		b	.L65
 539              	.LVL43:
 540              	.L52:
 541 0030 1E78     		ldrb	r6, [r3, #0]	@ zero_extendqisi2
 542 0032 12F8015B 		ldrb	r5, [r2], #1	@ zero_extendqisi2
 543              	.LVL44:
 544 0036 631C     		adds	r3, r4, #1
 545 0038 AE42     		cmp	r6, r5
 546 003a 0FD1     		bne	.L65
 547 003c 4D78     		ldrb	r5, [r1, #1]	@ zero_extendqisi2
 548 003e 2478     		ldrb	r4, [r4, #0]	@ zero_extendqisi2
 549 0040 511C     		adds	r1, r2, #1
 550              	.LVL45:
 551 0042 AC42     		cmp	r4, r5
 552 0044 0AD1     		bne	.L65
 553              	.L50:
 554              	.LVL46:
 555              		.loc 1 174 0 discriminator 1
 556 0046 9F42     		cmp	r7, r3
 557              		.loc 1 175 0 discriminator 1
 558 0048 0A46     		mov	r2, r1
 559 004a 03F10104 		add	r4, r3, #1
 560              		.loc 1 174 0 discriminator 1
 561 004e EFD8     		bhi	.L52
 562              	.L63:
 563              		.loc 1 178 0
 564 0050 0B78     		ldrb	r3, [r1, #0]	@ zero_extendqisi2
 565 0052 1BB9     		cbnz	r3, .L65
ARM GAS  /tmp/ccsSfBGF.s 			page 11


 566              	.LBB63:
 567              	.LBB64:
 568              		.loc 1 132 0
 569 0054 C8F800C0 		str	ip, [r8, #0]
 570              	.LBE64:
 571              	.LBE63:
 572              		.loc 1 181 0
 573 0058 1846     		mov	r0, r3
 574              	.LVL47:
 575 005a 07E0     		b	.L51
 576              	.LVL48:
 577              	.L65:
 578              	.LBB65:
 579              	.LBB66:
 580              		.loc 1 159 0
 581 005c 054A     		ldr	r2, .L66
 582 005e 0121     		movs	r1, #1
 583 0060 1170     		strb	r1, [r2, #0]
 584              		.loc 1 160 0
 585 0062 054B     		ldr	r3, .L66+4
 586              		.loc 1 161 0
 587 0064 054A     		ldr	r2, .L66+8
 588              		.loc 1 160 0
 589 0066 1970     		strb	r1, [r3, #0]
 590              		.loc 1 161 0
 591 0068 1060     		str	r0, [r2, #0]
 592              	.LBE66:
 593              	.LBE65:
 594              		.loc 1 179 0
 595 006a 0846     		mov	r0, r1
 596              	.LVL49:
 597              	.L51:
 598              		.loc 1 182 0
 599 006c BDE8F001 		pop	{r4, r5, r6, r7, r8}
 600 0070 7047     		bx	lr
 601              	.L67:
 602 0072 00BF     		.align	2
 603              	.L66:
 604 0074 00000000 		.word	.LANCHOR3
 605 0078 00000000 		.word	.LANCHOR4
 606 007c 00000000 		.word	.LANCHOR5
 607 0080 00000000 		.word	.LANCHOR2
 608 0084 00000000 		.word	.LANCHOR6
 609              		.cfi_endproc
 610              	.LFE71:
 611              		.size	_test_assert_sequence, .-_test_assert_sequence
 612 0088 AFF30080 		.section	.text._test_assert_time_window,"ax",%progbits
 612      AFF30080 
 613              		.align	2
 614              		.p2align 4,,15
 615              		.global	_test_assert_time_window
 616              		.thumb
 617              		.thumb_func
 618              		.type	_test_assert_time_window, %function
 619              	_test_assert_time_window:
 620              	.LFB72:
 621              		.loc 1 184 0
ARM GAS  /tmp/ccsSfBGF.s 			page 12


 622              		.cfi_startproc
 623              		@ args = 0, pretend = 0, frame = 0
 624              		@ frame_needed = 0, uses_anonymous_args = 0
 625              	.LVL50:
 626 0000 10B5     		push	{r4, lr}
 627              	.LCFI8:
 628              		.cfi_def_cfa_offset 8
 629              		.cfi_offset 4, -8
 630              		.cfi_offset 14, -4
 631              		.loc 1 184 0
 632 0002 0446     		mov	r4, r0
 633              		.loc 1 186 0
 634 0004 0846     		mov	r0, r1
 635              	.LVL51:
 636 0006 1146     		mov	r1, r2
 637              	.LVL52:
 638 0008 FFF7FEFF 		bl	chTimeIsWithin
 639              	.LVL53:
 640              	.LBB67:
 641              	.LBB68:
 642              		.loc 1 167 0
 643 000c 40B9     		cbnz	r0, .L70
 644              	.LVL54:
 645              	.LBB69:
 646              	.LBB70:
 647              		.loc 1 159 0
 648 000e 054A     		ldr	r2, .L71
 649              		.loc 1 160 0
 650 0010 0548     		ldr	r0, .L71+4
 651              	.LVL55:
 652              		.loc 1 161 0
 653 0012 0649     		ldr	r1, .L71+8
 654              		.loc 1 159 0
 655 0014 0123     		movs	r3, #1
 656              		.loc 1 160 0
 657 0016 0370     		strb	r3, [r0, #0]
 658              		.loc 1 159 0
 659 0018 1370     		strb	r3, [r2, #0]
 660              		.loc 1 161 0
 661 001a 0C60     		str	r4, [r1, #0]
 662              		.loc 1 168 0
 663 001c 1846     		mov	r0, r3
 664 001e 10BD     		pop	{r4, pc}
 665              	.LVL56:
 666              	.L70:
 667              	.LBE70:
 668              	.LBE69:
 669              		.loc 1 169 0
 670 0020 0020     		movs	r0, #0
 671              	.LVL57:
 672              	.LBE68:
 673              	.LBE67:
 674              		.loc 1 187 0
 675 0022 10BD     		pop	{r4, pc}
 676              	.L72:
 677              		.align	2
 678              	.L71:
ARM GAS  /tmp/ccsSfBGF.s 			page 13


 679 0024 00000000 		.word	.LANCHOR3
 680 0028 00000000 		.word	.LANCHOR4
 681 002c 00000000 		.word	.LANCHOR5
 682              		.cfi_endproc
 683              	.LFE72:
 684              		.size	_test_assert_time_window, .-_test_assert_time_window
 685              		.section	.text.test_terminate_threads,"ax",%progbits
 686              		.align	2
 687              		.p2align 4,,15
 688              		.global	test_terminate_threads
 689              		.thumb
 690              		.thumb_func
 691              		.type	test_terminate_threads, %function
 692              	test_terminate_threads:
 693              	.LFB73:
 694              		.loc 1 196 0
 695              		.cfi_startproc
 696              		@ args = 0, pretend = 0, frame = 0
 697              		@ frame_needed = 0, uses_anonymous_args = 0
 698              	.LVL58:
 699 0000 10B5     		push	{r4, lr}
 700              	.LCFI9:
 701              		.cfi_def_cfa_offset 8
 702              		.cfi_offset 4, -8
 703              		.cfi_offset 14, -4
 704              		.loc 1 200 0
 705 0002 0C4C     		ldr	r4, .L91
 706 0004 2068     		ldr	r0, [r4, #0]
 707 0006 08B1     		cbz	r0, .L74
 708              		.loc 1 201 0
 709 0008 FFF7FEFF 		bl	chThdTerminate
 710              	.LVL59:
 711              	.L74:
 712              		.loc 1 200 0
 713 000c 6068     		ldr	r0, [r4, #4]
 714 000e 08B1     		cbz	r0, .L75
 715              		.loc 1 201 0
 716 0010 FFF7FEFF 		bl	chThdTerminate
 717              	.LVL60:
 718              	.L75:
 719              		.loc 1 200 0
 720 0014 A068     		ldr	r0, [r4, #8]
 721 0016 08B1     		cbz	r0, .L76
 722              		.loc 1 201 0
 723 0018 FFF7FEFF 		bl	chThdTerminate
 724              	.LVL61:
 725              	.L76:
 726              		.loc 1 200 0
 727 001c E068     		ldr	r0, [r4, #12]
 728 001e 08B1     		cbz	r0, .L77
 729              		.loc 1 201 0
 730 0020 FFF7FEFF 		bl	chThdTerminate
 731              	.LVL62:
 732              	.L77:
 733              		.loc 1 200 0
 734 0024 2069     		ldr	r0, [r4, #16]
 735 0026 18B1     		cbz	r0, .L73
ARM GAS  /tmp/ccsSfBGF.s 			page 14


 736              		.loc 1 202 0
 737 0028 BDE81040 		pop	{r4, lr}
 738              		.loc 1 201 0
 739 002c FFF7FEBF 		b	chThdTerminate
 740              	.LVL63:
 741              	.L73:
 742 0030 10BD     		pop	{r4, pc}
 743              	.L92:
 744 0032 00BF     		.align	2
 745              	.L91:
 746 0034 00000000 		.word	.LANCHOR7
 747              		.cfi_endproc
 748              	.LFE73:
 749              		.size	test_terminate_threads, .-test_terminate_threads
 750 0038 AFF30080 		.section	.text.test_wait_threads,"ax",%progbits
 750      AFF30080 
 751              		.align	2
 752              		.p2align 4,,15
 753              		.global	test_wait_threads
 754              		.thumb
 755              		.thumb_func
 756              		.type	test_wait_threads, %function
 757              	test_wait_threads:
 758              	.LFB74:
 759              		.loc 1 207 0
 760              		.cfi_startproc
 761              		@ args = 0, pretend = 0, frame = 0
 762              		@ frame_needed = 0, uses_anonymous_args = 0
 763              	.LVL64:
 764 0000 10B5     		push	{r4, lr}
 765              	.LCFI10:
 766              		.cfi_def_cfa_offset 8
 767              		.cfi_offset 4, -8
 768              		.cfi_offset 14, -4
 769              		.loc 1 211 0
 770 0002 124C     		ldr	r4, .L114
 771 0004 2068     		ldr	r0, [r4, #0]
 772 0006 18B1     		cbz	r0, .L94
 773              		.loc 1 212 0
 774 0008 FFF7FEFF 		bl	chThdWait
 775              	.LVL65:
 776              		.loc 1 213 0
 777 000c 0023     		movs	r3, #0
 778 000e 2360     		str	r3, [r4, #0]
 779              	.L94:
 780              	.LVL66:
 781              		.loc 1 211 0
 782 0010 6068     		ldr	r0, [r4, #4]
 783 0012 20B1     		cbz	r0, .L95
 784              		.loc 1 212 0
 785 0014 FFF7FEFF 		bl	chThdWait
 786              	.LVL67:
 787              		.loc 1 213 0
 788 0018 0C48     		ldr	r0, .L114
 789 001a 0022     		movs	r2, #0
 790 001c 4260     		str	r2, [r0, #4]
 791              	.L95:
ARM GAS  /tmp/ccsSfBGF.s 			page 15


 792              	.LVL68:
 793              		.loc 1 211 0
 794 001e A068     		ldr	r0, [r4, #8]
 795 0020 20B1     		cbz	r0, .L96
 796              		.loc 1 212 0
 797 0022 FFF7FEFF 		bl	chThdWait
 798              	.LVL69:
 799              		.loc 1 213 0
 800 0026 094B     		ldr	r3, .L114
 801 0028 0021     		movs	r1, #0
 802 002a 9960     		str	r1, [r3, #8]
 803              	.L96:
 804              	.LVL70:
 805              		.loc 1 211 0
 806 002c E068     		ldr	r0, [r4, #12]
 807 002e 20B1     		cbz	r0, .L97
 808              		.loc 1 212 0
 809 0030 FFF7FEFF 		bl	chThdWait
 810              	.LVL71:
 811              		.loc 1 213 0
 812 0034 0548     		ldr	r0, .L114
 813 0036 0022     		movs	r2, #0
 814 0038 C260     		str	r2, [r0, #12]
 815              	.L97:
 816              	.LVL72:
 817              		.loc 1 211 0
 818 003a 2069     		ldr	r0, [r4, #16]
 819 003c 20B1     		cbz	r0, .L93
 820              		.loc 1 212 0
 821 003e FFF7FEFF 		bl	chThdWait
 822              	.LVL73:
 823              		.loc 1 213 0
 824 0042 024B     		ldr	r3, .L114
 825 0044 0021     		movs	r1, #0
 826 0046 1961     		str	r1, [r3, #16]
 827              	.LVL74:
 828              	.L93:
 829 0048 10BD     		pop	{r4, pc}
 830              	.L115:
 831 004a 00BF     		.align	2
 832              	.L114:
 833 004c 00000000 		.word	.LANCHOR7
 834              		.cfi_endproc
 835              	.LFE74:
 836              		.size	test_wait_threads, .-test_wait_threads
 837              		.section	.text.test_cpu_pulse,"ax",%progbits
 838              		.align	2
 839              		.p2align 4,,15
 840              		.global	test_cpu_pulse
 841              		.thumb
 842              		.thumb_func
 843              		.type	test_cpu_pulse, %function
 844              	test_cpu_pulse:
 845              	.LFB75:
 846              		.loc 1 224 0
 847              		.cfi_startproc
 848              		@ args = 0, pretend = 0, frame = 0
ARM GAS  /tmp/ccsSfBGF.s 			page 16


 849              		@ frame_needed = 0, uses_anonymous_args = 0
 850              		@ link register save eliminated.
 851              	.LVL75:
 852              		.loc 1 228 0
 853 0000 4FF47A73 		mov	r3, #1000
 854 0004 03FB00F0 		mul	r0, r3, r0
 855              	.LVL76:
 856              		.loc 1 227 0
 857 0008 0E4A     		ldr	r2, .L128
 858              		.loc 1 228 0
 859 000a 44F6D353 		movw	r3, #19923
 860 000e 411E     		subs	r1, r0, #1
 861              		.loc 1 224 0
 862 0010 10B4     		push	{r4}
 863              	.LCFI11:
 864              		.cfi_def_cfa_offset 4
 865              		.cfi_offset 4, -4
 866              		.loc 1 228 0
 867 0012 C1F26203 		movt	r3, 4194
 868              		.loc 1 227 0
 869 0016 9469     		ldr	r4, [r2, #24]
 870              		.loc 1 228 0
 871 0018 A3FB0123 		umull	r2, r3, r3, r1
 872              		.loc 1 227 0
 873 001c 626A     		ldr	r2, [r4, #36]
 874              	.LVL77:
 875              		.loc 1 228 0
 876 001e 501C     		adds	r0, r2, #1
 877 0020 00EB9311 		add	r1, r0, r3, lsr #6
 878              	.LVL78:
 879              	.L126:
 880              		.loc 1 235 0
 881 0024 8A42     		cmp	r2, r1
 882              		.loc 1 230 0
 883 0026 636A     		ldr	r3, [r4, #36]
 884              	.LVL79:
 885              		.loc 1 235 0
 886 0028 03D2     		bcs	.L117
 887              		.loc 1 235 0 is_stmt 0 discriminator 1
 888 002a 9A42     		cmp	r2, r3
 889 002c 03D9     		bls	.L127
 890              	.LVL80:
 891              	.L124:
 892              		.loc 1 237 0 is_stmt 1
 893 002e 10BC     		pop	{r4}
 894 0030 7047     		bx	lr
 895              	.LVL81:
 896              	.L117:
 897              		.loc 1 236 0
 898 0032 9A42     		cmp	r2, r3
 899 0034 F6D9     		bls	.L126
 900              	.L127:
 901              		.loc 1 236 0 is_stmt 0 discriminator 2
 902 0036 9942     		cmp	r1, r3
 903 0038 94BF     		ite	ls
 904 003a 0023     		movls	r3, #0
 905              	.LVL82:
ARM GAS  /tmp/ccsSfBGF.s 			page 17


 906 003c 0123     		movhi	r3, #1
 907 003e 002B     		cmp	r3, #0
 908 0040 F0D1     		bne	.L126
 909 0042 F4E7     		b	.L124
 910              	.L129:
 911              		.align	2
 912              	.L128:
 913 0044 00000000 		.word	rlist
 914              		.cfi_endproc
 915              	.LFE75:
 916              		.size	test_cpu_pulse, .-test_cpu_pulse
 917 0048 AFF30080 		.section	.text.test_wait_tick,"ax",%progbits
 917      AFF30080 
 918              		.align	2
 919              		.p2align 4,,15
 920              		.global	test_wait_tick
 921              		.thumb
 922              		.thumb_func
 923              		.type	test_wait_tick, %function
 924              	test_wait_tick:
 925              	.LFB76:
 926              		.loc 1 245 0 is_stmt 1
 927              		.cfi_startproc
 928              		@ args = 0, pretend = 0, frame = 0
 929              		@ frame_needed = 0, uses_anonymous_args = 0
 930 0000 08B5     		push	{r3, lr}
 931              	.LCFI12:
 932              		.cfi_def_cfa_offset 8
 933              		.cfi_offset 3, -8
 934              		.cfi_offset 14, -4
 935              		.loc 1 247 0
 936 0002 0120     		movs	r0, #1
 937 0004 FFF7FEFF 		bl	chThdSleep
 938              	.LVL83:
 939              		.loc 1 248 0
 940 0008 40F20003 		movw	r3, #:lower16:vtlist
 941 000c C0F20003 		movt	r3, #:upper16:vtlist
 942 0010 D868     		ldr	r0, [r3, #12]
 943              		.loc 1 249 0
 944 0012 08BD     		pop	{r3, pc}
 945              		.cfi_endproc
 946              	.LFE76:
 947              		.size	test_wait_tick, .-test_wait_tick
 948 0014 AFF30080 		.section	.text.test_start_timer,"ax",%progbits
 948      AFF30080 
 948      AFF30080 
 949              		.align	2
 950              		.p2align 4,,15
 951              		.global	test_start_timer
 952              		.thumb
 953              		.thumb_func
 954              		.type	test_start_timer, %function
 955              	test_start_timer:
 956              	.LFB78:
 957              		.loc 1 272 0
 958              		.cfi_startproc
 959              		@ args = 0, pretend = 0, frame = 0
ARM GAS  /tmp/ccsSfBGF.s 			page 18


 960              		@ frame_needed = 0, uses_anonymous_args = 0
 961              	.LVL84:
 962 0000 38B5     		push	{r3, r4, r5, lr}
 963              	.LCFI13:
 964              		.cfi_def_cfa_offset 16
 965              		.cfi_offset 3, -16
 966              		.cfi_offset 4, -12
 967              		.cfi_offset 5, -8
 968              		.cfi_offset 14, -4
 969              		.loc 1 275 0
 970 0002 40F20003 		movw	r3, #:lower16:.LANCHOR0
 971 0006 C0F20003 		movt	r3, #:upper16:.LANCHOR0
 972 000a 0024     		movs	r4, #0
 973 000c 1C70     		strb	r4, [r3, #0]
 974              		.loc 1 272 0
 975 000e 0546     		mov	r5, r0
 976              	.LVL85:
 977              	.LBB71:
 978              		.loc 1 276 0
 979 0010 2023     		movs	r3, #32
 980              	.LVL86:
 981              	@ 276 "../../test/test.c" 1
 982 0012 83F31188 		msr     BASEPRI, r3
 983              	@ 0 "" 2
 984              	.LVL87:
 985              		.thumb
 986              	.LBE71:
 987 0016 FFF7FEFF 		bl	dbg_check_lock
 988              	.LVL88:
 989              		.loc 1 274 0
 990 001a 4FF47A70 		mov	r0, #1000
 991 001e 00FB05F5 		mul	r5, r0, r5
 992              	.LVL89:
 993 0022 44F6D351 		movw	r1, #19923
 994 0026 013D     		subs	r5, r5, #1
 995 0028 C1F26201 		movt	r1, 4194
 996 002c A1FB0523 		umull	r2, r3, r1, r5
 997 0030 9A09     		lsrs	r2, r3, #6
 998              		.loc 1 276 0
 999 0032 511C     		adds	r1, r2, #1
 1000 0034 40F20000 		movw	r0, #:lower16:.LANCHOR8
 1001 0038 40F20002 		movw	r2, #:lower16:tmr
 1002 003c 2346     		mov	r3, r4
 1003 003e C0F20000 		movt	r0, #:upper16:.LANCHOR8
 1004 0042 C0F20002 		movt	r2, #:upper16:tmr
 1005 0046 FFF7FEFF 		bl	chVTSetI
 1006              	.LVL90:
 1007 004a FFF7FEFF 		bl	dbg_check_unlock
 1008              	.LVL91:
 1009              	.LBB72:
 1010 004e 2346     		mov	r3, r4
 1011              	.LVL92:
 1012              	@ 276 "../../test/test.c" 1
 1013 0050 83F31188 		msr     BASEPRI, r3
 1014              	@ 0 "" 2
 1015              	.LVL93:
 1016              		.thumb
ARM GAS  /tmp/ccsSfBGF.s 			page 19


 1017 0054 38BD     		pop	{r3, r4, r5, pc}
 1018              	.LBE72:
 1019              		.cfi_endproc
 1020              	.LFE78:
 1021              		.size	test_start_timer, .-test_start_timer
 1022 0056 00BFAFF3 		.section	.text.TestThread,"ax",%progbits
 1022      0080AFF3 
 1022      0080
 1023              		.align	2
 1024              		.p2align 4,,15
 1025              		.global	TestThread
 1026              		.thumb
 1027              		.thumb_func
 1028              		.type	TestThread, %function
 1029              	TestThread:
 1030              	.LFB81:
 1031              		.loc 1 314 0
 1032              		.cfi_startproc
 1033              		@ args = 0, pretend = 0, frame = 8
 1034              		@ frame_needed = 0, uses_anonymous_args = 0
 1035              	.LVL94:
 1036 0000 2DE9F04F 		push	{r4, r5, r6, r7, r8, r9, sl, fp, lr}
 1037              	.LCFI14:
 1038              		.cfi_def_cfa_offset 36
 1039              		.cfi_offset 4, -36
 1040              		.cfi_offset 5, -32
 1041              		.cfi_offset 6, -28
 1042              		.cfi_offset 7, -24
 1043              		.cfi_offset 8, -20
 1044              		.cfi_offset 9, -16
 1045              		.cfi_offset 10, -12
 1046              		.cfi_offset 11, -8
 1047              		.cfi_offset 14, -4
 1048              		.loc 1 317 0
 1049 0004 9C4C     		ldr	r4, .L205
 1050              		.loc 1 314 0
 1051 0006 83B0     		sub	sp, sp, #12
 1052              	.LCFI15:
 1053              		.cfi_def_cfa_offset 48
 1054              		.loc 1 317 0
 1055 0008 2060     		str	r0, [r4, #0]
 1056              		.loc 1 318 0
 1057 000a 9C48     		ldr	r0, .L205+4
 1058              	.LVL95:
 1059 000c FFF7FEFF 		bl	test_println
 1060              	.LVL96:
 1061              		.loc 1 319 0
 1062 0010 9B48     		ldr	r0, .L205+8
 1063 0012 FFF7FEFF 		bl	test_println
 1064              	.LVL97:
 1065 0016 9B4D     		ldr	r5, .L205+12
 1066              		.loc 1 320 0
 1067 0018 9B48     		ldr	r0, .L205+16
 1068 001a FFF7FEFF 		bl	test_println
 1069              	.LVL98:
 1070              		.loc 1 112 0
 1071 001e 2A21     		movs	r1, #42
ARM GAS  /tmp/ccsSfBGF.s 			page 20


 1072              	.LVL99:
 1073              	.L133:
 1074              	.LBB109:
 1075              	.LBB110:
 1076              		.loc 1 113 0
 1077 0020 2068     		ldr	r0, [r4, #0]
 1078 0022 0368     		ldr	r3, [r0, #0]
 1079 0024 9A68     		ldr	r2, [r3, #8]
 1080 0026 9047     		blx	r2
 1081              	.LVL100:
 1082              		.loc 1 112 0
 1083 0028 15F8011F 		ldrb	r1, [r5, #1]!	@ zero_extendqisi2
 1084 002c 0029     		cmp	r1, #0
 1085 002e F7D1     		bne	.L133
 1086              	.LBE110:
 1087              	.LBE109:
 1088              		.loc 1 322 0
 1089 0030 9648     		ldr	r0, .L205+20
 1090 0032 974E     		ldr	r6, .L205+24
 1091 0034 FFF7FEFF 		bl	test_println
 1092              	.LVL101:
 1093              		.loc 1 112 0
 1094 0038 2A21     		movs	r1, #42
 1095              	.LVL102:
 1096              	.L135:
 1097              	.LBB111:
 1098              	.LBB112:
 1099              		.loc 1 113 0
 1100 003a 2068     		ldr	r0, [r4, #0]
 1101 003c 0768     		ldr	r7, [r0, #0]
 1102 003e BD68     		ldr	r5, [r7, #8]
 1103 0040 A847     		blx	r5
 1104              	.LVL103:
 1105              		.loc 1 112 0
 1106 0042 16F8011F 		ldrb	r1, [r6, #1]!	@ zero_extendqisi2
 1107 0046 0029     		cmp	r1, #0
 1108 0048 F7D1     		bne	.L135
 1109              	.LBE112:
 1110              	.LBE111:
 1111              		.loc 1 324 0
 1112 004a 9248     		ldr	r0, .L205+28
 1113 004c 924E     		ldr	r6, .L205+32
 1114 004e FFF7FEFF 		bl	test_println
 1115              	.LVL104:
 1116              		.loc 1 112 0
 1117 0052 2A21     		movs	r1, #42
 1118              	.LVL105:
 1119              	.L137:
 1120              	.LBB113:
 1121              	.LBB114:
 1122              		.loc 1 113 0
 1123 0054 2068     		ldr	r0, [r4, #0]
 1124 0056 0368     		ldr	r3, [r0, #0]
 1125 0058 9A68     		ldr	r2, [r3, #8]
 1126 005a 9047     		blx	r2
 1127              	.LVL106:
 1128              		.loc 1 112 0
ARM GAS  /tmp/ccsSfBGF.s 			page 21


 1129 005c 16F8011F 		ldrb	r1, [r6, #1]!	@ zero_extendqisi2
 1130 0060 0029     		cmp	r1, #0
 1131 0062 F7D1     		bne	.L137
 1132              	.LBE114:
 1133              	.LBE113:
 1134              		.loc 1 327 0
 1135 0064 8D48     		ldr	r0, .L205+36
 1136 0066 8E4F     		ldr	r7, .L205+40
 1137 0068 FFF7FEFF 		bl	test_println
 1138              	.LVL107:
 1139              		.loc 1 112 0
 1140 006c 2A21     		movs	r1, #42
 1141              	.LVL108:
 1142              	.L139:
 1143              	.LBB115:
 1144              	.LBB116:
 1145              		.loc 1 113 0
 1146 006e 2068     		ldr	r0, [r4, #0]
 1147 0070 0568     		ldr	r5, [r0, #0]
 1148 0072 AE68     		ldr	r6, [r5, #8]
 1149 0074 B047     		blx	r6
 1150              	.LVL109:
 1151              		.loc 1 112 0
 1152 0076 17F8011F 		ldrb	r1, [r7, #1]!	@ zero_extendqisi2
 1153 007a 0029     		cmp	r1, #0
 1154 007c F7D1     		bne	.L139
 1155              	.LBE116:
 1156              	.LBE115:
 1157              		.loc 1 330 0
 1158 007e 8948     		ldr	r0, .L205+44
 1159 0080 894F     		ldr	r7, .L205+48
 1160 0082 FFF7FEFF 		bl	test_println
 1161              	.LVL110:
 1162              		.loc 1 112 0
 1163 0086 2A21     		movs	r1, #42
 1164              	.LVL111:
 1165              	.L141:
 1166              	.LBB117:
 1167              	.LBB118:
 1168              		.loc 1 113 0
 1169 0088 2068     		ldr	r0, [r4, #0]
 1170 008a 0368     		ldr	r3, [r0, #0]
 1171 008c 9A68     		ldr	r2, [r3, #8]
 1172 008e 9047     		blx	r2
 1173              	.LVL112:
 1174              		.loc 1 112 0
 1175 0090 17F8011F 		ldrb	r1, [r7, #1]!	@ zero_extendqisi2
 1176 0094 0029     		cmp	r1, #0
 1177 0096 F7D1     		bne	.L141
 1178              	.LBE118:
 1179              	.LBE117:
 1180              		.loc 1 333 0
 1181 0098 8448     		ldr	r0, .L205+52
 1182 009a 854D     		ldr	r5, .L205+56
 1183 009c FFF7FEFF 		bl	test_println
 1184              	.LVL113:
 1185              		.loc 1 112 0
ARM GAS  /tmp/ccsSfBGF.s 			page 22


 1186 00a0 2A21     		movs	r1, #42
 1187              	.LVL114:
 1188              	.L143:
 1189              	.LBB119:
 1190              	.LBB120:
 1191              		.loc 1 113 0
 1192 00a2 2068     		ldr	r0, [r4, #0]
 1193 00a4 0668     		ldr	r6, [r0, #0]
 1194 00a6 B768     		ldr	r7, [r6, #8]
 1195 00a8 B847     		blx	r7
 1196              	.LVL115:
 1197              		.loc 1 112 0
 1198 00aa 15F8011F 		ldrb	r1, [r5, #1]!	@ zero_extendqisi2
 1199 00ae 0029     		cmp	r1, #0
 1200 00b0 F7D1     		bne	.L143
 1201              	.LBE120:
 1202              	.LBE119:
 1203              		.loc 1 337 0
 1204 00b2 8048     		ldr	r0, .L205+60
 1205 00b4 804D     		ldr	r5, .L205+64
 1206 00b6 FFF7FEFF 		bl	test_println
 1207              	.LVL116:
 1208              		.loc 1 112 0
 1209 00ba 2A21     		movs	r1, #42
 1210              	.LVL117:
 1211              	.L145:
 1212              	.LBB121:
 1213              	.LBB122:
 1214              		.loc 1 113 0
 1215 00bc 2068     		ldr	r0, [r4, #0]
 1216 00be 0368     		ldr	r3, [r0, #0]
 1217 00c0 9A68     		ldr	r2, [r3, #8]
 1218 00c2 9047     		blx	r2
 1219              	.LVL118:
 1220              		.loc 1 112 0
 1221 00c4 15F8011F 		ldrb	r1, [r5, #1]!	@ zero_extendqisi2
 1222 00c8 0029     		cmp	r1, #0
 1223 00ca F7D1     		bne	.L145
 1224              	.LBE122:
 1225              	.LBE121:
 1226              		.loc 1 341 0
 1227 00cc 7B48     		ldr	r0, .L205+68
 1228 00ce 7C4E     		ldr	r6, .L205+72
 1229 00d0 FFF7FEFF 		bl	test_println
 1230              	.LVL119:
 1231              		.loc 1 112 0
 1232 00d4 2A21     		movs	r1, #42
 1233              	.LVL120:
 1234              	.L147:
 1235              	.LBB123:
 1236              	.LBB124:
 1237              		.loc 1 113 0
 1238 00d6 2068     		ldr	r0, [r4, #0]
 1239 00d8 0768     		ldr	r7, [r0, #0]
 1240 00da BD68     		ldr	r5, [r7, #8]
 1241 00dc A847     		blx	r5
 1242              	.LVL121:
ARM GAS  /tmp/ccsSfBGF.s 			page 23


 1243              		.loc 1 112 0
 1244 00de 16F8011F 		ldrb	r1, [r6, #1]!	@ zero_extendqisi2
 1245 00e2 0029     		cmp	r1, #0
 1246 00e4 F7D1     		bne	.L147
 1247              	.LBE124:
 1248              	.LBE123:
 1249              		.loc 1 345 0
 1250 00e6 7748     		ldr	r0, .L205+76
 1251 00e8 0091     		str	r1, [sp, #0]
 1252 00ea FFF7FEFF 		bl	test_println
 1253              	.LVL122:
 1254              		.loc 1 347 0
 1255 00ee 6348     		ldr	r0, .L205+4
 1256 00f0 FFF7FEFF 		bl	test_println
 1257              	.LVL123:
 1258              		.loc 1 349 0
 1259 00f4 0099     		ldr	r1, [sp, #0]
 1260 00f6 7448     		ldr	r0, .L205+80
 1261 00f8 40F20003 		movw	r3, #:lower16:.LANCHOR4
 1262 00fc C0F20003 		movt	r3, #:upper16:.LANCHOR4
 1263 0100 724F     		ldr	r7, .L205+84
 1264              	.LBB125:
 1265              	.LBB126:
 1266              	.LBB127:
 1267              	.LBB128:
 1268              		.loc 1 132 0
 1269 0102 734E     		ldr	r6, .L205+88
 1270 0104 DFF8FC91 		ldr	r9, .L205+140
 1271 0108 0190     		str	r0, [sp, #4]
 1272              	.LBE128:
 1273              	.LBE127:
 1274              	.LBE126:
 1275              	.LBE125:
 1276              		.loc 1 349 0
 1277 010a 1970     		strb	r1, [r3, #0]
 1278              	.LVL124:
 1279              		.loc 1 350 0
 1280 010c 8A46     		mov	sl, r1
 1281              	.LVL125:
 1282              	.L172:
 1283 010e 0AF1010A 		add	sl, sl, #1
 1284              		.loc 1 112 0 discriminator 1
 1285 0112 4FF00008 		mov	r8, #0
 1286              	.L201:
 1287              	.LVL126:
 1288              		.loc 1 353 0 discriminator 1
 1289 0116 57F8042B 		ldr	r2, [r7], #4
 1290 011a 002A     		cmp	r2, #0
 1291 011c 00F08480 		beq	.L203
 1292              	.L166:
 1293 0120 6C4D     		ldr	r5, .L205+92
 1294              		.loc 1 354 0
 1295 0122 FFF7FEFF 		bl	print_line
 1296              	.LVL127:
 1297              		.loc 1 112 0
 1298 0126 2D21     		movs	r1, #45
 1299              	.LVL128:
ARM GAS  /tmp/ccsSfBGF.s 			page 24


 1300              	.L149:
 1301              	.LBB133:
 1302              	.LBB134:
 1303              		.loc 1 113 0
 1304 0128 2068     		ldr	r0, [r4, #0]
 1305 012a 0268     		ldr	r2, [r0, #0]
 1306 012c 9368     		ldr	r3, [r2, #8]
 1307 012e 9847     		blx	r3
 1308              	.LVL129:
 1309              		.loc 1 112 0
 1310 0130 15F8011F 		ldrb	r1, [r5, #1]!	@ zero_extendqisi2
 1311 0134 0029     		cmp	r1, #0
 1312 0136 F7D1     		bne	.L149
 1313              	.LBE134:
 1314              	.LBE133:
 1315              		.loc 1 356 0
 1316 0138 5046     		mov	r0, sl
 1317 013a FFF7FEFF 		bl	test_printn
 1318              	.LVL130:
 1319              	.LBB135:
 1320              	.LBB136:
 1321              		.loc 1 113 0
 1322 013e 4E48     		ldr	r0, .L205
 1323 0140 2E21     		movs	r1, #46
 1324 0142 0068     		ldr	r0, [r0, #0]
 1325              	.LVL131:
 1326              	.LBE136:
 1327              	.LBE135:
 1328              		.loc 1 358 0
 1329 0144 08F10108 		add	r8, r8, #1
 1330              	.LVL132:
 1331              	.LBB138:
 1332              	.LBB137:
 1333              		.loc 1 113 0
 1334 0148 0568     		ldr	r5, [r0, #0]
 1335 014a AA68     		ldr	r2, [r5, #8]
 1336 014c 9047     		blx	r2
 1337              	.LVL133:
 1338 014e 624D     		ldr	r5, .L205+96
 1339              	.LBE137:
 1340              	.LBE138:
 1341              		.loc 1 358 0
 1342 0150 4046     		mov	r0, r8
 1343 0152 FFF7FEFF 		bl	test_printn
 1344              	.LVL134:
 1345              		.loc 1 112 0
 1346 0156 2021     		movs	r1, #32
 1347              	.LVL135:
 1348              	.L151:
 1349              	.LBB139:
 1350              	.LBB140:
 1351              		.loc 1 113 0
 1352 0158 2068     		ldr	r0, [r4, #0]
 1353 015a 0368     		ldr	r3, [r0, #0]
 1354 015c 9A68     		ldr	r2, [r3, #8]
 1355 015e 9047     		blx	r2
 1356              	.LVL136:
ARM GAS  /tmp/ccsSfBGF.s 			page 25


 1357              		.loc 1 112 0
 1358 0160 15F8011F 		ldrb	r1, [r5, #1]!	@ zero_extendqisi2
 1359 0164 0029     		cmp	r1, #0
 1360 0166 F7D1     		bne	.L151
 1361              	.LBE140:
 1362              	.LBE139:
 1363              		.loc 1 360 0
 1364 0168 57F8041C 		ldr	r1, [r7, #-4]
 1365 016c 0D68     		ldr	r5, [r1, #0]
 1366              	.LVL137:
 1367              	.LBB141:
 1368              	.LBB142:
 1369              		.loc 1 112 0
 1370 016e 2978     		ldrb	r1, [r5, #0]	@ zero_extendqisi2
 1371 0170 39B1     		cbz	r1, .L156
 1372              	.LVL138:
 1373              	.L155:
 1374              		.loc 1 113 0
 1375 0172 2068     		ldr	r0, [r4, #0]
 1376 0174 0368     		ldr	r3, [r0, #0]
 1377 0176 9A68     		ldr	r2, [r3, #8]
 1378 0178 9047     		blx	r2
 1379              	.LVL139:
 1380              		.loc 1 112 0
 1381 017a 15F8011F 		ldrb	r1, [r5, #1]!	@ zero_extendqisi2
 1382 017e 0029     		cmp	r1, #0
 1383 0180 F7D1     		bne	.L155
 1384              	.L156:
 1385              	.LBE142:
 1386              	.LBE141:
 1387              		.loc 1 361 0
 1388 0182 5648     		ldr	r0, .L205+100
 1389 0184 FFF7FEFF 		bl	test_println
 1390              	.LVL140:
 1391              		.loc 1 363 0
 1392 0188 C820     		movs	r0, #200
 1393 018a FFF7FEFF 		bl	chThdSleep
 1394              	.LVL141:
 1395              	.LBB143:
 1396              	.LBB131:
 1397              		.loc 1 289 0
 1398 018e 5448     		ldr	r0, .L205+104
 1399              	.LBE131:
 1400              	.LBE143:
 1401              		.loc 1 365 0
 1402 0190 57F804BC 		ldr	fp, [r7, #-4]
 1403              	.LVL142:
 1404              	.LBB144:
 1405              	.LBB132:
 1406              		.loc 1 287 0
 1407 0194 0021     		movs	r1, #0
 1408              		.loc 1 289 0
 1409 0196 0160     		str	r1, [r0, #0]
 1410 0198 4160     		str	r1, [r0, #4]
 1411 019a 8160     		str	r1, [r0, #8]
 1412 019c C160     		str	r1, [r0, #12]
 1413 019e 0161     		str	r1, [r0, #16]
ARM GAS  /tmp/ccsSfBGF.s 			page 26


 1414              		.loc 1 287 0
 1415 01a0 504D     		ldr	r5, .L205+108
 1416              		.loc 1 291 0
 1417 01a2 DBF80430 		ldr	r3, [fp, #4]
 1418              	.LBB130:
 1419              	.LBB129:
 1420              		.loc 1 132 0
 1421 01a6 C6F80090 		str	r9, [r6, #0]
 1422              	.LBE129:
 1423              	.LBE130:
 1424              		.loc 1 287 0
 1425 01aa 2970     		strb	r1, [r5, #0]
 1426              	.LVL143:
 1427              		.loc 1 291 0
 1428 01ac 03B1     		cbz	r3, .L154
 1429              		.loc 1 292 0
 1430 01ae 9847     		blx	r3
 1431              	.LVL144:
 1432              	.L154:
 1433              		.loc 1 293 0
 1434 01b0 DBF80C20 		ldr	r2, [fp, #12]
 1435 01b4 9047     		blx	r2
 1436              	.LVL145:
 1437              		.loc 1 294 0
 1438 01b6 DBF80800 		ldr	r0, [fp, #8]
 1439 01ba 00B1     		cbz	r0, .L157
 1440              		.loc 1 295 0
 1441 01bc 8047     		blx	r0
 1442              	.LVL146:
 1443              	.L157:
 1444              		.loc 1 297 0
 1445 01be FFF7FEFF 		bl	test_wait_threads
 1446              	.LVL147:
 1447              	.LBE132:
 1448              	.LBE144:
 1449              		.loc 1 366 0
 1450 01c2 2978     		ldrb	r1, [r5, #0]	@ zero_extendqisi2
 1451 01c4 0029     		cmp	r1, #0
 1452 01c6 00F09F80 		beq	.L158
 1453 01ca 474D     		ldr	r5, .L205+112
 1454              		.loc 1 112 0
 1455 01cc 2D21     		movs	r1, #45
 1456              	.L159:
 1457              	.LBB145:
 1458              	.LBB146:
 1459              		.loc 1 113 0
 1460 01ce 2068     		ldr	r0, [r4, #0]
 1461              	.LVL148:
 1462 01d0 0368     		ldr	r3, [r0, #0]
 1463 01d2 9A68     		ldr	r2, [r3, #8]
 1464 01d4 9047     		blx	r2
 1465              	.LVL149:
 1466              		.loc 1 112 0
 1467 01d6 15F8011F 		ldrb	r1, [r5, #1]!	@ zero_extendqisi2
 1468 01da 0029     		cmp	r1, #0
 1469 01dc F7D1     		bne	.L159
 1470              	.LBE146:
ARM GAS  /tmp/ccsSfBGF.s 			page 27


 1471              	.LBE145:
 1472              		.loc 1 368 0
 1473 01de 4348     		ldr	r0, .L205+116
 1474 01e0 434D     		ldr	r5, .L205+120
 1475 01e2 0068     		ldr	r0, [r0, #0]
 1476 01e4 FFF7FEFF 		bl	test_printn
 1477              	.LVL150:
 1478              		.loc 1 112 0
 1479 01e8 2021     		movs	r1, #32
 1480              	.LVL151:
 1481              	.L161:
 1482              	.LBB147:
 1483              	.LBB148:
 1484              		.loc 1 113 0
 1485 01ea 2068     		ldr	r0, [r4, #0]
 1486 01ec 0368     		ldr	r3, [r0, #0]
 1487 01ee 9A68     		ldr	r2, [r3, #8]
 1488 01f0 9047     		blx	r2
 1489              	.LVL152:
 1490              		.loc 1 112 0
 1491 01f2 15F8011F 		ldrb	r1, [r5, #1]!	@ zero_extendqisi2
 1492 01f6 0029     		cmp	r1, #0
 1493 01f8 F7D1     		bne	.L161
 1494              	.LVL153:
 1495              	.LBE148:
 1496              	.LBE147:
 1497              	.LBB149:
 1498              	.LBB150:
 1499              		.loc 1 138 0
 1500 01fa 3168     		ldr	r1, [r6, #0]
 1501 01fc 4945     		cmp	r1, r9
 1502 01fe 0BD9     		bls	.L165
 1503              	.LBE150:
 1504              	.LBE149:
 1505              		.loc 1 314 0
 1506 0200 3C4D     		ldr	r5, .L205+124
 1507              	.LVL154:
 1508              	.L164:
 1509              	.LBB152:
 1510              	.LBB151:
 1511              		.loc 1 139 0
 1512 0202 2068     		ldr	r0, [r4, #0]
 1513 0204 15F8011C 		ldrb	r1, [r5, #-1]	@ zero_extendqisi2
 1514 0208 0368     		ldr	r3, [r0, #0]
 1515 020a 9A68     		ldr	r2, [r3, #8]
 1516 020c 9047     		blx	r2
 1517              	.LVL155:
 1518              		.loc 1 138 0
 1519 020e 3068     		ldr	r0, [r6, #0]
 1520              		.loc 1 314 0
 1521 0210 2946     		mov	r1, r5
 1522              	.LVL156:
 1523 0212 0135     		adds	r5, r5, #1
 1524              		.loc 1 138 0
 1525 0214 8142     		cmp	r1, r0
 1526 0216 F4D3     		bcc	.L164
 1527              	.LVL157:
ARM GAS  /tmp/ccsSfBGF.s 			page 28


 1528              	.L165:
 1529              	.LBE151:
 1530              	.LBE152:
 1531              		.loc 1 371 0
 1532 0218 3748     		ldr	r0, .L205+128
 1533 021a FFF7FEFF 		bl	test_println
 1534              	.LVL158:
 1535              		.loc 1 353 0
 1536 021e 57F8042B 		ldr	r2, [r7], #4
 1537 0222 002A     		cmp	r2, #0
 1538 0224 7FF47CAF 		bne	.L166
 1539              	.LVL159:
 1540              	.L203:
 1541              		.loc 1 351 0
 1542 0228 019D     		ldr	r5, [sp, #4]
 1543 022a 55F8047F 		ldr	r7, [r5, #4]!
 1544 022e 0195     		str	r5, [sp, #4]
 1545 0230 002F     		cmp	r7, #0
 1546 0232 7FF46CAF 		bne	.L172
 1547              		.loc 1 379 0
 1548 0236 FFF7FEFF 		bl	print_line
 1549              	.LVL160:
 1550 023a 304D     		ldr	r5, .L205+132
 1551              		.loc 1 380 0
 1552 023c 0F48     		ldr	r0, .L205+4
 1553 023e FFF7FEFF 		bl	test_println
 1554              	.LVL161:
 1555              		.loc 1 112 0
 1556 0242 4621     		movs	r1, #70
 1557              	.LVL162:
 1558              	.L169:
 1559              	.LBB153:
 1560              	.LBB154:
 1561              		.loc 1 113 0
 1562 0244 2068     		ldr	r0, [r4, #0]
 1563 0246 0368     		ldr	r3, [r0, #0]
 1564 0248 9A68     		ldr	r2, [r3, #8]
 1565 024a 9047     		blx	r2
 1566              	.LVL163:
 1567              		.loc 1 112 0
 1568 024c 15F8011F 		ldrb	r1, [r5, #1]!	@ zero_extendqisi2
 1569 0250 0029     		cmp	r1, #0
 1570 0252 F7D1     		bne	.L169
 1571              	.LBE154:
 1572              	.LBE153:
 1573              		.loc 1 382 0
 1574 0254 40F20000 		movw	r0, #:lower16:.LANCHOR4
 1575 0258 C0F20000 		movt	r0, #:upper16:.LANCHOR4
 1576 025c 0178     		ldrb	r1, [r0, #0]	@ zero_extendqisi2
 1577 025e 0029     		cmp	r1, #0
 1578 0260 56D1     		bne	.L204
 1579              		.loc 1 385 0
 1580 0262 2748     		ldr	r0, .L205+136
 1581 0264 FFF7FEFF 		bl	test_println
 1582              	.LVL164:
 1583              	.L171:
 1584              		.loc 1 387 0
ARM GAS  /tmp/ccsSfBGF.s 			page 29


 1585 0268 40F20003 		movw	r3, #:lower16:.LANCHOR4
 1586 026c C0F20003 		movt	r3, #:upper16:.LANCHOR4
 1587 0270 1878     		ldrb	r0, [r3, #0]	@ zero_extendqisi2
 1588              		.loc 1 388 0
 1589 0272 03B0     		add	sp, sp, #12
 1590 0274 BDE8F08F 		pop	{r4, r5, r6, r7, r8, r9, sl, fp, pc}
 1591              	.L206:
 1592              		.align	2
 1593              	.L205:
 1594 0278 00000000 		.word	.LANCHOR1
 1595 027c 04000000 		.word	.LC1
 1596 0280 08000000 		.word	.LC2
 1597 0284 28000000 		.word	.LC4
 1598 0288 24000000 		.word	.LC3
 1599 028c 90000000 		.word	.LC12
 1600 0290 A0000000 		.word	.LC13
 1601 0294 B4000000 		.word	.LC14
 1602 0298 CC000000 		.word	.LC15
 1603 029c E0000000 		.word	.LC16
 1604 02a0 28010000 		.word	.LC17
 1605 02a4 3C010000 		.word	.LC18
 1606 02a8 44010000 		.word	.LC19
 1607 02ac 58010000 		.word	.LC20
 1608 02b0 64010000 		.word	.LC21
 1609 02b4 78010000 		.word	.LC22
 1610 02b8 90010000 		.word	.LC23
 1611 02bc A4010000 		.word	.LC24
 1612 02c0 C0010000 		.word	.LC25
 1613 02c4 D4010000 		.word	.LC26
 1614 02c8 00000000 		.word	.LANCHOR9
 1615 02cc 00000000 		.word	patternthd
 1616 02d0 00000000 		.word	.LANCHOR2
 1617 02d4 3C000000 		.word	.LC5
 1618 02d8 EC010000 		.word	.LC27
 1619 02dc 4C000000 		.word	.LC6
 1620 02e0 00000000 		.word	.LANCHOR7
 1621 02e4 00000000 		.word	.LANCHOR3
 1622 02e8 50000000 		.word	.LC7
 1623 02ec 00000000 		.word	.LANCHOR5
 1624 02f0 F0010000 		.word	.LC28
 1625 02f4 01000000 		.word	.LANCHOR6+1
 1626 02f8 68000000 		.word	.LC8
 1627 02fc F4010000 		.word	.LC29
 1628 0300 88000000 		.word	.LC11
 1629 0304 00000000 		.word	.LANCHOR6
 1630              	.LVL165:
 1631              	.L158:
 1632              		.loc 1 374 0
 1633 0308 0348     		ldr	r0, .L207
 1634 030a FFF7FEFF 		bl	test_println
 1635              	.LVL166:
 1636 030e 02E7     		b	.L201
 1637              	.LVL167:
 1638              	.L204:
 1639              		.loc 1 383 0
 1640 0310 0248     		ldr	r0, .L207+4
 1641 0312 FFF7FEFF 		bl	test_println
ARM GAS  /tmp/ccsSfBGF.s 			page 30


 1642              	.LVL168:
 1643 0316 A7E7     		b	.L171
 1644              	.L208:
 1645              		.align	2
 1646              	.L207:
 1647 0318 6C000000 		.word	.LC9
 1648 031c 80000000 		.word	.LC10
 1649              		.cfi_endproc
 1650              	.LFE81:
 1651              		.size	TestThread, .-TestThread
 1652              		.global	test_timer_done
 1653              		.global	wa
 1654              		.global	threads
 1655              		.global	test
 1656              		.section	.bss.test,"aw",%nobits
 1657              		.align	3
 1658              		.type	test, %object
 1659              		.size	test, 1520
 1660              	test:
 1661 0000 00000000 		.space	1520
 1661      00000000 
 1661      00000000 
 1661      00000000 
 1661      00000000 
 1662              		.section	.bss.failpoint,"aw",%nobits
 1663              		.align	2
 1664              		.set	.LANCHOR5,. + 0
 1665              		.type	failpoint, %object
 1666              		.size	failpoint, 4
 1667              	failpoint:
 1668 0000 00000000 		.space	4
 1669              		.section	.bss.local_fail,"aw",%nobits
 1670              		.set	.LANCHOR3,. + 0
 1671              		.type	local_fail, %object
 1672              		.size	local_fail, 1
 1673              	local_fail:
 1674 0000 00       		.space	1
 1675              		.section	.bss.test_timer_done,"aw",%nobits
 1676              		.set	.LANCHOR0,. + 0
 1677              		.type	test_timer_done, %object
 1678              		.size	test_timer_done, 1
 1679              	test_timer_done:
 1680 0000 00       		.space	1
 1681              		.section	.rodata.wa,"a",%progbits
 1682              		.align	2
 1683              		.type	wa, %object
 1684              		.size	wa, 20
 1685              	wa:
 1686 0000 00000000 		.word	test
 1687 0004 30010000 		.word	test+304
 1688 0008 60020000 		.word	test+608
 1689 000c 90030000 		.word	test+912
 1690 0010 C0040000 		.word	test+1216
 1691              		.section	.bss.tokp,"aw",%nobits
 1692              		.align	2
 1693              		.set	.LANCHOR2,. + 0
 1694              		.type	tokp, %object
ARM GAS  /tmp/ccsSfBGF.s 			page 31


 1695              		.size	tokp, 4
 1696              	tokp:
 1697 0000 00000000 		.space	4
 1698              		.section	.bss.global_fail,"aw",%nobits
 1699              		.set	.LANCHOR4,. + 0
 1700              		.type	global_fail, %object
 1701              		.size	global_fail, 1
 1702              	global_fail:
 1703 0000 00       		.space	1
 1704              		.section	.rodata.str1.4,"aMS",%progbits,1
 1705              		.align	2
 1706              	.LC0:
 1707 0000 0D0A00   		.ascii	"\015\012\000"
 1708 0003 00       		.space	1
 1709              	.LC1:
 1710 0004 00       		.ascii	"\000"
 1711 0005 000000   		.space	3
 1712              	.LC2:
 1713 0008 2A2A2A20 		.ascii	"*** ChibiOS/RT test suite\000"
 1713      43686962 
 1713      694F532F 
 1713      52542074 
 1713      65737420 
 1714 0022 0000     		.space	2
 1715              	.LC3:
 1716 0024 2A2A2A00 		.ascii	"***\000"
 1717              	.LC4:
 1718 0028 2A2A2A20 		.ascii	"*** Kernel:       \000"
 1718      4B65726E 
 1718      656C3A20 
 1718      20202020 
 1718      202000
 1719 003b 00       		.space	1
 1720              	.LC5:
 1721 003c 2D2D2D20 		.ascii	"--- Test Case \000"
 1721      54657374 
 1721      20436173 
 1721      652000
 1722 004b 00       		.space	1
 1723              	.LC6:
 1724 004c 2900     		.ascii	")\000"
 1725 004e 0000     		.space	2
 1726              	.LC7:
 1727 0050 2D2D2D20 		.ascii	"--- Result: FAILURE (#\000"
 1727      52657375 
 1727      6C743A20 
 1727      4641494C 
 1727      55524520 
 1728 0067 00       		.space	1
 1729              	.LC8:
 1730 0068 5D2900   		.ascii	"])\000"
 1731 006b 00       		.space	1
 1732              	.LC9:
 1733 006c 2D2D2D20 		.ascii	"--- Result: SUCCESS\000"
 1733      52657375 
 1733      6C743A20 
 1733      53554343 
ARM GAS  /tmp/ccsSfBGF.s 			page 32


 1733      45535300 
 1734              	.LC10:
 1735 0080 4641494C 		.ascii	"FAILURE\000"
 1735      55524500 
 1736              	.LC11:
 1737 0088 53554343 		.ascii	"SUCCESS\000"
 1737      45535300 
 1738              	.LC12:
 1739 0090 322E372E 		.ascii	"2.7.0unstable\000"
 1739      30756E73 
 1739      7461626C 
 1739      6500
 1740 009e 0000     		.space	2
 1741              	.LC13:
 1742 00a0 2A2A2A20 		.ascii	"*** Compiled:     \000"
 1742      436F6D70 
 1742      696C6564 
 1742      3A202020 
 1742      202000
 1743 00b3 00       		.space	1
 1744              	.LC14:
 1745 00b4 4F637420 		.ascii	"Oct 16 2013 - 17:05:33\000"
 1745      31362032 
 1745      30313320 
 1745      2D203137 
 1745      3A30353A 
 1746 00cb 00       		.space	1
 1747              	.LC15:
 1748 00cc 2A2A2A20 		.ascii	"*** Compiler:     \000"
 1748      436F6D70 
 1748      696C6572 
 1748      3A202020 
 1748      202000
 1749 00df 00       		.space	1
 1750              	.LC16:
 1751 00e0 47434320 		.ascii	"GCC 4.7.4 20130613 (release) [ARM/embedded-4_7-bran"
 1751      342E372E 
 1751      34203230 
 1751      31333036 
 1751      31332028 
 1752 0113 63682072 		.ascii	"ch revision 200083]\000"
 1752      65766973 
 1752      696F6E20 
 1752      32303030 
 1752      38335D00 
 1753 0127 00       		.space	1
 1754              	.LC17:
 1755 0128 2A2A2A20 		.ascii	"*** Architecture: \000"
 1755      41726368 
 1755      69746563 
 1755      74757265 
 1755      3A2000
 1756 013b 00       		.space	1
 1757              	.LC18:
 1758 013c 41524D76 		.ascii	"ARMv7-M\000"
 1758      372D4D00 
 1759              	.LC19:
ARM GAS  /tmp/ccsSfBGF.s 			page 33


 1760 0144 2A2A2A20 		.ascii	"*** Core Variant: \000"
 1760      436F7265 
 1760      20566172 
 1760      69616E74 
 1760      3A2000
 1761 0157 00       		.space	1
 1762              	.LC20:
 1763 0158 436F7274 		.ascii	"Cortex-M3\000"
 1763      65782D4D 
 1763      3300
 1764 0162 0000     		.space	2
 1765              	.LC21:
 1766 0164 2A2A2A20 		.ascii	"*** Port Info:    \000"
 1766      506F7274 
 1766      20496E66 
 1766      6F3A2020 
 1766      202000
 1767 0177 00       		.space	1
 1768              	.LC22:
 1769 0178 41647661 		.ascii	"Advanced kernel mode\000"
 1769      6E636564 
 1769      206B6572 
 1769      6E656C20 
 1769      6D6F6465 
 1770 018d 000000   		.space	3
 1771              	.LC23:
 1772 0190 2A2A2A20 		.ascii	"*** Platform:     \000"
 1772      506C6174 
 1772      666F726D 
 1772      3A202020 
 1772      202000
 1773 01a3 00       		.space	1
 1774              	.LC24:
 1775 01a4 53544D33 		.ascii	"STM32F10x Connectivity Line\000"
 1775      32463130 
 1775      7820436F 
 1775      6E6E6563 
 1775      74697669 
 1776              	.LC25:
 1777 01c0 2A2A2A20 		.ascii	"*** Test Board:   \000"
 1777      54657374 
 1777      20426F61 
 1777      72643A20 
 1777      202000
 1778 01d3 00       		.space	1
 1779              	.LC26:
 1780 01d4 4D4C4142 		.ascii	"MLAB STM32F10xRxT01A\000"
 1780      2053544D 
 1780      33324631 
 1780      30785278 
 1780      54303141 
 1781 01e9 000000   		.space	3
 1782              	.LC27:
 1783 01ec 202800   		.ascii	" (\000"
 1784 01ef 00       		.space	1
 1785              	.LC28:
 1786 01f0 205B00   		.ascii	" [\000"
ARM GAS  /tmp/ccsSfBGF.s 			page 34


 1787 01f3 00       		.space	1
 1788              	.LC29:
 1789 01f4 46696E61 		.ascii	"Final result: \000"
 1789      6C207265 
 1789      73756C74 
 1789      3A2000
 1790 0203 00       		.section	.bss.vt,"aw",%nobits
 1791              		.align	2
 1792              		.set	.LANCHOR8,. + 0
 1793              		.type	vt, %object
 1794              		.size	vt, 20
 1795              	vt:
 1796 0000 00000000 		.space	20
 1796      00000000 
 1796      00000000 
 1796      00000000 
 1796      00000000 
 1797              		.section	.bss.threads,"aw",%nobits
 1798              		.align	2
 1799              		.set	.LANCHOR7,. + 0
 1800              		.type	threads, %object
 1801              		.size	threads, 20
 1802              	threads:
 1803 0000 00000000 		.space	20
 1803      00000000 
 1803      00000000 
 1803      00000000 
 1803      00000000 
 1804              		.section	.rodata.patterns,"a",%progbits
 1805              		.align	2
 1806              		.set	.LANCHOR9,. + 0
 1807              		.type	patterns, %object
 1808              		.size	patterns, 48
 1809              	patterns:
 1810 0000 00000000 		.word	patternthd
 1811 0004 00000000 		.word	patternsem
 1812 0008 00000000 		.word	patternmtx
 1813 000c 00000000 		.word	patternmsg
 1814 0010 00000000 		.word	patternmbox
 1815 0014 00000000 		.word	patternevt
 1816 0018 00000000 		.word	patternheap
 1817 001c 00000000 		.word	patternpools
 1818 0020 00000000 		.word	patterndyn
 1819 0024 00000000 		.word	patternqueues
 1820 0028 00000000 		.word	patternbmk
 1821 002c 00000000 		.word	0
 1822              		.section	.bss.chp,"aw",%nobits
 1823              		.align	2
 1824              		.set	.LANCHOR1,. + 0
 1825              		.type	chp, %object
 1826              		.size	chp, 4
 1827              	chp:
 1828 0000 00000000 		.space	4
 1829              		.section	.bss.tokens_buffer,"aw",%nobits
 1830              		.align	2
 1831              		.set	.LANCHOR6,. + 0
 1832              		.type	tokens_buffer, %object
ARM GAS  /tmp/ccsSfBGF.s 			page 35


 1833              		.size	tokens_buffer, 16
 1834              	tokens_buffer:
 1835 0000 00000000 		.space	16
 1835      00000000 
 1835      00000000 
 1835      00000000 
 1836              		.text
 1837              	.Letext0:
 1838              		.file 2 "/usr/bin/../lib/gcc/arm-none-eabi/4.7.4/include/stddef.h"
 1839              		.file 3 "/usr/bin/../lib/gcc/arm-none-eabi/4.7.4/../../../../arm-none-eabi/include/stdint.h"
 1840              		.file 4 "../../os/ports/GCC/ARMCMx/chtypes.h"
 1841              		.file 5 "../../os/kernel/include/chlists.h"
 1842              		.file 6 "../../os/kernel/include/chthreads.h"
 1843              		.file 7 "../../os/ports/GCC/ARMCMx/chcore_v7m.h"
 1844              		.file 8 "../../os/kernel/include/chvt.h"
 1845              		.file 9 "../../os/kernel/include/chschd.h"
 1846              		.file 10 "../../os/kernel/include/chmtx.h"
 1847              		.file 11 "../../os/kernel/include/chstreams.h"
 1848              		.file 12 "../../test/test.h"
 1849              		.file 13 "../../os/ports/common/ARMCMx/CMSIS/include/core_cm3.h"
 1850              		.file 14 "../../test/testthd.h"
 1851              		.file 15 "../../test/testsem.h"
 1852              		.file 16 "../../test/testmtx.h"
 1853              		.file 17 "../../test/testmsg.h"
 1854              		.file 18 "../../test/testmbox.h"
 1855              		.file 19 "../../test/testevt.h"
 1856              		.file 20 "../../test/testheap.h"
 1857              		.file 21 "../../test/testpools.h"
 1858              		.file 22 "../../test/testdyn.h"
 1859              		.file 23 "../../test/testqueues.h"
 1860              		.file 24 "../../test/testbmk.h"
 1861              		.file 25 "../../os/kernel/include/chdebug.h"