ARM GAS  /tmp/ccRVAWhX.s 			page 1


   1              		.syntax unified
   2              		.cpu cortex-m3
   3              		.fpu softvfp
   4              		.eabi_attribute 20, 1
   5              		.eabi_attribute 21, 1
   6              		.eabi_attribute 23, 3
   7              		.eabi_attribute 24, 1
   8              		.eabi_attribute 25, 1
   9              		.eabi_attribute 26, 1
  10              		.eabi_attribute 30, 2
  11              		.eabi_attribute 34, 1
  12              		.eabi_attribute 18, 4
  13              		.thumb
  14              		.file	"i2c.c"
  15              		.text
  16              	.Ltext0:
  17              		.cfi_sections	.debug_frame
  18              		.section	.text.i2cInit,"ax",%progbits
  19              		.align	2
  20              		.p2align 4,,15
  21              		.global	i2cInit
  22              		.thumb
  23              		.thumb_func
  24              		.type	i2cInit, %function
  25              	i2cInit:
  26              	.LFB63:
  27              		.file 1 "../../os/hal/src/i2c.c"
  28              		.loc 1 64 0
  29              		.cfi_startproc
  30              		@ args = 0, pretend = 0, frame = 0
  31              		@ frame_needed = 0, uses_anonymous_args = 0
  32              		@ link register save eliminated.
  33              		.loc 1 66 0
  34              		.loc 1 65 0
  35 0000 FFF7FEBF 		b	i2c_lld_init
  36              	.LVL0:
  37              		.cfi_endproc
  38              	.LFE63:
  39              		.size	i2cInit, .-i2cInit
  40 0004 AFF30080 		.section	.text.i2cObjectInit,"ax",%progbits
  40      AFF30080 
  40      AFF30080 
  41              		.align	2
  42              		.p2align 4,,15
  43              		.global	i2cObjectInit
  44              		.thumb
  45              		.thumb_func
  46              		.type	i2cObjectInit, %function
  47              	i2cObjectInit:
  48              	.LFB64:
  49              		.loc 1 75 0
  50              		.cfi_startproc
  51              		@ args = 0, pretend = 0, frame = 0
  52              		@ frame_needed = 0, uses_anonymous_args = 0
  53              		@ link register save eliminated.
  54              	.LVL1:
  55              		.loc 1 77 0
ARM GAS  /tmp/ccRVAWhX.s 			page 2


  56 0000 0123     		movs	r3, #1
  57              		.loc 1 78 0
  58 0002 0021     		movs	r1, #0
  59              		.loc 1 77 0
  60 0004 0370     		strb	r3, [r0, #0]
  61              		.loc 1 78 0
  62 0006 4160     		str	r1, [r0, #4]
  63              		.loc 1 82 0
  64 0008 0C30     		adds	r0, r0, #12
  65              	.LVL2:
  66              		.loc 1 91 0
  67              		.loc 1 82 0
  68 000a FFF7FEBF 		b	chMtxInit
  69              	.LVL3:
  70              		.cfi_endproc
  71              	.LFE64:
  72              		.size	i2cObjectInit, .-i2cObjectInit
  73 000e 00BF     		.section	.text.i2cStart,"ax",%progbits
  74              		.align	2
  75              		.p2align 4,,15
  76              		.global	i2cStart
  77              		.thumb
  78              		.thumb_func
  79              		.type	i2cStart, %function
  80              	i2cStart:
  81              	.LFB65:
  82              		.loc 1 101 0
  83              		.cfi_startproc
  84              		@ args = 0, pretend = 0, frame = 0
  85              		@ frame_needed = 0, uses_anonymous_args = 0
  86              	.LVL4:
  87 0000 38B5     		push	{r3, r4, r5, lr}
  88              	.LCFI0:
  89              		.cfi_def_cfa_offset 16
  90              		.cfi_offset 3, -16
  91              		.cfi_offset 4, -12
  92              		.cfi_offset 5, -8
  93              		.cfi_offset 14, -4
  94              		.loc 1 103 0
  95 0002 0446     		mov	r4, r0
  96              		.loc 1 101 0
  97 0004 0D46     		mov	r5, r1
  98              		.loc 1 103 0
  99 0006 D0B1     		cbz	r0, .L4
 100              		.loc 1 103 0 is_stmt 0 discriminator 2
 101 0008 C9B1     		cbz	r1, .L4
 102              	.LVL5:
 103              	.L5:
 104              		.loc 1 104 0 is_stmt 1
 105 000a 2378     		ldrb	r3, [r4, #0]	@ zero_extendqisi2
 106 000c 5A1E     		subs	r2, r3, #1
 107 000e 012A     		cmp	r2, #1
 108 0010 04D9     		bls	.L6
 109              		.loc 1 104 0 is_stmt 0 discriminator 1
 110 0012 052B     		cmp	r3, #5
 111 0014 02D0     		beq	.L6
 112              		.loc 1 104 0 discriminator 2
ARM GAS  /tmp/ccRVAWhX.s 			page 3


 113 0016 0C48     		ldr	r0, .L14
 114 0018 FFF7FEFF 		bl	chDbgPanic
 115              	.LVL6:
 116              	.L6:
 117              	.LBB2:
 118              		.loc 1 109 0 is_stmt 1
 119 001c 2023     		movs	r3, #32
 120              	.LVL7:
 121              	@ 109 "../../os/hal/src/i2c.c" 1
 122 001e 83F31188 		msr     BASEPRI, r3
 123              	@ 0 "" 2
 124              	.LVL8:
 125              		.thumb
 126              	.LBE2:
 127 0022 FFF7FEFF 		bl	dbg_check_lock
 128              	.LVL9:
 129              		.loc 1 111 0
 130 0026 2046     		mov	r0, r4
 131              		.loc 1 110 0
 132 0028 6560     		str	r5, [r4, #4]
 133              		.loc 1 111 0
 134 002a FFF7FEFF 		bl	i2c_lld_start
 135              	.LVL10:
 136              		.loc 1 112 0
 137 002e 0220     		movs	r0, #2
 138 0030 2070     		strb	r0, [r4, #0]
 139              		.loc 1 113 0
 140 0032 FFF7FEFF 		bl	dbg_check_unlock
 141              	.LVL11:
 142              	.LBB3:
 143 0036 0023     		movs	r3, #0
 144              	.LVL12:
 145              	@ 113 "../../os/hal/src/i2c.c" 1
 146 0038 83F31188 		msr     BASEPRI, r3
 147              	@ 0 "" 2
 148              	.LVL13:
 149              		.thumb
 150 003c 38BD     		pop	{r3, r4, r5, pc}
 151              	.LVL14:
 152              	.L4:
 153              	.LBE3:
 154              		.loc 1 103 0 discriminator 1
 155 003e 0348     		ldr	r0, .L14+4
 156              	.LVL15:
 157 0040 FFF7FEFF 		bl	chDbgPanic
 158              	.LVL16:
 159 0044 E1E7     		b	.L5
 160              	.L15:
 161 0046 00BF     		.align	2
 162              	.L14:
 163 0048 10000000 		.word	.LC1
 164 004c 00000000 		.word	.LC0
 165              		.cfi_endproc
 166              	.LFE65:
 167              		.size	i2cStart, .-i2cStart
 168              		.section	.text.i2cStop,"ax",%progbits
 169              		.align	2
ARM GAS  /tmp/ccRVAWhX.s 			page 4


 170              		.p2align 4,,15
 171              		.global	i2cStop
 172              		.thumb
 173              		.thumb_func
 174              		.type	i2cStop, %function
 175              	i2cStop:
 176              	.LFB66:
 177              		.loc 1 123 0
 178              		.cfi_startproc
 179              		@ args = 0, pretend = 0, frame = 0
 180              		@ frame_needed = 0, uses_anonymous_args = 0
 181              	.LVL17:
 182 0000 10B5     		push	{r4, lr}
 183              	.LCFI1:
 184              		.cfi_def_cfa_offset 8
 185              		.cfi_offset 4, -8
 186              		.cfi_offset 14, -4
 187              		.loc 1 125 0
 188 0002 0446     		mov	r4, r0
 189 0004 C0B1     		cbz	r0, .L22
 190              	.LVL18:
 191              	.L17:
 192              		.loc 1 126 0
 193 0006 2378     		ldrb	r3, [r4, #0]	@ zero_extendqisi2
 194 0008 5A1E     		subs	r2, r3, #1
 195 000a 012A     		cmp	r2, #1
 196 000c 04D9     		bls	.L18
 197              		.loc 1 126 0 is_stmt 0 discriminator 1
 198 000e 052B     		cmp	r3, #5
 199 0010 02D0     		beq	.L18
 200              		.loc 1 126 0 discriminator 2
 201 0012 0B48     		ldr	r0, .L23
 202 0014 FFF7FEFF 		bl	chDbgPanic
 203              	.LVL19:
 204              	.L18:
 205              	.LBB4:
 206              		.loc 1 131 0 is_stmt 1
 207 0018 2023     		movs	r3, #32
 208              	.LVL20:
 209              	@ 131 "../../os/hal/src/i2c.c" 1
 210 001a 83F31188 		msr     BASEPRI, r3
 211              	@ 0 "" 2
 212              	.LVL21:
 213              		.thumb
 214              	.LBE4:
 215 001e FFF7FEFF 		bl	dbg_check_lock
 216              	.LVL22:
 217              		.loc 1 132 0
 218 0022 2046     		mov	r0, r4
 219 0024 FFF7FEFF 		bl	i2c_lld_stop
 220              	.LVL23:
 221              		.loc 1 133 0
 222 0028 0120     		movs	r0, #1
 223 002a 2070     		strb	r0, [r4, #0]
 224              		.loc 1 134 0
 225 002c FFF7FEFF 		bl	dbg_check_unlock
 226              	.LVL24:
ARM GAS  /tmp/ccRVAWhX.s 			page 5


 227              	.LBB5:
 228 0030 0023     		movs	r3, #0
 229              	.LVL25:
 230              	@ 134 "../../os/hal/src/i2c.c" 1
 231 0032 83F31188 		msr     BASEPRI, r3
 232              	@ 0 "" 2
 233              	.LVL26:
 234              		.thumb
 235 0036 10BD     		pop	{r4, pc}
 236              	.LVL27:
 237              	.L22:
 238              	.LBE5:
 239              		.loc 1 125 0 discriminator 1
 240 0038 0248     		ldr	r0, .L23+4
 241              	.LVL28:
 242 003a FFF7FEFF 		bl	chDbgPanic
 243              	.LVL29:
 244 003e E2E7     		b	.L17
 245              	.L24:
 246              		.align	2
 247              	.L23:
 248 0040 2C000000 		.word	.LC3
 249 0044 20000000 		.word	.LC2
 250              		.cfi_endproc
 251              	.LFE66:
 252              		.size	i2cStop, .-i2cStop
 253 0048 AFF30080 		.section	.text.i2cGetErrors,"ax",%progbits
 253      AFF30080 
 254              		.align	2
 255              		.p2align 4,,15
 256              		.global	i2cGetErrors
 257              		.thumb
 258              		.thumb_func
 259              		.type	i2cGetErrors, %function
 260              	i2cGetErrors:
 261              	.LFB67:
 262              		.loc 1 145 0
 263              		.cfi_startproc
 264              		@ args = 0, pretend = 0, frame = 0
 265              		@ frame_needed = 0, uses_anonymous_args = 0
 266              	.LVL30:
 267 0000 10B5     		push	{r4, lr}
 268              	.LCFI2:
 269              		.cfi_def_cfa_offset 8
 270              		.cfi_offset 4, -8
 271              		.cfi_offset 14, -4
 272              		.loc 1 147 0
 273 0002 0446     		mov	r4, r0
 274 0004 08B1     		cbz	r0, .L27
 275              		.loc 1 150 0
 276 0006 A068     		ldr	r0, [r4, #8]
 277              	.LVL31:
 278 0008 10BD     		pop	{r4, pc}
 279              	.LVL32:
 280              	.L27:
 281              		.loc 1 147 0 discriminator 1
 282 000a 0248     		ldr	r0, .L28
ARM GAS  /tmp/ccRVAWhX.s 			page 6


 283              	.LVL33:
 284 000c FFF7FEFF 		bl	chDbgPanic
 285              	.LVL34:
 286              		.loc 1 150 0 discriminator 1
 287 0010 A068     		ldr	r0, [r4, #8]
 288 0012 10BD     		pop	{r4, pc}
 289              	.L29:
 290              		.align	2
 291              	.L28:
 292 0014 3C000000 		.word	.LC4
 293              		.cfi_endproc
 294              	.LFE67:
 295              		.size	i2cGetErrors, .-i2cGetErrors
 296 0018 AFF30080 		.section	.text.i2cMasterTransmitTimeout,"ax",%progbits
 296      AFF30080 
 297              		.align	2
 298              		.p2align 4,,15
 299              		.global	i2cMasterTransmitTimeout
 300              		.thumb
 301              		.thumb_func
 302              		.type	i2cMasterTransmitTimeout, %function
 303              	i2cMasterTransmitTimeout:
 304              	.LFB68:
 305              		.loc 1 184 0
 306              		.cfi_startproc
 307              		@ args = 12, pretend = 0, frame = 0
 308              		@ frame_needed = 0, uses_anonymous_args = 0
 309              	.LVL35:
 310 0000 2DE9F046 		push	{r4, r5, r6, r7, r9, sl, lr}
 311              	.LCFI3:
 312              		.cfi_def_cfa_offset 28
 313              		.cfi_offset 4, -28
 314              		.cfi_offset 5, -24
 315              		.cfi_offset 6, -20
 316              		.cfi_offset 7, -16
 317              		.cfi_offset 9, -12
 318              		.cfi_offset 10, -8
 319              		.cfi_offset 14, -4
 320 0004 85B0     		sub	sp, sp, #20
 321              	.LCFI4:
 322              		.cfi_def_cfa_offset 48
 323              		.loc 1 187 0
 324 0006 0446     		mov	r4, r0
 325              		.loc 1 184 0
 326 0008 0F46     		mov	r7, r1
 327 000a 9246     		mov	sl, r2
 328 000c 9946     		mov	r9, r3
 329 000e 0D9D     		ldr	r5, [sp, #52]
 330 0010 0E9E     		ldr	r6, [sp, #56]
 331              		.loc 1 187 0
 332 0012 08B1     		cbz	r0, .L31
 333              		.loc 1 187 0 is_stmt 0 discriminator 2
 334 0014 0029     		cmp	r1, #0
 335 0016 28D1     		bne	.L58
 336              	.LVL36:
 337              	.L31:
 338              		.loc 1 187 0 discriminator 1
ARM GAS  /tmp/ccRVAWhX.s 			page 7


 339 0018 1B48     		ldr	r0, .L60
 340              	.LVL37:
 341 001a FFF7FEFF 		bl	chDbgPanic
 342              	.LVL38:
 343              	.L33:
 344              		.loc 1 193 0 is_stmt 1
 345 001e 2078     		ldrb	r0, [r4, #0]	@ zero_extendqisi2
 346 0020 0228     		cmp	r0, #2
 347 0022 02D0     		beq	.L34
 348              		.loc 1 193 0 is_stmt 0 discriminator 1
 349 0024 1948     		ldr	r0, .L60+4
 350 0026 FFF7FEFF 		bl	chDbgPanic
 351              	.LVL39:
 352              	.L34:
 353              	.LBB6:
 354              		.loc 1 196 0 is_stmt 1
 355 002a 2023     		movs	r3, #32
 356              	.LVL40:
 357              	@ 196 "../../os/hal/src/i2c.c" 1
 358 002c 83F31188 		msr     BASEPRI, r3
 359              	@ 0 "" 2
 360              	.LVL41:
 361              		.thumb
 362              	.LBE6:
 363 0030 FFF7FEFF 		bl	dbg_check_lock
 364              	.LVL42:
 365              		.loc 1 199 0
 366 0034 0C9B     		ldr	r3, [sp, #48]
 367              		.loc 1 197 0
 368 0036 0021     		movs	r1, #0
 369              		.loc 1 198 0
 370 0038 0322     		movs	r2, #3
 371              		.loc 1 197 0
 372 003a A160     		str	r1, [r4, #8]
 373              		.loc 1 198 0
 374 003c 2270     		strb	r2, [r4, #0]
 375              		.loc 1 199 0
 376 003e 2046     		mov	r0, r4
 377 0040 8DE86800 		stmia	sp, {r3, r5, r6}
 378 0044 3946     		mov	r1, r7
 379 0046 4B46     		mov	r3, r9
 380 0048 5246     		mov	r2, sl
 381 004a FFF7FEFF 		bl	i2c_lld_master_transmit_timeout
 382              	.LVL43:
 383              		.loc 1 201 0
 384 004e 431C     		adds	r3, r0, #1
 385              		.loc 1 199 0
 386 0050 0546     		mov	r5, r0
 387              	.LVL44:
 388              		.loc 1 201 0
 389 0052 15D0     		beq	.L59
 390              		.loc 1 204 0
 391 0054 0223     		movs	r3, #2
 392 0056 2370     		strb	r3, [r4, #0]
 393              	.LVL45:
 394              	.L36:
 395              		.loc 1 205 0
ARM GAS  /tmp/ccRVAWhX.s 			page 8


 396 0058 FFF7FEFF 		bl	dbg_check_unlock
 397              	.LVL46:
 398              	.LBB7:
 399 005c 0023     		movs	r3, #0
 400              	.LVL47:
 401              	@ 205 "../../os/hal/src/i2c.c" 1
 402 005e 83F31188 		msr     BASEPRI, r3
 403              	@ 0 "" 2
 404              	.LVL48:
 405              		.thumb
 406              	.LBE7:
 407              		.loc 1 207 0
 408 0062 2846     		mov	r0, r5
 409 0064 05B0     		add	sp, sp, #20
 410 0066 BDE8F086 		pop	{r4, r5, r6, r7, r9, sl, pc}
 411              	.LVL49:
 412              	.L58:
 413              		.loc 1 187 0 discriminator 3
 414 006a 002B     		cmp	r3, #0
 415 006c D4D0     		beq	.L31
 416              		.loc 1 187 0 is_stmt 0 discriminator 4
 417 006e 002A     		cmp	r2, #0
 418 0070 D2D0     		beq	.L31
 419              		.loc 1 187 0 discriminator 5
 420 0072 15B1     		cbz	r5, .L32
 421              		.loc 1 187 0 discriminator 6
 422 0074 0C9B     		ldr	r3, [sp, #48]
 423              	.LVL50:
 424 0076 002B     		cmp	r3, #0
 425 0078 CED0     		beq	.L31
 426              	.L32:
 427              		.loc 1 187 0 discriminator 7
 428 007a 002E     		cmp	r6, #0
 429 007c CFD1     		bne	.L33
 430 007e CBE7     		b	.L31
 431              	.LVL51:
 432              	.L59:
 433              		.loc 1 202 0 is_stmt 1
 434 0080 0520     		movs	r0, #5
 435              	.LVL52:
 436 0082 2070     		strb	r0, [r4, #0]
 437 0084 E8E7     		b	.L36
 438              	.L61:
 439 0086 00BF     		.align	2
 440              	.L60:
 441 0088 50000000 		.word	.LC5
 442 008c 70000000 		.word	.LC6
 443              		.cfi_endproc
 444              	.LFE68:
 445              		.size	i2cMasterTransmitTimeout, .-i2cMasterTransmitTimeout
 446              		.section	.text.i2cMasterReceiveTimeout,"ax",%progbits
 447              		.align	2
 448              		.p2align 4,,15
 449              		.global	i2cMasterReceiveTimeout
 450              		.thumb
 451              		.thumb_func
 452              		.type	i2cMasterReceiveTimeout, %function
ARM GAS  /tmp/ccRVAWhX.s 			page 9


 453              	i2cMasterReceiveTimeout:
 454              	.LFB69:
 455              		.loc 1 233 0
 456              		.cfi_startproc
 457              		@ args = 4, pretend = 0, frame = 0
 458              		@ frame_needed = 0, uses_anonymous_args = 0
 459              	.LVL53:
 460 0000 2DE9F041 		push	{r4, r5, r6, r7, r8, lr}
 461              	.LCFI5:
 462              		.cfi_def_cfa_offset 24
 463              		.cfi_offset 4, -24
 464              		.cfi_offset 5, -20
 465              		.cfi_offset 6, -16
 466              		.cfi_offset 7, -12
 467              		.cfi_offset 8, -8
 468              		.cfi_offset 14, -4
 469 0004 82B0     		sub	sp, sp, #8
 470              	.LCFI6:
 471              		.cfi_def_cfa_offset 32
 472              		.loc 1 237 0
 473 0006 0446     		mov	r4, r0
 474              		.loc 1 233 0
 475 0008 0D46     		mov	r5, r1
 476 000a 9046     		mov	r8, r2
 477 000c 1E46     		mov	r6, r3
 478 000e 089F     		ldr	r7, [sp, #32]
 479              		.loc 1 237 0
 480 0010 08B1     		cbz	r0, .L63
 481              		.loc 1 237 0 is_stmt 0 discriminator 2
 482 0012 0029     		cmp	r1, #0
 483 0014 26D1     		bne	.L83
 484              	.L63:
 485              		.loc 1 237 0 discriminator 1
 486 0016 1848     		ldr	r0, .L85
 487              	.LVL54:
 488 0018 FFF7FEFF 		bl	chDbgPanic
 489              	.LVL55:
 490              	.L64:
 491              		.loc 1 242 0 is_stmt 1
 492 001c 2378     		ldrb	r3, [r4, #0]	@ zero_extendqisi2
 493 001e 022B     		cmp	r3, #2
 494 0020 02D0     		beq	.L65
 495              		.loc 1 242 0 is_stmt 0 discriminator 1
 496 0022 1648     		ldr	r0, .L85+4
 497 0024 FFF7FEFF 		bl	chDbgPanic
 498              	.LVL56:
 499              	.L65:
 500              	.LBB8:
 501              		.loc 1 245 0 is_stmt 1
 502 0028 2023     		movs	r3, #32
 503              	.LVL57:
 504              	@ 245 "../../os/hal/src/i2c.c" 1
 505 002a 83F31188 		msr     BASEPRI, r3
 506              	@ 0 "" 2
 507              	.LVL58:
 508              		.thumb
 509              	.LBE8:
ARM GAS  /tmp/ccRVAWhX.s 			page 10


 510 002e FFF7FEFF 		bl	dbg_check_lock
 511              	.LVL59:
 512              		.loc 1 246 0
 513 0032 0020     		movs	r0, #0
 514              		.loc 1 247 0
 515 0034 0421     		movs	r1, #4
 516              		.loc 1 246 0
 517 0036 A060     		str	r0, [r4, #8]
 518              		.loc 1 247 0
 519 0038 2170     		strb	r1, [r4, #0]
 520              		.loc 1 248 0
 521 003a 4246     		mov	r2, r8
 522 003c 2946     		mov	r1, r5
 523 003e 2046     		mov	r0, r4
 524 0040 0097     		str	r7, [sp, #0]
 525 0042 3346     		mov	r3, r6
 526 0044 FFF7FEFF 		bl	i2c_lld_master_receive_timeout
 527              	.LVL60:
 528              		.loc 1 249 0
 529 0048 421C     		adds	r2, r0, #1
 530              		.loc 1 248 0
 531 004a 0546     		mov	r5, r0
 532              	.LVL61:
 533              		.loc 1 249 0
 534 004c 11D0     		beq	.L84
 535              		.loc 1 252 0
 536 004e 0222     		movs	r2, #2
 537 0050 2270     		strb	r2, [r4, #0]
 538              	.L67:
 539              		.loc 1 253 0
 540 0052 FFF7FEFF 		bl	dbg_check_unlock
 541              	.LVL62:
 542              	.LBB9:
 543 0056 0023     		movs	r3, #0
 544              	.LVL63:
 545              	@ 253 "../../os/hal/src/i2c.c" 1
 546 0058 83F31188 		msr     BASEPRI, r3
 547              	@ 0 "" 2
 548              	.LVL64:
 549              		.thumb
 550              	.LBE9:
 551              		.loc 1 255 0
 552 005c 2846     		mov	r0, r5
 553 005e 02B0     		add	sp, sp, #8
 554 0060 BDE8F081 		pop	{r4, r5, r6, r7, r8, pc}
 555              	.LVL65:
 556              	.L83:
 557              		.loc 1 237 0 discriminator 3
 558 0064 002B     		cmp	r3, #0
 559 0066 D6D0     		beq	.L63
 560              		.loc 1 237 0 is_stmt 0 discriminator 4
 561 0068 002A     		cmp	r2, #0
 562 006a D4D0     		beq	.L63
 563              		.loc 1 237 0 discriminator 5
 564 006c 002F     		cmp	r7, #0
 565 006e D5D1     		bne	.L64
 566 0070 D1E7     		b	.L63
ARM GAS  /tmp/ccRVAWhX.s 			page 11


 567              	.LVL66:
 568              	.L84:
 569              		.loc 1 250 0 is_stmt 1
 570 0072 0523     		movs	r3, #5
 571 0074 2370     		strb	r3, [r4, #0]
 572 0076 ECE7     		b	.L67
 573              	.L86:
 574              		.align	2
 575              	.L85:
 576 0078 90000000 		.word	.LC7
 577 007c AC000000 		.word	.LC8
 578              		.cfi_endproc
 579              	.LFE69:
 580              		.size	i2cMasterReceiveTimeout, .-i2cMasterReceiveTimeout
 581              		.section	.text.i2cAcquireBus,"ax",%progbits
 582              		.align	2
 583              		.p2align 4,,15
 584              		.global	i2cAcquireBus
 585              		.thumb
 586              		.thumb_func
 587              		.type	i2cAcquireBus, %function
 588              	i2cAcquireBus:
 589              	.LFB70:
 590              		.loc 1 269 0
 591              		.cfi_startproc
 592              		@ args = 0, pretend = 0, frame = 0
 593              		@ frame_needed = 0, uses_anonymous_args = 0
 594              	.LVL67:
 595 0000 10B5     		push	{r4, lr}
 596              	.LCFI7:
 597              		.cfi_def_cfa_offset 8
 598              		.cfi_offset 4, -8
 599              		.cfi_offset 14, -4
 600              		.loc 1 271 0
 601 0002 0446     		mov	r4, r0
 602 0004 28B1     		cbz	r0, .L89
 603              	.LVL68:
 604              	.L88:
 605              		.loc 1 274 0
 606 0006 04F10C00 		add	r0, r4, #12
 607              		.loc 1 278 0
 608 000a BDE81040 		pop	{r4, lr}
 609              		.loc 1 274 0
 610 000e FFF7FEBF 		b	chMtxLock
 611              	.LVL69:
 612              	.L89:
 613              		.loc 1 271 0 discriminator 1
 614 0012 0248     		ldr	r0, .L90
 615              	.LVL70:
 616 0014 FFF7FEFF 		bl	chDbgPanic
 617              	.LVL71:
 618 0018 F5E7     		b	.L88
 619              	.L91:
 620 001a 00BF     		.align	2
 621              	.L90:
 622 001c C4000000 		.word	.LC9
 623              		.cfi_endproc
ARM GAS  /tmp/ccRVAWhX.s 			page 12


 624              	.LFE70:
 625              		.size	i2cAcquireBus, .-i2cAcquireBus
 626              		.section	.text.i2cReleaseBus,"ax",%progbits
 627              		.align	2
 628              		.p2align 4,,15
 629              		.global	i2cReleaseBus
 630              		.thumb
 631              		.thumb_func
 632              		.type	i2cReleaseBus, %function
 633              	i2cReleaseBus:
 634              	.LFB71:
 635              		.loc 1 289 0
 636              		.cfi_startproc
 637              		@ args = 0, pretend = 0, frame = 0
 638              		@ frame_needed = 0, uses_anonymous_args = 0
 639              	.LVL72:
 640 0000 08B5     		push	{r3, lr}
 641              	.LCFI8:
 642              		.cfi_def_cfa_offset 8
 643              		.cfi_offset 3, -8
 644              		.cfi_offset 14, -4
 645              		.loc 1 291 0
 646 0002 18B1     		cbz	r0, .L94
 647              	.LVL73:
 648              	.L93:
 649              		.loc 1 298 0
 650 0004 BDE80840 		pop	{r3, lr}
 651              		.loc 1 294 0
 652 0008 FFF7FEBF 		b	chMtxUnlock
 653              	.LVL74:
 654              	.L94:
 655              		.loc 1 291 0 discriminator 1
 656 000c 0148     		ldr	r0, .L95
 657              	.LVL75:
 658 000e FFF7FEFF 		bl	chDbgPanic
 659              	.LVL76:
 660 0012 F7E7     		b	.L93
 661              	.L96:
 662              		.align	2
 663              	.L95:
 664 0014 D8000000 		.word	.LC10
 665              		.cfi_endproc
 666              	.LFE71:
 667              		.size	i2cReleaseBus, .-i2cReleaseBus
 668 0018 AFF30080 		.section	.rodata.str1.4,"aMS",%progbits,1
 668      AFF30080 
 669              		.align	2
 670              	.LC0:
 671 0000 22693263 		.ascii	"\"i2cStart\"()\000"
 671      53746172 
 671      74222829 
 671      00
 672 000d 000000   		.space	3
 673              	.LC1:
 674 0010 69326353 		.ascii	"i2cStart(), #1\000"
 674      74617274 
 674      28292C20 
ARM GAS  /tmp/ccRVAWhX.s 			page 13


 674      233100
 675 001f 00       		.space	1
 676              	.LC2:
 677 0020 22693263 		.ascii	"\"i2cStop\"()\000"
 677      53746F70 
 677      22282900 
 678              	.LC3:
 679 002c 69326353 		.ascii	"i2cStop(), #1\000"
 679      746F7028 
 679      292C2023 
 679      3100
 680 003a 0000     		.space	2
 681              	.LC4:
 682 003c 22693263 		.ascii	"\"i2cGetErrors\"()\000"
 682      47657445 
 682      72726F72 
 682      73222829 
 682      00
 683 004d 000000   		.space	3
 684              	.LC5:
 685 0050 22693263 		.ascii	"\"i2cMasterTransmitTimeout\"()\000"
 685      4D617374 
 685      65725472 
 685      616E736D 
 685      69745469 
 686 006d 000000   		.space	3
 687              	.LC6:
 688 0070 6932634D 		.ascii	"i2cMasterTransmitTimeout(), #1\000"
 688      61737465 
 688      72547261 
 688      6E736D69 
 688      7454696D 
 689 008f 00       		.space	1
 690              	.LC7:
 691 0090 22693263 		.ascii	"\"i2cMasterReceiveTimeout\"()\000"
 691      4D617374 
 691      65725265 
 691      63656976 
 691      6554696D 
 692              	.LC8:
 693 00ac 6932634D 		.ascii	"i2cMasterReceive(), #1\000"
 693      61737465 
 693      72526563 
 693      65697665 
 693      28292C20 
 694 00c3 00       		.space	1
 695              	.LC9:
 696 00c4 22693263 		.ascii	"\"i2cAcquireBus\"()\000"
 696      41637175 
 696      69726542 
 696      75732228 
 696      2900
 697 00d6 0000     		.space	2
 698              	.LC10:
 699 00d8 22693263 		.ascii	"\"i2cReleaseBus\"()\000"
 699      52656C65 
 699      61736542 
ARM GAS  /tmp/ccRVAWhX.s 			page 14


 699      75732228 
 699      2900
 700 00ea 0000     		.text
 701              	.Letext0:
 702              		.file 2 "/usr/bin/../lib/gcc/arm-none-eabi/4.7.4/include/stddef.h"
 703              		.file 3 "/usr/bin/../lib/gcc/arm-none-eabi/4.7.4/../../../../arm-none-eabi/include/stdint.h"
 704              		.file 4 "../../os/ports/GCC/ARMCMx/chtypes.h"
 705              		.file 5 "../../os/kernel/include/chlists.h"
 706              		.file 6 "../../os/kernel/include/chthreads.h"
 707              		.file 7 "../../os/ports/GCC/ARMCMx/chcore_v7m.h"
 708              		.file 8 "../../os/kernel/include/chmtx.h"
 709              		.file 9 "../../os/hal/platforms/STM32F1xx/stm32f10x.h"
 710              		.file 10 "../../os/hal/platforms/STM32F1xx/stm32_dma.h"
 711              		.file 11 "../../os/hal/include/i2c.h"
 712              		.file 12 "../../os/hal/platforms/STM32/I2Cv1/i2c_lld.h"
 713              		.file 13 "../../os/kernel/include/chdebug.h"
 714              		.file 14 "../../os/ports/common/ARMCMx/CMSIS/include/core_cm3.h"
 715              		.section	.debug_info,"",%progbits
 716              	.Ldebug_info0:
 717 0000 F60D0000 		.4byte	0xdf6
 718 0004 0200     		.2byte	0x2
 719 0006 00000000 		.4byte	.Ldebug_abbrev0
 720 000a 04       		.byte	0x4
 721 000b 01       		.uleb128 0x1
 722 000c 6F010000 		.4byte	.LASF141
 723 0010 01       		.byte	0x1
 724 0011 1E010000 		.4byte	.LASF142
 725 0015 26030000 		.4byte	.LASF143
 726 0019 00000000 		.4byte	.Ldebug_ranges0+0
 727 001d 00000000 		.4byte	0
 728 0021 00000000 		.4byte	0
 729 0025 00000000 		.4byte	.Ldebug_line0
 730 0029 02       		.uleb128 0x2
 731 002a 04       		.byte	0x4
 732 002b 05       		.byte	0x5
 733 002c 696E7400 		.ascii	"int\000"
 734 0030 03       		.uleb128 0x3
 735 0031 2F000000 		.4byte	.LASF2
 736 0035 02       		.byte	0x2
 737 0036 D5       		.byte	0xd5
 738 0037 3B000000 		.4byte	0x3b
 739 003b 04       		.uleb128 0x4
 740 003c 04       		.byte	0x4
 741 003d 07       		.byte	0x7
 742 003e 5E020000 		.4byte	.LASF0
 743 0042 04       		.uleb128 0x4
 744 0043 01       		.byte	0x1
 745 0044 06       		.byte	0x6
 746 0045 06010000 		.4byte	.LASF1
 747 0049 03       		.uleb128 0x3
 748 004a F0050000 		.4byte	.LASF3
 749 004e 03       		.byte	0x3
 750 004f 2A       		.byte	0x2a
 751 0050 54000000 		.4byte	0x54
 752 0054 04       		.uleb128 0x4
 753 0055 01       		.byte	0x1
 754 0056 08       		.byte	0x8
ARM GAS  /tmp/ccRVAWhX.s 			page 15


 755 0057 AC040000 		.4byte	.LASF4
 756 005b 04       		.uleb128 0x4
 757 005c 02       		.byte	0x2
 758 005d 05       		.byte	0x5
 759 005e 04030000 		.4byte	.LASF5
 760 0062 03       		.uleb128 0x3
 761 0063 E3020000 		.4byte	.LASF6
 762 0067 03       		.byte	0x3
 763 0068 36       		.byte	0x36
 764 0069 6D000000 		.4byte	0x6d
 765 006d 04       		.uleb128 0x4
 766 006e 02       		.byte	0x2
 767 006f 07       		.byte	0x7
 768 0070 B8020000 		.4byte	.LASF7
 769 0074 03       		.uleb128 0x3
 770 0075 A4040000 		.4byte	.LASF8
 771 0079 03       		.byte	0x3
 772 007a 4F       		.byte	0x4f
 773 007b 7F000000 		.4byte	0x7f
 774 007f 04       		.uleb128 0x4
 775 0080 04       		.byte	0x4
 776 0081 05       		.byte	0x5
 777 0082 C8010000 		.4byte	.LASF9
 778 0086 03       		.uleb128 0x3
 779 0087 56050000 		.4byte	.LASF10
 780 008b 03       		.byte	0x3
 781 008c 50       		.byte	0x50
 782 008d 91000000 		.4byte	0x91
 783 0091 04       		.uleb128 0x4
 784 0092 04       		.byte	0x4
 785 0093 07       		.byte	0x7
 786 0094 6D050000 		.4byte	.LASF11
 787 0098 04       		.uleb128 0x4
 788 0099 08       		.byte	0x8
 789 009a 05       		.byte	0x5
 790 009b E8010000 		.4byte	.LASF12
 791 009f 03       		.uleb128 0x3
 792 00a0 3D000000 		.4byte	.LASF13
 793 00a4 03       		.byte	0x3
 794 00a5 78       		.byte	0x78
 795 00a6 AA000000 		.4byte	0xaa
 796 00aa 04       		.uleb128 0x4
 797 00ab 08       		.byte	0x8
 798 00ac 07       		.byte	0x7
 799 00ad 7A000000 		.4byte	.LASF14
 800 00b1 04       		.uleb128 0x4
 801 00b2 01       		.byte	0x1
 802 00b3 02       		.byte	0x2
 803 00b4 9E040000 		.4byte	.LASF15
 804 00b8 03       		.uleb128 0x3
 805 00b9 DB020000 		.4byte	.LASF16
 806 00bd 04       		.byte	0x4
 807 00be 25       		.byte	0x25
 808 00bf 49000000 		.4byte	0x49
 809 00c3 03       		.uleb128 0x3
 810 00c4 D1010000 		.4byte	.LASF17
 811 00c8 04       		.byte	0x4
ARM GAS  /tmp/ccRVAWhX.s 			page 16


 812 00c9 26       		.byte	0x26
 813 00ca 49000000 		.4byte	0x49
 814 00ce 03       		.uleb128 0x3
 815 00cf 18040000 		.4byte	.LASF18
 816 00d3 04       		.byte	0x4
 817 00d4 27       		.byte	0x27
 818 00d5 49000000 		.4byte	0x49
 819 00d9 03       		.uleb128 0x3
 820 00da 65010000 		.4byte	.LASF19
 821 00de 04       		.byte	0x4
 822 00df 28       		.byte	0x28
 823 00e0 49000000 		.4byte	0x49
 824 00e4 03       		.uleb128 0x3
 825 00e5 77040000 		.4byte	.LASF20
 826 00e9 04       		.byte	0x4
 827 00ea 29       		.byte	0x29
 828 00eb 86000000 		.4byte	0x86
 829 00ef 03       		.uleb128 0x3
 830 00f0 D5020000 		.4byte	.LASF21
 831 00f4 04       		.byte	0x4
 832 00f5 2A       		.byte	0x2a
 833 00f6 74000000 		.4byte	0x74
 834 00fa 03       		.uleb128 0x3
 835 00fb F8020000 		.4byte	.LASF22
 836 00ff 04       		.byte	0x4
 837 0100 2C       		.byte	0x2c
 838 0101 86000000 		.4byte	0x86
 839 0105 03       		.uleb128 0x3
 840 0106 92050000 		.4byte	.LASF23
 841 010a 04       		.byte	0x4
 842 010b 2E       		.byte	0x2e
 843 010c 86000000 		.4byte	0x86
 844 0110 03       		.uleb128 0x3
 845 0111 4C020000 		.4byte	.LASF24
 846 0115 05       		.byte	0x5
 847 0116 23       		.byte	0x23
 848 0117 1B010000 		.4byte	0x11b
 849 011b 05       		.uleb128 0x5
 850 011c 4C020000 		.4byte	.LASF24
 851 0120 4C       		.byte	0x4c
 852 0121 06       		.byte	0x6
 853 0122 57       		.byte	0x57
 854 0123 4E020000 		.4byte	0x24e
 855 0127 06       		.uleb128 0x6
 856 0128 08050000 		.4byte	.LASF25
 857 012c 06       		.byte	0x6
 858 012d 58       		.byte	0x58
 859 012e 73020000 		.4byte	0x273
 860 0132 02       		.byte	0x2
 861 0133 23       		.byte	0x23
 862 0134 00       		.uleb128 0
 863 0135 06       		.uleb128 0x6
 864 0136 52040000 		.4byte	.LASF26
 865 013a 06       		.byte	0x6
 866 013b 5A       		.byte	0x5a
 867 013c 73020000 		.4byte	0x273
 868 0140 02       		.byte	0x2
ARM GAS  /tmp/ccRVAWhX.s 			page 17


 869 0141 23       		.byte	0x23
 870 0142 04       		.uleb128 0x4
 871 0143 06       		.uleb128 0x6
 872 0144 DA000000 		.4byte	.LASF27
 873 0148 06       		.byte	0x6
 874 0149 5C       		.byte	0x5c
 875 014a E4000000 		.4byte	0xe4
 876 014e 02       		.byte	0x2
 877 014f 23       		.byte	0x23
 878 0150 08       		.uleb128 0x8
 879 0151 06       		.uleb128 0x6
 880 0152 64060000 		.4byte	.LASF28
 881 0156 06       		.byte	0x6
 882 0157 5D       		.byte	0x5d
 883 0158 4C030000 		.4byte	0x34c
 884 015c 02       		.byte	0x2
 885 015d 23       		.byte	0x23
 886 015e 0C       		.uleb128 0xc
 887 015f 06       		.uleb128 0x6
 888 0160 07020000 		.4byte	.LASF29
 889 0164 06       		.byte	0x6
 890 0165 5F       		.byte	0x5f
 891 0166 73020000 		.4byte	0x273
 892 016a 02       		.byte	0x2
 893 016b 23       		.byte	0x23
 894 016c 10       		.uleb128 0x10
 895 016d 06       		.uleb128 0x6
 896 016e BE030000 		.4byte	.LASF30
 897 0172 06       		.byte	0x6
 898 0173 60       		.byte	0x60
 899 0174 73020000 		.4byte	0x273
 900 0178 02       		.byte	0x2
 901 0179 23       		.byte	0x23
 902 017a 14       		.uleb128 0x14
 903 017b 06       		.uleb128 0x6
 904 017c 21060000 		.4byte	.LASF31
 905 0180 06       		.byte	0x6
 906 0181 67       		.byte	0x67
 907 0182 FD030000 		.4byte	0x3fd
 908 0186 02       		.byte	0x2
 909 0187 23       		.byte	0x23
 910 0188 18       		.uleb128 0x18
 911 0189 06       		.uleb128 0x6
 912 018a 53020000 		.4byte	.LASF32
 913 018e 06       		.byte	0x6
 914 018f 6D       		.byte	0x6d
 915 0190 0F040000 		.4byte	0x40f
 916 0194 02       		.byte	0x2
 917 0195 23       		.byte	0x23
 918 0196 1C       		.uleb128 0x1c
 919 0197 06       		.uleb128 0x6
 920 0198 E2040000 		.4byte	.LASF33
 921 019c 06       		.byte	0x6
 922 019d 72       		.byte	0x72
 923 019e C3000000 		.4byte	0xc3
 924 01a2 02       		.byte	0x2
 925 01a3 23       		.byte	0x23
ARM GAS  /tmp/ccRVAWhX.s 			page 18


 926 01a4 20       		.uleb128 0x20
 927 01a5 06       		.uleb128 0x6
 928 01a6 0F050000 		.4byte	.LASF34
 929 01aa 06       		.byte	0x6
 930 01ab 76       		.byte	0x76
 931 01ac B8000000 		.4byte	0xb8
 932 01b0 02       		.byte	0x2
 933 01b1 23       		.byte	0x23
 934 01b2 21       		.uleb128 0x21
 935 01b3 06       		.uleb128 0x6
 936 01b4 E1010000 		.4byte	.LASF35
 937 01b8 06       		.byte	0x6
 938 01b9 7B       		.byte	0x7b
 939 01ba CE000000 		.4byte	0xce
 940 01be 02       		.byte	0x2
 941 01bf 23       		.byte	0x23
 942 01c0 22       		.uleb128 0x22
 943 01c1 06       		.uleb128 0x6
 944 01c2 EA040000 		.4byte	.LASF36
 945 01c6 06       		.byte	0x6
 946 01c7 81       		.byte	0x81
 947 01c8 D9000000 		.4byte	0xd9
 948 01cc 02       		.byte	0x2
 949 01cd 23       		.byte	0x23
 950 01ce 23       		.uleb128 0x23
 951 01cf 06       		.uleb128 0x6
 952 01d0 00020000 		.4byte	.LASF37
 953 01d4 06       		.byte	0x6
 954 01d5 88       		.byte	0x88
 955 01d6 7B030000 		.4byte	0x37b
 956 01da 02       		.byte	0x2
 957 01db 23       		.byte	0x23
 958 01dc 24       		.uleb128 0x24
 959 01dd 07       		.uleb128 0x7
 960 01de 705F7500 		.ascii	"p_u\000"
 961 01e2 06       		.byte	0x6
 962 01e3 AD       		.byte	0xad
 963 01e4 C8030000 		.4byte	0x3c8
 964 01e8 02       		.byte	0x2
 965 01e9 23       		.byte	0x23
 966 01ea 28       		.uleb128 0x28
 967 01eb 06       		.uleb128 0x6
 968 01ec 6A060000 		.4byte	.LASF38
 969 01f0 06       		.byte	0x6
 970 01f1 B2       		.byte	0xb2
 971 01f2 9B020000 		.4byte	0x29b
 972 01f6 02       		.byte	0x2
 973 01f7 23       		.byte	0x23
 974 01f8 2C       		.uleb128 0x2c
 975 01f9 06       		.uleb128 0x6
 976 01fa 76020000 		.4byte	.LASF39
 977 01fe 06       		.byte	0x6
 978 01ff B8       		.byte	0xb8
 979 0200 79020000 		.4byte	0x279
 980 0204 02       		.byte	0x2
 981 0205 23       		.byte	0x23
 982 0206 30       		.uleb128 0x30
ARM GAS  /tmp/ccRVAWhX.s 			page 19


 983 0207 06       		.uleb128 0x6
 984 0208 30060000 		.4byte	.LASF40
 985 020c 06       		.byte	0x6
 986 020d BC       		.byte	0xbc
 987 020e EF000000 		.4byte	0xef
 988 0212 02       		.byte	0x2
 989 0213 23       		.byte	0x23
 990 0214 38       		.uleb128 0x38
 991 0215 06       		.uleb128 0x6
 992 0216 3C050000 		.4byte	.LASF41
 993 021a 06       		.byte	0x6
 994 021b C2       		.byte	0xc2
 995 021c FA000000 		.4byte	0xfa
 996 0220 02       		.byte	0x2
 997 0221 23       		.byte	0x23
 998 0222 3C       		.uleb128 0x3c
 999 0223 06       		.uleb128 0x6
 1000 0224 CD040000 		.4byte	.LASF42
 1001 0228 06       		.byte	0x6
 1002 0229 C9       		.byte	0xc9
 1003 022a 15040000 		.4byte	0x415
 1004 022e 02       		.byte	0x2
 1005 022f 23       		.byte	0x23
 1006 0230 40       		.uleb128 0x40
 1007 0231 06       		.uleb128 0x6
 1008 0232 9C050000 		.4byte	.LASF43
 1009 0236 06       		.byte	0x6
 1010 0237 CD       		.byte	0xcd
 1011 0238 E4000000 		.4byte	0xe4
 1012 023c 02       		.byte	0x2
 1013 023d 23       		.byte	0x23
 1014 023e 44       		.uleb128 0x44
 1015 023f 06       		.uleb128 0x6
 1016 0240 35010000 		.4byte	.LASF44
 1017 0244 06       		.byte	0x6
 1018 0245 D3       		.byte	0xd3
 1019 0246 B1020000 		.4byte	0x2b1
 1020 024a 02       		.byte	0x2
 1021 024b 23       		.byte	0x23
 1022 024c 48       		.uleb128 0x48
 1023 024d 00       		.byte	0
 1024 024e 08       		.uleb128 0x8
 1025 024f 08       		.byte	0x8
 1026 0250 05       		.byte	0x5
 1027 0251 5A       		.byte	0x5a
 1028 0252 73020000 		.4byte	0x273
 1029 0256 06       		.uleb128 0x6
 1030 0257 08050000 		.4byte	.LASF25
 1031 025b 05       		.byte	0x5
 1032 025c 5B       		.byte	0x5b
 1033 025d 73020000 		.4byte	0x273
 1034 0261 02       		.byte	0x2
 1035 0262 23       		.byte	0x23
 1036 0263 00       		.uleb128 0
 1037 0264 06       		.uleb128 0x6
 1038 0265 52040000 		.4byte	.LASF26
 1039 0269 05       		.byte	0x5
ARM GAS  /tmp/ccRVAWhX.s 			page 20


 1040 026a 5D       		.byte	0x5d
 1041 026b 73020000 		.4byte	0x273
 1042 026f 02       		.byte	0x2
 1043 0270 23       		.byte	0x23
 1044 0271 04       		.uleb128 0x4
 1045 0272 00       		.byte	0
 1046 0273 09       		.uleb128 0x9
 1047 0274 04       		.byte	0x4
 1048 0275 10010000 		.4byte	0x110
 1049 0279 03       		.uleb128 0x3
 1050 027a D6030000 		.4byte	.LASF45
 1051 027e 05       		.byte	0x5
 1052 027f 5F       		.byte	0x5f
 1053 0280 4E020000 		.4byte	0x24e
 1054 0284 08       		.uleb128 0x8
 1055 0285 04       		.byte	0x4
 1056 0286 05       		.byte	0x5
 1057 0287 64       		.byte	0x64
 1058 0288 9B020000 		.4byte	0x29b
 1059 028c 06       		.uleb128 0x6
 1060 028d 08050000 		.4byte	.LASF25
 1061 0291 05       		.byte	0x5
 1062 0292 66       		.byte	0x66
 1063 0293 73020000 		.4byte	0x273
 1064 0297 02       		.byte	0x2
 1065 0298 23       		.byte	0x23
 1066 0299 00       		.uleb128 0
 1067 029a 00       		.byte	0
 1068 029b 03       		.uleb128 0x3
 1069 029c EC020000 		.4byte	.LASF46
 1070 02a0 05       		.byte	0x5
 1071 02a1 69       		.byte	0x69
 1072 02a2 84020000 		.4byte	0x284
 1073 02a6 03       		.uleb128 0x3
 1074 02a7 31020000 		.4byte	.LASF47
 1075 02ab 07       		.byte	0x7
 1076 02ac DE       		.byte	0xde
 1077 02ad B1020000 		.4byte	0x2b1
 1078 02b1 0A       		.uleb128 0xa
 1079 02b2 04       		.byte	0x4
 1080 02b3 03       		.uleb128 0x3
 1081 02b4 0E030000 		.4byte	.LASF48
 1082 02b8 07       		.byte	0x7
 1083 02b9 E4       		.byte	0xe4
 1084 02ba 9F000000 		.4byte	0x9f
 1085 02be 0B       		.uleb128 0xb
 1086 02bf B9050000 		.4byte	.LASF49
 1087 02c3 24       		.byte	0x24
 1088 02c4 07       		.byte	0x7
 1089 02c5 0501     		.2byte	0x105
 1090 02c7 4C030000 		.4byte	0x34c
 1091 02cb 0C       		.uleb128 0xc
 1092 02cc 723400   		.ascii	"r4\000"
 1093 02cf 07       		.byte	0x7
 1094 02d0 1801     		.2byte	0x118
 1095 02d2 A6020000 		.4byte	0x2a6
 1096 02d6 02       		.byte	0x2
ARM GAS  /tmp/ccRVAWhX.s 			page 21


 1097 02d7 23       		.byte	0x23
 1098 02d8 00       		.uleb128 0
 1099 02d9 0C       		.uleb128 0xc
 1100 02da 723500   		.ascii	"r5\000"
 1101 02dd 07       		.byte	0x7
 1102 02de 1901     		.2byte	0x119
 1103 02e0 A6020000 		.4byte	0x2a6
 1104 02e4 02       		.byte	0x2
 1105 02e5 23       		.byte	0x23
 1106 02e6 04       		.uleb128 0x4
 1107 02e7 0C       		.uleb128 0xc
 1108 02e8 723600   		.ascii	"r6\000"
 1109 02eb 07       		.byte	0x7
 1110 02ec 1A01     		.2byte	0x11a
 1111 02ee A6020000 		.4byte	0x2a6
 1112 02f2 02       		.byte	0x2
 1113 02f3 23       		.byte	0x23
 1114 02f4 08       		.uleb128 0x8
 1115 02f5 0C       		.uleb128 0xc
 1116 02f6 723700   		.ascii	"r7\000"
 1117 02f9 07       		.byte	0x7
 1118 02fa 1B01     		.2byte	0x11b
 1119 02fc A6020000 		.4byte	0x2a6
 1120 0300 02       		.byte	0x2
 1121 0301 23       		.byte	0x23
 1122 0302 0C       		.uleb128 0xc
 1123 0303 0C       		.uleb128 0xc
 1124 0304 723800   		.ascii	"r8\000"
 1125 0307 07       		.byte	0x7
 1126 0308 1C01     		.2byte	0x11c
 1127 030a A6020000 		.4byte	0x2a6
 1128 030e 02       		.byte	0x2
 1129 030f 23       		.byte	0x23
 1130 0310 10       		.uleb128 0x10
 1131 0311 0C       		.uleb128 0xc
 1132 0312 723900   		.ascii	"r9\000"
 1133 0315 07       		.byte	0x7
 1134 0316 1D01     		.2byte	0x11d
 1135 0318 A6020000 		.4byte	0x2a6
 1136 031c 02       		.byte	0x2
 1137 031d 23       		.byte	0x23
 1138 031e 14       		.uleb128 0x14
 1139 031f 0C       		.uleb128 0xc
 1140 0320 72313000 		.ascii	"r10\000"
 1141 0324 07       		.byte	0x7
 1142 0325 1E01     		.2byte	0x11e
 1143 0327 A6020000 		.4byte	0x2a6
 1144 032b 02       		.byte	0x2
 1145 032c 23       		.byte	0x23
 1146 032d 18       		.uleb128 0x18
 1147 032e 0C       		.uleb128 0xc
 1148 032f 72313100 		.ascii	"r11\000"
 1149 0333 07       		.byte	0x7
 1150 0334 1F01     		.2byte	0x11f
 1151 0336 A6020000 		.4byte	0x2a6
 1152 033a 02       		.byte	0x2
 1153 033b 23       		.byte	0x23
ARM GAS  /tmp/ccRVAWhX.s 			page 22


 1154 033c 1C       		.uleb128 0x1c
 1155 033d 0C       		.uleb128 0xc
 1156 033e 6C7200   		.ascii	"lr\000"
 1157 0341 07       		.byte	0x7
 1158 0342 2001     		.2byte	0x120
 1159 0344 A6020000 		.4byte	0x2a6
 1160 0348 02       		.byte	0x2
 1161 0349 23       		.byte	0x23
 1162 034a 20       		.uleb128 0x20
 1163 034b 00       		.byte	0
 1164 034c 0B       		.uleb128 0xb
 1165 034d B1050000 		.4byte	.LASF50
 1166 0351 04       		.byte	0x4
 1167 0352 07       		.byte	0x7
 1168 0353 2A01     		.2byte	0x12a
 1169 0355 69030000 		.4byte	0x369
 1170 0359 0C       		.uleb128 0xc
 1171 035a 72313300 		.ascii	"r13\000"
 1172 035e 07       		.byte	0x7
 1173 035f 2B01     		.2byte	0x12b
 1174 0361 69030000 		.4byte	0x369
 1175 0365 02       		.byte	0x2
 1176 0366 23       		.byte	0x23
 1177 0367 00       		.uleb128 0
 1178 0368 00       		.byte	0
 1179 0369 09       		.uleb128 0x9
 1180 036a 04       		.byte	0x4
 1181 036b BE020000 		.4byte	0x2be
 1182 036f 0D       		.uleb128 0xd
 1183 0370 86000000 		.4byte	0x86
 1184 0374 04       		.uleb128 0x4
 1185 0375 04       		.byte	0x4
 1186 0376 07       		.byte	0x7
 1187 0377 7E030000 		.4byte	.LASF51
 1188 037b 0D       		.uleb128 0xd
 1189 037c 05010000 		.4byte	0x105
 1190 0380 05       		.uleb128 0x5
 1191 0381 87030000 		.4byte	.LASF52
 1192 0385 10       		.byte	0x10
 1193 0386 08       		.byte	0x8
 1194 0387 25       		.byte	0x25
 1195 0388 B7030000 		.4byte	0x3b7
 1196 038c 06       		.uleb128 0x6
 1197 038d 3D010000 		.4byte	.LASF53
 1198 0391 08       		.byte	0x8
 1199 0392 26       		.byte	0x26
 1200 0393 79020000 		.4byte	0x279
 1201 0397 02       		.byte	0x2
 1202 0398 23       		.byte	0x23
 1203 0399 00       		.uleb128 0
 1204 039a 06       		.uleb128 0x6
 1205 039b 5C060000 		.4byte	.LASF54
 1206 039f 08       		.byte	0x8
 1207 03a0 28       		.byte	0x28
 1208 03a1 73020000 		.4byte	0x273
 1209 03a5 02       		.byte	0x2
 1210 03a6 23       		.byte	0x23
ARM GAS  /tmp/ccRVAWhX.s 			page 23


 1211 03a7 08       		.uleb128 0x8
 1212 03a8 06       		.uleb128 0x6
 1213 03a9 8B050000 		.4byte	.LASF55
 1214 03ad 08       		.byte	0x8
 1215 03ae 2A       		.byte	0x2a
 1216 03af B7030000 		.4byte	0x3b7
 1217 03b3 02       		.byte	0x2
 1218 03b4 23       		.byte	0x23
 1219 03b5 0C       		.uleb128 0xc
 1220 03b6 00       		.byte	0
 1221 03b7 09       		.uleb128 0x9
 1222 03b8 04       		.byte	0x4
 1223 03b9 80030000 		.4byte	0x380
 1224 03bd 03       		.uleb128 0x3
 1225 03be 87030000 		.4byte	.LASF52
 1226 03c2 08       		.byte	0x8
 1227 03c3 2C       		.byte	0x2c
 1228 03c4 80030000 		.4byte	0x380
 1229 03c8 0E       		.uleb128 0xe
 1230 03c9 04       		.byte	0x4
 1231 03ca 06       		.byte	0x6
 1232 03cb 8F       		.byte	0x8f
 1233 03cc FD030000 		.4byte	0x3fd
 1234 03d0 0F       		.uleb128 0xf
 1235 03d1 36000000 		.4byte	.LASF56
 1236 03d5 06       		.byte	0x6
 1237 03d6 96       		.byte	0x96
 1238 03d7 EF000000 		.4byte	0xef
 1239 03db 0F       		.uleb128 0xf
 1240 03dc 9F000000 		.4byte	.LASF57
 1241 03e0 06       		.byte	0x6
 1242 03e1 9D       		.byte	0x9d
 1243 03e2 EF000000 		.4byte	0xef
 1244 03e6 0F       		.uleb128 0xf
 1245 03e7 1A060000 		.4byte	.LASF58
 1246 03eb 06       		.byte	0x6
 1247 03ec A4       		.byte	0xa4
 1248 03ed B1020000 		.4byte	0x2b1
 1249 03f1 0F       		.uleb128 0xf
 1250 03f2 01050000 		.4byte	.LASF59
 1251 03f6 06       		.byte	0x6
 1252 03f7 AB       		.byte	0xab
 1253 03f8 FA000000 		.4byte	0xfa
 1254 03fc 00       		.byte	0
 1255 03fd 09       		.uleb128 0x9
 1256 03fe 04       		.byte	0x4
 1257 03ff 03040000 		.4byte	0x403
 1258 0403 10       		.uleb128 0x10
 1259 0404 08040000 		.4byte	0x408
 1260 0408 04       		.uleb128 0x4
 1261 0409 01       		.byte	0x1
 1262 040a 08       		.byte	0x8
 1263 040b 7F050000 		.4byte	.LASF60
 1264 040f 09       		.uleb128 0x9
 1265 0410 04       		.byte	0x4
 1266 0411 B3020000 		.4byte	0x2b3
 1267 0415 09       		.uleb128 0x9
ARM GAS  /tmp/ccRVAWhX.s 			page 24


 1268 0416 04       		.byte	0x4
 1269 0417 BD030000 		.4byte	0x3bd
 1270 041b 09       		.uleb128 0x9
 1271 041c 04       		.byte	0x4
 1272 041d 49000000 		.4byte	0x49
 1273 0421 09       		.uleb128 0x9
 1274 0422 04       		.byte	0x4
 1275 0423 27040000 		.4byte	0x427
 1276 0427 10       		.uleb128 0x10
 1277 0428 49000000 		.4byte	0x49
 1278 042c 0D       		.uleb128 0xd
 1279 042d 62000000 		.4byte	0x62
 1280 0431 0D       		.uleb128 0xd
 1281 0432 74000000 		.4byte	0x74
 1282 0436 11       		.uleb128 0x11
 1283 0437 10       		.byte	0x10
 1284 0438 09       		.byte	0x9
 1285 0439 2D03     		.2byte	0x32d
 1286 043b 7C040000 		.4byte	0x47c
 1287 043f 0C       		.uleb128 0xc
 1288 0440 43435200 		.ascii	"CCR\000"
 1289 0444 09       		.byte	0x9
 1290 0445 2F03     		.2byte	0x32f
 1291 0447 6F030000 		.4byte	0x36f
 1292 044b 02       		.byte	0x2
 1293 044c 23       		.byte	0x23
 1294 044d 00       		.uleb128 0
 1295 044e 12       		.uleb128 0x12
 1296 044f E5050000 		.4byte	.LASF61
 1297 0453 09       		.byte	0x9
 1298 0454 3003     		.2byte	0x330
 1299 0456 6F030000 		.4byte	0x36f
 1300 045a 02       		.byte	0x2
 1301 045b 23       		.byte	0x23
 1302 045c 04       		.uleb128 0x4
 1303 045d 12       		.uleb128 0x12
 1304 045e 71020000 		.4byte	.LASF62
 1305 0462 09       		.byte	0x9
 1306 0463 3103     		.2byte	0x331
 1307 0465 6F030000 		.4byte	0x36f
 1308 0469 02       		.byte	0x2
 1309 046a 23       		.byte	0x23
 1310 046b 08       		.uleb128 0x8
 1311 046c 12       		.uleb128 0x12
 1312 046d EB050000 		.4byte	.LASF63
 1313 0471 09       		.byte	0x9
 1314 0472 3203     		.2byte	0x332
 1315 0474 6F030000 		.4byte	0x36f
 1316 0478 02       		.byte	0x2
 1317 0479 23       		.byte	0x23
 1318 047a 0C       		.uleb128 0xc
 1319 047b 00       		.byte	0
 1320 047c 13       		.uleb128 0x13
 1321 047d 89020000 		.4byte	.LASF64
 1322 0481 09       		.byte	0x9
 1323 0482 3303     		.2byte	0x333
 1324 0484 36040000 		.4byte	0x436
ARM GAS  /tmp/ccRVAWhX.s 			page 25


 1325 0488 11       		.uleb128 0x11
 1326 0489 24       		.byte	0x24
 1327 048a 09       		.byte	0x9
 1328 048b 1304     		.2byte	0x413
 1329 048d 9F050000 		.4byte	0x59f
 1330 0491 0C       		.uleb128 0xc
 1331 0492 43523100 		.ascii	"CR1\000"
 1332 0496 09       		.byte	0x9
 1333 0497 1504     		.2byte	0x415
 1334 0499 2C040000 		.4byte	0x42c
 1335 049d 02       		.byte	0x2
 1336 049e 23       		.byte	0x23
 1337 049f 00       		.uleb128 0
 1338 04a0 12       		.uleb128 0x12
 1339 04a1 20040000 		.4byte	.LASF65
 1340 04a5 09       		.byte	0x9
 1341 04a6 1604     		.2byte	0x416
 1342 04a8 62000000 		.4byte	0x62
 1343 04ac 02       		.byte	0x2
 1344 04ad 23       		.byte	0x23
 1345 04ae 02       		.uleb128 0x2
 1346 04af 0C       		.uleb128 0xc
 1347 04b0 43523200 		.ascii	"CR2\000"
 1348 04b4 09       		.byte	0x9
 1349 04b5 1704     		.2byte	0x417
 1350 04b7 2C040000 		.4byte	0x42c
 1351 04bb 02       		.byte	0x2
 1352 04bc 23       		.byte	0x23
 1353 04bd 04       		.uleb128 0x4
 1354 04be 12       		.uleb128 0x12
 1355 04bf 2A040000 		.4byte	.LASF66
 1356 04c3 09       		.byte	0x9
 1357 04c4 1804     		.2byte	0x418
 1358 04c6 62000000 		.4byte	0x62
 1359 04ca 02       		.byte	0x2
 1360 04cb 23       		.byte	0x23
 1361 04cc 06       		.uleb128 0x6
 1362 04cd 12       		.uleb128 0x12
 1363 04ce F8050000 		.4byte	.LASF67
 1364 04d2 09       		.byte	0x9
 1365 04d3 1904     		.2byte	0x419
 1366 04d5 2C040000 		.4byte	0x42c
 1367 04d9 02       		.byte	0x2
 1368 04da 23       		.byte	0x23
 1369 04db 08       		.uleb128 0x8
 1370 04dc 12       		.uleb128 0x12
 1371 04dd 34040000 		.4byte	.LASF68
 1372 04e1 09       		.byte	0x9
 1373 04e2 1A04     		.2byte	0x41a
 1374 04e4 62000000 		.4byte	0x62
 1375 04e8 02       		.byte	0x2
 1376 04e9 23       		.byte	0x23
 1377 04ea 0A       		.uleb128 0xa
 1378 04eb 12       		.uleb128 0x12
 1379 04ec FD050000 		.4byte	.LASF69
 1380 04f0 09       		.byte	0x9
 1381 04f1 1B04     		.2byte	0x41b
ARM GAS  /tmp/ccRVAWhX.s 			page 26


 1382 04f3 2C040000 		.4byte	0x42c
 1383 04f7 02       		.byte	0x2
 1384 04f8 23       		.byte	0x23
 1385 04f9 0C       		.uleb128 0xc
 1386 04fa 12       		.uleb128 0x12
 1387 04fb 3E040000 		.4byte	.LASF70
 1388 04ff 09       		.byte	0x9
 1389 0500 1C04     		.2byte	0x41c
 1390 0502 62000000 		.4byte	0x62
 1391 0506 02       		.byte	0x2
 1392 0507 23       		.byte	0x23
 1393 0508 0E       		.uleb128 0xe
 1394 0509 0C       		.uleb128 0xc
 1395 050a 445200   		.ascii	"DR\000"
 1396 050d 09       		.byte	0x9
 1397 050e 1D04     		.2byte	0x41d
 1398 0510 2C040000 		.4byte	0x42c
 1399 0514 02       		.byte	0x2
 1400 0515 23       		.byte	0x23
 1401 0516 10       		.uleb128 0x10
 1402 0517 12       		.uleb128 0x12
 1403 0518 48040000 		.4byte	.LASF71
 1404 051c 09       		.byte	0x9
 1405 051d 1E04     		.2byte	0x41e
 1406 051f 62000000 		.4byte	0x62
 1407 0523 02       		.byte	0x2
 1408 0524 23       		.byte	0x23
 1409 0525 12       		.uleb128 0x12
 1410 0526 0C       		.uleb128 0xc
 1411 0527 53523100 		.ascii	"SR1\000"
 1412 052b 09       		.byte	0x9
 1413 052c 1F04     		.2byte	0x41f
 1414 052e 2C040000 		.4byte	0x42c
 1415 0532 02       		.byte	0x2
 1416 0533 23       		.byte	0x23
 1417 0534 14       		.uleb128 0x14
 1418 0535 12       		.uleb128 0x12
 1419 0536 4C050000 		.4byte	.LASF72
 1420 053a 09       		.byte	0x9
 1421 053b 2004     		.2byte	0x420
 1422 053d 62000000 		.4byte	0x62
 1423 0541 02       		.byte	0x2
 1424 0542 23       		.byte	0x23
 1425 0543 16       		.uleb128 0x16
 1426 0544 0C       		.uleb128 0xc
 1427 0545 53523200 		.ascii	"SR2\000"
 1428 0549 09       		.byte	0x9
 1429 054a 2104     		.2byte	0x421
 1430 054c 2C040000 		.4byte	0x42c
 1431 0550 02       		.byte	0x2
 1432 0551 23       		.byte	0x23
 1433 0552 18       		.uleb128 0x18
 1434 0553 12       		.uleb128 0x12
 1435 0554 59040000 		.4byte	.LASF73
 1436 0558 09       		.byte	0x9
 1437 0559 2204     		.2byte	0x422
 1438 055b 62000000 		.4byte	0x62
ARM GAS  /tmp/ccRVAWhX.s 			page 27


 1439 055f 02       		.byte	0x2
 1440 0560 23       		.byte	0x23
 1441 0561 1A       		.uleb128 0x1a
 1442 0562 0C       		.uleb128 0xc
 1443 0563 43435200 		.ascii	"CCR\000"
 1444 0567 09       		.byte	0x9
 1445 0568 2304     		.2byte	0x423
 1446 056a 2C040000 		.4byte	0x42c
 1447 056e 02       		.byte	0x2
 1448 056f 23       		.byte	0x23
 1449 0570 1C       		.uleb128 0x1c
 1450 0571 12       		.uleb128 0x12
 1451 0572 63040000 		.4byte	.LASF74
 1452 0576 09       		.byte	0x9
 1453 0577 2404     		.2byte	0x424
 1454 0579 62000000 		.4byte	0x62
 1455 057d 02       		.byte	0x2
 1456 057e 23       		.byte	0x23
 1457 057f 1E       		.uleb128 0x1e
 1458 0580 12       		.uleb128 0x12
 1459 0581 6E000000 		.4byte	.LASF75
 1460 0585 09       		.byte	0x9
 1461 0586 2504     		.2byte	0x425
 1462 0588 2C040000 		.4byte	0x42c
 1463 058c 02       		.byte	0x2
 1464 058d 23       		.byte	0x23
 1465 058e 20       		.uleb128 0x20
 1466 058f 12       		.uleb128 0x12
 1467 0590 6D040000 		.4byte	.LASF76
 1468 0594 09       		.byte	0x9
 1469 0595 2604     		.2byte	0x426
 1470 0597 62000000 		.4byte	0x62
 1471 059b 02       		.byte	0x2
 1472 059c 23       		.byte	0x23
 1473 059d 22       		.uleb128 0x22
 1474 059e 00       		.byte	0
 1475 059f 13       		.uleb128 0x13
 1476 05a0 36060000 		.4byte	.LASF77
 1477 05a4 09       		.byte	0x9
 1478 05a5 2704     		.2byte	0x427
 1479 05a7 88040000 		.4byte	0x488
 1480 05ab 08       		.uleb128 0x8
 1481 05ac 0C       		.byte	0xc
 1482 05ad 0A       		.byte	0xa
 1483 05ae C1       		.byte	0xc1
 1484 05af FA050000 		.4byte	0x5fa
 1485 05b3 06       		.uleb128 0x6
 1486 05b4 29050000 		.4byte	.LASF78
 1487 05b8 0A       		.byte	0xa
 1488 05b9 C2       		.byte	0xc2
 1489 05ba FA050000 		.4byte	0x5fa
 1490 05be 02       		.byte	0x2
 1491 05bf 23       		.byte	0x23
 1492 05c0 00       		.uleb128 0
 1493 05c1 06       		.uleb128 0x6
 1494 05c2 47050000 		.4byte	.LASF79
 1495 05c6 0A       		.byte	0xa
ARM GAS  /tmp/ccRVAWhX.s 			page 28


 1496 05c7 C3       		.byte	0xc3
 1497 05c8 00060000 		.4byte	0x600
 1498 05cc 02       		.byte	0x2
 1499 05cd 23       		.byte	0x23
 1500 05ce 04       		.uleb128 0x4
 1501 05cf 06       		.uleb128 0x6
 1502 05d0 9D020000 		.4byte	.LASF80
 1503 05d4 0A       		.byte	0xa
 1504 05d5 C4       		.byte	0xc4
 1505 05d6 49000000 		.4byte	0x49
 1506 05da 02       		.byte	0x2
 1507 05db 23       		.byte	0x23
 1508 05dc 08       		.uleb128 0x8
 1509 05dd 06       		.uleb128 0x6
 1510 05de 3A020000 		.4byte	.LASF81
 1511 05e2 0A       		.byte	0xa
 1512 05e3 C6       		.byte	0xc6
 1513 05e4 49000000 		.4byte	0x49
 1514 05e8 02       		.byte	0x2
 1515 05e9 23       		.byte	0x23
 1516 05ea 09       		.uleb128 0x9
 1517 05eb 06       		.uleb128 0x6
 1518 05ec A8000000 		.4byte	.LASF82
 1519 05f0 0A       		.byte	0xa
 1520 05f1 C7       		.byte	0xc7
 1521 05f2 49000000 		.4byte	0x49
 1522 05f6 02       		.byte	0x2
 1523 05f7 23       		.byte	0x23
 1524 05f8 0A       		.uleb128 0xa
 1525 05f9 00       		.byte	0
 1526 05fa 09       		.uleb128 0x9
 1527 05fb 04       		.byte	0x4
 1528 05fc 7C040000 		.4byte	0x47c
 1529 0600 09       		.uleb128 0x9
 1530 0601 04       		.byte	0x4
 1531 0602 6F030000 		.4byte	0x36f
 1532 0606 03       		.uleb128 0x3
 1533 0607 BA040000 		.4byte	.LASF83
 1534 060b 0A       		.byte	0xa
 1535 060c C8       		.byte	0xc8
 1536 060d AB050000 		.4byte	0x5ab
 1537 0611 14       		.uleb128 0x14
 1538 0612 01       		.byte	0x1
 1539 0613 0B       		.byte	0xb
 1540 0614 53       		.byte	0x53
 1541 0615 3E060000 		.4byte	0x63e
 1542 0619 15       		.uleb128 0x15
 1543 061a D7040000 		.4byte	.LASF84
 1544 061e 00       		.sleb128 0
 1545 061f 15       		.uleb128 0x15
 1546 0620 46000000 		.4byte	.LASF85
 1547 0624 01       		.sleb128 1
 1548 0625 15       		.uleb128 0x15
 1549 0626 A7050000 		.4byte	.LASF86
 1550 062a 02       		.sleb128 2
 1551 062b 15       		.uleb128 0x15
 1552 062c 7F040000 		.4byte	.LASF87
ARM GAS  /tmp/ccRVAWhX.s 			page 29


 1553 0630 03       		.sleb128 3
 1554 0631 15       		.uleb128 0x15
 1555 0632 5F050000 		.4byte	.LASF88
 1556 0636 04       		.sleb128 4
 1557 0637 15       		.uleb128 0x15
 1558 0638 31050000 		.4byte	.LASF89
 1559 063c 05       		.sleb128 5
 1560 063d 00       		.byte	0
 1561 063e 03       		.uleb128 0x3
 1562 063f 24000000 		.4byte	.LASF90
 1563 0643 0B       		.byte	0xb
 1564 0644 5A       		.byte	0x5a
 1565 0645 11060000 		.4byte	0x611
 1566 0649 13       		.uleb128 0x13
 1567 064a B8010000 		.4byte	.LASF91
 1568 064e 0C       		.byte	0xc
 1569 064f 3501     		.2byte	0x135
 1570 0651 62000000 		.4byte	0x62
 1571 0655 13       		.uleb128 0x13
 1572 0656 8D040000 		.4byte	.LASF92
 1573 065a 0C       		.byte	0xc
 1574 065b 3A01     		.2byte	0x13a
 1575 065d 86000000 		.4byte	0x86
 1576 0661 16       		.uleb128 0x16
 1577 0662 01       		.byte	0x1
 1578 0663 0C       		.byte	0xc
 1579 0664 3F01     		.2byte	0x13f
 1580 0666 7D060000 		.4byte	0x67d
 1581 066a 15       		.uleb128 0x15
 1582 066b ED030000 		.4byte	.LASF93
 1583 066f 01       		.sleb128 1
 1584 0670 15       		.uleb128 0x15
 1585 0671 A4020000 		.4byte	.LASF94
 1586 0675 02       		.sleb128 2
 1587 0676 15       		.uleb128 0x15
 1588 0677 1F020000 		.4byte	.LASF95
 1589 067b 03       		.sleb128 3
 1590 067c 00       		.byte	0
 1591 067d 13       		.uleb128 0x13
 1592 067e 42060000 		.4byte	.LASF96
 1593 0682 0C       		.byte	0xc
 1594 0683 4301     		.2byte	0x143
 1595 0685 61060000 		.4byte	0x661
 1596 0689 16       		.uleb128 0x16
 1597 068a 01       		.byte	0x1
 1598 068b 0C       		.byte	0xc
 1599 068c 4801     		.2byte	0x148
 1600 068e A5060000 		.4byte	0x6a5
 1601 0692 15       		.uleb128 0x15
 1602 0693 00000000 		.4byte	.LASF97
 1603 0697 01       		.sleb128 1
 1604 0698 15       		.uleb128 0x15
 1605 0699 17050000 		.4byte	.LASF98
 1606 069d 02       		.sleb128 2
 1607 069e 15       		.uleb128 0x15
 1608 069f 9F030000 		.4byte	.LASF99
 1609 06a3 03       		.sleb128 3
ARM GAS  /tmp/ccRVAWhX.s 			page 30


 1610 06a4 00       		.byte	0
 1611 06a5 13       		.uleb128 0x13
 1612 06a6 15000000 		.4byte	.LASF100
 1613 06aa 0C       		.byte	0xc
 1614 06ab 4C01     		.2byte	0x14c
 1615 06ad 89060000 		.4byte	0x689
 1616 06b1 11       		.uleb128 0x11
 1617 06b2 0C       		.byte	0xc
 1618 06b3 0C       		.byte	0xc
 1619 06b4 5101     		.2byte	0x151
 1620 06b6 E8060000 		.4byte	0x6e8
 1621 06ba 12       		.uleb128 0x12
 1622 06bb 44020000 		.4byte	.LASF101
 1623 06bf 0C       		.byte	0xc
 1624 06c0 5201     		.2byte	0x152
 1625 06c2 7D060000 		.4byte	0x67d
 1626 06c6 02       		.byte	0x2
 1627 06c7 23       		.byte	0x23
 1628 06c8 00       		.uleb128 0
 1629 06c9 12       		.uleb128 0x12
 1630 06ca 12010000 		.4byte	.LASF102
 1631 06ce 0C       		.byte	0xc
 1632 06cf 5301     		.2byte	0x153
 1633 06d1 86000000 		.4byte	0x86
 1634 06d5 02       		.byte	0x2
 1635 06d6 23       		.byte	0x23
 1636 06d7 04       		.uleb128 0x4
 1637 06d8 12       		.uleb128 0x12
 1638 06d9 94030000 		.4byte	.LASF103
 1639 06dd 0C       		.byte	0xc
 1640 06de 5601     		.2byte	0x156
 1641 06e0 A5060000 		.4byte	0x6a5
 1642 06e4 02       		.byte	0x2
 1643 06e5 23       		.byte	0x23
 1644 06e6 08       		.uleb128 0x8
 1645 06e7 00       		.byte	0
 1646 06e8 13       		.uleb128 0x13
 1647 06e9 F6010000 		.4byte	.LASF104
 1648 06ed 0C       		.byte	0xc
 1649 06ee 5801     		.2byte	0x158
 1650 06f0 B1060000 		.4byte	0x6b1
 1651 06f4 13       		.uleb128 0x13
 1652 06f5 CB020000 		.4byte	.LASF105
 1653 06f9 0C       		.byte	0xc
 1654 06fa 5D01     		.2byte	0x15d
 1655 06fc 00070000 		.4byte	0x700
 1656 0700 0B       		.uleb128 0xb
 1657 0701 CB020000 		.4byte	.LASF105
 1658 0705 38       		.byte	0x38
 1659 0706 0C       		.byte	0xc
 1660 0707 6201     		.2byte	0x162
 1661 0709 B3070000 		.4byte	0x7b3
 1662 070d 12       		.uleb128 0x12
 1663 070e C2010000 		.4byte	.LASF106
 1664 0712 0C       		.byte	0xc
 1665 0713 6601     		.2byte	0x166
 1666 0715 3E060000 		.4byte	0x63e
ARM GAS  /tmp/ccRVAWhX.s 			page 31


 1667 0719 02       		.byte	0x2
 1668 071a 23       		.byte	0x23
 1669 071b 00       		.uleb128 0
 1670 071c 12       		.uleb128 0x12
 1671 071d 84050000 		.4byte	.LASF107
 1672 0721 0C       		.byte	0xc
 1673 0722 6A01     		.2byte	0x16a
 1674 0724 B3070000 		.4byte	0x7b3
 1675 0728 02       		.byte	0x2
 1676 0729 23       		.byte	0x23
 1677 072a 04       		.uleb128 0x4
 1678 072b 12       		.uleb128 0x12
 1679 072c 8D030000 		.4byte	.LASF108
 1680 0730 0C       		.byte	0xc
 1681 0731 6E01     		.2byte	0x16e
 1682 0733 55060000 		.4byte	0x655
 1683 0737 02       		.byte	0x2
 1684 0738 23       		.byte	0x23
 1685 0739 08       		.uleb128 0x8
 1686 073a 12       		.uleb128 0x12
 1687 073b 98040000 		.4byte	.LASF109
 1688 073f 0C       		.byte	0xc
 1689 0740 7401     		.2byte	0x174
 1690 0742 BD030000 		.4byte	0x3bd
 1691 0746 02       		.byte	0x2
 1692 0747 23       		.byte	0x23
 1693 0748 0C       		.uleb128 0xc
 1694 0749 12       		.uleb128 0x12
 1695 074a DA010000 		.4byte	.LASF110
 1696 074e 0C       		.byte	0xc
 1697 074f 8001     		.2byte	0x180
 1698 0751 73020000 		.4byte	0x273
 1699 0755 02       		.byte	0x2
 1700 0756 23       		.byte	0x23
 1701 0757 1C       		.uleb128 0x1c
 1702 0758 12       		.uleb128 0x12
 1703 0759 91000000 		.4byte	.LASF111
 1704 075d 0C       		.byte	0xc
 1705 075e 8401     		.2byte	0x184
 1706 0760 49060000 		.4byte	0x649
 1707 0764 02       		.byte	0x2
 1708 0765 23       		.byte	0x23
 1709 0766 20       		.uleb128 0x20
 1710 0767 12       		.uleb128 0x12
 1711 0768 0F020000 		.4byte	.LASF112
 1712 076c 0C       		.byte	0xc
 1713 076d 8801     		.2byte	0x188
 1714 076f 86000000 		.4byte	0x86
 1715 0773 02       		.byte	0x2
 1716 0774 23       		.byte	0x23
 1717 0775 24       		.uleb128 0x24
 1718 0776 12       		.uleb128 0x12
 1719 0777 E3030000 		.4byte	.LASF113
 1720 077b 0C       		.byte	0xc
 1721 077c 8C01     		.2byte	0x18c
 1722 077e 86000000 		.4byte	0x86
 1723 0782 02       		.byte	0x2
ARM GAS  /tmp/ccRVAWhX.s 			page 32


 1724 0783 23       		.byte	0x23
 1725 0784 28       		.uleb128 0x28
 1726 0785 12       		.uleb128 0x12
 1727 0786 0F000000 		.4byte	.LASF114
 1728 078a 0C       		.byte	0xc
 1729 078b 9001     		.2byte	0x190
 1730 078d BE070000 		.4byte	0x7be
 1731 0791 02       		.byte	0x2
 1732 0792 23       		.byte	0x23
 1733 0793 2C       		.uleb128 0x2c
 1734 0794 12       		.uleb128 0x12
 1735 0795 19020000 		.4byte	.LASF115
 1736 0799 0C       		.byte	0xc
 1737 079a 9401     		.2byte	0x194
 1738 079c BE070000 		.4byte	0x7be
 1739 07a0 02       		.byte	0x2
 1740 07a1 23       		.byte	0x23
 1741 07a2 30       		.uleb128 0x30
 1742 07a3 0C       		.uleb128 0xc
 1743 07a4 69326300 		.ascii	"i2c\000"
 1744 07a8 0C       		.byte	0xc
 1745 07a9 9801     		.2byte	0x198
 1746 07ab C9070000 		.4byte	0x7c9
 1747 07af 02       		.byte	0x2
 1748 07b0 23       		.byte	0x23
 1749 07b1 34       		.uleb128 0x34
 1750 07b2 00       		.byte	0
 1751 07b3 09       		.uleb128 0x9
 1752 07b4 04       		.byte	0x4
 1753 07b5 B9070000 		.4byte	0x7b9
 1754 07b9 10       		.uleb128 0x10
 1755 07ba E8060000 		.4byte	0x6e8
 1756 07be 09       		.uleb128 0x9
 1757 07bf 04       		.byte	0x4
 1758 07c0 C4070000 		.4byte	0x7c4
 1759 07c4 10       		.uleb128 0x10
 1760 07c5 06060000 		.4byte	0x606
 1761 07c9 09       		.uleb128 0x9
 1762 07ca 04       		.byte	0x4
 1763 07cb 9F050000 		.4byte	0x59f
 1764 07cf 17       		.uleb128 0x17
 1765 07d0 01       		.byte	0x1
 1766 07d1 28060000 		.4byte	.LASF116
 1767 07d5 01       		.byte	0x1
 1768 07d6 40       		.byte	0x40
 1769 07d7 01       		.byte	0x1
 1770 07d8 00000000 		.4byte	.LFB63
 1771 07dc 04000000 		.4byte	.LFE63
 1772 07e0 02       		.byte	0x2
 1773 07e1 7D       		.byte	0x7d
 1774 07e2 00       		.sleb128 0
 1775 07e3 01       		.byte	0x1
 1776 07e4 F3070000 		.4byte	0x7f3
 1777 07e8 18       		.uleb128 0x18
 1778 07e9 04000000 		.4byte	.LVL0
 1779 07ed 01       		.byte	0x1
 1780 07ee 020D0000 		.4byte	0xd02
ARM GAS  /tmp/ccRVAWhX.s 			page 33


 1781 07f2 00       		.byte	0
 1782 07f3 17       		.uleb128 0x17
 1783 07f4 01       		.byte	0x1
 1784 07f5 4E060000 		.4byte	.LASF117
 1785 07f9 01       		.byte	0x1
 1786 07fa 4B       		.byte	0x4b
 1787 07fb 01       		.byte	0x1
 1788 07fc 00000000 		.4byte	.LFB64
 1789 0800 0E000000 		.4byte	.LFE64
 1790 0804 02       		.byte	0x2
 1791 0805 7D       		.byte	0x7d
 1792 0806 00       		.sleb128 0
 1793 0807 01       		.byte	0x1
 1794 0808 30080000 		.4byte	0x830
 1795 080c 19       		.uleb128 0x19
 1796 080d D5000000 		.4byte	.LASF119
 1797 0811 01       		.byte	0x1
 1798 0812 4B       		.byte	0x4b
 1799 0813 30080000 		.4byte	0x830
 1800 0817 00000000 		.4byte	.LLST0
 1801 081b 1A       		.uleb128 0x1a
 1802 081c 0E000000 		.4byte	.LVL3
 1803 0820 01       		.byte	0x1
 1804 0821 0D0D0000 		.4byte	0xd0d
 1805 0825 1B       		.uleb128 0x1b
 1806 0826 01       		.byte	0x1
 1807 0827 50       		.byte	0x50
 1808 0828 05       		.byte	0x5
 1809 0829 F3       		.byte	0xf3
 1810 082a 01       		.uleb128 0x1
 1811 082b 50       		.byte	0x50
 1812 082c 23       		.byte	0x23
 1813 082d 0C       		.uleb128 0xc
 1814 082e 00       		.byte	0
 1815 082f 00       		.byte	0
 1816 0830 09       		.uleb128 0x9
 1817 0831 04       		.byte	0x4
 1818 0832 F4060000 		.4byte	0x6f4
 1819 0836 1C       		.uleb128 0x1c
 1820 0837 01       		.byte	0x1
 1821 0838 96000000 		.4byte	.LASF118
 1822 083c 01       		.byte	0x1
 1823 083d 65       		.byte	0x65
 1824 083e 01       		.byte	0x1
 1825 083f 00000000 		.4byte	.LFB65
 1826 0843 50000000 		.4byte	.LFE65
 1827 0847 2E000000 		.4byte	.LLST1
 1828 084b 01       		.byte	0x1
 1829 084c F9080000 		.4byte	0x8f9
 1830 0850 19       		.uleb128 0x19
 1831 0851 D5000000 		.4byte	.LASF119
 1832 0855 01       		.byte	0x1
 1833 0856 65       		.byte	0x65
 1834 0857 30080000 		.4byte	0x830
 1835 085b 4E000000 		.4byte	.LLST2
 1836 085f 19       		.uleb128 0x19
 1837 0860 84050000 		.4byte	.LASF107
ARM GAS  /tmp/ccRVAWhX.s 			page 34


 1838 0864 01       		.byte	0x1
 1839 0865 65       		.byte	0x65
 1840 0866 B3070000 		.4byte	0x7b3
 1841 086a 82000000 		.4byte	.LLST3
 1842 086e 1D       		.uleb128 0x1d
 1843 086f 1C000000 		.4byte	.LBB2
 1844 0873 22000000 		.4byte	.LBE2
 1845 0877 8B080000 		.4byte	0x88b
 1846 087b 1E       		.uleb128 0x1e
 1847 087c 746D7000 		.ascii	"tmp\000"
 1848 0880 01       		.byte	0x1
 1849 0881 6D       		.byte	0x6d
 1850 0882 86000000 		.4byte	0x86
 1851 0886 B6000000 		.4byte	.LLST4
 1852 088a 00       		.byte	0
 1853 088b 1D       		.uleb128 0x1d
 1854 088c 36000000 		.4byte	.LBB3
 1855 0890 3E000000 		.4byte	.LBE3
 1856 0894 A8080000 		.4byte	0x8a8
 1857 0898 1E       		.uleb128 0x1e
 1858 0899 746D7000 		.ascii	"tmp\000"
 1859 089d 01       		.byte	0x1
 1860 089e 71       		.byte	0x71
 1861 089f 86000000 		.4byte	0x86
 1862 08a3 C9000000 		.4byte	.LLST5
 1863 08a7 00       		.byte	0
 1864 08a8 1F       		.uleb128 0x1f
 1865 08a9 1C000000 		.4byte	.LVL6
 1866 08ad 210D0000 		.4byte	0xd21
 1867 08b1 BF080000 		.4byte	0x8bf
 1868 08b5 1B       		.uleb128 0x1b
 1869 08b6 01       		.byte	0x1
 1870 08b7 50       		.byte	0x50
 1871 08b8 05       		.byte	0x5
 1872 08b9 03       		.byte	0x3
 1873 08ba 10000000 		.4byte	.LC1
 1874 08be 00       		.byte	0
 1875 08bf 20       		.uleb128 0x20
 1876 08c0 26000000 		.4byte	.LVL9
 1877 08c4 350D0000 		.4byte	0xd35
 1878 08c8 1F       		.uleb128 0x1f
 1879 08c9 2E000000 		.4byte	.LVL10
 1880 08cd 3F0D0000 		.4byte	0xd3f
 1881 08d1 DC080000 		.4byte	0x8dc
 1882 08d5 1B       		.uleb128 0x1b
 1883 08d6 01       		.byte	0x1
 1884 08d7 50       		.byte	0x50
 1885 08d8 02       		.byte	0x2
 1886 08d9 74       		.byte	0x74
 1887 08da 00       		.sleb128 0
 1888 08db 00       		.byte	0
 1889 08dc 20       		.uleb128 0x20
 1890 08dd 36000000 		.4byte	.LVL11
 1891 08e1 540D0000 		.4byte	0xd54
 1892 08e5 21       		.uleb128 0x21
 1893 08e6 44000000 		.4byte	.LVL16
 1894 08ea 210D0000 		.4byte	0xd21
ARM GAS  /tmp/ccRVAWhX.s 			page 35


 1895 08ee 1B       		.uleb128 0x1b
 1896 08ef 01       		.byte	0x1
 1897 08f0 50       		.byte	0x50
 1898 08f1 05       		.byte	0x5
 1899 08f2 03       		.byte	0x3
 1900 08f3 00000000 		.4byte	.LC0
 1901 08f7 00       		.byte	0
 1902 08f8 00       		.byte	0
 1903 08f9 1C       		.uleb128 0x1c
 1904 08fa 01       		.byte	0x1
 1905 08fb CE030000 		.4byte	.LASF120
 1906 08ff 01       		.byte	0x1
 1907 0900 7B       		.byte	0x7b
 1908 0901 01       		.byte	0x1
 1909 0902 00000000 		.4byte	.LFB66
 1910 0906 48000000 		.4byte	.LFE66
 1911 090a DC000000 		.4byte	.LLST6
 1912 090e 01       		.byte	0x1
 1913 090f AD090000 		.4byte	0x9ad
 1914 0913 19       		.uleb128 0x19
 1915 0914 D5000000 		.4byte	.LASF119
 1916 0918 01       		.byte	0x1
 1917 0919 7B       		.byte	0x7b
 1918 091a 30080000 		.4byte	0x830
 1919 091e FC000000 		.4byte	.LLST7
 1920 0922 1D       		.uleb128 0x1d
 1921 0923 18000000 		.4byte	.LBB4
 1922 0927 1E000000 		.4byte	.LBE4
 1923 092b 3F090000 		.4byte	0x93f
 1924 092f 1E       		.uleb128 0x1e
 1925 0930 746D7000 		.ascii	"tmp\000"
 1926 0934 01       		.byte	0x1
 1927 0935 83       		.byte	0x83
 1928 0936 86000000 		.4byte	0x86
 1929 093a 30010000 		.4byte	.LLST8
 1930 093e 00       		.byte	0
 1931 093f 1D       		.uleb128 0x1d
 1932 0940 30000000 		.4byte	.LBB5
 1933 0944 38000000 		.4byte	.LBE5
 1934 0948 5C090000 		.4byte	0x95c
 1935 094c 1E       		.uleb128 0x1e
 1936 094d 746D7000 		.ascii	"tmp\000"
 1937 0951 01       		.byte	0x1
 1938 0952 86       		.byte	0x86
 1939 0953 86000000 		.4byte	0x86
 1940 0957 43010000 		.4byte	.LLST9
 1941 095b 00       		.byte	0
 1942 095c 1F       		.uleb128 0x1f
 1943 095d 18000000 		.4byte	.LVL19
 1944 0961 210D0000 		.4byte	0xd21
 1945 0965 73090000 		.4byte	0x973
 1946 0969 1B       		.uleb128 0x1b
 1947 096a 01       		.byte	0x1
 1948 096b 50       		.byte	0x50
 1949 096c 05       		.byte	0x5
 1950 096d 03       		.byte	0x3
 1951 096e 2C000000 		.4byte	.LC3
ARM GAS  /tmp/ccRVAWhX.s 			page 36


 1952 0972 00       		.byte	0
 1953 0973 20       		.uleb128 0x20
 1954 0974 22000000 		.4byte	.LVL22
 1955 0978 350D0000 		.4byte	0xd35
 1956 097c 1F       		.uleb128 0x1f
 1957 097d 28000000 		.4byte	.LVL23
 1958 0981 5E0D0000 		.4byte	0xd5e
 1959 0985 90090000 		.4byte	0x990
 1960 0989 1B       		.uleb128 0x1b
 1961 098a 01       		.byte	0x1
 1962 098b 50       		.byte	0x50
 1963 098c 02       		.byte	0x2
 1964 098d 74       		.byte	0x74
 1965 098e 00       		.sleb128 0
 1966 098f 00       		.byte	0
 1967 0990 20       		.uleb128 0x20
 1968 0991 30000000 		.4byte	.LVL24
 1969 0995 540D0000 		.4byte	0xd54
 1970 0999 21       		.uleb128 0x21
 1971 099a 3E000000 		.4byte	.LVL29
 1972 099e 210D0000 		.4byte	0xd21
 1973 09a2 1B       		.uleb128 0x1b
 1974 09a3 01       		.byte	0x1
 1975 09a4 50       		.byte	0x50
 1976 09a5 05       		.byte	0x5
 1977 09a6 03       		.byte	0x3
 1978 09a7 20000000 		.4byte	.LC2
 1979 09ab 00       		.byte	0
 1980 09ac 00       		.byte	0
 1981 09ad 22       		.uleb128 0x22
 1982 09ae 01       		.byte	0x1
 1983 09af F4040000 		.4byte	.LASF121
 1984 09b3 01       		.byte	0x1
 1985 09b4 91       		.byte	0x91
 1986 09b5 01       		.byte	0x1
 1987 09b6 55060000 		.4byte	0x655
 1988 09ba 00000000 		.4byte	.LFB67
 1989 09be 18000000 		.4byte	.LFE67
 1990 09c2 56010000 		.4byte	.LLST10
 1991 09c6 01       		.byte	0x1
 1992 09c7 EE090000 		.4byte	0x9ee
 1993 09cb 19       		.uleb128 0x19
 1994 09cc D5000000 		.4byte	.LASF119
 1995 09d0 01       		.byte	0x1
 1996 09d1 91       		.byte	0x91
 1997 09d2 30080000 		.4byte	0x830
 1998 09d6 76010000 		.4byte	.LLST11
 1999 09da 21       		.uleb128 0x21
 2000 09db 10000000 		.4byte	.LVL34
 2001 09df 210D0000 		.4byte	0xd21
 2002 09e3 1B       		.uleb128 0x1b
 2003 09e4 01       		.byte	0x1
 2004 09e5 50       		.byte	0x50
 2005 09e6 05       		.byte	0x5
 2006 09e7 03       		.byte	0x3
 2007 09e8 3C000000 		.4byte	.LC4
 2008 09ec 00       		.byte	0
ARM GAS  /tmp/ccRVAWhX.s 			page 37


 2009 09ed 00       		.byte	0
 2010 09ee 22       		.uleb128 0x22
 2011 09ef 01       		.byte	0x1
 2012 09f0 E1000000 		.4byte	.LASF122
 2013 09f4 01       		.byte	0x1
 2014 09f5 B2       		.byte	0xb2
 2015 09f6 01       		.byte	0x1
 2016 09f7 EF000000 		.4byte	0xef
 2017 09fb 00000000 		.4byte	.LFB68
 2018 09ff 90000000 		.4byte	.LFE68
 2019 0a03 AA010000 		.4byte	.LLST12
 2020 0a07 01       		.byte	0x1
 2021 0a08 380B0000 		.4byte	0xb38
 2022 0a0c 19       		.uleb128 0x19
 2023 0a0d D5000000 		.4byte	.LASF119
 2024 0a11 01       		.byte	0x1
 2025 0a12 B2       		.byte	0xb2
 2026 0a13 30080000 		.4byte	0x830
 2027 0a17 D6010000 		.4byte	.LLST13
 2028 0a1b 19       		.uleb128 0x19
 2029 0a1c 91000000 		.4byte	.LASF111
 2030 0a20 01       		.byte	0x1
 2031 0a21 B3       		.byte	0xb3
 2032 0a22 49060000 		.4byte	0x649
 2033 0a26 0A020000 		.4byte	.LLST14
 2034 0a2a 19       		.uleb128 0x19
 2035 0a2b 6B020000 		.4byte	.LASF123
 2036 0a2f 01       		.byte	0x1
 2037 0a30 B4       		.byte	0xb4
 2038 0a31 21040000 		.4byte	0x421
 2039 0a35 44020000 		.4byte	.LLST15
 2040 0a39 19       		.uleb128 0x19
 2041 0a3a 74060000 		.4byte	.LASF124
 2042 0a3e 01       		.byte	0x1
 2043 0a3f B5       		.byte	0xb5
 2044 0a40 30000000 		.4byte	0x30
 2045 0a44 78020000 		.4byte	.LLST16
 2046 0a48 23       		.uleb128 0x23
 2047 0a49 74000000 		.4byte	.LASF125
 2048 0a4d 01       		.byte	0x1
 2049 0a4e B6       		.byte	0xb6
 2050 0a4f 1B040000 		.4byte	0x41b
 2051 0a53 02       		.byte	0x2
 2052 0a54 91       		.byte	0x91
 2053 0a55 00       		.sleb128 0
 2054 0a56 23       		.uleb128 0x23
 2055 0a57 C6030000 		.4byte	.LASF126
 2056 0a5b 01       		.byte	0x1
 2057 0a5c B7       		.byte	0xb7
 2058 0a5d 30000000 		.4byte	0x30
 2059 0a61 02       		.byte	0x2
 2060 0a62 91       		.byte	0x91
 2061 0a63 04       		.sleb128 4
 2062 0a64 23       		.uleb128 0x23
 2063 0a65 81020000 		.4byte	.LASF127
 2064 0a69 01       		.byte	0x1
 2065 0a6a B8       		.byte	0xb8
ARM GAS  /tmp/ccRVAWhX.s 			page 38


 2066 0a6b 05010000 		.4byte	0x105
 2067 0a6f 02       		.byte	0x2
 2068 0a70 91       		.byte	0x91
 2069 0a71 08       		.sleb128 8
 2070 0a72 24       		.uleb128 0x24
 2071 0a73 36000000 		.4byte	.LASF56
 2072 0a77 01       		.byte	0x1
 2073 0a78 B9       		.byte	0xb9
 2074 0a79 EF000000 		.4byte	0xef
 2075 0a7d AC020000 		.4byte	.LLST17
 2076 0a81 1D       		.uleb128 0x1d
 2077 0a82 2A000000 		.4byte	.LBB6
 2078 0a86 30000000 		.4byte	.LBE6
 2079 0a8a 9E0A0000 		.4byte	0xa9e
 2080 0a8e 1E       		.uleb128 0x1e
 2081 0a8f 746D7000 		.ascii	"tmp\000"
 2082 0a93 01       		.byte	0x1
 2083 0a94 C4       		.byte	0xc4
 2084 0a95 86000000 		.4byte	0x86
 2085 0a99 E0020000 		.4byte	.LLST18
 2086 0a9d 00       		.byte	0
 2087 0a9e 1D       		.uleb128 0x1d
 2088 0a9f 5C000000 		.4byte	.LBB7
 2089 0aa3 62000000 		.4byte	.LBE7
 2090 0aa7 BB0A0000 		.4byte	0xabb
 2091 0aab 1E       		.uleb128 0x1e
 2092 0aac 746D7000 		.ascii	"tmp\000"
 2093 0ab0 01       		.byte	0x1
 2094 0ab1 CD       		.byte	0xcd
 2095 0ab2 86000000 		.4byte	0x86
 2096 0ab6 F3020000 		.4byte	.LLST19
 2097 0aba 00       		.byte	0
 2098 0abb 1F       		.uleb128 0x1f
 2099 0abc 1E000000 		.4byte	.LVL38
 2100 0ac0 210D0000 		.4byte	0xd21
 2101 0ac4 D20A0000 		.4byte	0xad2
 2102 0ac8 1B       		.uleb128 0x1b
 2103 0ac9 01       		.byte	0x1
 2104 0aca 50       		.byte	0x50
 2105 0acb 05       		.byte	0x5
 2106 0acc 03       		.byte	0x3
 2107 0acd 50000000 		.4byte	.LC5
 2108 0ad1 00       		.byte	0
 2109 0ad2 1F       		.uleb128 0x1f
 2110 0ad3 2A000000 		.4byte	.LVL39
 2111 0ad7 210D0000 		.4byte	0xd21
 2112 0adb E90A0000 		.4byte	0xae9
 2113 0adf 1B       		.uleb128 0x1b
 2114 0ae0 01       		.byte	0x1
 2115 0ae1 50       		.byte	0x50
 2116 0ae2 05       		.byte	0x5
 2117 0ae3 03       		.byte	0x3
 2118 0ae4 70000000 		.4byte	.LC6
 2119 0ae8 00       		.byte	0
 2120 0ae9 20       		.uleb128 0x20
 2121 0aea 34000000 		.4byte	.LVL42
 2122 0aee 350D0000 		.4byte	0xd35
ARM GAS  /tmp/ccRVAWhX.s 			page 39


 2123 0af2 1F       		.uleb128 0x1f
 2124 0af3 4E000000 		.4byte	.LVL43
 2125 0af7 730D0000 		.4byte	0xd73
 2126 0afb 2E0B0000 		.4byte	0xb2e
 2127 0aff 1B       		.uleb128 0x1b
 2128 0b00 01       		.byte	0x1
 2129 0b01 53       		.byte	0x53
 2130 0b02 02       		.byte	0x2
 2131 0b03 79       		.byte	0x79
 2132 0b04 00       		.sleb128 0
 2133 0b05 1B       		.uleb128 0x1b
 2134 0b06 01       		.byte	0x1
 2135 0b07 52       		.byte	0x52
 2136 0b08 02       		.byte	0x2
 2137 0b09 7A       		.byte	0x7a
 2138 0b0a 00       		.sleb128 0
 2139 0b0b 1B       		.uleb128 0x1b
 2140 0b0c 01       		.byte	0x1
 2141 0b0d 51       		.byte	0x51
 2142 0b0e 02       		.byte	0x2
 2143 0b0f 77       		.byte	0x77
 2144 0b10 00       		.sleb128 0
 2145 0b11 1B       		.uleb128 0x1b
 2146 0b12 01       		.byte	0x1
 2147 0b13 50       		.byte	0x50
 2148 0b14 02       		.byte	0x2
 2149 0b15 74       		.byte	0x74
 2150 0b16 00       		.sleb128 0
 2151 0b17 1B       		.uleb128 0x1b
 2152 0b18 02       		.byte	0x2
 2153 0b19 7D       		.byte	0x7d
 2154 0b1a 08       		.sleb128 8
 2155 0b1b 02       		.byte	0x2
 2156 0b1c 76       		.byte	0x76
 2157 0b1d 00       		.sleb128 0
 2158 0b1e 1B       		.uleb128 0x1b
 2159 0b1f 02       		.byte	0x2
 2160 0b20 7D       		.byte	0x7d
 2161 0b21 04       		.sleb128 4
 2162 0b22 02       		.byte	0x2
 2163 0b23 75       		.byte	0x75
 2164 0b24 00       		.sleb128 0
 2165 0b25 1B       		.uleb128 0x1b
 2166 0b26 02       		.byte	0x2
 2167 0b27 7D       		.byte	0x7d
 2168 0b28 00       		.sleb128 0
 2169 0b29 03       		.byte	0x3
 2170 0b2a 91       		.byte	0x91
 2171 0b2b 00       		.sleb128 0
 2172 0b2c 06       		.byte	0x6
 2173 0b2d 00       		.byte	0
 2174 0b2e 20       		.uleb128 0x20
 2175 0b2f 5C000000 		.4byte	.LVL46
 2176 0b33 540D0000 		.4byte	0xd54
 2177 0b37 00       		.byte	0
 2178 0b38 22       		.uleb128 0x22
 2179 0b39 01       		.byte	0x1
ARM GAS  /tmp/ccRVAWhX.s 			page 40


 2180 0b3a 02060000 		.4byte	.LASF128
 2181 0b3e 01       		.byte	0x1
 2182 0b3f E5       		.byte	0xe5
 2183 0b40 01       		.byte	0x1
 2184 0b41 EF000000 		.4byte	0xef
 2185 0b45 00000000 		.4byte	.LFB69
 2186 0b49 80000000 		.4byte	.LFE69
 2187 0b4d 06030000 		.4byte	.LLST20
 2188 0b51 01       		.byte	0x1
 2189 0b52 570C0000 		.4byte	0xc57
 2190 0b56 19       		.uleb128 0x19
 2191 0b57 D5000000 		.4byte	.LASF119
 2192 0b5b 01       		.byte	0x1
 2193 0b5c E5       		.byte	0xe5
 2194 0b5d 30080000 		.4byte	0x830
 2195 0b61 32030000 		.4byte	.LLST21
 2196 0b65 19       		.uleb128 0x19
 2197 0b66 91000000 		.4byte	.LASF111
 2198 0b6a 01       		.byte	0x1
 2199 0b6b E6       		.byte	0xe6
 2200 0b6c 49060000 		.4byte	0x649
 2201 0b70 66030000 		.4byte	.LLST22
 2202 0b74 19       		.uleb128 0x19
 2203 0b75 74000000 		.4byte	.LASF125
 2204 0b79 01       		.byte	0x1
 2205 0b7a E7       		.byte	0xe7
 2206 0b7b 1B040000 		.4byte	0x41b
 2207 0b7f A0030000 		.4byte	.LLST23
 2208 0b83 19       		.uleb128 0x19
 2209 0b84 C6030000 		.4byte	.LASF126
 2210 0b88 01       		.byte	0x1
 2211 0b89 E8       		.byte	0xe8
 2212 0b8a 30000000 		.4byte	0x30
 2213 0b8e D4030000 		.4byte	.LLST24
 2214 0b92 23       		.uleb128 0x23
 2215 0b93 81020000 		.4byte	.LASF127
 2216 0b97 01       		.byte	0x1
 2217 0b98 E9       		.byte	0xe9
 2218 0b99 05010000 		.4byte	0x105
 2219 0b9d 02       		.byte	0x2
 2220 0b9e 91       		.byte	0x91
 2221 0b9f 00       		.sleb128 0
 2222 0ba0 24       		.uleb128 0x24
 2223 0ba1 36000000 		.4byte	.LASF56
 2224 0ba5 01       		.byte	0x1
 2225 0ba6 EB       		.byte	0xeb
 2226 0ba7 EF000000 		.4byte	0xef
 2227 0bab 08040000 		.4byte	.LLST25
 2228 0baf 1D       		.uleb128 0x1d
 2229 0bb0 28000000 		.4byte	.LBB8
 2230 0bb4 2E000000 		.4byte	.LBE8
 2231 0bb8 CC0B0000 		.4byte	0xbcc
 2232 0bbc 1E       		.uleb128 0x1e
 2233 0bbd 746D7000 		.ascii	"tmp\000"
 2234 0bc1 01       		.byte	0x1
 2235 0bc2 F5       		.byte	0xf5
 2236 0bc3 86000000 		.4byte	0x86
ARM GAS  /tmp/ccRVAWhX.s 			page 41


 2237 0bc7 31040000 		.4byte	.LLST26
 2238 0bcb 00       		.byte	0
 2239 0bcc 1D       		.uleb128 0x1d
 2240 0bcd 56000000 		.4byte	.LBB9
 2241 0bd1 5C000000 		.4byte	.LBE9
 2242 0bd5 E90B0000 		.4byte	0xbe9
 2243 0bd9 1E       		.uleb128 0x1e
 2244 0bda 746D7000 		.ascii	"tmp\000"
 2245 0bde 01       		.byte	0x1
 2246 0bdf FD       		.byte	0xfd
 2247 0be0 86000000 		.4byte	0x86
 2248 0be4 44040000 		.4byte	.LLST27
 2249 0be8 00       		.byte	0
 2250 0be9 1F       		.uleb128 0x1f
 2251 0bea 1C000000 		.4byte	.LVL55
 2252 0bee 210D0000 		.4byte	0xd21
 2253 0bf2 000C0000 		.4byte	0xc00
 2254 0bf6 1B       		.uleb128 0x1b
 2255 0bf7 01       		.byte	0x1
 2256 0bf8 50       		.byte	0x50
 2257 0bf9 05       		.byte	0x5
 2258 0bfa 03       		.byte	0x3
 2259 0bfb 90000000 		.4byte	.LC7
 2260 0bff 00       		.byte	0
 2261 0c00 1F       		.uleb128 0x1f
 2262 0c01 28000000 		.4byte	.LVL56
 2263 0c05 210D0000 		.4byte	0xd21
 2264 0c09 170C0000 		.4byte	0xc17
 2265 0c0d 1B       		.uleb128 0x1b
 2266 0c0e 01       		.byte	0x1
 2267 0c0f 50       		.byte	0x50
 2268 0c10 05       		.byte	0x5
 2269 0c11 03       		.byte	0x3
 2270 0c12 AC000000 		.4byte	.LC8
 2271 0c16 00       		.byte	0
 2272 0c17 20       		.uleb128 0x20
 2273 0c18 32000000 		.4byte	.LVL59
 2274 0c1c 350D0000 		.4byte	0xd35
 2275 0c20 1F       		.uleb128 0x1f
 2276 0c21 48000000 		.4byte	.LVL60
 2277 0c25 AA0D0000 		.4byte	0xdaa
 2278 0c29 4D0C0000 		.4byte	0xc4d
 2279 0c2d 1B       		.uleb128 0x1b
 2280 0c2e 01       		.byte	0x1
 2281 0c2f 53       		.byte	0x53
 2282 0c30 02       		.byte	0x2
 2283 0c31 76       		.byte	0x76
 2284 0c32 00       		.sleb128 0
 2285 0c33 1B       		.uleb128 0x1b
 2286 0c34 01       		.byte	0x1
 2287 0c35 52       		.byte	0x52
 2288 0c36 02       		.byte	0x2
 2289 0c37 78       		.byte	0x78
 2290 0c38 00       		.sleb128 0
 2291 0c39 1B       		.uleb128 0x1b
 2292 0c3a 01       		.byte	0x1
 2293 0c3b 51       		.byte	0x51
ARM GAS  /tmp/ccRVAWhX.s 			page 42


 2294 0c3c 02       		.byte	0x2
 2295 0c3d 75       		.byte	0x75
 2296 0c3e 00       		.sleb128 0
 2297 0c3f 1B       		.uleb128 0x1b
 2298 0c40 01       		.byte	0x1
 2299 0c41 50       		.byte	0x50
 2300 0c42 02       		.byte	0x2
 2301 0c43 74       		.byte	0x74
 2302 0c44 00       		.sleb128 0
 2303 0c45 1B       		.uleb128 0x1b
 2304 0c46 02       		.byte	0x2
 2305 0c47 7D       		.byte	0x7d
 2306 0c48 00       		.sleb128 0
 2307 0c49 02       		.byte	0x2
 2308 0c4a 77       		.byte	0x77
 2309 0c4b 00       		.sleb128 0
 2310 0c4c 00       		.byte	0
 2311 0c4d 20       		.uleb128 0x20
 2312 0c4e 56000000 		.4byte	.LVL62
 2313 0c52 540D0000 		.4byte	0xd54
 2314 0c56 00       		.byte	0
 2315 0c57 25       		.uleb128 0x25
 2316 0c58 01       		.byte	0x1
 2317 0c59 D7050000 		.4byte	.LASF129
 2318 0c5d 01       		.byte	0x1
 2319 0c5e 0D01     		.2byte	0x10d
 2320 0c60 01       		.byte	0x1
 2321 0c61 00000000 		.4byte	.LFB70
 2322 0c65 20000000 		.4byte	.LFE70
 2323 0c69 57040000 		.4byte	.LLST28
 2324 0c6d 01       		.byte	0x1
 2325 0c6e AB0C0000 		.4byte	0xcab
 2326 0c72 26       		.uleb128 0x26
 2327 0c73 D5000000 		.4byte	.LASF119
 2328 0c77 01       		.byte	0x1
 2329 0c78 0D01     		.2byte	0x10d
 2330 0c7a 30080000 		.4byte	0x830
 2331 0c7e 77040000 		.4byte	.LLST29
 2332 0c82 27       		.uleb128 0x27
 2333 0c83 12000000 		.4byte	.LVL69
 2334 0c87 01       		.byte	0x1
 2335 0c88 D70D0000 		.4byte	0xdd7
 2336 0c8c 970C0000 		.4byte	0xc97
 2337 0c90 1B       		.uleb128 0x1b
 2338 0c91 01       		.byte	0x1
 2339 0c92 50       		.byte	0x50
 2340 0c93 02       		.byte	0x2
 2341 0c94 74       		.byte	0x74
 2342 0c95 0C       		.sleb128 12
 2343 0c96 00       		.byte	0
 2344 0c97 21       		.uleb128 0x21
 2345 0c98 18000000 		.4byte	.LVL71
 2346 0c9c 210D0000 		.4byte	0xd21
 2347 0ca0 1B       		.uleb128 0x1b
 2348 0ca1 01       		.byte	0x1
 2349 0ca2 50       		.byte	0x50
 2350 0ca3 05       		.byte	0x5
ARM GAS  /tmp/ccRVAWhX.s 			page 43


 2351 0ca4 03       		.byte	0x3
 2352 0ca5 C4000000 		.4byte	.LC9
 2353 0ca9 00       		.byte	0
 2354 0caa 00       		.byte	0
 2355 0cab 25       		.uleb128 0x25
 2356 0cac 01       		.byte	0x1
 2357 0cad AF000000 		.4byte	.LASF130
 2358 0cb1 01       		.byte	0x1
 2359 0cb2 2101     		.2byte	0x121
 2360 0cb4 01       		.byte	0x1
 2361 0cb5 00000000 		.4byte	.LFB71
 2362 0cb9 18000000 		.4byte	.LFE71
 2363 0cbd AB040000 		.4byte	.LLST30
 2364 0cc1 01       		.byte	0x1
 2365 0cc2 F40C0000 		.4byte	0xcf4
 2366 0cc6 26       		.uleb128 0x26
 2367 0cc7 D5000000 		.4byte	.LASF119
 2368 0ccb 01       		.byte	0x1
 2369 0ccc 2101     		.2byte	0x121
 2370 0cce 30080000 		.4byte	0x830
 2371 0cd2 CB040000 		.4byte	.LLST31
 2372 0cd6 18       		.uleb128 0x18
 2373 0cd7 0C000000 		.4byte	.LVL74
 2374 0cdb 01       		.byte	0x1
 2375 0cdc EB0D0000 		.4byte	0xdeb
 2376 0ce0 21       		.uleb128 0x21
 2377 0ce1 12000000 		.4byte	.LVL76
 2378 0ce5 210D0000 		.4byte	0xd21
 2379 0ce9 1B       		.uleb128 0x1b
 2380 0cea 01       		.byte	0x1
 2381 0ceb 50       		.byte	0x50
 2382 0cec 05       		.byte	0x5
 2383 0ced 03       		.byte	0x3
 2384 0cee D8000000 		.4byte	.LC10
 2385 0cf2 00       		.byte	0
 2386 0cf3 00       		.byte	0
 2387 0cf4 28       		.uleb128 0x28
 2388 0cf5 C8000000 		.4byte	.LASF144
 2389 0cf9 0E       		.byte	0xe
 2390 0cfa 0706     		.2byte	0x607
 2391 0cfc 31040000 		.4byte	0x431
 2392 0d00 01       		.byte	0x1
 2393 0d01 01       		.byte	0x1
 2394 0d02 29       		.uleb128 0x29
 2395 0d03 01       		.byte	0x1
 2396 0d04 CA050000 		.4byte	.LASF133
 2397 0d08 0C       		.byte	0xc
 2398 0d09 BD01     		.2byte	0x1bd
 2399 0d0b 01       		.byte	0x1
 2400 0d0c 01       		.byte	0x1
 2401 0d0d 2A       		.uleb128 0x2a
 2402 0d0e 01       		.byte	0x1
 2403 0d0f C0050000 		.4byte	.LASF131
 2404 0d13 08       		.byte	0x8
 2405 0d14 31       		.byte	0x31
 2406 0d15 01       		.byte	0x1
 2407 0d16 01       		.byte	0x1
ARM GAS  /tmp/ccRVAWhX.s 			page 44


 2408 0d17 210D0000 		.4byte	0xd21
 2409 0d1b 2B       		.uleb128 0x2b
 2410 0d1c 15040000 		.4byte	0x415
 2411 0d20 00       		.byte	0
 2412 0d21 2A       		.uleb128 0x2a
 2413 0d22 01       		.byte	0x1
 2414 0d23 BD000000 		.4byte	.LASF132
 2415 0d27 0D       		.byte	0xd
 2416 0d28 EF       		.byte	0xef
 2417 0d29 01       		.byte	0x1
 2418 0d2a 01       		.byte	0x1
 2419 0d2b 350D0000 		.4byte	0xd35
 2420 0d2f 2B       		.uleb128 0x2b
 2421 0d30 FD030000 		.4byte	0x3fd
 2422 0d34 00       		.byte	0
 2423 0d35 2C       		.uleb128 0x2c
 2424 0d36 01       		.byte	0x1
 2425 0d37 F8030000 		.4byte	.LASF134
 2426 0d3b 0D       		.byte	0xd
 2427 0d3c E0       		.byte	0xe0
 2428 0d3d 01       		.byte	0x1
 2429 0d3e 01       		.byte	0x1
 2430 0d3f 2D       		.uleb128 0x2d
 2431 0d40 01       		.byte	0x1
 2432 0d41 70030000 		.4byte	.LASF135
 2433 0d45 0C       		.byte	0xc
 2434 0d46 BE01     		.2byte	0x1be
 2435 0d48 01       		.byte	0x1
 2436 0d49 01       		.byte	0x1
 2437 0d4a 540D0000 		.4byte	0xd54
 2438 0d4e 2B       		.uleb128 0x2b
 2439 0d4f 30080000 		.4byte	0x830
 2440 0d53 00       		.byte	0
 2441 0d54 2C       		.uleb128 0x2c
 2442 0d55 01       		.byte	0x1
 2443 0d56 07040000 		.4byte	.LASF136
 2444 0d5a 0D       		.byte	0xd
 2445 0d5b E1       		.byte	0xe1
 2446 0d5c 01       		.byte	0x1
 2447 0d5d 01       		.byte	0x1
 2448 0d5e 2D       		.uleb128 0x2d
 2449 0d5f 01       		.byte	0x1
 2450 0d60 19030000 		.4byte	.LASF137
 2451 0d64 0C       		.byte	0xc
 2452 0d65 BF01     		.2byte	0x1bf
 2453 0d67 01       		.byte	0x1
 2454 0d68 01       		.byte	0x1
 2455 0d69 730D0000 		.4byte	0xd73
 2456 0d6d 2B       		.uleb128 0x2b
 2457 0d6e 30080000 		.4byte	0x830
 2458 0d72 00       		.byte	0
 2459 0d73 2E       		.uleb128 0x2e
 2460 0d74 01       		.byte	0x1
 2461 0d75 45010000 		.4byte	.LASF138
 2462 0d79 0C       		.byte	0xc
 2463 0d7a C001     		.2byte	0x1c0
 2464 0d7c 01       		.byte	0x1
ARM GAS  /tmp/ccRVAWhX.s 			page 45


 2465 0d7d EF000000 		.4byte	0xef
 2466 0d81 01       		.byte	0x1
 2467 0d82 AA0D0000 		.4byte	0xdaa
 2468 0d86 2B       		.uleb128 0x2b
 2469 0d87 30080000 		.4byte	0x830
 2470 0d8b 2B       		.uleb128 0x2b
 2471 0d8c 49060000 		.4byte	0x649
 2472 0d90 2B       		.uleb128 0x2b
 2473 0d91 21040000 		.4byte	0x421
 2474 0d95 2B       		.uleb128 0x2b
 2475 0d96 30000000 		.4byte	0x30
 2476 0d9a 2B       		.uleb128 0x2b
 2477 0d9b 1B040000 		.4byte	0x41b
 2478 0d9f 2B       		.uleb128 0x2b
 2479 0da0 30000000 		.4byte	0x30
 2480 0da4 2B       		.uleb128 0x2b
 2481 0da5 05010000 		.4byte	0x105
 2482 0da9 00       		.byte	0
 2483 0daa 2E       		.uleb128 0x2e
 2484 0dab 01       		.byte	0x1
 2485 0dac 4F000000 		.4byte	.LASF139
 2486 0db0 0C       		.byte	0xc
 2487 0db1 C401     		.2byte	0x1c4
 2488 0db3 01       		.byte	0x1
 2489 0db4 EF000000 		.4byte	0xef
 2490 0db8 01       		.byte	0x1
 2491 0db9 D70D0000 		.4byte	0xdd7
 2492 0dbd 2B       		.uleb128 0x2b
 2493 0dbe 30080000 		.4byte	0x830
 2494 0dc2 2B       		.uleb128 0x2b
 2495 0dc3 49060000 		.4byte	0x649
 2496 0dc7 2B       		.uleb128 0x2b
 2497 0dc8 1B040000 		.4byte	0x41b
 2498 0dcc 2B       		.uleb128 0x2b
 2499 0dcd 30000000 		.4byte	0x30
 2500 0dd1 2B       		.uleb128 0x2b
 2501 0dd2 05010000 		.4byte	0x105
 2502 0dd6 00       		.byte	0
 2503 0dd7 2A       		.uleb128 0x2a
 2504 0dd8 01       		.byte	0x1
 2505 0dd9 B4030000 		.4byte	.LASF140
 2506 0ddd 08       		.byte	0x8
 2507 0dde 32       		.byte	0x32
 2508 0ddf 01       		.byte	0x1
 2509 0de0 01       		.byte	0x1
 2510 0de1 EB0D0000 		.4byte	0xdeb
 2511 0de5 2B       		.uleb128 0x2b
 2512 0de6 15040000 		.4byte	0x415
 2513 0dea 00       		.byte	0
 2514 0deb 2F       		.uleb128 0x2f
 2515 0dec 01       		.byte	0x1
 2516 0ded FA000000 		.4byte	.LASF145
 2517 0df1 08       		.byte	0x8
 2518 0df2 36       		.byte	0x36
 2519 0df3 01       		.byte	0x1
 2520 0df4 15040000 		.4byte	0x415
 2521 0df8 01       		.byte	0x1
ARM GAS  /tmp/ccRVAWhX.s 			page 46


 2522 0df9 00       		.byte	0
 2523              		.section	.debug_abbrev,"",%progbits
 2524              	.Ldebug_abbrev0:
 2525 0000 01       		.uleb128 0x1
 2526 0001 11       		.uleb128 0x11
 2527 0002 01       		.byte	0x1
 2528 0003 25       		.uleb128 0x25
 2529 0004 0E       		.uleb128 0xe
 2530 0005 13       		.uleb128 0x13
 2531 0006 0B       		.uleb128 0xb
 2532 0007 03       		.uleb128 0x3
 2533 0008 0E       		.uleb128 0xe
 2534 0009 1B       		.uleb128 0x1b
 2535 000a 0E       		.uleb128 0xe
 2536 000b 55       		.uleb128 0x55
 2537 000c 06       		.uleb128 0x6
 2538 000d 11       		.uleb128 0x11
 2539 000e 01       		.uleb128 0x1
 2540 000f 52       		.uleb128 0x52
 2541 0010 01       		.uleb128 0x1
 2542 0011 10       		.uleb128 0x10
 2543 0012 06       		.uleb128 0x6
 2544 0013 00       		.byte	0
 2545 0014 00       		.byte	0
 2546 0015 02       		.uleb128 0x2
 2547 0016 24       		.uleb128 0x24
 2548 0017 00       		.byte	0
 2549 0018 0B       		.uleb128 0xb
 2550 0019 0B       		.uleb128 0xb
 2551 001a 3E       		.uleb128 0x3e
 2552 001b 0B       		.uleb128 0xb
 2553 001c 03       		.uleb128 0x3
 2554 001d 08       		.uleb128 0x8
 2555 001e 00       		.byte	0
 2556 001f 00       		.byte	0
 2557 0020 03       		.uleb128 0x3
 2558 0021 16       		.uleb128 0x16
 2559 0022 00       		.byte	0
 2560 0023 03       		.uleb128 0x3
 2561 0024 0E       		.uleb128 0xe
 2562 0025 3A       		.uleb128 0x3a
 2563 0026 0B       		.uleb128 0xb
 2564 0027 3B       		.uleb128 0x3b
 2565 0028 0B       		.uleb128 0xb
 2566 0029 49       		.uleb128 0x49
 2567 002a 13       		.uleb128 0x13
 2568 002b 00       		.byte	0
 2569 002c 00       		.byte	0
 2570 002d 04       		.uleb128 0x4
 2571 002e 24       		.uleb128 0x24
 2572 002f 00       		.byte	0
 2573 0030 0B       		.uleb128 0xb
 2574 0031 0B       		.uleb128 0xb
 2575 0032 3E       		.uleb128 0x3e
 2576 0033 0B       		.uleb128 0xb
 2577 0034 03       		.uleb128 0x3
 2578 0035 0E       		.uleb128 0xe
ARM GAS  /tmp/ccRVAWhX.s 			page 47


 2579 0036 00       		.byte	0
 2580 0037 00       		.byte	0
 2581 0038 05       		.uleb128 0x5
 2582 0039 13       		.uleb128 0x13
 2583 003a 01       		.byte	0x1
 2584 003b 03       		.uleb128 0x3
 2585 003c 0E       		.uleb128 0xe
 2586 003d 0B       		.uleb128 0xb
 2587 003e 0B       		.uleb128 0xb
 2588 003f 3A       		.uleb128 0x3a
 2589 0040 0B       		.uleb128 0xb
 2590 0041 3B       		.uleb128 0x3b
 2591 0042 0B       		.uleb128 0xb
 2592 0043 01       		.uleb128 0x1
 2593 0044 13       		.uleb128 0x13
 2594 0045 00       		.byte	0
 2595 0046 00       		.byte	0
 2596 0047 06       		.uleb128 0x6
 2597 0048 0D       		.uleb128 0xd
 2598 0049 00       		.byte	0
 2599 004a 03       		.uleb128 0x3
 2600 004b 0E       		.uleb128 0xe
 2601 004c 3A       		.uleb128 0x3a
 2602 004d 0B       		.uleb128 0xb
 2603 004e 3B       		.uleb128 0x3b
 2604 004f 0B       		.uleb128 0xb
 2605 0050 49       		.uleb128 0x49
 2606 0051 13       		.uleb128 0x13
 2607 0052 38       		.uleb128 0x38
 2608 0053 0A       		.uleb128 0xa
 2609 0054 00       		.byte	0
 2610 0055 00       		.byte	0
 2611 0056 07       		.uleb128 0x7
 2612 0057 0D       		.uleb128 0xd
 2613 0058 00       		.byte	0
 2614 0059 03       		.uleb128 0x3
 2615 005a 08       		.uleb128 0x8
 2616 005b 3A       		.uleb128 0x3a
 2617 005c 0B       		.uleb128 0xb
 2618 005d 3B       		.uleb128 0x3b
 2619 005e 0B       		.uleb128 0xb
 2620 005f 49       		.uleb128 0x49
 2621 0060 13       		.uleb128 0x13
 2622 0061 38       		.uleb128 0x38
 2623 0062 0A       		.uleb128 0xa
 2624 0063 00       		.byte	0
 2625 0064 00       		.byte	0
 2626 0065 08       		.uleb128 0x8
 2627 0066 13       		.uleb128 0x13
 2628 0067 01       		.byte	0x1
 2629 0068 0B       		.uleb128 0xb
 2630 0069 0B       		.uleb128 0xb
 2631 006a 3A       		.uleb128 0x3a
 2632 006b 0B       		.uleb128 0xb
 2633 006c 3B       		.uleb128 0x3b
 2634 006d 0B       		.uleb128 0xb
 2635 006e 01       		.uleb128 0x1
ARM GAS  /tmp/ccRVAWhX.s 			page 48


 2636 006f 13       		.uleb128 0x13
 2637 0070 00       		.byte	0
 2638 0071 00       		.byte	0
 2639 0072 09       		.uleb128 0x9
 2640 0073 0F       		.uleb128 0xf
 2641 0074 00       		.byte	0
 2642 0075 0B       		.uleb128 0xb
 2643 0076 0B       		.uleb128 0xb
 2644 0077 49       		.uleb128 0x49
 2645 0078 13       		.uleb128 0x13
 2646 0079 00       		.byte	0
 2647 007a 00       		.byte	0
 2648 007b 0A       		.uleb128 0xa
 2649 007c 0F       		.uleb128 0xf
 2650 007d 00       		.byte	0
 2651 007e 0B       		.uleb128 0xb
 2652 007f 0B       		.uleb128 0xb
 2653 0080 00       		.byte	0
 2654 0081 00       		.byte	0
 2655 0082 0B       		.uleb128 0xb
 2656 0083 13       		.uleb128 0x13
 2657 0084 01       		.byte	0x1
 2658 0085 03       		.uleb128 0x3
 2659 0086 0E       		.uleb128 0xe
 2660 0087 0B       		.uleb128 0xb
 2661 0088 0B       		.uleb128 0xb
 2662 0089 3A       		.uleb128 0x3a
 2663 008a 0B       		.uleb128 0xb
 2664 008b 3B       		.uleb128 0x3b
 2665 008c 05       		.uleb128 0x5
 2666 008d 01       		.uleb128 0x1
 2667 008e 13       		.uleb128 0x13
 2668 008f 00       		.byte	0
 2669 0090 00       		.byte	0
 2670 0091 0C       		.uleb128 0xc
 2671 0092 0D       		.uleb128 0xd
 2672 0093 00       		.byte	0
 2673 0094 03       		.uleb128 0x3
 2674 0095 08       		.uleb128 0x8
 2675 0096 3A       		.uleb128 0x3a
 2676 0097 0B       		.uleb128 0xb
 2677 0098 3B       		.uleb128 0x3b
 2678 0099 05       		.uleb128 0x5
 2679 009a 49       		.uleb128 0x49
 2680 009b 13       		.uleb128 0x13
 2681 009c 38       		.uleb128 0x38
 2682 009d 0A       		.uleb128 0xa
 2683 009e 00       		.byte	0
 2684 009f 00       		.byte	0
 2685 00a0 0D       		.uleb128 0xd
 2686 00a1 35       		.uleb128 0x35
 2687 00a2 00       		.byte	0
 2688 00a3 49       		.uleb128 0x49
 2689 00a4 13       		.uleb128 0x13
 2690 00a5 00       		.byte	0
 2691 00a6 00       		.byte	0
 2692 00a7 0E       		.uleb128 0xe
ARM GAS  /tmp/ccRVAWhX.s 			page 49


 2693 00a8 17       		.uleb128 0x17
 2694 00a9 01       		.byte	0x1
 2695 00aa 0B       		.uleb128 0xb
 2696 00ab 0B       		.uleb128 0xb
 2697 00ac 3A       		.uleb128 0x3a
 2698 00ad 0B       		.uleb128 0xb
 2699 00ae 3B       		.uleb128 0x3b
 2700 00af 0B       		.uleb128 0xb
 2701 00b0 01       		.uleb128 0x1
 2702 00b1 13       		.uleb128 0x13
 2703 00b2 00       		.byte	0
 2704 00b3 00       		.byte	0
 2705 00b4 0F       		.uleb128 0xf
 2706 00b5 0D       		.uleb128 0xd
 2707 00b6 00       		.byte	0
 2708 00b7 03       		.uleb128 0x3
 2709 00b8 0E       		.uleb128 0xe
 2710 00b9 3A       		.uleb128 0x3a
 2711 00ba 0B       		.uleb128 0xb
 2712 00bb 3B       		.uleb128 0x3b
 2713 00bc 0B       		.uleb128 0xb
 2714 00bd 49       		.uleb128 0x49
 2715 00be 13       		.uleb128 0x13
 2716 00bf 00       		.byte	0
 2717 00c0 00       		.byte	0
 2718 00c1 10       		.uleb128 0x10
 2719 00c2 26       		.uleb128 0x26
 2720 00c3 00       		.byte	0
 2721 00c4 49       		.uleb128 0x49
 2722 00c5 13       		.uleb128 0x13
 2723 00c6 00       		.byte	0
 2724 00c7 00       		.byte	0
 2725 00c8 11       		.uleb128 0x11
 2726 00c9 13       		.uleb128 0x13
 2727 00ca 01       		.byte	0x1
 2728 00cb 0B       		.uleb128 0xb
 2729 00cc 0B       		.uleb128 0xb
 2730 00cd 3A       		.uleb128 0x3a
 2731 00ce 0B       		.uleb128 0xb
 2732 00cf 3B       		.uleb128 0x3b
 2733 00d0 05       		.uleb128 0x5
 2734 00d1 01       		.uleb128 0x1
 2735 00d2 13       		.uleb128 0x13
 2736 00d3 00       		.byte	0
 2737 00d4 00       		.byte	0
 2738 00d5 12       		.uleb128 0x12
 2739 00d6 0D       		.uleb128 0xd
 2740 00d7 00       		.byte	0
 2741 00d8 03       		.uleb128 0x3
 2742 00d9 0E       		.uleb128 0xe
 2743 00da 3A       		.uleb128 0x3a
 2744 00db 0B       		.uleb128 0xb
 2745 00dc 3B       		.uleb128 0x3b
 2746 00dd 05       		.uleb128 0x5
 2747 00de 49       		.uleb128 0x49
 2748 00df 13       		.uleb128 0x13
 2749 00e0 38       		.uleb128 0x38
ARM GAS  /tmp/ccRVAWhX.s 			page 50


 2750 00e1 0A       		.uleb128 0xa
 2751 00e2 00       		.byte	0
 2752 00e3 00       		.byte	0
 2753 00e4 13       		.uleb128 0x13
 2754 00e5 16       		.uleb128 0x16
 2755 00e6 00       		.byte	0
 2756 00e7 03       		.uleb128 0x3
 2757 00e8 0E       		.uleb128 0xe
 2758 00e9 3A       		.uleb128 0x3a
 2759 00ea 0B       		.uleb128 0xb
 2760 00eb 3B       		.uleb128 0x3b
 2761 00ec 05       		.uleb128 0x5
 2762 00ed 49       		.uleb128 0x49
 2763 00ee 13       		.uleb128 0x13
 2764 00ef 00       		.byte	0
 2765 00f0 00       		.byte	0
 2766 00f1 14       		.uleb128 0x14
 2767 00f2 04       		.uleb128 0x4
 2768 00f3 01       		.byte	0x1
 2769 00f4 0B       		.uleb128 0xb
 2770 00f5 0B       		.uleb128 0xb
 2771 00f6 3A       		.uleb128 0x3a
 2772 00f7 0B       		.uleb128 0xb
 2773 00f8 3B       		.uleb128 0x3b
 2774 00f9 0B       		.uleb128 0xb
 2775 00fa 01       		.uleb128 0x1
 2776 00fb 13       		.uleb128 0x13
 2777 00fc 00       		.byte	0
 2778 00fd 00       		.byte	0
 2779 00fe 15       		.uleb128 0x15
 2780 00ff 28       		.uleb128 0x28
 2781 0100 00       		.byte	0
 2782 0101 03       		.uleb128 0x3
 2783 0102 0E       		.uleb128 0xe
 2784 0103 1C       		.uleb128 0x1c
 2785 0104 0D       		.uleb128 0xd
 2786 0105 00       		.byte	0
 2787 0106 00       		.byte	0
 2788 0107 16       		.uleb128 0x16
 2789 0108 04       		.uleb128 0x4
 2790 0109 01       		.byte	0x1
 2791 010a 0B       		.uleb128 0xb
 2792 010b 0B       		.uleb128 0xb
 2793 010c 3A       		.uleb128 0x3a
 2794 010d 0B       		.uleb128 0xb
 2795 010e 3B       		.uleb128 0x3b
 2796 010f 05       		.uleb128 0x5
 2797 0110 01       		.uleb128 0x1
 2798 0111 13       		.uleb128 0x13
 2799 0112 00       		.byte	0
 2800 0113 00       		.byte	0
 2801 0114 17       		.uleb128 0x17
 2802 0115 2E       		.uleb128 0x2e
 2803 0116 01       		.byte	0x1
 2804 0117 3F       		.uleb128 0x3f
 2805 0118 0C       		.uleb128 0xc
 2806 0119 03       		.uleb128 0x3
ARM GAS  /tmp/ccRVAWhX.s 			page 51


 2807 011a 0E       		.uleb128 0xe
 2808 011b 3A       		.uleb128 0x3a
 2809 011c 0B       		.uleb128 0xb
 2810 011d 3B       		.uleb128 0x3b
 2811 011e 0B       		.uleb128 0xb
 2812 011f 27       		.uleb128 0x27
 2813 0120 0C       		.uleb128 0xc
 2814 0121 11       		.uleb128 0x11
 2815 0122 01       		.uleb128 0x1
 2816 0123 12       		.uleb128 0x12
 2817 0124 01       		.uleb128 0x1
 2818 0125 40       		.uleb128 0x40
 2819 0126 0A       		.uleb128 0xa
 2820 0127 9742     		.uleb128 0x2117
 2821 0129 0C       		.uleb128 0xc
 2822 012a 01       		.uleb128 0x1
 2823 012b 13       		.uleb128 0x13
 2824 012c 00       		.byte	0
 2825 012d 00       		.byte	0
 2826 012e 18       		.uleb128 0x18
 2827 012f 898201   		.uleb128 0x4109
 2828 0132 00       		.byte	0
 2829 0133 11       		.uleb128 0x11
 2830 0134 01       		.uleb128 0x1
 2831 0135 9542     		.uleb128 0x2115
 2832 0137 0C       		.uleb128 0xc
 2833 0138 31       		.uleb128 0x31
 2834 0139 13       		.uleb128 0x13
 2835 013a 00       		.byte	0
 2836 013b 00       		.byte	0
 2837 013c 19       		.uleb128 0x19
 2838 013d 05       		.uleb128 0x5
 2839 013e 00       		.byte	0
 2840 013f 03       		.uleb128 0x3
 2841 0140 0E       		.uleb128 0xe
 2842 0141 3A       		.uleb128 0x3a
 2843 0142 0B       		.uleb128 0xb
 2844 0143 3B       		.uleb128 0x3b
 2845 0144 0B       		.uleb128 0xb
 2846 0145 49       		.uleb128 0x49
 2847 0146 13       		.uleb128 0x13
 2848 0147 02       		.uleb128 0x2
 2849 0148 06       		.uleb128 0x6
 2850 0149 00       		.byte	0
 2851 014a 00       		.byte	0
 2852 014b 1A       		.uleb128 0x1a
 2853 014c 898201   		.uleb128 0x4109
 2854 014f 01       		.byte	0x1
 2855 0150 11       		.uleb128 0x11
 2856 0151 01       		.uleb128 0x1
 2857 0152 9542     		.uleb128 0x2115
 2858 0154 0C       		.uleb128 0xc
 2859 0155 31       		.uleb128 0x31
 2860 0156 13       		.uleb128 0x13
 2861 0157 00       		.byte	0
 2862 0158 00       		.byte	0
 2863 0159 1B       		.uleb128 0x1b
ARM GAS  /tmp/ccRVAWhX.s 			page 52


 2864 015a 8A8201   		.uleb128 0x410a
 2865 015d 00       		.byte	0
 2866 015e 02       		.uleb128 0x2
 2867 015f 0A       		.uleb128 0xa
 2868 0160 9142     		.uleb128 0x2111
 2869 0162 0A       		.uleb128 0xa
 2870 0163 00       		.byte	0
 2871 0164 00       		.byte	0
 2872 0165 1C       		.uleb128 0x1c
 2873 0166 2E       		.uleb128 0x2e
 2874 0167 01       		.byte	0x1
 2875 0168 3F       		.uleb128 0x3f
 2876 0169 0C       		.uleb128 0xc
 2877 016a 03       		.uleb128 0x3
 2878 016b 0E       		.uleb128 0xe
 2879 016c 3A       		.uleb128 0x3a
 2880 016d 0B       		.uleb128 0xb
 2881 016e 3B       		.uleb128 0x3b
 2882 016f 0B       		.uleb128 0xb
 2883 0170 27       		.uleb128 0x27
 2884 0171 0C       		.uleb128 0xc
 2885 0172 11       		.uleb128 0x11
 2886 0173 01       		.uleb128 0x1
 2887 0174 12       		.uleb128 0x12
 2888 0175 01       		.uleb128 0x1
 2889 0176 40       		.uleb128 0x40
 2890 0177 06       		.uleb128 0x6
 2891 0178 9742     		.uleb128 0x2117
 2892 017a 0C       		.uleb128 0xc
 2893 017b 01       		.uleb128 0x1
 2894 017c 13       		.uleb128 0x13
 2895 017d 00       		.byte	0
 2896 017e 00       		.byte	0
 2897 017f 1D       		.uleb128 0x1d
 2898 0180 0B       		.uleb128 0xb
 2899 0181 01       		.byte	0x1
 2900 0182 11       		.uleb128 0x11
 2901 0183 01       		.uleb128 0x1
 2902 0184 12       		.uleb128 0x12
 2903 0185 01       		.uleb128 0x1
 2904 0186 01       		.uleb128 0x1
 2905 0187 13       		.uleb128 0x13
 2906 0188 00       		.byte	0
 2907 0189 00       		.byte	0
 2908 018a 1E       		.uleb128 0x1e
 2909 018b 34       		.uleb128 0x34
 2910 018c 00       		.byte	0
 2911 018d 03       		.uleb128 0x3
 2912 018e 08       		.uleb128 0x8
 2913 018f 3A       		.uleb128 0x3a
 2914 0190 0B       		.uleb128 0xb
 2915 0191 3B       		.uleb128 0x3b
 2916 0192 0B       		.uleb128 0xb
 2917 0193 49       		.uleb128 0x49
 2918 0194 13       		.uleb128 0x13
 2919 0195 02       		.uleb128 0x2
 2920 0196 06       		.uleb128 0x6
ARM GAS  /tmp/ccRVAWhX.s 			page 53


 2921 0197 00       		.byte	0
 2922 0198 00       		.byte	0
 2923 0199 1F       		.uleb128 0x1f
 2924 019a 898201   		.uleb128 0x4109
 2925 019d 01       		.byte	0x1
 2926 019e 11       		.uleb128 0x11
 2927 019f 01       		.uleb128 0x1
 2928 01a0 31       		.uleb128 0x31
 2929 01a1 13       		.uleb128 0x13
 2930 01a2 01       		.uleb128 0x1
 2931 01a3 13       		.uleb128 0x13
 2932 01a4 00       		.byte	0
 2933 01a5 00       		.byte	0
 2934 01a6 20       		.uleb128 0x20
 2935 01a7 898201   		.uleb128 0x4109
 2936 01aa 00       		.byte	0
 2937 01ab 11       		.uleb128 0x11
 2938 01ac 01       		.uleb128 0x1
 2939 01ad 31       		.uleb128 0x31
 2940 01ae 13       		.uleb128 0x13
 2941 01af 00       		.byte	0
 2942 01b0 00       		.byte	0
 2943 01b1 21       		.uleb128 0x21
 2944 01b2 898201   		.uleb128 0x4109
 2945 01b5 01       		.byte	0x1
 2946 01b6 11       		.uleb128 0x11
 2947 01b7 01       		.uleb128 0x1
 2948 01b8 31       		.uleb128 0x31
 2949 01b9 13       		.uleb128 0x13
 2950 01ba 00       		.byte	0
 2951 01bb 00       		.byte	0
 2952 01bc 22       		.uleb128 0x22
 2953 01bd 2E       		.uleb128 0x2e
 2954 01be 01       		.byte	0x1
 2955 01bf 3F       		.uleb128 0x3f
 2956 01c0 0C       		.uleb128 0xc
 2957 01c1 03       		.uleb128 0x3
 2958 01c2 0E       		.uleb128 0xe
 2959 01c3 3A       		.uleb128 0x3a
 2960 01c4 0B       		.uleb128 0xb
 2961 01c5 3B       		.uleb128 0x3b
 2962 01c6 0B       		.uleb128 0xb
 2963 01c7 27       		.uleb128 0x27
 2964 01c8 0C       		.uleb128 0xc
 2965 01c9 49       		.uleb128 0x49
 2966 01ca 13       		.uleb128 0x13
 2967 01cb 11       		.uleb128 0x11
 2968 01cc 01       		.uleb128 0x1
 2969 01cd 12       		.uleb128 0x12
 2970 01ce 01       		.uleb128 0x1
 2971 01cf 40       		.uleb128 0x40
 2972 01d0 06       		.uleb128 0x6
 2973 01d1 9742     		.uleb128 0x2117
 2974 01d3 0C       		.uleb128 0xc
 2975 01d4 01       		.uleb128 0x1
 2976 01d5 13       		.uleb128 0x13
 2977 01d6 00       		.byte	0
ARM GAS  /tmp/ccRVAWhX.s 			page 54


 2978 01d7 00       		.byte	0
 2979 01d8 23       		.uleb128 0x23
 2980 01d9 05       		.uleb128 0x5
 2981 01da 00       		.byte	0
 2982 01db 03       		.uleb128 0x3
 2983 01dc 0E       		.uleb128 0xe
 2984 01dd 3A       		.uleb128 0x3a
 2985 01de 0B       		.uleb128 0xb
 2986 01df 3B       		.uleb128 0x3b
 2987 01e0 0B       		.uleb128 0xb
 2988 01e1 49       		.uleb128 0x49
 2989 01e2 13       		.uleb128 0x13
 2990 01e3 02       		.uleb128 0x2
 2991 01e4 0A       		.uleb128 0xa
 2992 01e5 00       		.byte	0
 2993 01e6 00       		.byte	0
 2994 01e7 24       		.uleb128 0x24
 2995 01e8 34       		.uleb128 0x34
 2996 01e9 00       		.byte	0
 2997 01ea 03       		.uleb128 0x3
 2998 01eb 0E       		.uleb128 0xe
 2999 01ec 3A       		.uleb128 0x3a
 3000 01ed 0B       		.uleb128 0xb
 3001 01ee 3B       		.uleb128 0x3b
 3002 01ef 0B       		.uleb128 0xb
 3003 01f0 49       		.uleb128 0x49
 3004 01f1 13       		.uleb128 0x13
 3005 01f2 02       		.uleb128 0x2
 3006 01f3 06       		.uleb128 0x6
 3007 01f4 00       		.byte	0
 3008 01f5 00       		.byte	0
 3009 01f6 25       		.uleb128 0x25
 3010 01f7 2E       		.uleb128 0x2e
 3011 01f8 01       		.byte	0x1
 3012 01f9 3F       		.uleb128 0x3f
 3013 01fa 0C       		.uleb128 0xc
 3014 01fb 03       		.uleb128 0x3
 3015 01fc 0E       		.uleb128 0xe
 3016 01fd 3A       		.uleb128 0x3a
 3017 01fe 0B       		.uleb128 0xb
 3018 01ff 3B       		.uleb128 0x3b
 3019 0200 05       		.uleb128 0x5
 3020 0201 27       		.uleb128 0x27
 3021 0202 0C       		.uleb128 0xc
 3022 0203 11       		.uleb128 0x11
 3023 0204 01       		.uleb128 0x1
 3024 0205 12       		.uleb128 0x12
 3025 0206 01       		.uleb128 0x1
 3026 0207 40       		.uleb128 0x40
 3027 0208 06       		.uleb128 0x6
 3028 0209 9742     		.uleb128 0x2117
 3029 020b 0C       		.uleb128 0xc
 3030 020c 01       		.uleb128 0x1
 3031 020d 13       		.uleb128 0x13
 3032 020e 00       		.byte	0
 3033 020f 00       		.byte	0
 3034 0210 26       		.uleb128 0x26
ARM GAS  /tmp/ccRVAWhX.s 			page 55


 3035 0211 05       		.uleb128 0x5
 3036 0212 00       		.byte	0
 3037 0213 03       		.uleb128 0x3
 3038 0214 0E       		.uleb128 0xe
 3039 0215 3A       		.uleb128 0x3a
 3040 0216 0B       		.uleb128 0xb
 3041 0217 3B       		.uleb128 0x3b
 3042 0218 05       		.uleb128 0x5
 3043 0219 49       		.uleb128 0x49
 3044 021a 13       		.uleb128 0x13
 3045 021b 02       		.uleb128 0x2
 3046 021c 06       		.uleb128 0x6
 3047 021d 00       		.byte	0
 3048 021e 00       		.byte	0
 3049 021f 27       		.uleb128 0x27
 3050 0220 898201   		.uleb128 0x4109
 3051 0223 01       		.byte	0x1
 3052 0224 11       		.uleb128 0x11
 3053 0225 01       		.uleb128 0x1
 3054 0226 9542     		.uleb128 0x2115
 3055 0228 0C       		.uleb128 0xc
 3056 0229 31       		.uleb128 0x31
 3057 022a 13       		.uleb128 0x13
 3058 022b 01       		.uleb128 0x1
 3059 022c 13       		.uleb128 0x13
 3060 022d 00       		.byte	0
 3061 022e 00       		.byte	0
 3062 022f 28       		.uleb128 0x28
 3063 0230 34       		.uleb128 0x34
 3064 0231 00       		.byte	0
 3065 0232 03       		.uleb128 0x3
 3066 0233 0E       		.uleb128 0xe
 3067 0234 3A       		.uleb128 0x3a
 3068 0235 0B       		.uleb128 0xb
 3069 0236 3B       		.uleb128 0x3b
 3070 0237 05       		.uleb128 0x5
 3071 0238 49       		.uleb128 0x49
 3072 0239 13       		.uleb128 0x13
 3073 023a 3F       		.uleb128 0x3f
 3074 023b 0C       		.uleb128 0xc
 3075 023c 3C       		.uleb128 0x3c
 3076 023d 0C       		.uleb128 0xc
 3077 023e 00       		.byte	0
 3078 023f 00       		.byte	0
 3079 0240 29       		.uleb128 0x29
 3080 0241 2E       		.uleb128 0x2e
 3081 0242 00       		.byte	0
 3082 0243 3F       		.uleb128 0x3f
 3083 0244 0C       		.uleb128 0xc
 3084 0245 03       		.uleb128 0x3
 3085 0246 0E       		.uleb128 0xe
 3086 0247 3A       		.uleb128 0x3a
 3087 0248 0B       		.uleb128 0xb
 3088 0249 3B       		.uleb128 0x3b
 3089 024a 05       		.uleb128 0x5
 3090 024b 27       		.uleb128 0x27
 3091 024c 0C       		.uleb128 0xc
ARM GAS  /tmp/ccRVAWhX.s 			page 56


 3092 024d 3C       		.uleb128 0x3c
 3093 024e 0C       		.uleb128 0xc
 3094 024f 00       		.byte	0
 3095 0250 00       		.byte	0
 3096 0251 2A       		.uleb128 0x2a
 3097 0252 2E       		.uleb128 0x2e
 3098 0253 01       		.byte	0x1
 3099 0254 3F       		.uleb128 0x3f
 3100 0255 0C       		.uleb128 0xc
 3101 0256 03       		.uleb128 0x3
 3102 0257 0E       		.uleb128 0xe
 3103 0258 3A       		.uleb128 0x3a
 3104 0259 0B       		.uleb128 0xb
 3105 025a 3B       		.uleb128 0x3b
 3106 025b 0B       		.uleb128 0xb
 3107 025c 27       		.uleb128 0x27
 3108 025d 0C       		.uleb128 0xc
 3109 025e 3C       		.uleb128 0x3c
 3110 025f 0C       		.uleb128 0xc
 3111 0260 01       		.uleb128 0x1
 3112 0261 13       		.uleb128 0x13
 3113 0262 00       		.byte	0
 3114 0263 00       		.byte	0
 3115 0264 2B       		.uleb128 0x2b
 3116 0265 05       		.uleb128 0x5
 3117 0266 00       		.byte	0
 3118 0267 49       		.uleb128 0x49
 3119 0268 13       		.uleb128 0x13
 3120 0269 00       		.byte	0
 3121 026a 00       		.byte	0
 3122 026b 2C       		.uleb128 0x2c
 3123 026c 2E       		.uleb128 0x2e
 3124 026d 00       		.byte	0
 3125 026e 3F       		.uleb128 0x3f
 3126 026f 0C       		.uleb128 0xc
 3127 0270 03       		.uleb128 0x3
 3128 0271 0E       		.uleb128 0xe
 3129 0272 3A       		.uleb128 0x3a
 3130 0273 0B       		.uleb128 0xb
 3131 0274 3B       		.uleb128 0x3b
 3132 0275 0B       		.uleb128 0xb
 3133 0276 27       		.uleb128 0x27
 3134 0277 0C       		.uleb128 0xc
 3135 0278 3C       		.uleb128 0x3c
 3136 0279 0C       		.uleb128 0xc
 3137 027a 00       		.byte	0
 3138 027b 00       		.byte	0
 3139 027c 2D       		.uleb128 0x2d
 3140 027d 2E       		.uleb128 0x2e
 3141 027e 01       		.byte	0x1
 3142 027f 3F       		.uleb128 0x3f
 3143 0280 0C       		.uleb128 0xc
 3144 0281 03       		.uleb128 0x3
 3145 0282 0E       		.uleb128 0xe
 3146 0283 3A       		.uleb128 0x3a
 3147 0284 0B       		.uleb128 0xb
 3148 0285 3B       		.uleb128 0x3b
ARM GAS  /tmp/ccRVAWhX.s 			page 57


 3149 0286 05       		.uleb128 0x5
 3150 0287 27       		.uleb128 0x27
 3151 0288 0C       		.uleb128 0xc
 3152 0289 3C       		.uleb128 0x3c
 3153 028a 0C       		.uleb128 0xc
 3154 028b 01       		.uleb128 0x1
 3155 028c 13       		.uleb128 0x13
 3156 028d 00       		.byte	0
 3157 028e 00       		.byte	0
 3158 028f 2E       		.uleb128 0x2e
 3159 0290 2E       		.uleb128 0x2e
 3160 0291 01       		.byte	0x1
 3161 0292 3F       		.uleb128 0x3f
 3162 0293 0C       		.uleb128 0xc
 3163 0294 03       		.uleb128 0x3
 3164 0295 0E       		.uleb128 0xe
 3165 0296 3A       		.uleb128 0x3a
 3166 0297 0B       		.uleb128 0xb
 3167 0298 3B       		.uleb128 0x3b
 3168 0299 05       		.uleb128 0x5
 3169 029a 27       		.uleb128 0x27
 3170 029b 0C       		.uleb128 0xc
 3171 029c 49       		.uleb128 0x49
 3172 029d 13       		.uleb128 0x13
 3173 029e 3C       		.uleb128 0x3c
 3174 029f 0C       		.uleb128 0xc
 3175 02a0 01       		.uleb128 0x1
 3176 02a1 13       		.uleb128 0x13
 3177 02a2 00       		.byte	0
 3178 02a3 00       		.byte	0
 3179 02a4 2F       		.uleb128 0x2f
 3180 02a5 2E       		.uleb128 0x2e
 3181 02a6 00       		.byte	0
 3182 02a7 3F       		.uleb128 0x3f
 3183 02a8 0C       		.uleb128 0xc
 3184 02a9 03       		.uleb128 0x3
 3185 02aa 0E       		.uleb128 0xe
 3186 02ab 3A       		.uleb128 0x3a
 3187 02ac 0B       		.uleb128 0xb
 3188 02ad 3B       		.uleb128 0x3b
 3189 02ae 0B       		.uleb128 0xb
 3190 02af 27       		.uleb128 0x27
 3191 02b0 0C       		.uleb128 0xc
 3192 02b1 49       		.uleb128 0x49
 3193 02b2 13       		.uleb128 0x13
 3194 02b3 3C       		.uleb128 0x3c
 3195 02b4 0C       		.uleb128 0xc
 3196 02b5 00       		.byte	0
 3197 02b6 00       		.byte	0
 3198 02b7 00       		.byte	0
 3199              		.section	.debug_loc,"",%progbits
 3200              	.Ldebug_loc0:
 3201              	.LLST0:
 3202 0000 00000000 		.4byte	.LVL1
 3203 0004 0A000000 		.4byte	.LVL2
 3204 0008 0100     		.2byte	0x1
 3205 000a 50       		.byte	0x50
ARM GAS  /tmp/ccRVAWhX.s 			page 58


 3206 000b 0A000000 		.4byte	.LVL2
 3207 000f 0D000000 		.4byte	.LVL3-1
 3208 0013 0300     		.2byte	0x3
 3209 0015 70       		.byte	0x70
 3210 0016 74       		.sleb128 -12
 3211 0017 9F       		.byte	0x9f
 3212 0018 0D000000 		.4byte	.LVL3-1
 3213 001c 0E000000 		.4byte	.LFE64
 3214 0020 0400     		.2byte	0x4
 3215 0022 F3       		.byte	0xf3
 3216 0023 01       		.uleb128 0x1
 3217 0024 50       		.byte	0x50
 3218 0025 9F       		.byte	0x9f
 3219 0026 00000000 		.4byte	0
 3220 002a 00000000 		.4byte	0
 3221              	.LLST1:
 3222 002e 00000000 		.4byte	.LFB65
 3223 0032 02000000 		.4byte	.LCFI0
 3224 0036 0200     		.2byte	0x2
 3225 0038 7D       		.byte	0x7d
 3226 0039 00       		.sleb128 0
 3227 003a 02000000 		.4byte	.LCFI0
 3228 003e 50000000 		.4byte	.LFE65
 3229 0042 0200     		.2byte	0x2
 3230 0044 7D       		.byte	0x7d
 3231 0045 10       		.sleb128 16
 3232 0046 00000000 		.4byte	0
 3233 004a 00000000 		.4byte	0
 3234              	.LLST2:
 3235 004e 00000000 		.4byte	.LVL4
 3236 0052 0A000000 		.4byte	.LVL5
 3237 0056 0100     		.2byte	0x1
 3238 0058 50       		.byte	0x50
 3239 0059 0A000000 		.4byte	.LVL5
 3240 005d 3E000000 		.4byte	.LVL14
 3241 0061 0100     		.2byte	0x1
 3242 0063 54       		.byte	0x54
 3243 0064 3E000000 		.4byte	.LVL14
 3244 0068 40000000 		.4byte	.LVL15
 3245 006c 0100     		.2byte	0x1
 3246 006e 50       		.byte	0x50
 3247 006f 40000000 		.4byte	.LVL15
 3248 0073 50000000 		.4byte	.LFE65
 3249 0077 0100     		.2byte	0x1
 3250 0079 54       		.byte	0x54
 3251 007a 00000000 		.4byte	0
 3252 007e 00000000 		.4byte	0
 3253              	.LLST3:
 3254 0082 00000000 		.4byte	.LVL4
 3255 0086 0A000000 		.4byte	.LVL5
 3256 008a 0100     		.2byte	0x1
 3257 008c 51       		.byte	0x51
 3258 008d 0A000000 		.4byte	.LVL5
 3259 0091 3E000000 		.4byte	.LVL14
 3260 0095 0100     		.2byte	0x1
 3261 0097 55       		.byte	0x55
 3262 0098 3E000000 		.4byte	.LVL14
ARM GAS  /tmp/ccRVAWhX.s 			page 59


 3263 009c 43000000 		.4byte	.LVL16-1
 3264 00a0 0100     		.2byte	0x1
 3265 00a2 51       		.byte	0x51
 3266 00a3 43000000 		.4byte	.LVL16-1
 3267 00a7 50000000 		.4byte	.LFE65
 3268 00ab 0100     		.2byte	0x1
 3269 00ad 55       		.byte	0x55
 3270 00ae 00000000 		.4byte	0
 3271 00b2 00000000 		.4byte	0
 3272              	.LLST4:
 3273 00b6 22000000 		.4byte	.LVL8
 3274 00ba 25000000 		.4byte	.LVL9-1
 3275 00be 0100     		.2byte	0x1
 3276 00c0 53       		.byte	0x53
 3277 00c1 00000000 		.4byte	0
 3278 00c5 00000000 		.4byte	0
 3279              	.LLST5:
 3280 00c9 3C000000 		.4byte	.LVL13
 3281 00cd 3E000000 		.4byte	.LVL14
 3282 00d1 0100     		.2byte	0x1
 3283 00d3 53       		.byte	0x53
 3284 00d4 00000000 		.4byte	0
 3285 00d8 00000000 		.4byte	0
 3286              	.LLST6:
 3287 00dc 00000000 		.4byte	.LFB66
 3288 00e0 02000000 		.4byte	.LCFI1
 3289 00e4 0200     		.2byte	0x2
 3290 00e6 7D       		.byte	0x7d
 3291 00e7 00       		.sleb128 0
 3292 00e8 02000000 		.4byte	.LCFI1
 3293 00ec 48000000 		.4byte	.LFE66
 3294 00f0 0200     		.2byte	0x2
 3295 00f2 7D       		.byte	0x7d
 3296 00f3 08       		.sleb128 8
 3297 00f4 00000000 		.4byte	0
 3298 00f8 00000000 		.4byte	0
 3299              	.LLST7:
 3300 00fc 00000000 		.4byte	.LVL17
 3301 0100 06000000 		.4byte	.LVL18
 3302 0104 0100     		.2byte	0x1
 3303 0106 50       		.byte	0x50
 3304 0107 06000000 		.4byte	.LVL18
 3305 010b 38000000 		.4byte	.LVL27
 3306 010f 0100     		.2byte	0x1
 3307 0111 54       		.byte	0x54
 3308 0112 38000000 		.4byte	.LVL27
 3309 0116 3A000000 		.4byte	.LVL28
 3310 011a 0100     		.2byte	0x1
 3311 011c 50       		.byte	0x50
 3312 011d 3A000000 		.4byte	.LVL28
 3313 0121 48000000 		.4byte	.LFE66
 3314 0125 0100     		.2byte	0x1
 3315 0127 54       		.byte	0x54
 3316 0128 00000000 		.4byte	0
 3317 012c 00000000 		.4byte	0
 3318              	.LLST8:
 3319 0130 1E000000 		.4byte	.LVL21
ARM GAS  /tmp/ccRVAWhX.s 			page 60


 3320 0134 21000000 		.4byte	.LVL22-1
 3321 0138 0100     		.2byte	0x1
 3322 013a 53       		.byte	0x53
 3323 013b 00000000 		.4byte	0
 3324 013f 00000000 		.4byte	0
 3325              	.LLST9:
 3326 0143 36000000 		.4byte	.LVL26
 3327 0147 38000000 		.4byte	.LVL27
 3328 014b 0100     		.2byte	0x1
 3329 014d 53       		.byte	0x53
 3330 014e 00000000 		.4byte	0
 3331 0152 00000000 		.4byte	0
 3332              	.LLST10:
 3333 0156 00000000 		.4byte	.LFB67
 3334 015a 02000000 		.4byte	.LCFI2
 3335 015e 0200     		.2byte	0x2
 3336 0160 7D       		.byte	0x7d
 3337 0161 00       		.sleb128 0
 3338 0162 02000000 		.4byte	.LCFI2
 3339 0166 18000000 		.4byte	.LFE67
 3340 016a 0200     		.2byte	0x2
 3341 016c 7D       		.byte	0x7d
 3342 016d 08       		.sleb128 8
 3343 016e 00000000 		.4byte	0
 3344 0172 00000000 		.4byte	0
 3345              	.LLST11:
 3346 0176 00000000 		.4byte	.LVL30
 3347 017a 08000000 		.4byte	.LVL31
 3348 017e 0100     		.2byte	0x1
 3349 0180 50       		.byte	0x50
 3350 0181 08000000 		.4byte	.LVL31
 3351 0185 0A000000 		.4byte	.LVL32
 3352 0189 0100     		.2byte	0x1
 3353 018b 54       		.byte	0x54
 3354 018c 0A000000 		.4byte	.LVL32
 3355 0190 0C000000 		.4byte	.LVL33
 3356 0194 0100     		.2byte	0x1
 3357 0196 50       		.byte	0x50
 3358 0197 0C000000 		.4byte	.LVL33
 3359 019b 18000000 		.4byte	.LFE67
 3360 019f 0100     		.2byte	0x1
 3361 01a1 54       		.byte	0x54
 3362 01a2 00000000 		.4byte	0
 3363 01a6 00000000 		.4byte	0
 3364              	.LLST12:
 3365 01aa 00000000 		.4byte	.LFB68
 3366 01ae 04000000 		.4byte	.LCFI3
 3367 01b2 0200     		.2byte	0x2
 3368 01b4 7D       		.byte	0x7d
 3369 01b5 00       		.sleb128 0
 3370 01b6 04000000 		.4byte	.LCFI3
 3371 01ba 06000000 		.4byte	.LCFI4
 3372 01be 0200     		.2byte	0x2
 3373 01c0 7D       		.byte	0x7d
 3374 01c1 1C       		.sleb128 28
 3375 01c2 06000000 		.4byte	.LCFI4
 3376 01c6 90000000 		.4byte	.LFE68
ARM GAS  /tmp/ccRVAWhX.s 			page 61


 3377 01ca 0200     		.2byte	0x2
 3378 01cc 7D       		.byte	0x7d
 3379 01cd 30       		.sleb128 48
 3380 01ce 00000000 		.4byte	0
 3381 01d2 00000000 		.4byte	0
 3382              	.LLST13:
 3383 01d6 00000000 		.4byte	.LVL35
 3384 01da 1A000000 		.4byte	.LVL37
 3385 01de 0100     		.2byte	0x1
 3386 01e0 50       		.byte	0x50
 3387 01e1 1A000000 		.4byte	.LVL37
 3388 01e5 6A000000 		.4byte	.LVL49
 3389 01e9 0100     		.2byte	0x1
 3390 01eb 54       		.byte	0x54
 3391 01ec 6A000000 		.4byte	.LVL49
 3392 01f0 80000000 		.4byte	.LVL51
 3393 01f4 0100     		.2byte	0x1
 3394 01f6 50       		.byte	0x50
 3395 01f7 80000000 		.4byte	.LVL51
 3396 01fb 90000000 		.4byte	.LFE68
 3397 01ff 0100     		.2byte	0x1
 3398 0201 54       		.byte	0x54
 3399 0202 00000000 		.4byte	0
 3400 0206 00000000 		.4byte	0
 3401              	.LLST14:
 3402 020a 00000000 		.4byte	.LVL35
 3403 020e 1D000000 		.4byte	.LVL38-1
 3404 0212 0100     		.2byte	0x1
 3405 0214 51       		.byte	0x51
 3406 0215 1D000000 		.4byte	.LVL38-1
 3407 0219 6A000000 		.4byte	.LVL49
 3408 021d 0400     		.2byte	0x4
 3409 021f F3       		.byte	0xf3
 3410 0220 01       		.uleb128 0x1
 3411 0221 51       		.byte	0x51
 3412 0222 9F       		.byte	0x9f
 3413 0223 6A000000 		.4byte	.LVL49
 3414 0227 80000000 		.4byte	.LVL51
 3415 022b 0100     		.2byte	0x1
 3416 022d 51       		.byte	0x51
 3417 022e 80000000 		.4byte	.LVL51
 3418 0232 90000000 		.4byte	.LFE68
 3419 0236 0400     		.2byte	0x4
 3420 0238 F3       		.byte	0xf3
 3421 0239 01       		.uleb128 0x1
 3422 023a 51       		.byte	0x51
 3423 023b 9F       		.byte	0x9f
 3424 023c 00000000 		.4byte	0
 3425 0240 00000000 		.4byte	0
 3426              	.LLST15:
 3427 0244 00000000 		.4byte	.LVL35
 3428 0248 1D000000 		.4byte	.LVL38-1
 3429 024c 0100     		.2byte	0x1
 3430 024e 52       		.byte	0x52
 3431 024f 1D000000 		.4byte	.LVL38-1
 3432 0253 6A000000 		.4byte	.LVL49
 3433 0257 0100     		.2byte	0x1
ARM GAS  /tmp/ccRVAWhX.s 			page 62


 3434 0259 5A       		.byte	0x5a
 3435 025a 6A000000 		.4byte	.LVL49
 3436 025e 80000000 		.4byte	.LVL51
 3437 0262 0100     		.2byte	0x1
 3438 0264 52       		.byte	0x52
 3439 0265 80000000 		.4byte	.LVL51
 3440 0269 90000000 		.4byte	.LFE68
 3441 026d 0100     		.2byte	0x1
 3442 026f 5A       		.byte	0x5a
 3443 0270 00000000 		.4byte	0
 3444 0274 00000000 		.4byte	0
 3445              	.LLST16:
 3446 0278 00000000 		.4byte	.LVL35
 3447 027c 18000000 		.4byte	.LVL36
 3448 0280 0100     		.2byte	0x1
 3449 0282 53       		.byte	0x53
 3450 0283 18000000 		.4byte	.LVL36
 3451 0287 6A000000 		.4byte	.LVL49
 3452 028b 0100     		.2byte	0x1
 3453 028d 59       		.byte	0x59
 3454 028e 6A000000 		.4byte	.LVL49
 3455 0292 76000000 		.4byte	.LVL50
 3456 0296 0100     		.2byte	0x1
 3457 0298 53       		.byte	0x53
 3458 0299 76000000 		.4byte	.LVL50
 3459 029d 90000000 		.4byte	.LFE68
 3460 02a1 0100     		.2byte	0x1
 3461 02a3 59       		.byte	0x59
 3462 02a4 00000000 		.4byte	0
 3463 02a8 00000000 		.4byte	0
 3464              	.LLST17:
 3465 02ac 52000000 		.4byte	.LVL44
 3466 02b0 58000000 		.4byte	.LVL45
 3467 02b4 0100     		.2byte	0x1
 3468 02b6 50       		.byte	0x50
 3469 02b7 58000000 		.4byte	.LVL45
 3470 02bb 6A000000 		.4byte	.LVL49
 3471 02bf 0100     		.2byte	0x1
 3472 02c1 55       		.byte	0x55
 3473 02c2 80000000 		.4byte	.LVL51
 3474 02c6 82000000 		.4byte	.LVL52
 3475 02ca 0100     		.2byte	0x1
 3476 02cc 50       		.byte	0x50
 3477 02cd 82000000 		.4byte	.LVL52
 3478 02d1 90000000 		.4byte	.LFE68
 3479 02d5 0100     		.2byte	0x1
 3480 02d7 55       		.byte	0x55
 3481 02d8 00000000 		.4byte	0
 3482 02dc 00000000 		.4byte	0
 3483              	.LLST18:
 3484 02e0 30000000 		.4byte	.LVL41
 3485 02e4 33000000 		.4byte	.LVL42-1
 3486 02e8 0100     		.2byte	0x1
 3487 02ea 53       		.byte	0x53
 3488 02eb 00000000 		.4byte	0
 3489 02ef 00000000 		.4byte	0
 3490              	.LLST19:
ARM GAS  /tmp/ccRVAWhX.s 			page 63


 3491 02f3 62000000 		.4byte	.LVL48
 3492 02f7 6A000000 		.4byte	.LVL49
 3493 02fb 0100     		.2byte	0x1
 3494 02fd 53       		.byte	0x53
 3495 02fe 00000000 		.4byte	0
 3496 0302 00000000 		.4byte	0
 3497              	.LLST20:
 3498 0306 00000000 		.4byte	.LFB69
 3499 030a 04000000 		.4byte	.LCFI5
 3500 030e 0200     		.2byte	0x2
 3501 0310 7D       		.byte	0x7d
 3502 0311 00       		.sleb128 0
 3503 0312 04000000 		.4byte	.LCFI5
 3504 0316 06000000 		.4byte	.LCFI6
 3505 031a 0200     		.2byte	0x2
 3506 031c 7D       		.byte	0x7d
 3507 031d 18       		.sleb128 24
 3508 031e 06000000 		.4byte	.LCFI6
 3509 0322 80000000 		.4byte	.LFE69
 3510 0326 0200     		.2byte	0x2
 3511 0328 7D       		.byte	0x7d
 3512 0329 20       		.sleb128 32
 3513 032a 00000000 		.4byte	0
 3514 032e 00000000 		.4byte	0
 3515              	.LLST21:
 3516 0332 00000000 		.4byte	.LVL53
 3517 0336 18000000 		.4byte	.LVL54
 3518 033a 0100     		.2byte	0x1
 3519 033c 50       		.byte	0x50
 3520 033d 18000000 		.4byte	.LVL54
 3521 0341 64000000 		.4byte	.LVL65
 3522 0345 0100     		.2byte	0x1
 3523 0347 54       		.byte	0x54
 3524 0348 64000000 		.4byte	.LVL65
 3525 034c 72000000 		.4byte	.LVL66
 3526 0350 0100     		.2byte	0x1
 3527 0352 50       		.byte	0x50
 3528 0353 72000000 		.4byte	.LVL66
 3529 0357 80000000 		.4byte	.LFE69
 3530 035b 0100     		.2byte	0x1
 3531 035d 54       		.byte	0x54
 3532 035e 00000000 		.4byte	0
 3533 0362 00000000 		.4byte	0
 3534              	.LLST22:
 3535 0366 00000000 		.4byte	.LVL53
 3536 036a 1B000000 		.4byte	.LVL55-1
 3537 036e 0100     		.2byte	0x1
 3538 0370 51       		.byte	0x51
 3539 0371 1B000000 		.4byte	.LVL55-1
 3540 0375 64000000 		.4byte	.LVL65
 3541 0379 0400     		.2byte	0x4
 3542 037b F3       		.byte	0xf3
 3543 037c 01       		.uleb128 0x1
 3544 037d 51       		.byte	0x51
 3545 037e 9F       		.byte	0x9f
 3546 037f 64000000 		.4byte	.LVL65
 3547 0383 72000000 		.4byte	.LVL66
ARM GAS  /tmp/ccRVAWhX.s 			page 64


 3548 0387 0100     		.2byte	0x1
 3549 0389 51       		.byte	0x51
 3550 038a 72000000 		.4byte	.LVL66
 3551 038e 80000000 		.4byte	.LFE69
 3552 0392 0400     		.2byte	0x4
 3553 0394 F3       		.byte	0xf3
 3554 0395 01       		.uleb128 0x1
 3555 0396 51       		.byte	0x51
 3556 0397 9F       		.byte	0x9f
 3557 0398 00000000 		.4byte	0
 3558 039c 00000000 		.4byte	0
 3559              	.LLST23:
 3560 03a0 00000000 		.4byte	.LVL53
 3561 03a4 1B000000 		.4byte	.LVL55-1
 3562 03a8 0100     		.2byte	0x1
 3563 03aa 52       		.byte	0x52
 3564 03ab 1B000000 		.4byte	.LVL55-1
 3565 03af 64000000 		.4byte	.LVL65
 3566 03b3 0100     		.2byte	0x1
 3567 03b5 58       		.byte	0x58
 3568 03b6 64000000 		.4byte	.LVL65
 3569 03ba 72000000 		.4byte	.LVL66
 3570 03be 0100     		.2byte	0x1
 3571 03c0 52       		.byte	0x52
 3572 03c1 72000000 		.4byte	.LVL66
 3573 03c5 80000000 		.4byte	.LFE69
 3574 03c9 0100     		.2byte	0x1
 3575 03cb 58       		.byte	0x58
 3576 03cc 00000000 		.4byte	0
 3577 03d0 00000000 		.4byte	0
 3578              	.LLST24:
 3579 03d4 00000000 		.4byte	.LVL53
 3580 03d8 1B000000 		.4byte	.LVL55-1
 3581 03dc 0100     		.2byte	0x1
 3582 03de 53       		.byte	0x53
 3583 03df 1B000000 		.4byte	.LVL55-1
 3584 03e3 64000000 		.4byte	.LVL65
 3585 03e7 0100     		.2byte	0x1
 3586 03e9 56       		.byte	0x56
 3587 03ea 64000000 		.4byte	.LVL65
 3588 03ee 72000000 		.4byte	.LVL66
 3589 03f2 0100     		.2byte	0x1
 3590 03f4 53       		.byte	0x53
 3591 03f5 72000000 		.4byte	.LVL66
 3592 03f9 80000000 		.4byte	.LFE69
 3593 03fd 0100     		.2byte	0x1
 3594 03ff 56       		.byte	0x56
 3595 0400 00000000 		.4byte	0
 3596 0404 00000000 		.4byte	0
 3597              	.LLST25:
 3598 0408 4C000000 		.4byte	.LVL61
 3599 040c 55000000 		.4byte	.LVL62-1
 3600 0410 0100     		.2byte	0x1
 3601 0412 50       		.byte	0x50
 3602 0413 55000000 		.4byte	.LVL62-1
 3603 0417 64000000 		.4byte	.LVL65
 3604 041b 0100     		.2byte	0x1
ARM GAS  /tmp/ccRVAWhX.s 			page 65


 3605 041d 55       		.byte	0x55
 3606 041e 72000000 		.4byte	.LVL66
 3607 0422 80000000 		.4byte	.LFE69
 3608 0426 0100     		.2byte	0x1
 3609 0428 50       		.byte	0x50
 3610 0429 00000000 		.4byte	0
 3611 042d 00000000 		.4byte	0
 3612              	.LLST26:
 3613 0431 2E000000 		.4byte	.LVL58
 3614 0435 31000000 		.4byte	.LVL59-1
 3615 0439 0100     		.2byte	0x1
 3616 043b 53       		.byte	0x53
 3617 043c 00000000 		.4byte	0
 3618 0440 00000000 		.4byte	0
 3619              	.LLST27:
 3620 0444 5C000000 		.4byte	.LVL64
 3621 0448 64000000 		.4byte	.LVL65
 3622 044c 0100     		.2byte	0x1
 3623 044e 53       		.byte	0x53
 3624 044f 00000000 		.4byte	0
 3625 0453 00000000 		.4byte	0
 3626              	.LLST28:
 3627 0457 00000000 		.4byte	.LFB70
 3628 045b 02000000 		.4byte	.LCFI7
 3629 045f 0200     		.2byte	0x2
 3630 0461 7D       		.byte	0x7d
 3631 0462 00       		.sleb128 0
 3632 0463 02000000 		.4byte	.LCFI7
 3633 0467 20000000 		.4byte	.LFE70
 3634 046b 0200     		.2byte	0x2
 3635 046d 7D       		.byte	0x7d
 3636 046e 08       		.sleb128 8
 3637 046f 00000000 		.4byte	0
 3638 0473 00000000 		.4byte	0
 3639              	.LLST29:
 3640 0477 00000000 		.4byte	.LVL67
 3641 047b 06000000 		.4byte	.LVL68
 3642 047f 0100     		.2byte	0x1
 3643 0481 50       		.byte	0x50
 3644 0482 06000000 		.4byte	.LVL68
 3645 0486 12000000 		.4byte	.LVL69
 3646 048a 0100     		.2byte	0x1
 3647 048c 54       		.byte	0x54
 3648 048d 12000000 		.4byte	.LVL69
 3649 0491 14000000 		.4byte	.LVL70
 3650 0495 0100     		.2byte	0x1
 3651 0497 50       		.byte	0x50
 3652 0498 14000000 		.4byte	.LVL70
 3653 049c 20000000 		.4byte	.LFE70
 3654 04a0 0100     		.2byte	0x1
 3655 04a2 54       		.byte	0x54
 3656 04a3 00000000 		.4byte	0
 3657 04a7 00000000 		.4byte	0
 3658              	.LLST30:
 3659 04ab 00000000 		.4byte	.LFB71
 3660 04af 02000000 		.4byte	.LCFI8
 3661 04b3 0200     		.2byte	0x2
ARM GAS  /tmp/ccRVAWhX.s 			page 66


 3662 04b5 7D       		.byte	0x7d
 3663 04b6 00       		.sleb128 0
 3664 04b7 02000000 		.4byte	.LCFI8
 3665 04bb 18000000 		.4byte	.LFE71
 3666 04bf 0200     		.2byte	0x2
 3667 04c1 7D       		.byte	0x7d
 3668 04c2 08       		.sleb128 8
 3669 04c3 00000000 		.4byte	0
 3670 04c7 00000000 		.4byte	0
 3671              	.LLST31:
 3672 04cb 00000000 		.4byte	.LVL72
 3673 04cf 04000000 		.4byte	.LVL73
 3674 04d3 0100     		.2byte	0x1
 3675 04d5 50       		.byte	0x50
 3676 04d6 04000000 		.4byte	.LVL73
 3677 04da 0C000000 		.4byte	.LVL74
 3678 04de 0400     		.2byte	0x4
 3679 04e0 F3       		.byte	0xf3
 3680 04e1 01       		.uleb128 0x1
 3681 04e2 50       		.byte	0x50
 3682 04e3 9F       		.byte	0x9f
 3683 04e4 0C000000 		.4byte	.LVL74
 3684 04e8 0E000000 		.4byte	.LVL75
 3685 04ec 0100     		.2byte	0x1
 3686 04ee 50       		.byte	0x50
 3687 04ef 0E000000 		.4byte	.LVL75
 3688 04f3 18000000 		.4byte	.LFE71
 3689 04f7 0400     		.2byte	0x4
 3690 04f9 F3       		.byte	0xf3
 3691 04fa 01       		.uleb128 0x1
 3692 04fb 50       		.byte	0x50
 3693 04fc 9F       		.byte	0x9f
 3694 04fd 00000000 		.4byte	0
 3695 0501 00000000 		.4byte	0
 3696              		.section	.debug_aranges,"",%progbits
 3697 0000 5C000000 		.4byte	0x5c
 3698 0004 0200     		.2byte	0x2
 3699 0006 00000000 		.4byte	.Ldebug_info0
 3700 000a 04       		.byte	0x4
 3701 000b 00       		.byte	0
 3702 000c 0000     		.2byte	0
 3703 000e 0000     		.2byte	0
 3704 0010 00000000 		.4byte	.LFB63
 3705 0014 04000000 		.4byte	.LFE63-.LFB63
 3706 0018 00000000 		.4byte	.LFB64
 3707 001c 0E000000 		.4byte	.LFE64-.LFB64
 3708 0020 00000000 		.4byte	.LFB65
 3709 0024 50000000 		.4byte	.LFE65-.LFB65
 3710 0028 00000000 		.4byte	.LFB66
 3711 002c 48000000 		.4byte	.LFE66-.LFB66
 3712 0030 00000000 		.4byte	.LFB67
 3713 0034 18000000 		.4byte	.LFE67-.LFB67
 3714 0038 00000000 		.4byte	.LFB68
 3715 003c 90000000 		.4byte	.LFE68-.LFB68
 3716 0040 00000000 		.4byte	.LFB69
 3717 0044 80000000 		.4byte	.LFE69-.LFB69
 3718 0048 00000000 		.4byte	.LFB70
ARM GAS  /tmp/ccRVAWhX.s 			page 67


 3719 004c 20000000 		.4byte	.LFE70-.LFB70
 3720 0050 00000000 		.4byte	.LFB71
 3721 0054 18000000 		.4byte	.LFE71-.LFB71
 3722 0058 00000000 		.4byte	0
 3723 005c 00000000 		.4byte	0
 3724              		.section	.debug_ranges,"",%progbits
 3725              	.Ldebug_ranges0:
 3726 0000 00000000 		.4byte	.LFB63
 3727 0004 04000000 		.4byte	.LFE63
 3728 0008 00000000 		.4byte	.LFB64
 3729 000c 0E000000 		.4byte	.LFE64
 3730 0010 00000000 		.4byte	.LFB65
 3731 0014 50000000 		.4byte	.LFE65
 3732 0018 00000000 		.4byte	.LFB66
 3733 001c 48000000 		.4byte	.LFE66
 3734 0020 00000000 		.4byte	.LFB67
 3735 0024 18000000 		.4byte	.LFE67
 3736 0028 00000000 		.4byte	.LFB68
 3737 002c 90000000 		.4byte	.LFE68
 3738 0030 00000000 		.4byte	.LFB69
 3739 0034 80000000 		.4byte	.LFE69
 3740 0038 00000000 		.4byte	.LFB70
 3741 003c 20000000 		.4byte	.LFE70
 3742 0040 00000000 		.4byte	.LFB71
 3743 0044 18000000 		.4byte	.LFE71
 3744 0048 00000000 		.4byte	0
 3745 004c 00000000 		.4byte	0
 3746              		.section	.debug_line,"",%progbits
 3747              	.Ldebug_line0:
 3748 0000 81030000 		.section	.debug_str,"MS",%progbits,1
 3748      02000802 
 3748      00000201 
 3748      FB0E0D00 
 3748      01010101 
 3749              	.LASF97:
 3750 0000 5354445F 		.ascii	"STD_DUTY_CYCLE\000"
 3750      44555459 
 3750      5F435943 
 3750      4C4500
 3751              	.LASF114:
 3752 000f 646D6172 		.ascii	"dmarx\000"
 3752      7800
 3753              	.LASF100:
 3754 0015 69326364 		.ascii	"i2cdutycycle_t\000"
 3754      75747963 
 3754      79636C65 
 3754      5F7400
 3755              	.LASF90:
 3756 0024 69326373 		.ascii	"i2cstate_t\000"
 3756      74617465 
 3756      5F7400
 3757              	.LASF2:
 3758 002f 73697A65 		.ascii	"size_t\000"
 3758      5F7400
 3759              	.LASF56:
 3760 0036 7264796D 		.ascii	"rdymsg\000"
 3760      736700
ARM GAS  /tmp/ccRVAWhX.s 			page 68


 3761              	.LASF13:
 3762 003d 75696E74 		.ascii	"uint64_t\000"
 3762      36345F74 
 3762      00
 3763              	.LASF85:
 3764 0046 4932435F 		.ascii	"I2C_STOP\000"
 3764      53544F50 
 3764      00
 3765              	.LASF139:
 3766 004f 6932635F 		.ascii	"i2c_lld_master_receive_timeout\000"
 3766      6C6C645F 
 3766      6D617374 
 3766      65725F72 
 3766      65636569 
 3767              	.LASF75:
 3768 006e 54524953 		.ascii	"TRISE\000"
 3768      4500
 3769              	.LASF125:
 3770 0074 72786275 		.ascii	"rxbuf\000"
 3770      6600
 3771              	.LASF14:
 3772 007a 6C6F6E67 		.ascii	"long long unsigned int\000"
 3772      206C6F6E 
 3772      6720756E 
 3772      7369676E 
 3772      65642069 
 3773              	.LASF111:
 3774 0091 61646472 		.ascii	"addr\000"
 3774      00
 3775              	.LASF118:
 3776 0096 69326353 		.ascii	"i2cStart\000"
 3776      74617274 
 3776      00
 3777              	.LASF57:
 3778 009f 65786974 		.ascii	"exitcode\000"
 3778      636F6465 
 3778      00
 3779              	.LASF82:
 3780 00a8 76656374 		.ascii	"vector\000"
 3780      6F7200
 3781              	.LASF130:
 3782 00af 69326352 		.ascii	"i2cReleaseBus\000"
 3782      656C6561 
 3782      73654275 
 3782      7300
 3783              	.LASF132:
 3784 00bd 63684462 		.ascii	"chDbgPanic\000"
 3784      6750616E 
 3784      696300
 3785              	.LASF144:
 3786 00c8 49544D5F 		.ascii	"ITM_RxBuffer\000"
 3786      52784275 
 3786      66666572 
 3786      00
 3787              	.LASF119:
 3788 00d5 69326370 		.ascii	"i2cp\000"
 3788      00
ARM GAS  /tmp/ccRVAWhX.s 			page 69


 3789              	.LASF27:
 3790 00da 705F7072 		.ascii	"p_prio\000"
 3790      696F00
 3791              	.LASF122:
 3792 00e1 6932634D 		.ascii	"i2cMasterTransmitTimeout\000"
 3792      61737465 
 3792      72547261 
 3792      6E736D69 
 3792      7454696D 
 3793              	.LASF145:
 3794 00fa 63684D74 		.ascii	"chMtxUnlock\000"
 3794      78556E6C 
 3794      6F636B00 
 3795              	.LASF1:
 3796 0106 7369676E 		.ascii	"signed char\000"
 3796      65642063 
 3796      68617200 
 3797              	.LASF102:
 3798 0112 636C6F63 		.ascii	"clock_speed\000"
 3798      6B5F7370 
 3798      65656400 
 3799              	.LASF142:
 3800 011e 2E2E2F2E 		.ascii	"../../os/hal/src/i2c.c\000"
 3800      2E2F6F73 
 3800      2F68616C 
 3800      2F737263 
 3800      2F693263 
 3801              	.LASF44:
 3802 0135 705F6D70 		.ascii	"p_mpool\000"
 3802      6F6F6C00 
 3803              	.LASF53:
 3804 013d 6D5F7175 		.ascii	"m_queue\000"
 3804      65756500 
 3805              	.LASF138:
 3806 0145 6932635F 		.ascii	"i2c_lld_master_transmit_timeout\000"
 3806      6C6C645F 
 3806      6D617374 
 3806      65725F74 
 3806      72616E73 
 3807              	.LASF19:
 3808 0165 74736C69 		.ascii	"tslices_t\000"
 3808      6365735F 
 3808      7400
 3809              	.LASF141:
 3810 016f 474E5520 		.ascii	"GNU C 4.7.4 20130913 (release) [ARM/embedded-4_7-br"
 3810      4320342E 
 3810      372E3420 
 3810      32303133 
 3810      30393133 
 3811 01a2 616E6368 		.ascii	"anch revision 202601]\000"
 3811      20726576 
 3811      6973696F 
 3811      6E203230 
 3811      32363031 
 3812              	.LASF91:
 3813 01b8 69326361 		.ascii	"i2caddr_t\000"
 3813      6464725F 
ARM GAS  /tmp/ccRVAWhX.s 			page 70


 3813      7400
 3814              	.LASF106:
 3815 01c2 73746174 		.ascii	"state\000"
 3815      6500
 3816              	.LASF9:
 3817 01c8 6C6F6E67 		.ascii	"long int\000"
 3817      20696E74 
 3817      00
 3818              	.LASF17:
 3819 01d1 74737461 		.ascii	"tstate_t\000"
 3819      74655F74 
 3819      00
 3820              	.LASF110:
 3821 01da 74687265 		.ascii	"thread\000"
 3821      616400
 3822              	.LASF35:
 3823 01e1 705F7265 		.ascii	"p_refs\000"
 3823      667300
 3824              	.LASF12:
 3825 01e8 6C6F6E67 		.ascii	"long long int\000"
 3825      206C6F6E 
 3825      6720696E 
 3825      7400
 3826              	.LASF104:
 3827 01f6 49324343 		.ascii	"I2CConfig\000"
 3827      6F6E6669 
 3827      6700
 3828              	.LASF37:
 3829 0200 705F7469 		.ascii	"p_time\000"
 3829      6D6500
 3830              	.LASF29:
 3831 0207 705F6E65 		.ascii	"p_newer\000"
 3831      77657200 
 3832              	.LASF112:
 3833 020f 7278646D 		.ascii	"rxdmamode\000"
 3833      616D6F64 
 3833      6500
 3834              	.LASF115:
 3835 0219 646D6174 		.ascii	"dmatx\000"
 3835      7800
 3836              	.LASF95:
 3837 021f 4F504D4F 		.ascii	"OPMODE_SMBUS_HOST\000"
 3837      44455F53 
 3837      4D425553 
 3837      5F484F53 
 3837      5400
 3838              	.LASF47:
 3839 0231 72656761 		.ascii	"regarm_t\000"
 3839      726D5F74 
 3839      00
 3840              	.LASF81:
 3841 023a 73656C66 		.ascii	"selfindex\000"
 3841      696E6465 
 3841      7800
 3842              	.LASF101:
 3843 0244 6F705F6D 		.ascii	"op_mode\000"
 3843      6F646500 
ARM GAS  /tmp/ccRVAWhX.s 			page 71


 3844              	.LASF24:
 3845 024c 54687265 		.ascii	"Thread\000"
 3845      616400
 3846              	.LASF32:
 3847 0253 705F7374 		.ascii	"p_stklimit\000"
 3847      6B6C696D 
 3847      697400
 3848              	.LASF0:
 3849 025e 756E7369 		.ascii	"unsigned int\000"
 3849      676E6564 
 3849      20696E74 
 3849      00
 3850              	.LASF123:
 3851 026b 74786275 		.ascii	"txbuf\000"
 3851      6600
 3852              	.LASF62:
 3853 0271 43504152 		.ascii	"CPAR\000"
 3853      00
 3854              	.LASF39:
 3855 0276 705F6D73 		.ascii	"p_msgqueue\000"
 3855      67717565 
 3855      756500
 3856              	.LASF127:
 3857 0281 74696D65 		.ascii	"timeout\000"
 3857      6F757400 
 3858              	.LASF64:
 3859 0289 444D415F 		.ascii	"DMA_Channel_TypeDef\000"
 3859      4368616E 
 3859      6E656C5F 
 3859      54797065 
 3859      44656600 
 3860              	.LASF80:
 3861 029d 69736869 		.ascii	"ishift\000"
 3861      667400
 3862              	.LASF94:
 3863 02a4 4F504D4F 		.ascii	"OPMODE_SMBUS_DEVICE\000"
 3863      44455F53 
 3863      4D425553 
 3863      5F444556 
 3863      49434500 
 3864              	.LASF7:
 3865 02b8 73686F72 		.ascii	"short unsigned int\000"
 3865      7420756E 
 3865      7369676E 
 3865      65642069 
 3865      6E7400
 3866              	.LASF105:
 3867 02cb 49324344 		.ascii	"I2CDriver\000"
 3867      72697665 
 3867      7200
 3868              	.LASF21:
 3869 02d5 6D73675F 		.ascii	"msg_t\000"
 3869      7400
 3870              	.LASF16:
 3871 02db 746D6F64 		.ascii	"tmode_t\000"
 3871      655F7400 
 3872              	.LASF6:
ARM GAS  /tmp/ccRVAWhX.s 			page 72


 3873 02e3 75696E74 		.ascii	"uint16_t\000"
 3873      31365F74 
 3873      00
 3874              	.LASF46:
 3875 02ec 54687265 		.ascii	"ThreadsList\000"
 3875      6164734C 
 3875      69737400 
 3876              	.LASF22:
 3877 02f8 6576656E 		.ascii	"eventmask_t\000"
 3877      746D6173 
 3877      6B5F7400 
 3878              	.LASF5:
 3879 0304 73686F72 		.ascii	"short int\000"
 3879      7420696E 
 3879      7400
 3880              	.LASF48:
 3881 030e 73746B61 		.ascii	"stkalign_t\000"
 3881      6C69676E 
 3881      5F7400
 3882              	.LASF137:
 3883 0319 6932635F 		.ascii	"i2c_lld_stop\000"
 3883      6C6C645F 
 3883      73746F70 
 3883      00
 3884              	.LASF143:
 3885 0326 2F686F6D 		.ascii	"/home/ondra6ak/Documents/ARM/mlab-ChibiOSRT/demos/S"
 3885      652F6F6E 
 3885      64726136 
 3885      616B2F44 
 3885      6F63756D 
 3886 0359 544D3332 		.ascii	"TM32F107RxT01A--IMU01A\000"
 3886      46313037 
 3886      52785430 
 3886      31412D2D 
 3886      494D5530 
 3887              	.LASF135:
 3888 0370 6932635F 		.ascii	"i2c_lld_start\000"
 3888      6C6C645F 
 3888      73746172 
 3888      7400
 3889              	.LASF51:
 3890 037e 73697A65 		.ascii	"sizetype\000"
 3890      74797065 
 3890      00
 3891              	.LASF52:
 3892 0387 4D757465 		.ascii	"Mutex\000"
 3892      7800
 3893              	.LASF108:
 3894 038d 6572726F 		.ascii	"errors\000"
 3894      727300
 3895              	.LASF103:
 3896 0394 64757479 		.ascii	"duty_cycle\000"
 3896      5F637963 
 3896      6C6500
 3897              	.LASF99:
 3898 039f 46415354 		.ascii	"FAST_DUTY_CYCLE_16_9\000"
 3898      5F445554 
ARM GAS  /tmp/ccRVAWhX.s 			page 73


 3898      595F4359 
 3898      434C455F 
 3898      31365F39 
 3899              	.LASF140:
 3900 03b4 63684D74 		.ascii	"chMtxLock\000"
 3900      784C6F63 
 3900      6B00
 3901              	.LASF30:
 3902 03be 705F6F6C 		.ascii	"p_older\000"
 3902      64657200 
 3903              	.LASF126:
 3904 03c6 72786279 		.ascii	"rxbytes\000"
 3904      74657300 
 3905              	.LASF120:
 3906 03ce 69326353 		.ascii	"i2cStop\000"
 3906      746F7000 
 3907              	.LASF45:
 3908 03d6 54687265 		.ascii	"ThreadsQueue\000"
 3908      61647351 
 3908      75657565 
 3908      00
 3909              	.LASF113:
 3910 03e3 7478646D 		.ascii	"txdmamode\000"
 3910      616D6F64 
 3910      6500
 3911              	.LASF93:
 3912 03ed 4F504D4F 		.ascii	"OPMODE_I2C\000"
 3912      44455F49 
 3912      324300
 3913              	.LASF134:
 3914 03f8 6462675F 		.ascii	"dbg_check_lock\000"
 3914      63686563 
 3914      6B5F6C6F 
 3914      636B00
 3915              	.LASF136:
 3916 0407 6462675F 		.ascii	"dbg_check_unlock\000"
 3916      63686563 
 3916      6B5F756E 
 3916      6C6F636B 
 3916      00
 3917              	.LASF18:
 3918 0418 74726566 		.ascii	"trefs_t\000"
 3918      735F7400 
 3919              	.LASF65:
 3920 0420 52455345 		.ascii	"RESERVED0\000"
 3920      52564544 
 3920      3000
 3921              	.LASF66:
 3922 042a 52455345 		.ascii	"RESERVED1\000"
 3922      52564544 
 3922      3100
 3923              	.LASF68:
 3924 0434 52455345 		.ascii	"RESERVED2\000"
 3924      52564544 
 3924      3200
 3925              	.LASF70:
 3926 043e 52455345 		.ascii	"RESERVED3\000"
ARM GAS  /tmp/ccRVAWhX.s 			page 74


 3926      52564544 
 3926      3300
 3927              	.LASF71:
 3928 0448 52455345 		.ascii	"RESERVED4\000"
 3928      52564544 
 3928      3400
 3929              	.LASF26:
 3930 0452 705F7072 		.ascii	"p_prev\000"
 3930      657600
 3931              	.LASF73:
 3932 0459 52455345 		.ascii	"RESERVED6\000"
 3932      52564544 
 3932      3600
 3933              	.LASF74:
 3934 0463 52455345 		.ascii	"RESERVED7\000"
 3934      52564544 
 3934      3700
 3935              	.LASF76:
 3936 046d 52455345 		.ascii	"RESERVED8\000"
 3936      52564544 
 3936      3800
 3937              	.LASF20:
 3938 0477 74707269 		.ascii	"tprio_t\000"
 3938      6F5F7400 
 3939              	.LASF87:
 3940 047f 4932435F 		.ascii	"I2C_ACTIVE_TX\000"
 3940      41435449 
 3940      56455F54 
 3940      5800
 3941              	.LASF92:
 3942 048d 69326366 		.ascii	"i2cflags_t\000"
 3942      6C616773 
 3942      5F7400
 3943              	.LASF109:
 3944 0498 6D757465 		.ascii	"mutex\000"
 3944      7800
 3945              	.LASF15:
 3946 049e 5F426F6F 		.ascii	"_Bool\000"
 3946      6C00
 3947              	.LASF8:
 3948 04a4 696E7433 		.ascii	"int32_t\000"
 3948      325F7400 
 3949              	.LASF4:
 3950 04ac 756E7369 		.ascii	"unsigned char\000"
 3950      676E6564 
 3950      20636861 
 3950      7200
 3951              	.LASF83:
 3952 04ba 73746D33 		.ascii	"stm32_dma_stream_t\000"
 3952      325F646D 
 3952      615F7374 
 3952      7265616D 
 3952      5F7400
 3953              	.LASF42:
 3954 04cd 705F6D74 		.ascii	"p_mtxlist\000"
 3954      786C6973 
 3954      7400
ARM GAS  /tmp/ccRVAWhX.s 			page 75


 3955              	.LASF84:
 3956 04d7 4932435F 		.ascii	"I2C_UNINIT\000"
 3956      554E494E 
 3956      495400
 3957              	.LASF33:
 3958 04e2 705F7374 		.ascii	"p_state\000"
 3958      61746500 
 3959              	.LASF36:
 3960 04ea 705F7072 		.ascii	"p_preempt\000"
 3960      65656D70 
 3960      7400
 3961              	.LASF121:
 3962 04f4 69326347 		.ascii	"i2cGetErrors\000"
 3962      65744572 
 3962      726F7273 
 3962      00
 3963              	.LASF59:
 3964 0501 65776D61 		.ascii	"ewmask\000"
 3964      736B00
 3965              	.LASF25:
 3966 0508 705F6E65 		.ascii	"p_next\000"
 3966      787400
 3967              	.LASF34:
 3968 050f 705F666C 		.ascii	"p_flags\000"
 3968      61677300 
 3969              	.LASF98:
 3970 0517 46415354 		.ascii	"FAST_DUTY_CYCLE_2\000"
 3970      5F445554 
 3970      595F4359 
 3970      434C455F 
 3970      3200
 3971              	.LASF78:
 3972 0529 6368616E 		.ascii	"channel\000"
 3972      6E656C00 
 3973              	.LASF89:
 3974 0531 4932435F 		.ascii	"I2C_LOCKED\000"
 3974      4C4F434B 
 3974      454400
 3975              	.LASF41:
 3976 053c 705F6570 		.ascii	"p_epending\000"
 3976      656E6469 
 3976      6E6700
 3977              	.LASF79:
 3978 0547 69666372 		.ascii	"ifcr\000"
 3978      00
 3979              	.LASF72:
 3980 054c 52455345 		.ascii	"RESERVED5\000"
 3980      52564544 
 3980      3500
 3981              	.LASF10:
 3982 0556 75696E74 		.ascii	"uint32_t\000"
 3982      33325F74 
 3982      00
 3983              	.LASF88:
 3984 055f 4932435F 		.ascii	"I2C_ACTIVE_RX\000"
 3984      41435449 
 3984      56455F52 
ARM GAS  /tmp/ccRVAWhX.s 			page 76


 3984      5800
 3985              	.LASF11:
 3986 056d 6C6F6E67 		.ascii	"long unsigned int\000"
 3986      20756E73 
 3986      69676E65 
 3986      6420696E 
 3986      7400
 3987              	.LASF60:
 3988 057f 63686172 		.ascii	"char\000"
 3988      00
 3989              	.LASF107:
 3990 0584 636F6E66 		.ascii	"config\000"
 3990      696700
 3991              	.LASF55:
 3992 058b 6D5F6E65 		.ascii	"m_next\000"
 3992      787400
 3993              	.LASF23:
 3994 0592 73797374 		.ascii	"systime_t\000"
 3994      696D655F 
 3994      7400
 3995              	.LASF43:
 3996 059c 705F7265 		.ascii	"p_realprio\000"
 3996      616C7072 
 3996      696F00
 3997              	.LASF86:
 3998 05a7 4932435F 		.ascii	"I2C_READY\000"
 3998      52454144 
 3998      5900
 3999              	.LASF50:
 4000 05b1 636F6E74 		.ascii	"context\000"
 4000      65787400 
 4001              	.LASF49:
 4002 05b9 696E7463 		.ascii	"intctx\000"
 4002      747800
 4003              	.LASF131:
 4004 05c0 63684D74 		.ascii	"chMtxInit\000"
 4004      78496E69 
 4004      7400
 4005              	.LASF133:
 4006 05ca 6932635F 		.ascii	"i2c_lld_init\000"
 4006      6C6C645F 
 4006      696E6974 
 4006      00
 4007              	.LASF129:
 4008 05d7 69326341 		.ascii	"i2cAcquireBus\000"
 4008      63717569 
 4008      72654275 
 4008      7300
 4009              	.LASF61:
 4010 05e5 434E4454 		.ascii	"CNDTR\000"
 4010      5200
 4011              	.LASF63:
 4012 05eb 434D4152 		.ascii	"CMAR\000"
 4012      00
 4013              	.LASF3:
 4014 05f0 75696E74 		.ascii	"uint8_t\000"
 4014      385F7400 
ARM GAS  /tmp/ccRVAWhX.s 			page 77


 4015              	.LASF67:
 4016 05f8 4F415231 		.ascii	"OAR1\000"
 4016      00
 4017              	.LASF69:
 4018 05fd 4F415232 		.ascii	"OAR2\000"
 4018      00
 4019              	.LASF128:
 4020 0602 6932634D 		.ascii	"i2cMasterReceiveTimeout\000"
 4020      61737465 
 4020      72526563 
 4020      65697665 
 4020      54696D65 
 4021              	.LASF58:
 4022 061a 77746F62 		.ascii	"wtobjp\000"
 4022      6A7000
 4023              	.LASF31:
 4024 0621 705F6E61 		.ascii	"p_name\000"
 4024      6D6500
 4025              	.LASF116:
 4026 0628 69326349 		.ascii	"i2cInit\000"
 4026      6E697400 
 4027              	.LASF40:
 4028 0630 705F6D73 		.ascii	"p_msg\000"
 4028      6700
 4029              	.LASF77:
 4030 0636 4932435F 		.ascii	"I2C_TypeDef\000"
 4030      54797065 
 4030      44656600 
 4031              	.LASF96:
 4032 0642 6932636F 		.ascii	"i2copmode_t\000"
 4032      706D6F64 
 4032      655F7400 
 4033              	.LASF117:
 4034 064e 6932634F 		.ascii	"i2cObjectInit\000"
 4034      626A6563 
 4034      74496E69 
 4034      7400
 4035              	.LASF54:
 4036 065c 6D5F6F77 		.ascii	"m_owner\000"
 4036      6E657200 
 4037              	.LASF28:
 4038 0664 705F6374 		.ascii	"p_ctx\000"
 4038      7800
 4039              	.LASF38:
 4040 066a 705F7761 		.ascii	"p_waiting\000"
 4040      6974696E 
 4040      6700
 4041              	.LASF124:
 4042 0674 74786279 		.ascii	"txbytes\000"
 4042      74657300 
 4043              		.ident	"GCC: (GNU Tools for ARM Embedded Processors) 4.7.4 20130913 (release) [ARM/embedded-4_7-br
ARM GAS  /tmp/ccRVAWhX.s 			page 78


DEFINED SYMBOLS
                            *ABS*:00000000 i2c.c
     /tmp/ccRVAWhX.s:19     .text.i2cInit:00000000 $t
     /tmp/ccRVAWhX.s:25     .text.i2cInit:00000000 i2cInit
     /tmp/ccRVAWhX.s:41     .text.i2cObjectInit:00000000 $t
     /tmp/ccRVAWhX.s:47     .text.i2cObjectInit:00000000 i2cObjectInit
     /tmp/ccRVAWhX.s:74     .text.i2cStart:00000000 $t
     /tmp/ccRVAWhX.s:80     .text.i2cStart:00000000 i2cStart
     /tmp/ccRVAWhX.s:163    .text.i2cStart:00000048 $d
     /tmp/ccRVAWhX.s:169    .text.i2cStop:00000000 $t
     /tmp/ccRVAWhX.s:175    .text.i2cStop:00000000 i2cStop
     /tmp/ccRVAWhX.s:248    .text.i2cStop:00000040 $d
     /tmp/ccRVAWhX.s:254    .text.i2cGetErrors:00000000 $t
     /tmp/ccRVAWhX.s:260    .text.i2cGetErrors:00000000 i2cGetErrors
     /tmp/ccRVAWhX.s:292    .text.i2cGetErrors:00000014 $d
     /tmp/ccRVAWhX.s:297    .text.i2cMasterTransmitTimeout:00000000 $t
     /tmp/ccRVAWhX.s:303    .text.i2cMasterTransmitTimeout:00000000 i2cMasterTransmitTimeout
     /tmp/ccRVAWhX.s:441    .text.i2cMasterTransmitTimeout:00000088 $d
     /tmp/ccRVAWhX.s:447    .text.i2cMasterReceiveTimeout:00000000 $t
     /tmp/ccRVAWhX.s:453    .text.i2cMasterReceiveTimeout:00000000 i2cMasterReceiveTimeout
     /tmp/ccRVAWhX.s:576    .text.i2cMasterReceiveTimeout:00000078 $d
     /tmp/ccRVAWhX.s:582    .text.i2cAcquireBus:00000000 $t
     /tmp/ccRVAWhX.s:588    .text.i2cAcquireBus:00000000 i2cAcquireBus
     /tmp/ccRVAWhX.s:622    .text.i2cAcquireBus:0000001c $d
     /tmp/ccRVAWhX.s:627    .text.i2cReleaseBus:00000000 $t
     /tmp/ccRVAWhX.s:633    .text.i2cReleaseBus:00000000 i2cReleaseBus
     /tmp/ccRVAWhX.s:664    .text.i2cReleaseBus:00000014 $d
     /tmp/ccRVAWhX.s:669    .rodata.str1.4:00000000 $d
                     .debug_frame:00000010 $d
     /tmp/ccRVAWhX.s:253    .text.i2cStop:00000048 $t
     /tmp/ccRVAWhX.s:296    .text.i2cGetErrors:00000018 $t
     /tmp/ccRVAWhX.s:668    .text.i2cReleaseBus:00000018 $t

UNDEFINED SYMBOLS
i2c_lld_init
chMtxInit
chDbgPanic
dbg_check_lock
i2c_lld_start
dbg_check_unlock
i2c_lld_stop
i2c_lld_master_transmit_timeout
i2c_lld_master_receive_timeout
chMtxLock
chMtxUnlock
