ARM GAS  /tmp/cc44dd1z.s 			page 1


   1              		.syntax unified
   2              		.cpu cortex-m3
   3              		.fpu softvfp
   4              		.eabi_attribute 20, 1
   5              		.eabi_attribute 21, 1
   6              		.eabi_attribute 23, 3
   7              		.eabi_attribute 24, 1
   8              		.eabi_attribute 25, 1
   9              		.eabi_attribute 26, 1
  10              		.eabi_attribute 30, 2
  11              		.eabi_attribute 34, 1
  12              		.eabi_attribute 18, 4
  13              		.thumb
  14              		.file	"IMU01A.c"
  15              		.text
  16              	.Ltext0:
  17              		.cfi_sections	.debug_frame
  18              		.section	.text.accInit,"ax",%progbits
  19              		.align	2
  20              		.p2align 4,,15
  21              		.global	accInit
  22              		.thumb
  23              		.thumb_func
  24              		.type	accInit, %function
  25              	accInit:
  26              	.LFB63:
  27              		.file 1 "../../os/various/IMU01A.c"
  28              		.loc 1 16 0
  29              		.cfi_startproc
  30              		@ args = 0, pretend = 0, frame = 8
  31              		@ frame_needed = 0, uses_anonymous_args = 0
  32              	.LVL0:
  33 0000 30B5     		push	{r4, r5, lr}
  34              	.LCFI0:
  35              		.cfi_def_cfa_offset 12
  36              		.cfi_offset 4, -12
  37              		.cfi_offset 5, -8
  38              		.cfi_offset 14, -4
  39              		.loc 1 20 0
  40 0002 2A23     		movs	r3, #42
  41              		.loc 1 16 0
  42 0004 87B0     		sub	sp, sp, #28
  43              	.LCFI1:
  44              		.cfi_def_cfa_offset 40
  45              		.loc 1 16 0
  46 0006 0D46     		mov	r5, r1
  47              		.loc 1 21 0
  48 0008 0121     		movs	r1, #1
  49              	.LVL1:
  50              		.loc 1 16 0
  51 000a 0446     		mov	r4, r0
  52              		.loc 1 20 0
  53 000c 8DF81030 		strb	r3, [sp, #16]
  54              		.loc 1 21 0
  55 0010 8DF81110 		strb	r1, [sp, #17]
  56              		.loc 1 22 0
  57 0014 FFF7FEFF 		bl	i2cAcquireBus
ARM GAS  /tmp/cc44dd1z.s 			page 2


  58              	.LVL2:
  59              		.loc 1 23 0
  60 0018 0020     		movs	r0, #0
  61 001a 0422     		movs	r2, #4
  62 001c 0090     		str	r0, [sp, #0]
  63 001e 0190     		str	r0, [sp, #4]
  64 0020 0292     		str	r2, [sp, #8]
  65 0022 2946     		mov	r1, r5
  66 0024 2046     		mov	r0, r4
  67 0026 04AA     		add	r2, sp, #16
  68 0028 0223     		movs	r3, #2
  69 002a FFF7FEFF 		bl	i2cMasterTransmitTimeout
  70              	.LVL3:
  71 002e 0546     		mov	r5, r0
  72              	.LVL4:
  73              		.loc 1 24 0
  74 0030 2046     		mov	r0, r4
  75              	.LVL5:
  76 0032 FFF7FEFF 		bl	i2cReleaseBus
  77              	.LVL6:
  78              		.loc 1 25 0
  79 0036 1DB1     		cbz	r5, .L1
  80              		.loc 1 25 0 is_stmt 0 discriminator 1
  81 0038 2046     		mov	r0, r4
  82 003a 0249     		ldr	r1, .L7
  83 003c FFF7FEFF 		bl	i2cGetErr
  84              	.LVL7:
  85              	.L1:
  86              		.loc 1 26 0 is_stmt 1
  87 0040 07B0     		add	sp, sp, #28
  88 0042 30BD     		pop	{r4, r5, pc}
  89              	.L8:
  90              		.align	2
  91              	.L7:
  92 0044 00000000 		.word	SD2
  93              		.cfi_endproc
  94              	.LFE63:
  95              		.size	accInit, .-accInit
  96              		.global	__aeabi_ui2f
  97              		.global	__aeabi_fdiv
  98 0048 AFF30080 		.section	.text.accRead,"ax",%progbits
  98      AFF30080 
  99              		.align	2
 100              		.p2align 4,,15
 101              		.global	accRead
 102              		.thumb
 103              		.thumb_func
 104              		.type	accRead, %function
 105              	accRead:
 106              	.LFB64:
 107              		.loc 1 30 0
 108              		.cfi_startproc
 109              		@ args = 4, pretend = 0, frame = 16
 110              		@ frame_needed = 0, uses_anonymous_args = 0
 111              	.LVL8:
 112 0000 2DE9F043 		push	{r4, r5, r6, r7, r8, r9, lr}
 113              	.LCFI2:
ARM GAS  /tmp/cc44dd1z.s 			page 3


 114              		.cfi_def_cfa_offset 28
 115              		.cfi_offset 4, -28
 116              		.cfi_offset 5, -24
 117              		.cfi_offset 6, -20
 118              		.cfi_offset 7, -16
 119              		.cfi_offset 8, -12
 120              		.cfi_offset 9, -8
 121              		.cfi_offset 14, -4
 122 0004 89B0     		sub	sp, sp, #36
 123              	.LCFI3:
 124              		.cfi_def_cfa_offset 64
 125              		.loc 1 38 0
 126 0006 08AC     		add	r4, sp, #32
 127 0008 0126     		movs	r6, #1
 128              		.loc 1 30 0
 129 000a 0546     		mov	r5, r0
 130 000c 8946     		mov	r9, r1
 131              		.loc 1 38 0
 132 000e 04F8086D 		strb	r6, [r4, #-8]!
 133              		.loc 1 30 0
 134 0012 9046     		mov	r8, r2
 135 0014 1F46     		mov	r7, r3
 136              		.loc 1 39 0
 137 0016 FFF7FEFF 		bl	i2cAcquireBus
 138              	.LVL9:
 139              		.loc 1 40 0
 140 001a 04AB     		add	r3, sp, #16
 141 001c 0620     		movs	r0, #6
 142 001e 0421     		movs	r1, #4
 143 0020 0093     		str	r3, [sp, #0]
 144 0022 0190     		str	r0, [sp, #4]
 145 0024 0291     		str	r1, [sp, #8]
 146 0026 2246     		mov	r2, r4
 147 0028 2846     		mov	r0, r5
 148 002a 4946     		mov	r1, r9
 149 002c 3346     		mov	r3, r6
 150 002e FFF7FEFF 		bl	i2cMasterTransmitTimeout
 151              	.LVL10:
 152 0032 0446     		mov	r4, r0
 153              	.LVL11:
 154              		.loc 1 41 0
 155 0034 2846     		mov	r0, r5
 156              	.LVL12:
 157 0036 FFF7FEFF 		bl	i2cReleaseBus
 158              	.LVL13:
 159              		.loc 1 42 0
 160 003a 1CB1     		cbz	r4, .L10
 161              		.loc 1 42 0 is_stmt 0 discriminator 1
 162 003c 2846     		mov	r0, r5
 163 003e 1A49     		ldr	r1, .L14
 164 0040 FFF7FEFF 		bl	i2cGetErr
 165              	.LVL14:
 166              	.L10:
 167              		.loc 1 44 0 is_stmt 1
 168 0044 9DF81110 		ldrb	r1, [sp, #17]	@ zero_extendqisi2
 169 0048 9DF81000 		ldrb	r0, [sp, #16]	@ zero_extendqisi2
 170              		.loc 1 45 0
ARM GAS  /tmp/cc44dd1z.s 			page 4


 171 004c 9DF81320 		ldrb	r2, [sp, #19]	@ zero_extendqisi2
 172              		.loc 1 46 0
 173 0050 9DF81530 		ldrb	r3, [sp, #21]	@ zero_extendqisi2
 174              		.loc 1 45 0
 175 0054 9DF81250 		ldrb	r5, [sp, #18]	@ zero_extendqisi2
 176              	.LVL15:
 177              		.loc 1 46 0
 178 0058 9DF81440 		ldrb	r4, [sp, #20]	@ zero_extendqisi2
 179              	.LVL16:
 180              		.loc 1 48 0
 181 005c 41EA0020 		orr	r0, r1, r0, lsl #8
 182              		.loc 1 45 0
 183 0060 42EA0525 		orr	r5, r2, r5, lsl #8
 184              	.LVL17:
 185              		.loc 1 46 0
 186 0064 43EA0424 		orr	r4, r3, r4, lsl #8
 187              	.LVL18:
 188              		.loc 1 48 0
 189 0068 FFF7FEFF 		bl	__aeabi_ui2f
 190              	.LVL19:
 191 006c 0021     		movs	r1, #0
 192 006e C4F27A41 		movt	r1, 17530
 193 0072 FFF7FEFF 		bl	__aeabi_fdiv
 194              	.LVL20:
 195 0076 C8F80000 		str	r0, [r8, #0]	@ float
 196              		.loc 1 49 0
 197 007a 2846     		mov	r0, r5
 198 007c FFF7FEFF 		bl	__aeabi_ui2f
 199              	.LVL21:
 200 0080 0021     		movs	r1, #0
 201 0082 C4F27A41 		movt	r1, 17530
 202 0086 FFF7FEFF 		bl	__aeabi_fdiv
 203              	.LVL22:
 204 008a 3860     		str	r0, [r7, #0]	@ float
 205              		.loc 1 50 0
 206 008c 2046     		mov	r0, r4
 207 008e FFF7FEFF 		bl	__aeabi_ui2f
 208              	.LVL23:
 209 0092 0021     		movs	r1, #0
 210 0094 C4F27A41 		movt	r1, 17530
 211 0098 FFF7FEFF 		bl	__aeabi_fdiv
 212              	.LVL24:
 213 009c 1099     		ldr	r1, [sp, #64]
 214 009e 0860     		str	r0, [r1, #0]	@ float
 215              		.loc 1 51 0
 216 00a0 09B0     		add	sp, sp, #36
 217 00a2 BDE8F083 		pop	{r4, r5, r6, r7, r8, r9, pc}
 218              	.L15:
 219 00a6 00BF     		.align	2
 220              	.L14:
 221 00a8 00000000 		.word	SD2
 222              		.cfi_endproc
 223              	.LFE64:
 224              		.size	accRead, .-accRead
 225 00ac AFF30080 		.section	.text.gyroInit,"ax",%progbits
 226              		.align	2
 227              		.p2align 4,,15
ARM GAS  /tmp/cc44dd1z.s 			page 5


 228              		.global	gyroInit
 229              		.thumb
 230              		.thumb_func
 231              		.type	gyroInit, %function
 232              	gyroInit:
 233              	.LFB65:
 234              		.loc 1 55 0
 235              		.cfi_startproc
 236              		@ args = 0, pretend = 0, frame = 8
 237              		@ frame_needed = 0, uses_anonymous_args = 0
 238              	.LVL25:
 239 0000 70B5     		push	{r4, r5, r6, lr}
 240              	.LCFI4:
 241              		.cfi_def_cfa_offset 16
 242              		.cfi_offset 4, -16
 243              		.cfi_offset 5, -12
 244              		.cfi_offset 6, -8
 245              		.cfi_offset 14, -4
 246              		.loc 1 59 0
 247 0002 2023     		movs	r3, #32
 248              		.loc 1 55 0
 249 0004 86B0     		sub	sp, sp, #24
 250              	.LCFI5:
 251              		.cfi_def_cfa_offset 40
 252              		.loc 1 55 0
 253 0006 0D46     		mov	r5, r1
 254              		.loc 1 60 0
 255 0008 FF21     		movs	r1, #255
 256              	.LVL26:
 257              		.loc 1 55 0
 258 000a 0446     		mov	r4, r0
 259              		.loc 1 59 0
 260 000c 8DF81030 		strb	r3, [sp, #16]
 261              		.loc 1 60 0
 262 0010 8DF81110 		strb	r1, [sp, #17]
 263              		.loc 1 61 0
 264 0014 FFF7FEFF 		bl	i2cAcquireBus
 265              	.LVL27:
 266              		.loc 1 62 0
 267 0018 0020     		movs	r0, #0
 268 001a 0422     		movs	r2, #4
 269 001c 0090     		str	r0, [sp, #0]
 270 001e 0190     		str	r0, [sp, #4]
 271 0020 0292     		str	r2, [sp, #8]
 272 0022 2046     		mov	r0, r4
 273 0024 2946     		mov	r1, r5
 274 0026 04AA     		add	r2, sp, #16
 275 0028 0223     		movs	r3, #2
 276 002a FFF7FEFF 		bl	i2cMasterTransmitTimeout
 277              	.LVL28:
 278 002e 0646     		mov	r6, r0
 279              	.LVL29:
 280              		.loc 1 63 0
 281 0030 2046     		mov	r0, r4
 282              	.LVL30:
 283 0032 FFF7FEFF 		bl	i2cReleaseBus
 284              	.LVL31:
ARM GAS  /tmp/cc44dd1z.s 			page 6


 285              		.loc 1 64 0
 286 0036 F6B9     		cbnz	r6, .L25
 287              	.L17:
 288              		.loc 1 66 0
 289 0038 2E23     		movs	r3, #46
 290              		.loc 1 67 0
 291 003a 4021     		movs	r1, #64
 292              		.loc 1 68 0
 293 003c 2046     		mov	r0, r4
 294              		.loc 1 66 0
 295 003e 8DF81030 		strb	r3, [sp, #16]
 296              		.loc 1 67 0
 297 0042 8DF81110 		strb	r1, [sp, #17]
 298              		.loc 1 68 0
 299 0046 FFF7FEFF 		bl	i2cAcquireBus
 300              	.LVL32:
 301              		.loc 1 69 0
 302 004a 0020     		movs	r0, #0
 303 004c 0422     		movs	r2, #4
 304 004e 0090     		str	r0, [sp, #0]
 305 0050 0190     		str	r0, [sp, #4]
 306 0052 0292     		str	r2, [sp, #8]
 307 0054 2946     		mov	r1, r5
 308 0056 2046     		mov	r0, r4
 309 0058 04AA     		add	r2, sp, #16
 310 005a 0223     		movs	r3, #2
 311 005c FFF7FEFF 		bl	i2cMasterTransmitTimeout
 312              	.LVL33:
 313 0060 0546     		mov	r5, r0
 314              	.LVL34:
 315              		.loc 1 70 0
 316 0062 2046     		mov	r0, r4
 317              	.LVL35:
 318 0064 FFF7FEFF 		bl	i2cReleaseBus
 319              	.LVL36:
 320              		.loc 1 71 0
 321 0068 1DB1     		cbz	r5, .L16
 322              		.loc 1 71 0 is_stmt 0 discriminator 1
 323 006a 2046     		mov	r0, r4
 324 006c 0449     		ldr	r1, .L26
 325 006e FFF7FEFF 		bl	i2cGetErr
 326              	.LVL37:
 327              	.L16:
 328              		.loc 1 72 0 is_stmt 1
 329 0072 06B0     		add	sp, sp, #24
 330 0074 70BD     		pop	{r4, r5, r6, pc}
 331              	.LVL38:
 332              	.L25:
 333              		.loc 1 64 0 discriminator 1
 334 0076 2046     		mov	r0, r4
 335 0078 0149     		ldr	r1, .L26
 336 007a FFF7FEFF 		bl	i2cGetErr
 337              	.LVL39:
 338 007e DBE7     		b	.L17
 339              	.L27:
 340              		.align	2
 341              	.L26:
ARM GAS  /tmp/cc44dd1z.s 			page 7


 342 0080 00000000 		.word	SD2
 343              		.cfi_endproc
 344              	.LFE65:
 345              		.size	gyroInit, .-gyroInit
 346 0084 AFF30080 		.section	.text.gyroRead,"ax",%progbits
 346      AFF30080 
 346      AFF30080 
 347              		.align	2
 348              		.p2align 4,,15
 349              		.global	gyroRead
 350              		.thumb
 351              		.thumb_func
 352              		.type	gyroRead, %function
 353              	gyroRead:
 354              	.LFB66:
 355              		.loc 1 76 0
 356              		.cfi_startproc
 357              		@ args = 4, pretend = 0, frame = 24
 358              		@ frame_needed = 0, uses_anonymous_args = 0
 359              	.LVL40:
 360 0000 2DE9F04F 		push	{r4, r5, r6, r7, r8, r9, sl, fp, lr}
 361              	.LCFI6:
 362              		.cfi_def_cfa_offset 36
 363              		.cfi_offset 4, -36
 364              		.cfi_offset 5, -32
 365              		.cfi_offset 6, -28
 366              		.cfi_offset 7, -24
 367              		.cfi_offset 8, -20
 368              		.cfi_offset 9, -16
 369              		.cfi_offset 10, -12
 370              		.cfi_offset 11, -8
 371              		.cfi_offset 14, -4
 372 0004 8BB0     		sub	sp, sp, #44
 373              	.LCFI7:
 374              		.cfi_def_cfa_offset 80
 375              		.loc 1 86 0
 376 0006 0AAD     		add	r5, sp, #40
 377              		.loc 1 76 0
 378 0008 9846     		mov	r8, r3
 379              		.loc 1 86 0
 380 000a 2923     		movs	r3, #41
 381              	.LVL41:
 382              		.loc 1 76 0
 383 000c 0446     		mov	r4, r0
 384 000e 0E46     		mov	r6, r1
 385              		.loc 1 86 0
 386 0010 05F8083D 		strb	r3, [r5, #-8]!
 387              		.loc 1 76 0
 388 0014 9246     		mov	sl, r2
 389              		.loc 1 88 0
 390 0016 06AF     		add	r7, sp, #24
 391              		.loc 1 87 0
 392 0018 FFF7FEFF 		bl	i2cAcquireBus
 393              	.LVL42:
 394              		.loc 1 88 0
 395 001c 0620     		movs	r0, #6
 396 001e 0421     		movs	r1, #4
ARM GAS  /tmp/cc44dd1z.s 			page 8


 397 0020 0190     		str	r0, [sp, #4]
 398 0022 0291     		str	r1, [sp, #8]
 399 0024 0097     		str	r7, [sp, #0]
 400 0026 2046     		mov	r0, r4
 401 0028 3146     		mov	r1, r6
 402 002a 2A46     		mov	r2, r5
 403 002c 0123     		movs	r3, #1
 404 002e FFF7FEFF 		bl	i2cMasterTransmitTimeout
 405              	.LVL43:
 406              		.loc 1 89 0
 407 0032 0028     		cmp	r0, #0
 408 0034 40F0B280 		bne	.L53
 409              	.LVL44:
 410              	.L29:
 411              		.loc 1 93 0
 412 0038 0622     		movs	r2, #6
 413 003a 0423     		movs	r3, #4
 414 003c 0192     		str	r2, [sp, #4]
 415 003e 0293     		str	r3, [sp, #8]
 416              		.loc 1 92 0
 417 0040 4FF0280E 		mov	lr, #40
 418              		.loc 1 93 0
 419 0044 0097     		str	r7, [sp, #0]
 420 0046 2046     		mov	r0, r4
 421 0048 3146     		mov	r1, r6
 422 004a 2A46     		mov	r2, r5
 423 004c 0123     		movs	r3, #1
 424              		.loc 1 90 0
 425 004e 9DF81890 		ldrb	r9, [sp, #24]	@ zero_extendqisi2
 426              	.LVL45:
 427              		.loc 1 92 0
 428 0052 8DF820E0 		strb	lr, [sp, #32]
 429              		.loc 1 93 0
 430 0056 FFF7FEFF 		bl	i2cMasterTransmitTimeout
 431              	.LVL46:
 432 005a 8346     		mov	fp, r0
 433              	.LVL47:
 434              		.loc 1 94 0
 435 005c 2046     		mov	r0, r4
 436              	.LVL48:
 437 005e FFF7FEFF 		bl	i2cReleaseBus
 438              	.LVL49:
 439              		.loc 1 95 0
 440 0062 BBF1000F 		cmp	fp, #0
 441 0066 40F09480 		bne	.L54
 442              	.L30:
 443              		.loc 1 96 0
 444 006a 9DF81810 		ldrb	r1, [sp, #24]	@ zero_extendqisi2
 445              		.loc 1 99 0
 446 006e 2B22     		movs	r2, #43
 447              		.loc 1 100 0
 448 0070 2046     		mov	r0, r4
 449              		.loc 1 96 0
 450 0072 41EA092B 		orr	fp, r1, r9, lsl #8
 451              	.LVL50:
 452              		.loc 1 99 0
 453 0076 8DF82020 		strb	r2, [sp, #32]
ARM GAS  /tmp/cc44dd1z.s 			page 9


 454              		.loc 1 100 0
 455 007a FFF7FEFF 		bl	i2cAcquireBus
 456              	.LVL51:
 457              		.loc 1 101 0
 458 007e 0620     		movs	r0, #6
 459 0080 0423     		movs	r3, #4
 460 0082 0190     		str	r0, [sp, #4]
 461 0084 0293     		str	r3, [sp, #8]
 462 0086 0097     		str	r7, [sp, #0]
 463 0088 2046     		mov	r0, r4
 464 008a 3146     		mov	r1, r6
 465 008c 2A46     		mov	r2, r5
 466 008e 0123     		movs	r3, #1
 467 0090 FFF7FEFF 		bl	i2cMasterTransmitTimeout
 468              	.LVL52:
 469              		.loc 1 102 0
 470 0094 0028     		cmp	r0, #0
 471 0096 77D1     		bne	.L55
 472              	.LVL53:
 473              	.L31:
 474              		.loc 1 106 0
 475 0098 0621     		movs	r1, #6
 476 009a 0422     		movs	r2, #4
 477              		.loc 1 105 0
 478 009c 4FF02A0C 		mov	ip, #42
 479              		.loc 1 106 0
 480 00a0 0191     		str	r1, [sp, #4]
 481 00a2 0292     		str	r2, [sp, #8]
 482 00a4 3146     		mov	r1, r6
 483 00a6 2A46     		mov	r2, r5
 484 00a8 0123     		movs	r3, #1
 485 00aa 0097     		str	r7, [sp, #0]
 486 00ac 2046     		mov	r0, r4
 487              		.loc 1 105 0
 488 00ae 8DF820C0 		strb	ip, [sp, #32]
 489              		.loc 1 103 0
 490 00b2 9DF81890 		ldrb	r9, [sp, #24]	@ zero_extendqisi2
 491              	.LVL54:
 492              		.loc 1 106 0
 493 00b6 FFF7FEFF 		bl	i2cMasterTransmitTimeout
 494              	.LVL55:
 495 00ba 0346     		mov	r3, r0
 496              	.LVL56:
 497              		.loc 1 107 0
 498 00bc 2046     		mov	r0, r4
 499              	.LVL57:
 500 00be 0593     		str	r3, [sp, #20]
 501 00c0 FFF7FEFF 		bl	i2cReleaseBus
 502              	.LVL58:
 503              		.loc 1 108 0
 504 00c4 0598     		ldr	r0, [sp, #20]
 505 00c6 0028     		cmp	r0, #0
 506 00c8 59D1     		bne	.L56
 507              	.L32:
 508              		.loc 1 109 0
 509 00ca 9DF81810 		ldrb	r1, [sp, #24]	@ zero_extendqisi2
 510              		.loc 1 112 0
ARM GAS  /tmp/cc44dd1z.s 			page 10


 511 00ce 2D22     		movs	r2, #45
 512              		.loc 1 113 0
 513 00d0 2046     		mov	r0, r4
 514              		.loc 1 109 0
 515 00d2 41EA0929 		orr	r9, r1, r9, lsl #8
 516              	.LVL59:
 517              		.loc 1 112 0
 518 00d6 8DF82020 		strb	r2, [sp, #32]
 519              		.loc 1 113 0
 520 00da FFF7FEFF 		bl	i2cAcquireBus
 521              	.LVL60:
 522              		.loc 1 114 0
 523 00de 0623     		movs	r3, #6
 524 00e0 0420     		movs	r0, #4
 525 00e2 0193     		str	r3, [sp, #4]
 526 00e4 0290     		str	r0, [sp, #8]
 527 00e6 0097     		str	r7, [sp, #0]
 528 00e8 2046     		mov	r0, r4
 529 00ea 3146     		mov	r1, r6
 530 00ec 2A46     		mov	r2, r5
 531 00ee 0123     		movs	r3, #1
 532 00f0 FFF7FEFF 		bl	i2cMasterTransmitTimeout
 533              	.LVL61:
 534              		.loc 1 115 0
 535 00f4 0028     		cmp	r0, #0
 536 00f6 3DD1     		bne	.L57
 537              	.LVL62:
 538              	.L33:
 539              		.loc 1 119 0
 540 00f8 0621     		movs	r1, #6
 541 00fa 0422     		movs	r2, #4
 542 00fc 0191     		str	r1, [sp, #4]
 543 00fe 0292     		str	r2, [sp, #8]
 544 0100 3146     		mov	r1, r6
 545 0102 2A46     		mov	r2, r5
 546              		.loc 1 118 0
 547 0104 2C26     		movs	r6, #44
 548              		.loc 1 119 0
 549 0106 0097     		str	r7, [sp, #0]
 550 0108 2046     		mov	r0, r4
 551 010a 0123     		movs	r3, #1
 552              		.loc 1 118 0
 553 010c 8DF82060 		strb	r6, [sp, #32]
 554              		.loc 1 116 0
 555 0110 9DF81850 		ldrb	r5, [sp, #24]	@ zero_extendqisi2
 556              	.LVL63:
 557              		.loc 1 119 0
 558 0114 FFF7FEFF 		bl	i2cMasterTransmitTimeout
 559              	.LVL64:
 560 0118 0646     		mov	r6, r0
 561              	.LVL65:
 562              		.loc 1 120 0
 563 011a 2046     		mov	r0, r4
 564              	.LVL66:
 565 011c FFF7FEFF 		bl	i2cReleaseBus
 566              	.LVL67:
 567              		.loc 1 121 0
ARM GAS  /tmp/cc44dd1z.s 			page 11


 568 0120 1EB1     		cbz	r6, .L34
 569              		.loc 1 121 0 is_stmt 0 discriminator 1
 570 0122 2046     		mov	r0, r4
 571 0124 2049     		ldr	r1, .L58
 572 0126 FFF7FEFF 		bl	i2cGetErr
 573              	.LVL68:
 574              	.L34:
 575              		.loc 1 122 0 is_stmt 1
 576 012a 9DF81830 		ldrb	r3, [sp, #24]	@ zero_extendqisi2
 577              		.loc 1 124 0
 578 012e 5846     		mov	r0, fp
 579              		.loc 1 122 0
 580 0130 43EA0525 		orr	r5, r3, r5, lsl #8
 581              	.LVL69:
 582              		.loc 1 124 0
 583 0134 FFF7FEFF 		bl	__aeabi_ui2f
 584              	.LVL70:
 585 0138 0021     		movs	r1, #0
 586 013a C4F27A41 		movt	r1, 17530
 587 013e FFF7FEFF 		bl	__aeabi_fdiv
 588              	.LVL71:
 589 0142 CAF80000 		str	r0, [sl, #0]	@ float
 590              		.loc 1 125 0
 591 0146 4846     		mov	r0, r9
 592 0148 FFF7FEFF 		bl	__aeabi_ui2f
 593              	.LVL72:
 594 014c 0021     		movs	r1, #0
 595 014e C4F27A41 		movt	r1, 17530
 596 0152 FFF7FEFF 		bl	__aeabi_fdiv
 597              	.LVL73:
 598 0156 C8F80000 		str	r0, [r8, #0]	@ float
 599              		.loc 1 126 0
 600 015a 2846     		mov	r0, r5
 601 015c FFF7FEFF 		bl	__aeabi_ui2f
 602              	.LVL74:
 603 0160 0021     		movs	r1, #0
 604 0162 C4F27A41 		movt	r1, 17530
 605 0166 FFF7FEFF 		bl	__aeabi_fdiv
 606              	.LVL75:
 607 016a 1499     		ldr	r1, [sp, #80]
 608 016c 0860     		str	r0, [r1, #0]	@ float
 609              		.loc 1 127 0
 610 016e 0BB0     		add	sp, sp, #44
 611 0170 BDE8F08F 		pop	{r4, r5, r6, r7, r8, r9, sl, fp, pc}
 612              	.LVL76:
 613              	.L57:
 614              		.loc 1 115 0 discriminator 1
 615 0174 2046     		mov	r0, r4
 616              	.LVL77:
 617 0176 0C49     		ldr	r1, .L58
 618 0178 FFF7FEFF 		bl	i2cGetErr
 619              	.LVL78:
 620 017c BCE7     		b	.L33
 621              	.LVL79:
 622              	.L56:
 623              		.loc 1 108 0 discriminator 1
 624 017e 2046     		mov	r0, r4
ARM GAS  /tmp/cc44dd1z.s 			page 12


 625 0180 0949     		ldr	r1, .L58
 626 0182 FFF7FEFF 		bl	i2cGetErr
 627              	.LVL80:
 628 0186 A0E7     		b	.L32
 629              	.LVL81:
 630              	.L55:
 631              		.loc 1 102 0 discriminator 1
 632 0188 2046     		mov	r0, r4
 633              	.LVL82:
 634 018a 0749     		ldr	r1, .L58
 635 018c FFF7FEFF 		bl	i2cGetErr
 636              	.LVL83:
 637 0190 82E7     		b	.L31
 638              	.LVL84:
 639              	.L54:
 640              		.loc 1 95 0 discriminator 1
 641 0192 2046     		mov	r0, r4
 642 0194 0449     		ldr	r1, .L58
 643 0196 FFF7FEFF 		bl	i2cGetErr
 644              	.LVL85:
 645 019a 66E7     		b	.L30
 646              	.LVL86:
 647              	.L53:
 648              		.loc 1 89 0 discriminator 1
 649 019c 2046     		mov	r0, r4
 650              	.LVL87:
 651 019e 0249     		ldr	r1, .L58
 652 01a0 FFF7FEFF 		bl	i2cGetErr
 653              	.LVL88:
 654 01a4 48E7     		b	.L29
 655              	.L59:
 656 01a6 00BF     		.align	2
 657              	.L58:
 658 01a8 00000000 		.word	SD2
 659              		.cfi_endproc
 660              	.LFE66:
 661              		.size	gyroRead, .-gyroRead
 662 01ac AFF30080 		.section	.text.tempRead,"ax",%progbits
 663              		.align	2
 664              		.p2align 4,,15
 665              		.global	tempRead
 666              		.thumb
 667              		.thumb_func
 668              		.type	tempRead, %function
 669              	tempRead:
 670              	.LFB67:
 671              		.loc 1 131 0
 672              		.cfi_startproc
 673              		@ args = 0, pretend = 0, frame = 16
 674              		@ frame_needed = 0, uses_anonymous_args = 0
 675              	.LVL89:
 676 0000 F0B5     		push	{r4, r5, r6, r7, lr}
 677              	.LCFI8:
 678              		.cfi_def_cfa_offset 20
 679              		.cfi_offset 4, -20
 680              		.cfi_offset 5, -16
 681              		.cfi_offset 6, -12
ARM GAS  /tmp/cc44dd1z.s 			page 13


 682              		.cfi_offset 7, -8
 683              		.cfi_offset 14, -4
 684 0002 89B0     		sub	sp, sp, #36
 685              	.LCFI9:
 686              		.cfi_def_cfa_offset 56
 687              		.loc 1 136 0
 688 0004 08AC     		add	r4, sp, #32
 689 0006 2623     		movs	r3, #38
 690              		.loc 1 131 0
 691 0008 0546     		mov	r5, r0
 692              		.loc 1 136 0
 693 000a 04F8083D 		strb	r3, [r4, #-8]!
 694              		.loc 1 131 0
 695 000e 0F46     		mov	r7, r1
 696 0010 1646     		mov	r6, r2
 697              		.loc 1 137 0
 698 0012 FFF7FEFF 		bl	i2cAcquireBus
 699              	.LVL90:
 700              		.loc 1 138 0
 701 0016 05A8     		add	r0, sp, #20
 702 0018 0221     		movs	r1, #2
 703 001a 0422     		movs	r2, #4
 704 001c 0090     		str	r0, [sp, #0]
 705 001e 0191     		str	r1, [sp, #4]
 706 0020 0292     		str	r2, [sp, #8]
 707 0022 2846     		mov	r0, r5
 708 0024 2246     		mov	r2, r4
 709 0026 3946     		mov	r1, r7
 710 0028 0123     		movs	r3, #1
 711 002a FFF7FEFF 		bl	i2cMasterTransmitTimeout
 712              	.LVL91:
 713 002e 0446     		mov	r4, r0
 714              	.LVL92:
 715              		.loc 1 139 0
 716 0030 2846     		mov	r0, r5
 717              	.LVL93:
 718 0032 FFF7FEFF 		bl	i2cReleaseBus
 719              	.LVL94:
 720              		.loc 1 140 0
 721 0036 1CB1     		cbz	r4, .L61
 722              		.loc 1 140 0 is_stmt 0 discriminator 1
 723 0038 2846     		mov	r0, r5
 724 003a 0449     		ldr	r1, .L65
 725 003c FFF7FEFF 		bl	i2cGetErr
 726              	.LVL95:
 727              	.L61:
 728              		.loc 1 142 0 is_stmt 1
 729 0040 9DF81430 		ldrb	r3, [sp, #20]	@ zero_extendqisi2
 730 0044 3370     		strb	r3, [r6, #0]
 731              		.loc 1 143 0
 732 0046 09B0     		add	sp, sp, #36
 733 0048 F0BD     		pop	{r4, r5, r6, r7, pc}
 734              	.L66:
 735 004a 00BF     		.align	2
 736              	.L65:
 737 004c 00000000 		.word	SD2
 738              		.cfi_endproc
ARM GAS  /tmp/cc44dd1z.s 			page 14


 739              	.LFE67:
 740              		.size	tempRead, .-tempRead
 741              		.text
 742              	.Letext0:
 743              		.file 2 "/usr/bin/../lib/gcc/arm-none-eabi/4.7.4/include/stddef.h"
 744              		.file 3 "/usr/bin/../lib/gcc/arm-none-eabi/4.7.4/../../../../arm-none-eabi/include/stdint.h"
 745              		.file 4 "../../os/ports/GCC/ARMCMx/chtypes.h"
 746              		.file 5 "../../os/kernel/include/chlists.h"
 747              		.file 6 "../../os/kernel/include/chthreads.h"
 748              		.file 7 "../../os/ports/GCC/ARMCMx/chcore_v7m.h"
 749              		.file 8 "../../os/kernel/include/chmtx.h"
 750              		.file 9 "../../os/kernel/include/chevents.h"
 751              		.file 10 "../../os/kernel/include/chqueues.h"
 752              		.file 11 "../../os/hal/platforms/STM32F1xx/stm32f10x.h"
 753              		.file 12 "../../os/hal/platforms/STM32F1xx/stm32_dma.h"
 754              		.file 13 "../../os/hal/include/i2c.h"
 755              		.file 14 "../../os/hal/platforms/STM32/I2Cv1/i2c_lld.h"
 756              		.file 15 "../../os/hal/include/serial.h"
 757              		.file 16 "../../os/various/i2cGetErr.h"
 758              		.file 17 "../../os/ports/common/ARMCMx/CMSIS/include/core_cm3.h"
 759              		.file 18 "../../os/hal/platforms/STM32/USARTv1/serial_lld.h"
 760              		.section	.debug_info,"",%progbits
 761              	.Ldebug_info0:
 762 0000 22140000 		.4byte	0x1422
 763 0004 0200     		.2byte	0x2
 764 0006 00000000 		.4byte	.Ldebug_abbrev0
 765 000a 04       		.byte	0x4
 766 000b 01       		.uleb128 0x1
 767 000c 23010000 		.4byte	.LASF177
 768 0010 01       		.byte	0x1
 769 0011 ED060000 		.4byte	.LASF178
 770 0015 29040000 		.4byte	.LASF179
 771 0019 00000000 		.4byte	.Ldebug_ranges0+0
 772 001d 00000000 		.4byte	0
 773 0021 00000000 		.4byte	0
 774 0025 00000000 		.4byte	.Ldebug_line0
 775 0029 02       		.uleb128 0x2
 776 002a 04       		.byte	0x4
 777 002b 05       		.byte	0x5
 778 002c 696E7400 		.ascii	"int\000"
 779 0030 03       		.uleb128 0x3
 780 0031 37000000 		.4byte	.LASF2
 781 0035 02       		.byte	0x2
 782 0036 D5       		.byte	0xd5
 783 0037 3B000000 		.4byte	0x3b
 784 003b 04       		.uleb128 0x4
 785 003c 04       		.byte	0x4
 786 003d 07       		.byte	0x7
 787 003e 25020000 		.4byte	.LASF0
 788 0042 04       		.uleb128 0x4
 789 0043 01       		.byte	0x1
 790 0044 06       		.byte	0x6
 791 0045 EF000000 		.4byte	.LASF1
 792 0049 03       		.uleb128 0x3
 793 004a 9B060000 		.4byte	.LASF3
 794 004e 03       		.byte	0x3
 795 004f 2A       		.byte	0x2a
ARM GAS  /tmp/cc44dd1z.s 			page 15


 796 0050 54000000 		.4byte	0x54
 797 0054 04       		.uleb128 0x4
 798 0055 01       		.byte	0x1
 799 0056 08       		.byte	0x8
 800 0057 F9040000 		.4byte	.LASF4
 801 005b 04       		.uleb128 0x4
 802 005c 02       		.byte	0x2
 803 005d 05       		.byte	0x5
 804 005e 1D030000 		.4byte	.LASF5
 805 0062 03       		.uleb128 0x3
 806 0063 32020000 		.4byte	.LASF6
 807 0067 03       		.byte	0x3
 808 0068 36       		.byte	0x36
 809 0069 6D000000 		.4byte	0x6d
 810 006d 04       		.uleb128 0x4
 811 006e 02       		.byte	0x2
 812 006f 07       		.byte	0x7
 813 0070 B2020000 		.4byte	.LASF7
 814 0074 03       		.uleb128 0x3
 815 0075 F1040000 		.4byte	.LASF8
 816 0079 03       		.byte	0x3
 817 007a 4F       		.byte	0x4f
 818 007b 7F000000 		.4byte	0x7f
 819 007f 04       		.uleb128 0x4
 820 0080 04       		.byte	0x4
 821 0081 05       		.byte	0x5
 822 0082 81010000 		.4byte	.LASF9
 823 0086 03       		.uleb128 0x3
 824 0087 C9050000 		.4byte	.LASF10
 825 008b 03       		.byte	0x3
 826 008c 50       		.byte	0x50
 827 008d 91000000 		.4byte	0x91
 828 0091 04       		.uleb128 0x4
 829 0092 04       		.byte	0x4
 830 0093 07       		.byte	0x7
 831 0094 F7050000 		.4byte	.LASF11
 832 0098 04       		.uleb128 0x4
 833 0099 08       		.byte	0x8
 834 009a 05       		.byte	0x5
 835 009b E1000000 		.4byte	.LASF12
 836 009f 03       		.uleb128 0x3
 837 00a0 45000000 		.4byte	.LASF13
 838 00a4 03       		.byte	0x3
 839 00a5 78       		.byte	0x78
 840 00a6 AA000000 		.4byte	0xaa
 841 00aa 04       		.uleb128 0x4
 842 00ab 08       		.byte	0x8
 843 00ac 07       		.byte	0x7
 844 00ad 60000000 		.4byte	.LASF14
 845 00b1 04       		.uleb128 0x4
 846 00b2 01       		.byte	0x1
 847 00b3 02       		.byte	0x2
 848 00b4 EB040000 		.4byte	.LASF15
 849 00b8 03       		.uleb128 0x3
 850 00b9 FD020000 		.4byte	.LASF16
 851 00bd 04       		.byte	0x4
 852 00be 25       		.byte	0x25
ARM GAS  /tmp/cc44dd1z.s 			page 16


 853 00bf 49000000 		.4byte	0x49
 854 00c3 03       		.uleb128 0x3
 855 00c4 8A010000 		.4byte	.LASF17
 856 00c8 04       		.byte	0x4
 857 00c9 26       		.byte	0x26
 858 00ca 49000000 		.4byte	0x49
 859 00ce 03       		.uleb128 0x3
 860 00cf 24000000 		.4byte	.LASF18
 861 00d3 04       		.byte	0x4
 862 00d4 27       		.byte	0x27
 863 00d5 49000000 		.4byte	0x49
 864 00d9 03       		.uleb128 0x3
 865 00da 19010000 		.4byte	.LASF19
 866 00de 04       		.byte	0x4
 867 00df 28       		.byte	0x28
 868 00e0 49000000 		.4byte	0x49
 869 00e4 03       		.uleb128 0x3
 870 00e5 CA040000 		.4byte	.LASF20
 871 00e9 04       		.byte	0x4
 872 00ea 29       		.byte	0x29
 873 00eb 86000000 		.4byte	0x86
 874 00ef 03       		.uleb128 0x3
 875 00f0 DB020000 		.4byte	.LASF21
 876 00f4 04       		.byte	0x4
 877 00f5 2A       		.byte	0x2a
 878 00f6 74000000 		.4byte	0x74
 879 00fa 03       		.uleb128 0x3
 880 00fb 11030000 		.4byte	.LASF22
 881 00ff 04       		.byte	0x4
 882 0100 2C       		.byte	0x2c
 883 0101 86000000 		.4byte	0x86
 884 0105 03       		.uleb128 0x3
 885 0106 58060000 		.4byte	.LASF23
 886 010a 04       		.byte	0x4
 887 010b 2D       		.byte	0x2d
 888 010c 86000000 		.4byte	0x86
 889 0110 03       		.uleb128 0x3
 890 0111 21060000 		.4byte	.LASF24
 891 0115 04       		.byte	0x4
 892 0116 2E       		.byte	0x2e
 893 0117 86000000 		.4byte	0x86
 894 011b 03       		.uleb128 0x3
 895 011c 0C020000 		.4byte	.LASF25
 896 0120 05       		.byte	0x5
 897 0121 23       		.byte	0x23
 898 0122 26010000 		.4byte	0x126
 899 0126 05       		.uleb128 0x5
 900 0127 0C020000 		.4byte	.LASF25
 901 012b 4C       		.byte	0x4c
 902 012c 06       		.byte	0x6
 903 012d 57       		.byte	0x57
 904 012e 59020000 		.4byte	0x259
 905 0132 06       		.uleb128 0x6
 906 0133 66050000 		.4byte	.LASF26
 907 0137 06       		.byte	0x6
 908 0138 58       		.byte	0x58
 909 0139 7E020000 		.4byte	0x27e
ARM GAS  /tmp/cc44dd1z.s 			page 17


 910 013d 02       		.byte	0x2
 911 013e 23       		.byte	0x23
 912 013f 00       		.uleb128 0
 913 0140 06       		.uleb128 0x6
 914 0141 A5040000 		.4byte	.LASF27
 915 0145 06       		.byte	0x6
 916 0146 5A       		.byte	0x5a
 917 0147 7E020000 		.4byte	0x27e
 918 014b 02       		.byte	0x2
 919 014c 23       		.byte	0x23
 920 014d 04       		.uleb128 0x4
 921 014e 06       		.uleb128 0x6
 922 014f B1000000 		.4byte	.LASF28
 923 0153 06       		.byte	0x6
 924 0154 5C       		.byte	0x5c
 925 0155 E4000000 		.4byte	0xe4
 926 0159 02       		.byte	0x2
 927 015a 23       		.byte	0x23
 928 015b 08       		.uleb128 0x8
 929 015c 06       		.uleb128 0x6
 930 015d 2E070000 		.4byte	.LASF29
 931 0161 06       		.byte	0x6
 932 0162 5D       		.byte	0x5d
 933 0163 57030000 		.4byte	0x357
 934 0167 02       		.byte	0x2
 935 0168 23       		.byte	0x23
 936 0169 0C       		.uleb128 0xc
 937 016a 06       		.uleb128 0x6
 938 016b C7010000 		.4byte	.LASF30
 939 016f 06       		.byte	0x6
 940 0170 5F       		.byte	0x5f
 941 0171 7E020000 		.4byte	0x27e
 942 0175 02       		.byte	0x2
 943 0176 23       		.byte	0x23
 944 0177 10       		.uleb128 0x10
 945 0178 06       		.uleb128 0x6
 946 0179 AD030000 		.4byte	.LASF31
 947 017d 06       		.byte	0x6
 948 017e 60       		.byte	0x60
 949 017f 7E020000 		.4byte	0x27e
 950 0183 02       		.byte	0x2
 951 0184 23       		.byte	0x23
 952 0185 14       		.uleb128 0x14
 953 0186 06       		.uleb128 0x6
 954 0187 6A060000 		.4byte	.LASF32
 955 018b 06       		.byte	0x6
 956 018c 67       		.byte	0x67
 957 018d 84040000 		.4byte	0x484
 958 0191 02       		.byte	0x2
 959 0192 23       		.byte	0x23
 960 0193 18       		.uleb128 0x18
 961 0194 06       		.uleb128 0x6
 962 0195 D6030000 		.4byte	.LASF33
 963 0199 06       		.byte	0x6
 964 019a 6D       		.byte	0x6d
 965 019b 96040000 		.4byte	0x496
 966 019f 02       		.byte	0x2
ARM GAS  /tmp/cc44dd1z.s 			page 18


 967 01a0 23       		.byte	0x23
 968 01a1 1C       		.uleb128 0x1c
 969 01a2 06       		.uleb128 0x6
 970 01a3 4D050000 		.4byte	.LASF34
 971 01a7 06       		.byte	0x6
 972 01a8 72       		.byte	0x72
 973 01a9 C3000000 		.4byte	0xc3
 974 01ad 02       		.byte	0x2
 975 01ae 23       		.byte	0x23
 976 01af 20       		.uleb128 0x20
 977 01b0 06       		.uleb128 0x6
 978 01b1 6D050000 		.4byte	.LASF35
 979 01b5 06       		.byte	0x6
 980 01b6 76       		.byte	0x76
 981 01b7 B8000000 		.4byte	0xb8
 982 01bb 02       		.byte	0x2
 983 01bc 23       		.byte	0x23
 984 01bd 21       		.uleb128 0x21
 985 01be 06       		.uleb128 0x6
 986 01bf 9A010000 		.4byte	.LASF36
 987 01c3 06       		.byte	0x6
 988 01c4 7B       		.byte	0x7b
 989 01c5 CE000000 		.4byte	0xce
 990 01c9 02       		.byte	0x2
 991 01ca 23       		.byte	0x23
 992 01cb 22       		.uleb128 0x22
 993 01cc 06       		.uleb128 0x6
 994 01cd 55050000 		.4byte	.LASF37
 995 01d1 06       		.byte	0x6
 996 01d2 81       		.byte	0x81
 997 01d3 D9000000 		.4byte	0xd9
 998 01d7 02       		.byte	0x2
 999 01d8 23       		.byte	0x23
 1000 01d9 23       		.uleb128 0x23
 1001 01da 06       		.uleb128 0x6
 1002 01db B2010000 		.4byte	.LASF38
 1003 01df 06       		.byte	0x6
 1004 01e0 88       		.byte	0x88
 1005 01e1 86030000 		.4byte	0x386
 1006 01e5 02       		.byte	0x2
 1007 01e6 23       		.byte	0x23
 1008 01e7 24       		.uleb128 0x24
 1009 01e8 07       		.uleb128 0x7
 1010 01e9 705F7500 		.ascii	"p_u\000"
 1011 01ed 06       		.byte	0x6
 1012 01ee AD       		.byte	0xad
 1013 01ef 4F040000 		.4byte	0x44f
 1014 01f3 02       		.byte	0x2
 1015 01f4 23       		.byte	0x23
 1016 01f5 28       		.uleb128 0x28
 1017 01f6 06       		.uleb128 0x6
 1018 01f7 34070000 		.4byte	.LASF39
 1019 01fb 06       		.byte	0x6
 1020 01fc B2       		.byte	0xb2
 1021 01fd A6020000 		.4byte	0x2a6
 1022 0201 02       		.byte	0x2
 1023 0202 23       		.byte	0x23
ARM GAS  /tmp/cc44dd1z.s 			page 19


 1024 0203 2C       		.uleb128 0x2c
 1025 0204 06       		.uleb128 0x6
 1026 0205 67020000 		.4byte	.LASF40
 1027 0209 06       		.byte	0x6
 1028 020a B8       		.byte	0xb8
 1029 020b 84020000 		.4byte	0x284
 1030 020f 02       		.byte	0x2
 1031 0210 23       		.byte	0x23
 1032 0211 30       		.uleb128 0x30
 1033 0212 06       		.uleb128 0x6
 1034 0213 E7060000 		.4byte	.LASF41
 1035 0217 06       		.byte	0x6
 1036 0218 BC       		.byte	0xbc
 1037 0219 EF000000 		.4byte	0xef
 1038 021d 02       		.byte	0x2
 1039 021e 23       		.byte	0x23
 1040 021f 38       		.uleb128 0x38
 1041 0220 06       		.uleb128 0x6
 1042 0221 AA050000 		.4byte	.LASF42
 1043 0225 06       		.byte	0x6
 1044 0226 C2       		.byte	0xc2
 1045 0227 FA000000 		.4byte	0xfa
 1046 022b 02       		.byte	0x2
 1047 022c 23       		.byte	0x23
 1048 022d 3C       		.uleb128 0x3c
 1049 022e 06       		.uleb128 0x6
 1050 022f 38050000 		.4byte	.LASF43
 1051 0233 06       		.byte	0x6
 1052 0234 C9       		.byte	0xc9
 1053 0235 9C040000 		.4byte	0x49c
 1054 0239 02       		.byte	0x2
 1055 023a 23       		.byte	0x23
 1056 023b 40       		.uleb128 0x40
 1057 023c 06       		.uleb128 0x6
 1058 023d 2B060000 		.4byte	.LASF44
 1059 0241 06       		.byte	0x6
 1060 0242 CD       		.byte	0xcd
 1061 0243 E4000000 		.4byte	0xe4
 1062 0247 02       		.byte	0x2
 1063 0248 23       		.byte	0x23
 1064 0249 44       		.uleb128 0x44
 1065 024a 06       		.uleb128 0x6
 1066 024b 09010000 		.4byte	.LASF45
 1067 024f 06       		.byte	0x6
 1068 0250 D3       		.byte	0xd3
 1069 0251 BC020000 		.4byte	0x2bc
 1070 0255 02       		.byte	0x2
 1071 0256 23       		.byte	0x23
 1072 0257 48       		.uleb128 0x48
 1073 0258 00       		.byte	0
 1074 0259 08       		.uleb128 0x8
 1075 025a 08       		.byte	0x8
 1076 025b 05       		.byte	0x5
 1077 025c 5A       		.byte	0x5a
 1078 025d 7E020000 		.4byte	0x27e
 1079 0261 06       		.uleb128 0x6
 1080 0262 66050000 		.4byte	.LASF26
ARM GAS  /tmp/cc44dd1z.s 			page 20


 1081 0266 05       		.byte	0x5
 1082 0267 5B       		.byte	0x5b
 1083 0268 7E020000 		.4byte	0x27e
 1084 026c 02       		.byte	0x2
 1085 026d 23       		.byte	0x23
 1086 026e 00       		.uleb128 0
 1087 026f 06       		.uleb128 0x6
 1088 0270 A5040000 		.4byte	.LASF27
 1089 0274 05       		.byte	0x5
 1090 0275 5D       		.byte	0x5d
 1091 0276 7E020000 		.4byte	0x27e
 1092 027a 02       		.byte	0x2
 1093 027b 23       		.byte	0x23
 1094 027c 04       		.uleb128 0x4
 1095 027d 00       		.byte	0
 1096 027e 09       		.uleb128 0x9
 1097 027f 04       		.byte	0x4
 1098 0280 1B010000 		.4byte	0x11b
 1099 0284 03       		.uleb128 0x3
 1100 0285 BF030000 		.4byte	.LASF46
 1101 0289 05       		.byte	0x5
 1102 028a 5F       		.byte	0x5f
 1103 028b 59020000 		.4byte	0x259
 1104 028f 08       		.uleb128 0x8
 1105 0290 04       		.byte	0x4
 1106 0291 05       		.byte	0x5
 1107 0292 64       		.byte	0x64
 1108 0293 A6020000 		.4byte	0x2a6
 1109 0297 06       		.uleb128 0x6
 1110 0298 66050000 		.4byte	.LASF26
 1111 029c 05       		.byte	0x5
 1112 029d 66       		.byte	0x66
 1113 029e 7E020000 		.4byte	0x27e
 1114 02a2 02       		.byte	0x2
 1115 02a3 23       		.byte	0x23
 1116 02a4 00       		.uleb128 0
 1117 02a5 00       		.byte	0
 1118 02a6 03       		.uleb128 0x3
 1119 02a7 05030000 		.4byte	.LASF47
 1120 02ab 05       		.byte	0x5
 1121 02ac 69       		.byte	0x69
 1122 02ad 8F020000 		.4byte	0x28f
 1123 02b1 03       		.uleb128 0x3
 1124 02b2 F1010000 		.4byte	.LASF48
 1125 02b6 07       		.byte	0x7
 1126 02b7 DE       		.byte	0xde
 1127 02b8 BC020000 		.4byte	0x2bc
 1128 02bc 0A       		.uleb128 0xa
 1129 02bd 04       		.byte	0x4
 1130 02be 03       		.uleb128 0x3
 1131 02bf 3E030000 		.4byte	.LASF49
 1132 02c3 07       		.byte	0x7
 1133 02c4 E4       		.byte	0xe4
 1134 02c5 9F000000 		.4byte	0x9f
 1135 02c9 0B       		.uleb128 0xb
 1136 02ca 48060000 		.4byte	.LASF50
 1137 02ce 24       		.byte	0x24
ARM GAS  /tmp/cc44dd1z.s 			page 21


 1138 02cf 07       		.byte	0x7
 1139 02d0 0501     		.2byte	0x105
 1140 02d2 57030000 		.4byte	0x357
 1141 02d6 0C       		.uleb128 0xc
 1142 02d7 723400   		.ascii	"r4\000"
 1143 02da 07       		.byte	0x7
 1144 02db 1801     		.2byte	0x118
 1145 02dd B1020000 		.4byte	0x2b1
 1146 02e1 02       		.byte	0x2
 1147 02e2 23       		.byte	0x23
 1148 02e3 00       		.uleb128 0
 1149 02e4 0C       		.uleb128 0xc
 1150 02e5 723500   		.ascii	"r5\000"
 1151 02e8 07       		.byte	0x7
 1152 02e9 1901     		.2byte	0x119
 1153 02eb B1020000 		.4byte	0x2b1
 1154 02ef 02       		.byte	0x2
 1155 02f0 23       		.byte	0x23
 1156 02f1 04       		.uleb128 0x4
 1157 02f2 0C       		.uleb128 0xc
 1158 02f3 723600   		.ascii	"r6\000"
 1159 02f6 07       		.byte	0x7
 1160 02f7 1A01     		.2byte	0x11a
 1161 02f9 B1020000 		.4byte	0x2b1
 1162 02fd 02       		.byte	0x2
 1163 02fe 23       		.byte	0x23
 1164 02ff 08       		.uleb128 0x8
 1165 0300 0C       		.uleb128 0xc
 1166 0301 723700   		.ascii	"r7\000"
 1167 0304 07       		.byte	0x7
 1168 0305 1B01     		.2byte	0x11b
 1169 0307 B1020000 		.4byte	0x2b1
 1170 030b 02       		.byte	0x2
 1171 030c 23       		.byte	0x23
 1172 030d 0C       		.uleb128 0xc
 1173 030e 0C       		.uleb128 0xc
 1174 030f 723800   		.ascii	"r8\000"
 1175 0312 07       		.byte	0x7
 1176 0313 1C01     		.2byte	0x11c
 1177 0315 B1020000 		.4byte	0x2b1
 1178 0319 02       		.byte	0x2
 1179 031a 23       		.byte	0x23
 1180 031b 10       		.uleb128 0x10
 1181 031c 0C       		.uleb128 0xc
 1182 031d 723900   		.ascii	"r9\000"
 1183 0320 07       		.byte	0x7
 1184 0321 1D01     		.2byte	0x11d
 1185 0323 B1020000 		.4byte	0x2b1
 1186 0327 02       		.byte	0x2
 1187 0328 23       		.byte	0x23
 1188 0329 14       		.uleb128 0x14
 1189 032a 0C       		.uleb128 0xc
 1190 032b 72313000 		.ascii	"r10\000"
 1191 032f 07       		.byte	0x7
 1192 0330 1E01     		.2byte	0x11e
 1193 0332 B1020000 		.4byte	0x2b1
 1194 0336 02       		.byte	0x2
ARM GAS  /tmp/cc44dd1z.s 			page 22


 1195 0337 23       		.byte	0x23
 1196 0338 18       		.uleb128 0x18
 1197 0339 0C       		.uleb128 0xc
 1198 033a 72313100 		.ascii	"r11\000"
 1199 033e 07       		.byte	0x7
 1200 033f 1F01     		.2byte	0x11f
 1201 0341 B1020000 		.4byte	0x2b1
 1202 0345 02       		.byte	0x2
 1203 0346 23       		.byte	0x23
 1204 0347 1C       		.uleb128 0x1c
 1205 0348 0C       		.uleb128 0xc
 1206 0349 6C7200   		.ascii	"lr\000"
 1207 034c 07       		.byte	0x7
 1208 034d 2001     		.2byte	0x120
 1209 034f B1020000 		.4byte	0x2b1
 1210 0353 02       		.byte	0x2
 1211 0354 23       		.byte	0x23
 1212 0355 20       		.uleb128 0x20
 1213 0356 00       		.byte	0
 1214 0357 0B       		.uleb128 0xb
 1215 0358 40060000 		.4byte	.LASF51
 1216 035c 04       		.byte	0x4
 1217 035d 07       		.byte	0x7
 1218 035e 2A01     		.2byte	0x12a
 1219 0360 74030000 		.4byte	0x374
 1220 0364 0C       		.uleb128 0xc
 1221 0365 72313300 		.ascii	"r13\000"
 1222 0369 07       		.byte	0x7
 1223 036a 2B01     		.2byte	0x12b
 1224 036c 74030000 		.4byte	0x374
 1225 0370 02       		.byte	0x2
 1226 0371 23       		.byte	0x23
 1227 0372 00       		.uleb128 0
 1228 0373 00       		.byte	0
 1229 0374 09       		.uleb128 0x9
 1230 0375 04       		.byte	0x4
 1231 0376 C9020000 		.4byte	0x2c9
 1232 037a 0D       		.uleb128 0xd
 1233 037b 86000000 		.4byte	0x86
 1234 037f 04       		.uleb128 0x4
 1235 0380 04       		.byte	0x4
 1236 0381 07       		.byte	0x7
 1237 0382 72030000 		.4byte	.LASF52
 1238 0386 0D       		.uleb128 0xd
 1239 0387 10010000 		.4byte	0x110
 1240 038b 05       		.uleb128 0x5
 1241 038c 85030000 		.4byte	.LASF53
 1242 0390 10       		.byte	0x10
 1243 0391 08       		.byte	0x8
 1244 0392 25       		.byte	0x25
 1245 0393 C2030000 		.4byte	0x3c2
 1246 0397 06       		.uleb128 0x6
 1247 0398 11010000 		.4byte	.LASF54
 1248 039c 08       		.byte	0x8
 1249 039d 26       		.byte	0x26
 1250 039e 84020000 		.4byte	0x284
 1251 03a2 02       		.byte	0x2
ARM GAS  /tmp/cc44dd1z.s 			page 23


 1252 03a3 23       		.byte	0x23
 1253 03a4 00       		.uleb128 0
 1254 03a5 06       		.uleb128 0x6
 1255 03a6 26070000 		.4byte	.LASF55
 1256 03aa 08       		.byte	0x8
 1257 03ab 28       		.byte	0x28
 1258 03ac 7E020000 		.4byte	0x27e
 1259 03b0 02       		.byte	0x2
 1260 03b1 23       		.byte	0x23
 1261 03b2 08       		.uleb128 0x8
 1262 03b3 06       		.uleb128 0x6
 1263 03b4 1A060000 		.4byte	.LASF56
 1264 03b8 08       		.byte	0x8
 1265 03b9 2A       		.byte	0x2a
 1266 03ba C2030000 		.4byte	0x3c2
 1267 03be 02       		.byte	0x2
 1268 03bf 23       		.byte	0x23
 1269 03c0 0C       		.uleb128 0xc
 1270 03c1 00       		.byte	0
 1271 03c2 09       		.uleb128 0x9
 1272 03c3 04       		.byte	0x4
 1273 03c4 8B030000 		.4byte	0x38b
 1274 03c8 03       		.uleb128 0x3
 1275 03c9 85030000 		.4byte	.LASF53
 1276 03cd 08       		.byte	0x8
 1277 03ce 2C       		.byte	0x2c
 1278 03cf 8B030000 		.4byte	0x38b
 1279 03d3 03       		.uleb128 0x3
 1280 03d4 B8060000 		.4byte	.LASF57
 1281 03d8 09       		.byte	0x9
 1282 03d9 25       		.byte	0x25
 1283 03da DE030000 		.4byte	0x3de
 1284 03de 05       		.uleb128 0x5
 1285 03df B8060000 		.4byte	.LASF57
 1286 03e3 10       		.byte	0x10
 1287 03e4 09       		.byte	0x9
 1288 03e5 2A       		.byte	0x2a
 1289 03e6 23040000 		.4byte	0x423
 1290 03ea 06       		.uleb128 0x6
 1291 03eb 75050000 		.4byte	.LASF58
 1292 03ef 09       		.byte	0x9
 1293 03f0 2B       		.byte	0x2b
 1294 03f1 23040000 		.4byte	0x423
 1295 03f5 02       		.byte	0x2
 1296 03f6 23       		.byte	0x23
 1297 03f7 00       		.uleb128 0
 1298 03f8 06       		.uleb128 0x6
 1299 03f9 1A050000 		.4byte	.LASF59
 1300 03fd 09       		.byte	0x9
 1301 03fe 2E       		.byte	0x2e
 1302 03ff 7E020000 		.4byte	0x27e
 1303 0403 02       		.byte	0x2
 1304 0404 23       		.byte	0x23
 1305 0405 04       		.uleb128 0x4
 1306 0406 06       		.uleb128 0x6
 1307 0407 A5030000 		.4byte	.LASF60
 1308 040b 09       		.byte	0x9
ARM GAS  /tmp/cc44dd1z.s 			page 24


 1309 040c 30       		.byte	0x30
 1310 040d FA000000 		.4byte	0xfa
 1311 0411 02       		.byte	0x2
 1312 0412 23       		.byte	0x23
 1313 0413 08       		.uleb128 0x8
 1314 0414 06       		.uleb128 0x6
 1315 0415 2F050000 		.4byte	.LASF61
 1316 0419 09       		.byte	0x9
 1317 041a 33       		.byte	0x33
 1318 041b 05010000 		.4byte	0x105
 1319 041f 02       		.byte	0x2
 1320 0420 23       		.byte	0x23
 1321 0421 0C       		.uleb128 0xc
 1322 0422 00       		.byte	0
 1323 0423 09       		.uleb128 0x9
 1324 0424 04       		.byte	0x4
 1325 0425 D3030000 		.4byte	0x3d3
 1326 0429 05       		.uleb128 0x5
 1327 042a 13020000 		.4byte	.LASF62
 1328 042e 04       		.byte	0x4
 1329 042f 09       		.byte	0x9
 1330 0430 3A       		.byte	0x3a
 1331 0431 44040000 		.4byte	0x444
 1332 0435 06       		.uleb128 0x6
 1333 0436 CD060000 		.4byte	.LASF63
 1334 043a 09       		.byte	0x9
 1335 043b 3B       		.byte	0x3b
 1336 043c 23040000 		.4byte	0x423
 1337 0440 02       		.byte	0x2
 1338 0441 23       		.byte	0x23
 1339 0442 00       		.uleb128 0
 1340 0443 00       		.byte	0
 1341 0444 03       		.uleb128 0x3
 1342 0445 13020000 		.4byte	.LASF62
 1343 0449 09       		.byte	0x9
 1344 044a 3E       		.byte	0x3e
 1345 044b 29040000 		.4byte	0x429
 1346 044f 0E       		.uleb128 0xe
 1347 0450 04       		.byte	0x4
 1348 0451 06       		.byte	0x6
 1349 0452 8F       		.byte	0x8f
 1350 0453 84040000 		.4byte	0x484
 1351 0457 0F       		.uleb128 0xf
 1352 0458 3E000000 		.4byte	.LASF64
 1353 045c 06       		.byte	0x6
 1354 045d 96       		.byte	0x96
 1355 045e EF000000 		.4byte	0xef
 1356 0462 0F       		.uleb128 0xf
 1357 0463 86000000 		.4byte	.LASF65
 1358 0467 06       		.byte	0x6
 1359 0468 9D       		.byte	0x9d
 1360 0469 EF000000 		.4byte	0xef
 1361 046d 0F       		.uleb128 0xf
 1362 046e C6060000 		.4byte	.LASF66
 1363 0472 06       		.byte	0x6
 1364 0473 A4       		.byte	0xa4
 1365 0474 BC020000 		.4byte	0x2bc
ARM GAS  /tmp/cc44dd1z.s 			page 25


 1366 0478 0F       		.uleb128 0xf
 1367 0479 5F050000 		.4byte	.LASF67
 1368 047d 06       		.byte	0x6
 1369 047e AB       		.byte	0xab
 1370 047f FA000000 		.4byte	0xfa
 1371 0483 00       		.byte	0
 1372 0484 09       		.uleb128 0x9
 1373 0485 04       		.byte	0x4
 1374 0486 8A040000 		.4byte	0x48a
 1375 048a 10       		.uleb128 0x10
 1376 048b 8F040000 		.4byte	0x48f
 1377 048f 04       		.uleb128 0x4
 1378 0490 01       		.byte	0x1
 1379 0491 08       		.byte	0x8
 1380 0492 0E060000 		.4byte	.LASF68
 1381 0496 09       		.uleb128 0x9
 1382 0497 04       		.byte	0x4
 1383 0498 BE020000 		.4byte	0x2be
 1384 049c 09       		.uleb128 0x9
 1385 049d 04       		.byte	0x4
 1386 049e C8030000 		.4byte	0x3c8
 1387 04a2 09       		.uleb128 0x9
 1388 04a3 04       		.byte	0x4
 1389 04a4 A8040000 		.4byte	0x4a8
 1390 04a8 11       		.uleb128 0x11
 1391 04a9 01       		.byte	0x1
 1392 04aa EF000000 		.4byte	0xef
 1393 04ae B8040000 		.4byte	0x4b8
 1394 04b2 12       		.uleb128 0x12
 1395 04b3 BC020000 		.4byte	0x2bc
 1396 04b7 00       		.byte	0
 1397 04b8 03       		.uleb128 0x3
 1398 04b9 31030000 		.4byte	.LASF69
 1399 04bd 0A       		.byte	0xa
 1400 04be 30       		.byte	0x30
 1401 04bf C3040000 		.4byte	0x4c3
 1402 04c3 05       		.uleb128 0x5
 1403 04c4 31030000 		.4byte	.LASF69
 1404 04c8 24       		.byte	0x24
 1405 04c9 0A       		.byte	0xa
 1406 04ca 3E       		.byte	0x3e
 1407 04cb 40050000 		.4byte	0x540
 1408 04cf 06       		.uleb128 0x6
 1409 04d0 D7000000 		.4byte	.LASF70
 1410 04d4 0A       		.byte	0xa
 1411 04d5 3F       		.byte	0x3f
 1412 04d6 84020000 		.4byte	0x284
 1413 04da 02       		.byte	0x2
 1414 04db 23       		.byte	0x23
 1415 04dc 00       		.uleb128 0
 1416 04dd 06       		.uleb128 0x6
 1417 04de 7B030000 		.4byte	.LASF71
 1418 04e2 0A       		.byte	0xa
 1419 04e3 40       		.byte	0x40
 1420 04e4 30000000 		.4byte	0x30
 1421 04e8 02       		.byte	0x2
 1422 04e9 23       		.byte	0x23
ARM GAS  /tmp/cc44dd1z.s 			page 26


 1423 04ea 08       		.uleb128 0x8
 1424 04eb 06       		.uleb128 0x6
 1425 04ec A1010000 		.4byte	.LASF72
 1426 04f0 0A       		.byte	0xa
 1427 04f1 41       		.byte	0x41
 1428 04f2 63050000 		.4byte	0x563
 1429 04f6 02       		.byte	0x2
 1430 04f7 23       		.byte	0x23
 1431 04f8 0C       		.uleb128 0xc
 1432 04f9 06       		.uleb128 0x6
 1433 04fa 64060000 		.4byte	.LASF73
 1434 04fe 0A       		.byte	0xa
 1435 04ff 42       		.byte	0x42
 1436 0500 63050000 		.4byte	0x563
 1437 0504 02       		.byte	0x2
 1438 0505 23       		.byte	0x23
 1439 0506 10       		.uleb128 0x10
 1440 0507 06       		.uleb128 0x6
 1441 0508 AA010000 		.4byte	.LASF74
 1442 050c 0A       		.byte	0xa
 1443 050d 44       		.byte	0x44
 1444 050e 63050000 		.4byte	0x563
 1445 0512 02       		.byte	0x2
 1446 0513 23       		.byte	0x23
 1447 0514 14       		.uleb128 0x14
 1448 0515 06       		.uleb128 0x6
 1449 0516 D2040000 		.4byte	.LASF75
 1450 051a 0A       		.byte	0xa
 1451 051b 45       		.byte	0x45
 1452 051c 63050000 		.4byte	0x563
 1453 0520 02       		.byte	0x2
 1454 0521 23       		.byte	0x23
 1455 0522 18       		.uleb128 0x18
 1456 0523 06       		.uleb128 0x6
 1457 0524 8A060000 		.4byte	.LASF76
 1458 0528 0A       		.byte	0xa
 1459 0529 46       		.byte	0x46
 1460 052a 40050000 		.4byte	0x540
 1461 052e 02       		.byte	0x2
 1462 052f 23       		.byte	0x23
 1463 0530 1C       		.uleb128 0x1c
 1464 0531 06       		.uleb128 0x6
 1465 0532 1F070000 		.4byte	.LASF77
 1466 0536 0A       		.byte	0xa
 1467 0537 47       		.byte	0x47
 1468 0538 BC020000 		.4byte	0x2bc
 1469 053c 02       		.byte	0x2
 1470 053d 23       		.byte	0x23
 1471 053e 20       		.uleb128 0x20
 1472 053f 00       		.byte	0
 1473 0540 03       		.uleb128 0x3
 1474 0541 27030000 		.4byte	.LASF78
 1475 0545 0A       		.byte	0xa
 1476 0546 33       		.byte	0x33
 1477 0547 4B050000 		.4byte	0x54b
 1478 054b 09       		.uleb128 0x9
 1479 054c 04       		.byte	0x4
ARM GAS  /tmp/cc44dd1z.s 			page 27


 1480 054d 51050000 		.4byte	0x551
 1481 0551 13       		.uleb128 0x13
 1482 0552 01       		.byte	0x1
 1483 0553 5D050000 		.4byte	0x55d
 1484 0557 12       		.uleb128 0x12
 1485 0558 5D050000 		.4byte	0x55d
 1486 055c 00       		.byte	0
 1487 055d 09       		.uleb128 0x9
 1488 055e 04       		.byte	0x4
 1489 055f B8040000 		.4byte	0x4b8
 1490 0563 09       		.uleb128 0x9
 1491 0564 04       		.byte	0x4
 1492 0565 49000000 		.4byte	0x49
 1493 0569 03       		.uleb128 0x3
 1494 056a A3060000 		.4byte	.LASF79
 1495 056e 0A       		.byte	0xa
 1496 056f 7B       		.byte	0x7b
 1497 0570 B8040000 		.4byte	0x4b8
 1498 0574 03       		.uleb128 0x3
 1499 0575 4E000000 		.4byte	.LASF80
 1500 0579 0A       		.byte	0xa
 1501 057a EE       		.byte	0xee
 1502 057b B8040000 		.4byte	0x4b8
 1503 057f 11       		.uleb128 0x11
 1504 0580 01       		.byte	0x1
 1505 0581 30000000 		.4byte	0x30
 1506 0585 99050000 		.4byte	0x599
 1507 0589 12       		.uleb128 0x12
 1508 058a BC020000 		.4byte	0x2bc
 1509 058e 12       		.uleb128 0x12
 1510 058f 99050000 		.4byte	0x599
 1511 0593 12       		.uleb128 0x12
 1512 0594 30000000 		.4byte	0x30
 1513 0598 00       		.byte	0
 1514 0599 09       		.uleb128 0x9
 1515 059a 04       		.byte	0x4
 1516 059b 9F050000 		.4byte	0x59f
 1517 059f 10       		.uleb128 0x10
 1518 05a0 49000000 		.4byte	0x49
 1519 05a4 09       		.uleb128 0x9
 1520 05a5 04       		.byte	0x4
 1521 05a6 7F050000 		.4byte	0x57f
 1522 05aa 11       		.uleb128 0x11
 1523 05ab 01       		.byte	0x1
 1524 05ac 30000000 		.4byte	0x30
 1525 05b0 C4050000 		.4byte	0x5c4
 1526 05b4 12       		.uleb128 0x12
 1527 05b5 BC020000 		.4byte	0x2bc
 1528 05b9 12       		.uleb128 0x12
 1529 05ba 63050000 		.4byte	0x563
 1530 05be 12       		.uleb128 0x12
 1531 05bf 30000000 		.4byte	0x30
 1532 05c3 00       		.byte	0
 1533 05c4 09       		.uleb128 0x9
 1534 05c5 04       		.byte	0x4
 1535 05c6 AA050000 		.4byte	0x5aa
 1536 05ca 11       		.uleb128 0x11
ARM GAS  /tmp/cc44dd1z.s 			page 28


 1537 05cb 01       		.byte	0x1
 1538 05cc EF000000 		.4byte	0xef
 1539 05d0 DF050000 		.4byte	0x5df
 1540 05d4 12       		.uleb128 0x12
 1541 05d5 BC020000 		.4byte	0x2bc
 1542 05d9 12       		.uleb128 0x12
 1543 05da 49000000 		.4byte	0x49
 1544 05de 00       		.byte	0
 1545 05df 09       		.uleb128 0x9
 1546 05e0 04       		.byte	0x4
 1547 05e1 CA050000 		.4byte	0x5ca
 1548 05e5 0D       		.uleb128 0xd
 1549 05e6 62000000 		.4byte	0x62
 1550 05ea 0D       		.uleb128 0xd
 1551 05eb 74000000 		.4byte	0x74
 1552 05ef 14       		.uleb128 0x14
 1553 05f0 10       		.byte	0x10
 1554 05f1 0B       		.byte	0xb
 1555 05f2 2D03     		.2byte	0x32d
 1556 05f4 35060000 		.4byte	0x635
 1557 05f8 0C       		.uleb128 0xc
 1558 05f9 43435200 		.ascii	"CCR\000"
 1559 05fd 0B       		.byte	0xb
 1560 05fe 2F03     		.2byte	0x32f
 1561 0600 7A030000 		.4byte	0x37a
 1562 0604 02       		.byte	0x2
 1563 0605 23       		.byte	0x23
 1564 0606 00       		.uleb128 0
 1565 0607 15       		.uleb128 0x15
 1566 0608 7F060000 		.4byte	.LASF81
 1567 060c 0B       		.byte	0xb
 1568 060d 3003     		.2byte	0x330
 1569 060f 7A030000 		.4byte	0x37a
 1570 0613 02       		.byte	0x2
 1571 0614 23       		.byte	0x23
 1572 0615 04       		.uleb128 0x4
 1573 0616 15       		.uleb128 0x15
 1574 0617 5B020000 		.4byte	.LASF82
 1575 061b 0B       		.byte	0xb
 1576 061c 3103     		.2byte	0x331
 1577 061e 7A030000 		.4byte	0x37a
 1578 0622 02       		.byte	0x2
 1579 0623 23       		.byte	0x23
 1580 0624 08       		.uleb128 0x8
 1581 0625 15       		.uleb128 0x15
 1582 0626 85060000 		.4byte	.LASF83
 1583 062a 0B       		.byte	0xb
 1584 062b 3203     		.2byte	0x332
 1585 062d 7A030000 		.4byte	0x37a
 1586 0631 02       		.byte	0x2
 1587 0632 23       		.byte	0x23
 1588 0633 0C       		.uleb128 0xc
 1589 0634 00       		.byte	0
 1590 0635 16       		.uleb128 0x16
 1591 0636 01040000 		.4byte	.LASF84
 1592 063a 0B       		.byte	0xb
 1593 063b 3303     		.2byte	0x333
ARM GAS  /tmp/cc44dd1z.s 			page 29


 1594 063d EF050000 		.4byte	0x5ef
 1595 0641 14       		.uleb128 0x14
 1596 0642 24       		.byte	0x24
 1597 0643 0B       		.byte	0xb
 1598 0644 1304     		.2byte	0x413
 1599 0646 58070000 		.4byte	0x758
 1600 064a 0C       		.uleb128 0xc
 1601 064b 43523100 		.ascii	"CR1\000"
 1602 064f 0B       		.byte	0xb
 1603 0650 1504     		.2byte	0x415
 1604 0652 E5050000 		.4byte	0x5e5
 1605 0656 02       		.byte	0x2
 1606 0657 23       		.byte	0x23
 1607 0658 00       		.uleb128 0
 1608 0659 15       		.uleb128 0x15
 1609 065a 73040000 		.4byte	.LASF85
 1610 065e 0B       		.byte	0xb
 1611 065f 1604     		.2byte	0x416
 1612 0661 62000000 		.4byte	0x62
 1613 0665 02       		.byte	0x2
 1614 0666 23       		.byte	0x23
 1615 0667 02       		.uleb128 0x2
 1616 0668 0C       		.uleb128 0xc
 1617 0669 43523200 		.ascii	"CR2\000"
 1618 066d 0B       		.byte	0xb
 1619 066e 1704     		.2byte	0x417
 1620 0670 E5050000 		.4byte	0x5e5
 1621 0674 02       		.byte	0x2
 1622 0675 23       		.byte	0x23
 1623 0676 04       		.uleb128 0x4
 1624 0677 15       		.uleb128 0x15
 1625 0678 7D040000 		.4byte	.LASF86
 1626 067c 0B       		.byte	0xb
 1627 067d 1804     		.2byte	0x418
 1628 067f 62000000 		.4byte	0x62
 1629 0683 02       		.byte	0x2
 1630 0684 23       		.byte	0x23
 1631 0685 06       		.uleb128 0x6
 1632 0686 15       		.uleb128 0x15
 1633 0687 AE060000 		.4byte	.LASF87
 1634 068b 0B       		.byte	0xb
 1635 068c 1904     		.2byte	0x419
 1636 068e E5050000 		.4byte	0x5e5
 1637 0692 02       		.byte	0x2
 1638 0693 23       		.byte	0x23
 1639 0694 08       		.uleb128 0x8
 1640 0695 15       		.uleb128 0x15
 1641 0696 87040000 		.4byte	.LASF88
 1642 069a 0B       		.byte	0xb
 1643 069b 1A04     		.2byte	0x41a
 1644 069d 62000000 		.4byte	0x62
 1645 06a1 02       		.byte	0x2
 1646 06a2 23       		.byte	0x23
 1647 06a3 0A       		.uleb128 0xa
 1648 06a4 15       		.uleb128 0x15
 1649 06a5 B3060000 		.4byte	.LASF89
 1650 06a9 0B       		.byte	0xb
ARM GAS  /tmp/cc44dd1z.s 			page 30


 1651 06aa 1B04     		.2byte	0x41b
 1652 06ac E5050000 		.4byte	0x5e5
 1653 06b0 02       		.byte	0x2
 1654 06b1 23       		.byte	0x23
 1655 06b2 0C       		.uleb128 0xc
 1656 06b3 15       		.uleb128 0x15
 1657 06b4 91040000 		.4byte	.LASF90
 1658 06b8 0B       		.byte	0xb
 1659 06b9 1C04     		.2byte	0x41c
 1660 06bb 62000000 		.4byte	0x62
 1661 06bf 02       		.byte	0x2
 1662 06c0 23       		.byte	0x23
 1663 06c1 0E       		.uleb128 0xe
 1664 06c2 0C       		.uleb128 0xc
 1665 06c3 445200   		.ascii	"DR\000"
 1666 06c6 0B       		.byte	0xb
 1667 06c7 1D04     		.2byte	0x41d
 1668 06c9 E5050000 		.4byte	0x5e5
 1669 06cd 02       		.byte	0x2
 1670 06ce 23       		.byte	0x23
 1671 06cf 10       		.uleb128 0x10
 1672 06d0 15       		.uleb128 0x15
 1673 06d1 9B040000 		.4byte	.LASF91
 1674 06d5 0B       		.byte	0xb
 1675 06d6 1E04     		.2byte	0x41e
 1676 06d8 62000000 		.4byte	0x62
 1677 06dc 02       		.byte	0x2
 1678 06dd 23       		.byte	0x23
 1679 06de 12       		.uleb128 0x12
 1680 06df 0C       		.uleb128 0xc
 1681 06e0 53523100 		.ascii	"SR1\000"
 1682 06e4 0B       		.byte	0xb
 1683 06e5 1F04     		.2byte	0x41f
 1684 06e7 E5050000 		.4byte	0x5e5
 1685 06eb 02       		.byte	0x2
 1686 06ec 23       		.byte	0x23
 1687 06ed 14       		.uleb128 0x14
 1688 06ee 15       		.uleb128 0x15
 1689 06ef BF050000 		.4byte	.LASF92
 1690 06f3 0B       		.byte	0xb
 1691 06f4 2004     		.2byte	0x420
 1692 06f6 62000000 		.4byte	0x62
 1693 06fa 02       		.byte	0x2
 1694 06fb 23       		.byte	0x23
 1695 06fc 16       		.uleb128 0x16
 1696 06fd 0C       		.uleb128 0xc
 1697 06fe 53523200 		.ascii	"SR2\000"
 1698 0702 0B       		.byte	0xb
 1699 0703 2104     		.2byte	0x421
 1700 0705 E5050000 		.4byte	0x5e5
 1701 0709 02       		.byte	0x2
 1702 070a 23       		.byte	0x23
 1703 070b 18       		.uleb128 0x18
 1704 070c 15       		.uleb128 0x15
 1705 070d AC040000 		.4byte	.LASF93
 1706 0711 0B       		.byte	0xb
 1707 0712 2204     		.2byte	0x422
ARM GAS  /tmp/cc44dd1z.s 			page 31


 1708 0714 62000000 		.4byte	0x62
 1709 0718 02       		.byte	0x2
 1710 0719 23       		.byte	0x23
 1711 071a 1A       		.uleb128 0x1a
 1712 071b 0C       		.uleb128 0xc
 1713 071c 43435200 		.ascii	"CCR\000"
 1714 0720 0B       		.byte	0xb
 1715 0721 2304     		.2byte	0x423
 1716 0723 E5050000 		.4byte	0x5e5
 1717 0727 02       		.byte	0x2
 1718 0728 23       		.byte	0x23
 1719 0729 1C       		.uleb128 0x1c
 1720 072a 15       		.uleb128 0x15
 1721 072b B6040000 		.4byte	.LASF94
 1722 072f 0B       		.byte	0xb
 1723 0730 2404     		.2byte	0x424
 1724 0732 62000000 		.4byte	0x62
 1725 0736 02       		.byte	0x2
 1726 0737 23       		.byte	0x23
 1727 0738 1E       		.uleb128 0x1e
 1728 0739 15       		.uleb128 0x15
 1729 073a 5A000000 		.4byte	.LASF95
 1730 073e 0B       		.byte	0xb
 1731 073f 2504     		.2byte	0x425
 1732 0741 E5050000 		.4byte	0x5e5
 1733 0745 02       		.byte	0x2
 1734 0746 23       		.byte	0x23
 1735 0747 20       		.uleb128 0x20
 1736 0748 15       		.uleb128 0x15
 1737 0749 C0040000 		.4byte	.LASF96
 1738 074d 0B       		.byte	0xb
 1739 074e 2604     		.2byte	0x426
 1740 0750 62000000 		.4byte	0x62
 1741 0754 02       		.byte	0x2
 1742 0755 23       		.byte	0x23
 1743 0756 22       		.uleb128 0x22
 1744 0757 00       		.byte	0
 1745 0758 16       		.uleb128 0x16
 1746 0759 07070000 		.4byte	.LASF97
 1747 075d 0B       		.byte	0xb
 1748 075e 2704     		.2byte	0x427
 1749 0760 41060000 		.4byte	0x641
 1750 0764 14       		.uleb128 0x14
 1751 0765 1C       		.byte	0x1c
 1752 0766 0B       		.byte	0xb
 1753 0767 E104     		.2byte	0x4e1
 1754 0769 3E080000 		.4byte	0x83e
 1755 076d 0C       		.uleb128 0xc
 1756 076e 535200   		.ascii	"SR\000"
 1757 0771 0B       		.byte	0xb
 1758 0772 E304     		.2byte	0x4e3
 1759 0774 E5050000 		.4byte	0x5e5
 1760 0778 02       		.byte	0x2
 1761 0779 23       		.byte	0x23
 1762 077a 00       		.uleb128 0
 1763 077b 15       		.uleb128 0x15
 1764 077c 73040000 		.4byte	.LASF85
ARM GAS  /tmp/cc44dd1z.s 			page 32


 1765 0780 0B       		.byte	0xb
 1766 0781 E404     		.2byte	0x4e4
 1767 0783 62000000 		.4byte	0x62
 1768 0787 02       		.byte	0x2
 1769 0788 23       		.byte	0x23
 1770 0789 02       		.uleb128 0x2
 1771 078a 0C       		.uleb128 0xc
 1772 078b 445200   		.ascii	"DR\000"
 1773 078e 0B       		.byte	0xb
 1774 078f E504     		.2byte	0x4e5
 1775 0791 E5050000 		.4byte	0x5e5
 1776 0795 02       		.byte	0x2
 1777 0796 23       		.byte	0x23
 1778 0797 04       		.uleb128 0x4
 1779 0798 15       		.uleb128 0x15
 1780 0799 7D040000 		.4byte	.LASF86
 1781 079d 0B       		.byte	0xb
 1782 079e E604     		.2byte	0x4e6
 1783 07a0 62000000 		.4byte	0x62
 1784 07a4 02       		.byte	0x2
 1785 07a5 23       		.byte	0x23
 1786 07a6 06       		.uleb128 0x6
 1787 07a7 0C       		.uleb128 0xc
 1788 07a8 42525200 		.ascii	"BRR\000"
 1789 07ac 0B       		.byte	0xb
 1790 07ad E704     		.2byte	0x4e7
 1791 07af E5050000 		.4byte	0x5e5
 1792 07b3 02       		.byte	0x2
 1793 07b4 23       		.byte	0x23
 1794 07b5 08       		.uleb128 0x8
 1795 07b6 15       		.uleb128 0x15
 1796 07b7 87040000 		.4byte	.LASF88
 1797 07bb 0B       		.byte	0xb
 1798 07bc E804     		.2byte	0x4e8
 1799 07be 62000000 		.4byte	0x62
 1800 07c2 02       		.byte	0x2
 1801 07c3 23       		.byte	0x23
 1802 07c4 0A       		.uleb128 0xa
 1803 07c5 0C       		.uleb128 0xc
 1804 07c6 43523100 		.ascii	"CR1\000"
 1805 07ca 0B       		.byte	0xb
 1806 07cb E904     		.2byte	0x4e9
 1807 07cd E5050000 		.4byte	0x5e5
 1808 07d1 02       		.byte	0x2
 1809 07d2 23       		.byte	0x23
 1810 07d3 0C       		.uleb128 0xc
 1811 07d4 15       		.uleb128 0x15
 1812 07d5 91040000 		.4byte	.LASF90
 1813 07d9 0B       		.byte	0xb
 1814 07da EA04     		.2byte	0x4ea
 1815 07dc 62000000 		.4byte	0x62
 1816 07e0 02       		.byte	0x2
 1817 07e1 23       		.byte	0x23
 1818 07e2 0E       		.uleb128 0xe
 1819 07e3 0C       		.uleb128 0xc
 1820 07e4 43523200 		.ascii	"CR2\000"
 1821 07e8 0B       		.byte	0xb
ARM GAS  /tmp/cc44dd1z.s 			page 33


 1822 07e9 EB04     		.2byte	0x4eb
 1823 07eb E5050000 		.4byte	0x5e5
 1824 07ef 02       		.byte	0x2
 1825 07f0 23       		.byte	0x23
 1826 07f1 10       		.uleb128 0x10
 1827 07f2 15       		.uleb128 0x15
 1828 07f3 9B040000 		.4byte	.LASF91
 1829 07f7 0B       		.byte	0xb
 1830 07f8 EC04     		.2byte	0x4ec
 1831 07fa 62000000 		.4byte	0x62
 1832 07fe 02       		.byte	0x2
 1833 07ff 23       		.byte	0x23
 1834 0800 12       		.uleb128 0x12
 1835 0801 0C       		.uleb128 0xc
 1836 0802 43523300 		.ascii	"CR3\000"
 1837 0806 0B       		.byte	0xb
 1838 0807 ED04     		.2byte	0x4ed
 1839 0809 E5050000 		.4byte	0x5e5
 1840 080d 02       		.byte	0x2
 1841 080e 23       		.byte	0x23
 1842 080f 14       		.uleb128 0x14
 1843 0810 15       		.uleb128 0x15
 1844 0811 BF050000 		.4byte	.LASF92
 1845 0815 0B       		.byte	0xb
 1846 0816 EE04     		.2byte	0x4ee
 1847 0818 62000000 		.4byte	0x62
 1848 081c 02       		.byte	0x2
 1849 081d 23       		.byte	0x23
 1850 081e 16       		.uleb128 0x16
 1851 081f 15       		.uleb128 0x15
 1852 0820 04010000 		.4byte	.LASF98
 1853 0824 0B       		.byte	0xb
 1854 0825 EF04     		.2byte	0x4ef
 1855 0827 E5050000 		.4byte	0x5e5
 1856 082b 02       		.byte	0x2
 1857 082c 23       		.byte	0x23
 1858 082d 18       		.uleb128 0x18
 1859 082e 15       		.uleb128 0x15
 1860 082f AC040000 		.4byte	.LASF93
 1861 0833 0B       		.byte	0xb
 1862 0834 F004     		.2byte	0x4f0
 1863 0836 62000000 		.4byte	0x62
 1864 083a 02       		.byte	0x2
 1865 083b 23       		.byte	0x23
 1866 083c 1A       		.uleb128 0x1a
 1867 083d 00       		.byte	0
 1868 083e 16       		.uleb128 0x16
 1869 083f E8020000 		.4byte	.LASF99
 1870 0843 0B       		.byte	0xb
 1871 0844 F104     		.2byte	0x4f1
 1872 0846 64070000 		.4byte	0x764
 1873 084a 08       		.uleb128 0x8
 1874 084b 0C       		.byte	0xc
 1875 084c 0C       		.byte	0xc
 1876 084d C1       		.byte	0xc1
 1877 084e 99080000 		.4byte	0x899
 1878 0852 06       		.uleb128 0x6
ARM GAS  /tmp/cc44dd1z.s 			page 34


 1879 0853 97050000 		.4byte	.LASF100
 1880 0857 0C       		.byte	0xc
 1881 0858 C2       		.byte	0xc2
 1882 0859 99080000 		.4byte	0x899
 1883 085d 02       		.byte	0x2
 1884 085e 23       		.byte	0x23
 1885 085f 00       		.uleb128 0
 1886 0860 06       		.uleb128 0x6
 1887 0861 24040000 		.4byte	.LASF101
 1888 0865 0C       		.byte	0xc
 1889 0866 C3       		.byte	0xc3
 1890 0867 9F080000 		.4byte	0x89f
 1891 086b 02       		.byte	0x2
 1892 086c 23       		.byte	0x23
 1893 086d 04       		.uleb128 0x4
 1894 086e 06       		.uleb128 0x6
 1895 086f 89020000 		.4byte	.LASF102
 1896 0873 0C       		.byte	0xc
 1897 0874 C4       		.byte	0xc4
 1898 0875 49000000 		.4byte	0x49
 1899 0879 02       		.byte	0x2
 1900 087a 23       		.byte	0x23
 1901 087b 08       		.uleb128 0x8
 1902 087c 06       		.uleb128 0x6
 1903 087d FA010000 		.4byte	.LASF103
 1904 0881 0C       		.byte	0xc
 1905 0882 C6       		.byte	0xc6
 1906 0883 49000000 		.4byte	0x49
 1907 0887 02       		.byte	0x2
 1908 0888 23       		.byte	0x23
 1909 0889 09       		.uleb128 0x9
 1910 088a 06       		.uleb128 0x6
 1911 088b 8F000000 		.4byte	.LASF104
 1912 088f 0C       		.byte	0xc
 1913 0890 C7       		.byte	0xc7
 1914 0891 49000000 		.4byte	0x49
 1915 0895 02       		.byte	0x2
 1916 0896 23       		.byte	0x23
 1917 0897 0A       		.uleb128 0xa
 1918 0898 00       		.byte	0
 1919 0899 09       		.uleb128 0x9
 1920 089a 04       		.byte	0x4
 1921 089b 35060000 		.4byte	0x635
 1922 089f 09       		.uleb128 0x9
 1923 08a0 04       		.byte	0x4
 1924 08a1 7A030000 		.4byte	0x37a
 1925 08a5 03       		.uleb128 0x3
 1926 08a6 07050000 		.4byte	.LASF105
 1927 08aa 0C       		.byte	0xc
 1928 08ab C8       		.byte	0xc8
 1929 08ac 4A080000 		.4byte	0x84a
 1930 08b0 11       		.uleb128 0x11
 1931 08b1 01       		.byte	0x1
 1932 08b2 EF000000 		.4byte	0xef
 1933 08b6 CA080000 		.4byte	0x8ca
 1934 08ba 12       		.uleb128 0x12
 1935 08bb BC020000 		.4byte	0x2bc
ARM GAS  /tmp/cc44dd1z.s 			page 35


 1936 08bf 12       		.uleb128 0x12
 1937 08c0 49000000 		.4byte	0x49
 1938 08c4 12       		.uleb128 0x12
 1939 08c5 10010000 		.4byte	0x110
 1940 08c9 00       		.byte	0
 1941 08ca 09       		.uleb128 0x9
 1942 08cb 04       		.byte	0x4
 1943 08cc B0080000 		.4byte	0x8b0
 1944 08d0 11       		.uleb128 0x11
 1945 08d1 01       		.byte	0x1
 1946 08d2 EF000000 		.4byte	0xef
 1947 08d6 E5080000 		.4byte	0x8e5
 1948 08da 12       		.uleb128 0x12
 1949 08db BC020000 		.4byte	0x2bc
 1950 08df 12       		.uleb128 0x12
 1951 08e0 10010000 		.4byte	0x110
 1952 08e4 00       		.byte	0
 1953 08e5 09       		.uleb128 0x9
 1954 08e6 04       		.byte	0x4
 1955 08e7 D0080000 		.4byte	0x8d0
 1956 08eb 11       		.uleb128 0x11
 1957 08ec 01       		.byte	0x1
 1958 08ed 30000000 		.4byte	0x30
 1959 08f1 0A090000 		.4byte	0x90a
 1960 08f5 12       		.uleb128 0x12
 1961 08f6 BC020000 		.4byte	0x2bc
 1962 08fa 12       		.uleb128 0x12
 1963 08fb 99050000 		.4byte	0x599
 1964 08ff 12       		.uleb128 0x12
 1965 0900 30000000 		.4byte	0x30
 1966 0904 12       		.uleb128 0x12
 1967 0905 10010000 		.4byte	0x110
 1968 0909 00       		.byte	0
 1969 090a 09       		.uleb128 0x9
 1970 090b 04       		.byte	0x4
 1971 090c EB080000 		.4byte	0x8eb
 1972 0910 11       		.uleb128 0x11
 1973 0911 01       		.byte	0x1
 1974 0912 30000000 		.4byte	0x30
 1975 0916 2F090000 		.4byte	0x92f
 1976 091a 12       		.uleb128 0x12
 1977 091b BC020000 		.4byte	0x2bc
 1978 091f 12       		.uleb128 0x12
 1979 0920 63050000 		.4byte	0x563
 1980 0924 12       		.uleb128 0x12
 1981 0925 30000000 		.4byte	0x30
 1982 0929 12       		.uleb128 0x12
 1983 092a 10010000 		.4byte	0x110
 1984 092e 00       		.byte	0
 1985 092f 09       		.uleb128 0x9
 1986 0930 04       		.byte	0x4
 1987 0931 10090000 		.4byte	0x910
 1988 0935 17       		.uleb128 0x17
 1989 0936 01       		.byte	0x1
 1990 0937 0D       		.byte	0xd
 1991 0938 53       		.byte	0x53
 1992 0939 62090000 		.4byte	0x962
ARM GAS  /tmp/cc44dd1z.s 			page 36


 1993 093d 18       		.uleb128 0x18
 1994 093e 42050000 		.4byte	.LASF106
 1995 0942 00       		.sleb128 0
 1996 0943 18       		.uleb128 0x18
 1997 0944 54030000 		.4byte	.LASF107
 1998 0948 01       		.sleb128 1
 1999 0949 18       		.uleb128 0x18
 2000 094a 36060000 		.4byte	.LASF108
 2001 094e 02       		.sleb128 2
 2002 094f 18       		.uleb128 0x18
 2003 0950 B9010000 		.4byte	.LASF109
 2004 0954 03       		.sleb128 3
 2005 0955 18       		.uleb128 0x18
 2006 0956 E9050000 		.4byte	.LASF110
 2007 095a 04       		.sleb128 4
 2008 095b 18       		.uleb128 0x18
 2009 095c 9F050000 		.4byte	.LASF111
 2010 0960 05       		.sleb128 5
 2011 0961 00       		.byte	0
 2012 0962 03       		.uleb128 0x3
 2013 0963 2C000000 		.4byte	.LASF112
 2014 0967 0D       		.byte	0xd
 2015 0968 5A       		.byte	0x5a
 2016 0969 35090000 		.4byte	0x935
 2017 096d 16       		.uleb128 0x16
 2018 096e 6C010000 		.4byte	.LASF113
 2019 0972 0E       		.byte	0xe
 2020 0973 3501     		.2byte	0x135
 2021 0975 62000000 		.4byte	0x62
 2022 0979 16       		.uleb128 0x16
 2023 097a DA040000 		.4byte	.LASF114
 2024 097e 0E       		.byte	0xe
 2025 097f 3A01     		.2byte	0x13a
 2026 0981 86000000 		.4byte	0x86
 2027 0985 19       		.uleb128 0x19
 2028 0986 01       		.byte	0x1
 2029 0987 0E       		.byte	0xe
 2030 0988 3F01     		.2byte	0x13f
 2031 098a A1090000 		.4byte	0x9a1
 2032 098e 18       		.uleb128 0x18
 2033 098f E1030000 		.4byte	.LASF115
 2034 0993 01       		.sleb128 1
 2035 0994 18       		.uleb128 0x18
 2036 0995 9E020000 		.4byte	.LASF116
 2037 0999 02       		.sleb128 2
 2038 099a 18       		.uleb128 0x18
 2039 099b DF010000 		.4byte	.LASF117
 2040 099f 03       		.sleb128 3
 2041 09a0 00       		.byte	0
 2042 09a1 16       		.uleb128 0x16
 2043 09a2 13070000 		.4byte	.LASF118
 2044 09a6 0E       		.byte	0xe
 2045 09a7 4301     		.2byte	0x143
 2046 09a9 85090000 		.4byte	0x985
 2047 09ad 19       		.uleb128 0x19
 2048 09ae 01       		.byte	0x1
 2049 09af 0E       		.byte	0xe
ARM GAS  /tmp/cc44dd1z.s 			page 37


 2050 09b0 4801     		.2byte	0x148
 2051 09b2 C9090000 		.4byte	0x9c9
 2052 09b6 18       		.uleb128 0x18
 2053 09b7 00000000 		.4byte	.LASF119
 2054 09bb 01       		.sleb128 1
 2055 09bc 18       		.uleb128 0x18
 2056 09bd 85050000 		.4byte	.LASF120
 2057 09c1 02       		.sleb128 2
 2058 09c2 18       		.uleb128 0x18
 2059 09c3 EC030000 		.4byte	.LASF121
 2060 09c7 03       		.sleb128 3
 2061 09c8 00       		.byte	0
 2062 09c9 16       		.uleb128 0x16
 2063 09ca 15000000 		.4byte	.LASF122
 2064 09ce 0E       		.byte	0xe
 2065 09cf 4C01     		.2byte	0x14c
 2066 09d1 AD090000 		.4byte	0x9ad
 2067 09d5 14       		.uleb128 0x14
 2068 09d6 0C       		.byte	0xc
 2069 09d7 0E       		.byte	0xe
 2070 09d8 5101     		.2byte	0x151
 2071 09da 0C0A0000 		.4byte	0xa0c
 2072 09de 15       		.uleb128 0x15
 2073 09df 04020000 		.4byte	.LASF123
 2074 09e3 0E       		.byte	0xe
 2075 09e4 5201     		.2byte	0x152
 2076 09e6 A1090000 		.4byte	0x9a1
 2077 09ea 02       		.byte	0x2
 2078 09eb 23       		.byte	0x23
 2079 09ec 00       		.uleb128 0
 2080 09ed 15       		.uleb128 0x15
 2081 09ee CF020000 		.4byte	.LASF124
 2082 09f2 0E       		.byte	0xe
 2083 09f3 5301     		.2byte	0x153
 2084 09f5 86000000 		.4byte	0x86
 2085 09f9 02       		.byte	0x2
 2086 09fa 23       		.byte	0x23
 2087 09fb 04       		.uleb128 0x4
 2088 09fc 15       		.uleb128 0x15
 2089 09fd 92030000 		.4byte	.LASF125
 2090 0a01 0E       		.byte	0xe
 2091 0a02 5601     		.2byte	0x156
 2092 0a04 C9090000 		.4byte	0x9c9
 2093 0a08 02       		.byte	0x2
 2094 0a09 23       		.byte	0x23
 2095 0a0a 08       		.uleb128 0x8
 2096 0a0b 00       		.byte	0
 2097 0a0c 16       		.uleb128 0x16
 2098 0a0d B5030000 		.4byte	.LASF126
 2099 0a11 0E       		.byte	0xe
 2100 0a12 5801     		.2byte	0x158
 2101 0a14 D5090000 		.4byte	0x9d5
 2102 0a18 16       		.uleb128 0x16
 2103 0a19 C5020000 		.4byte	.LASF127
 2104 0a1d 0E       		.byte	0xe
 2105 0a1e 5D01     		.2byte	0x15d
 2106 0a20 240A0000 		.4byte	0xa24
ARM GAS  /tmp/cc44dd1z.s 			page 38


 2107 0a24 0B       		.uleb128 0xb
 2108 0a25 C5020000 		.4byte	.LASF127
 2109 0a29 38       		.byte	0x38
 2110 0a2a 0E       		.byte	0xe
 2111 0a2b 6201     		.2byte	0x162
 2112 0a2d D70A0000 		.4byte	0xad7
 2113 0a31 15       		.uleb128 0x15
 2114 0a32 76010000 		.4byte	.LASF128
 2115 0a36 0E       		.byte	0xe
 2116 0a37 6601     		.2byte	0x166
 2117 0a39 62090000 		.4byte	0x962
 2118 0a3d 02       		.byte	0x2
 2119 0a3e 23       		.byte	0x23
 2120 0a3f 00       		.uleb128 0
 2121 0a40 15       		.uleb128 0x15
 2122 0a41 13060000 		.4byte	.LASF129
 2123 0a45 0E       		.byte	0xe
 2124 0a46 6A01     		.2byte	0x16a
 2125 0a48 D70A0000 		.4byte	0xad7
 2126 0a4c 02       		.byte	0x2
 2127 0a4d 23       		.byte	0x23
 2128 0a4e 04       		.uleb128 0x4
 2129 0a4f 15       		.uleb128 0x15
 2130 0a50 8B030000 		.4byte	.LASF130
 2131 0a54 0E       		.byte	0xe
 2132 0a55 6E01     		.2byte	0x16e
 2133 0a57 79090000 		.4byte	0x979
 2134 0a5b 02       		.byte	0x2
 2135 0a5c 23       		.byte	0x23
 2136 0a5d 08       		.uleb128 0x8
 2137 0a5e 15       		.uleb128 0x15
 2138 0a5f E5040000 		.4byte	.LASF131
 2139 0a63 0E       		.byte	0xe
 2140 0a64 7401     		.2byte	0x174
 2141 0a66 C8030000 		.4byte	0x3c8
 2142 0a6a 02       		.byte	0x2
 2143 0a6b 23       		.byte	0x23
 2144 0a6c 0C       		.uleb128 0xc
 2145 0a6d 15       		.uleb128 0x15
 2146 0a6e 93010000 		.4byte	.LASF132
 2147 0a72 0E       		.byte	0xe
 2148 0a73 8001     		.2byte	0x180
 2149 0a75 7E020000 		.4byte	0x27e
 2150 0a79 02       		.byte	0x2
 2151 0a7a 23       		.byte	0x23
 2152 0a7b 1C       		.uleb128 0x1c
 2153 0a7c 15       		.uleb128 0x15
 2154 0a7d 77000000 		.4byte	.LASF133
 2155 0a81 0E       		.byte	0xe
 2156 0a82 8401     		.2byte	0x184
 2157 0a84 6D090000 		.4byte	0x96d
 2158 0a88 02       		.byte	0x2
 2159 0a89 23       		.byte	0x23
 2160 0a8a 20       		.uleb128 0x20
 2161 0a8b 15       		.uleb128 0x15
 2162 0a8c CF010000 		.4byte	.LASF134
 2163 0a90 0E       		.byte	0xe
ARM GAS  /tmp/cc44dd1z.s 			page 39


 2164 0a91 8801     		.2byte	0x188
 2165 0a93 86000000 		.4byte	0x86
 2166 0a97 02       		.byte	0x2
 2167 0a98 23       		.byte	0x23
 2168 0a99 24       		.uleb128 0x24
 2169 0a9a 15       		.uleb128 0x15
 2170 0a9b CC030000 		.4byte	.LASF135
 2171 0a9f 0E       		.byte	0xe
 2172 0aa0 8C01     		.2byte	0x18c
 2173 0aa2 86000000 		.4byte	0x86
 2174 0aa6 02       		.byte	0x2
 2175 0aa7 23       		.byte	0x23
 2176 0aa8 28       		.uleb128 0x28
 2177 0aa9 15       		.uleb128 0x15
 2178 0aaa 0F000000 		.4byte	.LASF136
 2179 0aae 0E       		.byte	0xe
 2180 0aaf 9001     		.2byte	0x190
 2181 0ab1 E20A0000 		.4byte	0xae2
 2182 0ab5 02       		.byte	0x2
 2183 0ab6 23       		.byte	0x23
 2184 0ab7 2C       		.uleb128 0x2c
 2185 0ab8 15       		.uleb128 0x15
 2186 0ab9 D9010000 		.4byte	.LASF137
 2187 0abd 0E       		.byte	0xe
 2188 0abe 9401     		.2byte	0x194
 2189 0ac0 E20A0000 		.4byte	0xae2
 2190 0ac4 02       		.byte	0x2
 2191 0ac5 23       		.byte	0x23
 2192 0ac6 30       		.uleb128 0x30
 2193 0ac7 0C       		.uleb128 0xc
 2194 0ac8 69326300 		.ascii	"i2c\000"
 2195 0acc 0E       		.byte	0xe
 2196 0acd 9801     		.2byte	0x198
 2197 0acf ED0A0000 		.4byte	0xaed
 2198 0ad3 02       		.byte	0x2
 2199 0ad4 23       		.byte	0x23
 2200 0ad5 34       		.uleb128 0x34
 2201 0ad6 00       		.byte	0
 2202 0ad7 09       		.uleb128 0x9
 2203 0ad8 04       		.byte	0x4
 2204 0ad9 DD0A0000 		.4byte	0xadd
 2205 0add 10       		.uleb128 0x10
 2206 0ade 0C0A0000 		.4byte	0xa0c
 2207 0ae2 09       		.uleb128 0x9
 2208 0ae3 04       		.byte	0x4
 2209 0ae4 E80A0000 		.4byte	0xae8
 2210 0ae8 10       		.uleb128 0x10
 2211 0ae9 A5080000 		.4byte	0x8a5
 2212 0aed 09       		.uleb128 0x9
 2213 0aee 04       		.byte	0x4
 2214 0aef 58070000 		.4byte	0x758
 2215 0af3 17       		.uleb128 0x17
 2216 0af4 01       		.byte	0x1
 2217 0af5 0F       		.byte	0xf
 2218 0af6 5D       		.byte	0x5d
 2219 0af7 0E0B0000 		.4byte	0xb0e
 2220 0afb 18       		.uleb128 0x18
ARM GAS  /tmp/cc44dd1z.s 			page 40


 2221 0afc B5050000 		.4byte	.LASF138
 2222 0b00 00       		.sleb128 0
 2223 0b01 18       		.uleb128 0x18
 2224 0b02 7D050000 		.4byte	.LASF139
 2225 0b06 01       		.sleb128 1
 2226 0b07 18       		.uleb128 0x18
 2227 0b08 4F060000 		.4byte	.LASF140
 2228 0b0c 02       		.sleb128 2
 2229 0b0d 00       		.byte	0
 2230 0b0e 03       		.uleb128 0x3
 2231 0b0f D2050000 		.4byte	.LASF141
 2232 0b13 0F       		.byte	0xf
 2233 0b14 61       		.byte	0x61
 2234 0b15 F30A0000 		.4byte	0xaf3
 2235 0b19 03       		.uleb128 0x3
 2236 0b1a DC050000 		.4byte	.LASF142
 2237 0b1e 0F       		.byte	0xf
 2238 0b1f 66       		.byte	0x66
 2239 0b20 240B0000 		.4byte	0xb24
 2240 0b24 05       		.uleb128 0x5
 2241 0b25 DC050000 		.4byte	.LASF142
 2242 0b29 78       		.byte	0x78
 2243 0b2a 0F       		.byte	0xf
 2244 0b2b 80       		.byte	0x80
 2245 0b2c 9F0B0000 		.4byte	0xb9f
 2246 0b30 07       		.uleb128 0x7
 2247 0b31 766D7400 		.ascii	"vmt\000"
 2248 0b35 0F       		.byte	0xf
 2249 0b36 82       		.byte	0x82
 2250 0b37 1C0C0000 		.4byte	0xc1c
 2251 0b3b 02       		.byte	0x2
 2252 0b3c 23       		.byte	0x23
 2253 0b3d 00       		.uleb128 0
 2254 0b3e 06       		.uleb128 0x6
 2255 0b3f 98020000 		.4byte	.LASF143
 2256 0b43 0F       		.byte	0xf
 2257 0b44 83       		.byte	0x83
 2258 0b45 44040000 		.4byte	0x444
 2259 0b49 02       		.byte	0x2
 2260 0b4a 23       		.byte	0x23
 2261 0b4b 04       		.uleb128 0x4
 2262 0b4c 06       		.uleb128 0x6
 2263 0b4d 76010000 		.4byte	.LASF128
 2264 0b51 0F       		.byte	0xf
 2265 0b52 83       		.byte	0x83
 2266 0b53 0E0B0000 		.4byte	0xb0e
 2267 0b57 02       		.byte	0x2
 2268 0b58 23       		.byte	0x23
 2269 0b59 08       		.uleb128 0x8
 2270 0b5a 06       		.uleb128 0x6
 2271 0b5b 60020000 		.4byte	.LASF144
 2272 0b5f 0F       		.byte	0xf
 2273 0b60 83       		.byte	0x83
 2274 0b61 69050000 		.4byte	0x569
 2275 0b65 02       		.byte	0x2
 2276 0b66 23       		.byte	0x23
 2277 0b67 0C       		.uleb128 0xc
ARM GAS  /tmp/cc44dd1z.s 			page 41


 2278 0b68 06       		.uleb128 0x6
 2279 0b69 E1020000 		.4byte	.LASF145
 2280 0b6d 0F       		.byte	0xf
 2281 0b6e 83       		.byte	0x83
 2282 0b6f 74050000 		.4byte	0x574
 2283 0b73 02       		.byte	0x2
 2284 0b74 23       		.byte	0x23
 2285 0b75 30       		.uleb128 0x30
 2286 0b76 07       		.uleb128 0x7
 2287 0b77 696200   		.ascii	"ib\000"
 2288 0b7a 0F       		.byte	0xf
 2289 0b7b 83       		.byte	0x83
 2290 0b7c 270C0000 		.4byte	0xc27
 2291 0b80 02       		.byte	0x2
 2292 0b81 23       		.byte	0x23
 2293 0b82 54       		.uleb128 0x54
 2294 0b83 07       		.uleb128 0x7
 2295 0b84 6F6200   		.ascii	"ob\000"
 2296 0b87 0F       		.byte	0xf
 2297 0b88 83       		.byte	0x83
 2298 0b89 270C0000 		.4byte	0xc27
 2299 0b8d 02       		.byte	0x2
 2300 0b8e 23       		.byte	0x23
 2301 0b8f 64       		.uleb128 0x64
 2302 0b90 06       		.uleb128 0x6
 2303 0b91 1F020000 		.4byte	.LASF146
 2304 0b95 0F       		.byte	0xf
 2305 0b96 83       		.byte	0x83
 2306 0b97 370C0000 		.4byte	0xc37
 2307 0b9b 02       		.byte	0x2
 2308 0b9c 23       		.byte	0x23
 2309 0b9d 74       		.uleb128 0x74
 2310 0b9e 00       		.byte	0
 2311 0b9f 05       		.uleb128 0x5
 2312 0ba0 3B020000 		.4byte	.LASF147
 2313 0ba4 20       		.byte	0x20
 2314 0ba5 0F       		.byte	0xf
 2315 0ba6 75       		.byte	0x75
 2316 0ba7 1C0C0000 		.4byte	0xc1c
 2317 0bab 06       		.uleb128 0x6
 2318 0bac 49030000 		.4byte	.LASF148
 2319 0bb0 0F       		.byte	0xf
 2320 0bb1 76       		.byte	0x76
 2321 0bb2 A4050000 		.4byte	0x5a4
 2322 0bb6 02       		.byte	0x2
 2323 0bb7 23       		.byte	0x23
 2324 0bb8 00       		.uleb128 0
 2325 0bb9 06       		.uleb128 0x6
 2326 0bba 09060000 		.4byte	.LASF149
 2327 0bbe 0F       		.byte	0xf
 2328 0bbf 76       		.byte	0x76
 2329 0bc0 C4050000 		.4byte	0x5c4
 2330 0bc4 02       		.byte	0x2
 2331 0bc5 23       		.byte	0x23
 2332 0bc6 04       		.uleb128 0x4
 2333 0bc7 07       		.uleb128 0x7
 2334 0bc8 70757400 		.ascii	"put\000"
ARM GAS  /tmp/cc44dd1z.s 			page 42


 2335 0bcc 0F       		.byte	0xf
 2336 0bcd 76       		.byte	0x76
 2337 0bce DF050000 		.4byte	0x5df
 2338 0bd2 02       		.byte	0x2
 2339 0bd3 23       		.byte	0x23
 2340 0bd4 08       		.uleb128 0x8
 2341 0bd5 07       		.uleb128 0x7
 2342 0bd6 67657400 		.ascii	"get\000"
 2343 0bda 0F       		.byte	0xf
 2344 0bdb 76       		.byte	0x76
 2345 0bdc A2040000 		.4byte	0x4a2
 2346 0be0 02       		.byte	0x2
 2347 0be1 23       		.byte	0x23
 2348 0be2 0C       		.uleb128 0xc
 2349 0be3 06       		.uleb128 0x6
 2350 0be4 4F030000 		.4byte	.LASF150
 2351 0be8 0F       		.byte	0xf
 2352 0be9 76       		.byte	0x76
 2353 0bea CA080000 		.4byte	0x8ca
 2354 0bee 02       		.byte	0x2
 2355 0bef 23       		.byte	0x23
 2356 0bf0 10       		.uleb128 0x10
 2357 0bf1 06       		.uleb128 0x6
 2358 0bf2 84020000 		.4byte	.LASF151
 2359 0bf6 0F       		.byte	0xf
 2360 0bf7 76       		.byte	0x76
 2361 0bf8 E5080000 		.4byte	0x8e5
 2362 0bfc 02       		.byte	0x2
 2363 0bfd 23       		.byte	0x23
 2364 0bfe 14       		.uleb128 0x14
 2365 0bff 06       		.uleb128 0x6
 2366 0c00 F6020000 		.4byte	.LASF152
 2367 0c04 0F       		.byte	0xf
 2368 0c05 76       		.byte	0x76
 2369 0c06 0A090000 		.4byte	0x90a
 2370 0c0a 02       		.byte	0x2
 2371 0c0b 23       		.byte	0x23
 2372 0c0c 18       		.uleb128 0x18
 2373 0c0d 06       		.uleb128 0x6
 2374 0c0e D1000000 		.4byte	.LASF153
 2375 0c12 0F       		.byte	0xf
 2376 0c13 76       		.byte	0x76
 2377 0c14 2F090000 		.4byte	0x92f
 2378 0c18 02       		.byte	0x2
 2379 0c19 23       		.byte	0x23
 2380 0c1a 1C       		.uleb128 0x1c
 2381 0c1b 00       		.byte	0
 2382 0c1c 09       		.uleb128 0x9
 2383 0c1d 04       		.byte	0x4
 2384 0c1e 220C0000 		.4byte	0xc22
 2385 0c22 10       		.uleb128 0x10
 2386 0c23 9F0B0000 		.4byte	0xb9f
 2387 0c27 1A       		.uleb128 0x1a
 2388 0c28 49000000 		.4byte	0x49
 2389 0c2c 370C0000 		.4byte	0xc37
 2390 0c30 1B       		.uleb128 0x1b
 2391 0c31 7F030000 		.4byte	0x37f
ARM GAS  /tmp/cc44dd1z.s 			page 43


 2392 0c35 0F       		.byte	0xf
 2393 0c36 00       		.byte	0
 2394 0c37 09       		.uleb128 0x9
 2395 0c38 04       		.byte	0x4
 2396 0c39 3E080000 		.4byte	0x83e
 2397 0c3d 1C       		.uleb128 0x1c
 2398 0c3e 01       		.byte	0x1
 2399 0c3f 4B020000 		.4byte	.LASF156
 2400 0c43 01       		.byte	0x1
 2401 0c44 0F       		.byte	0xf
 2402 0c45 01       		.byte	0x1
 2403 0c46 00000000 		.4byte	.LFB63
 2404 0c4a 48000000 		.4byte	.LFE63
 2405 0c4e 00000000 		.4byte	.LLST0
 2406 0c52 01       		.byte	0x1
 2407 0c53 020D0000 		.4byte	0xd02
 2408 0c57 1D       		.uleb128 0x1d
 2409 0c58 9D030000 		.4byte	.LASF154
 2410 0c5c 01       		.byte	0x1
 2411 0c5d 0F       		.byte	0xf
 2412 0c5e 020D0000 		.4byte	0xd02
 2413 0c62 2C000000 		.4byte	.LLST1
 2414 0c66 1D       		.uleb128 0x1d
 2415 0c67 77000000 		.4byte	.LASF133
 2416 0c6b 01       		.byte	0x1
 2417 0c6c 0F       		.byte	0xf
 2418 0c6d 49000000 		.4byte	0x49
 2419 0c71 4A000000 		.4byte	.LLST2
 2420 0c75 1E       		.uleb128 0x1e
 2421 0c76 90020000 		.4byte	.LASF155
 2422 0c7a 01       		.byte	0x1
 2423 0c7b 11       		.byte	0x11
 2424 0c7c 080D0000 		.4byte	0xd08
 2425 0c80 02       		.byte	0x2
 2426 0c81 91       		.byte	0x91
 2427 0c82 68       		.sleb128 -24
 2428 0c83 1F       		.uleb128 0x1f
 2429 0c84 6D736700 		.ascii	"msg\000"
 2430 0c88 01       		.byte	0x1
 2431 0c89 12       		.byte	0x12
 2432 0c8a EF000000 		.4byte	0xef
 2433 0c8e 6B000000 		.4byte	.LLST3
 2434 0c92 20       		.uleb128 0x20
 2435 0c93 18000000 		.4byte	.LVL2
 2436 0c97 A8130000 		.4byte	0x13a8
 2437 0c9b A60C0000 		.4byte	0xca6
 2438 0c9f 21       		.uleb128 0x21
 2439 0ca0 01       		.byte	0x1
 2440 0ca1 50       		.byte	0x50
 2441 0ca2 02       		.byte	0x2
 2442 0ca3 74       		.byte	0x74
 2443 0ca4 00       		.sleb128 0
 2444 0ca5 00       		.byte	0
 2445 0ca6 20       		.uleb128 0x20
 2446 0ca7 2E000000 		.4byte	.LVL3
 2447 0cab BC130000 		.4byte	0x13bc
 2448 0caf DD0C0000 		.4byte	0xcdd
ARM GAS  /tmp/cc44dd1z.s 			page 44


 2449 0cb3 21       		.uleb128 0x21
 2450 0cb4 01       		.byte	0x1
 2451 0cb5 53       		.byte	0x53
 2452 0cb6 01       		.byte	0x1
 2453 0cb7 32       		.byte	0x32
 2454 0cb8 21       		.uleb128 0x21
 2455 0cb9 01       		.byte	0x1
 2456 0cba 52       		.byte	0x52
 2457 0cbb 02       		.byte	0x2
 2458 0cbc 91       		.byte	0x91
 2459 0cbd 68       		.sleb128 -24
 2460 0cbe 21       		.uleb128 0x21
 2461 0cbf 01       		.byte	0x1
 2462 0cc0 51       		.byte	0x51
 2463 0cc1 02       		.byte	0x2
 2464 0cc2 75       		.byte	0x75
 2465 0cc3 00       		.sleb128 0
 2466 0cc4 21       		.uleb128 0x21
 2467 0cc5 01       		.byte	0x1
 2468 0cc6 50       		.byte	0x50
 2469 0cc7 02       		.byte	0x2
 2470 0cc8 74       		.byte	0x74
 2471 0cc9 00       		.sleb128 0
 2472 0cca 21       		.uleb128 0x21
 2473 0ccb 02       		.byte	0x2
 2474 0ccc 7D       		.byte	0x7d
 2475 0ccd 08       		.sleb128 8
 2476 0cce 01       		.byte	0x1
 2477 0ccf 34       		.byte	0x34
 2478 0cd0 21       		.uleb128 0x21
 2479 0cd1 02       		.byte	0x2
 2480 0cd2 7D       		.byte	0x7d
 2481 0cd3 04       		.sleb128 4
 2482 0cd4 01       		.byte	0x1
 2483 0cd5 30       		.byte	0x30
 2484 0cd6 21       		.uleb128 0x21
 2485 0cd7 02       		.byte	0x2
 2486 0cd8 7D       		.byte	0x7d
 2487 0cd9 00       		.sleb128 0
 2488 0cda 01       		.byte	0x1
 2489 0cdb 30       		.byte	0x30
 2490 0cdc 00       		.byte	0
 2491 0cdd 20       		.uleb128 0x20
 2492 0cde 36000000 		.4byte	.LVL6
 2493 0ce2 F2130000 		.4byte	0x13f2
 2494 0ce6 F10C0000 		.4byte	0xcf1
 2495 0cea 21       		.uleb128 0x21
 2496 0ceb 01       		.byte	0x1
 2497 0cec 50       		.byte	0x50
 2498 0ced 02       		.byte	0x2
 2499 0cee 74       		.byte	0x74
 2500 0cef 00       		.sleb128 0
 2501 0cf0 00       		.byte	0
 2502 0cf1 22       		.uleb128 0x22
 2503 0cf2 40000000 		.4byte	.LVL7
 2504 0cf6 06140000 		.4byte	0x1406
 2505 0cfa 21       		.uleb128 0x21
ARM GAS  /tmp/cc44dd1z.s 			page 45


 2506 0cfb 01       		.byte	0x1
 2507 0cfc 50       		.byte	0x50
 2508 0cfd 02       		.byte	0x2
 2509 0cfe 74       		.byte	0x74
 2510 0cff 00       		.sleb128 0
 2511 0d00 00       		.byte	0
 2512 0d01 00       		.byte	0
 2513 0d02 09       		.uleb128 0x9
 2514 0d03 04       		.byte	0x4
 2515 0d04 180A0000 		.4byte	0xa18
 2516 0d08 1A       		.uleb128 0x1a
 2517 0d09 49000000 		.4byte	0x49
 2518 0d0d 180D0000 		.4byte	0xd18
 2519 0d11 1B       		.uleb128 0x1b
 2520 0d12 7F030000 		.4byte	0x37f
 2521 0d16 07       		.byte	0x7
 2522 0d17 00       		.byte	0
 2523 0d18 23       		.uleb128 0x23
 2524 0d19 01       		.byte	0x1
 2525 0d1a 93060000 		.4byte	.LASF157
 2526 0d1e 01       		.byte	0x1
 2527 0d1f 1D       		.byte	0x1d
 2528 0d20 01       		.byte	0x1
 2529 0d21 00000000 		.4byte	.LFB64
 2530 0d25 AC000000 		.4byte	.LFE64
 2531 0d29 89000000 		.4byte	.LLST4
 2532 0d2d 01       		.byte	0x1
 2533 0d2e 420E0000 		.4byte	0xe42
 2534 0d32 1D       		.uleb128 0x1d
 2535 0d33 9D030000 		.4byte	.LASF154
 2536 0d37 01       		.byte	0x1
 2537 0d38 1D       		.byte	0x1d
 2538 0d39 020D0000 		.4byte	0xd02
 2539 0d3d B6000000 		.4byte	.LLST5
 2540 0d41 1D       		.uleb128 0x1d
 2541 0d42 77000000 		.4byte	.LASF133
 2542 0d46 01       		.byte	0x1
 2543 0d47 1D       		.byte	0x1d
 2544 0d48 49000000 		.4byte	0x49
 2545 0d4c E2000000 		.4byte	.LLST6
 2546 0d50 1D       		.uleb128 0x1d
 2547 0d51 72020000 		.4byte	.LASF158
 2548 0d55 01       		.byte	0x1
 2549 0d56 1D       		.byte	0x1d
 2550 0d57 420E0000 		.4byte	0xe42
 2551 0d5b 03010000 		.4byte	.LLST7
 2552 0d5f 1D       		.uleb128 0x1d
 2553 0d60 78020000 		.4byte	.LASF159
 2554 0d64 01       		.byte	0x1
 2555 0d65 1D       		.byte	0x1d
 2556 0d66 420E0000 		.4byte	0xe42
 2557 0d6a 21010000 		.4byte	.LLST8
 2558 0d6e 24       		.uleb128 0x24
 2559 0d6f 7E020000 		.4byte	.LASF160
 2560 0d73 01       		.byte	0x1
 2561 0d74 1D       		.byte	0x1d
 2562 0d75 420E0000 		.4byte	0xe42
ARM GAS  /tmp/cc44dd1z.s 			page 46


 2563 0d79 02       		.byte	0x2
 2564 0d7a 91       		.byte	0x91
 2565 0d7b 00       		.sleb128 0
 2566 0d7c 1E       		.uleb128 0x1e
 2567 0d7d 90020000 		.4byte	.LASF155
 2568 0d81 01       		.byte	0x1
 2569 0d82 1F       		.byte	0x1f
 2570 0d83 080D0000 		.4byte	0xd08
 2571 0d87 02       		.byte	0x2
 2572 0d88 91       		.byte	0x91
 2573 0d89 58       		.sleb128 -40
 2574 0d8a 1E       		.uleb128 0x1e
 2575 0d8b 53020000 		.4byte	.LASF161
 2576 0d8f 01       		.byte	0x1
 2577 0d90 20       		.byte	0x20
 2578 0d91 4F0E0000 		.4byte	0xe4f
 2579 0d95 02       		.byte	0x2
 2580 0d96 91       		.byte	0x91
 2581 0d97 50       		.sleb128 -48
 2582 0d98 25       		.uleb128 0x25
 2583 0d99 D5060000 		.4byte	.LASF162
 2584 0d9d 01       		.byte	0x1
 2585 0d9e 21       		.byte	0x21
 2586 0d9f 62000000 		.4byte	0x62
 2587 0da3 3F010000 		.4byte	.LLST9
 2588 0da7 1E       		.uleb128 0x1e
 2589 0da8 DB060000 		.4byte	.LASF163
 2590 0dac 01       		.byte	0x1
 2591 0dad 22       		.byte	0x22
 2592 0dae 62000000 		.4byte	0x62
 2593 0db2 01       		.byte	0x1
 2594 0db3 55       		.byte	0x55
 2595 0db4 1E       		.uleb128 0x1e
 2596 0db5 E1060000 		.4byte	.LASF164
 2597 0db9 01       		.byte	0x1
 2598 0dba 23       		.byte	0x23
 2599 0dbb 62000000 		.4byte	0x62
 2600 0dbf 01       		.byte	0x1
 2601 0dc0 54       		.byte	0x54
 2602 0dc1 1F       		.uleb128 0x1f
 2603 0dc2 6D736700 		.ascii	"msg\000"
 2604 0dc6 01       		.byte	0x1
 2605 0dc7 24       		.byte	0x24
 2606 0dc8 EF000000 		.4byte	0xef
 2607 0dcc 63010000 		.4byte	.LLST10
 2608 0dd0 20       		.uleb128 0x20
 2609 0dd1 1A000000 		.4byte	.LVL9
 2610 0dd5 A8130000 		.4byte	0x13a8
 2611 0dd9 E40D0000 		.4byte	0xde4
 2612 0ddd 21       		.uleb128 0x21
 2613 0dde 01       		.byte	0x1
 2614 0ddf 50       		.byte	0x50
 2615 0de0 02       		.byte	0x2
 2616 0de1 75       		.byte	0x75
 2617 0de2 00       		.sleb128 0
 2618 0de3 00       		.byte	0
 2619 0de4 20       		.uleb128 0x20
ARM GAS  /tmp/cc44dd1z.s 			page 47


 2620 0de5 32000000 		.4byte	.LVL10
 2621 0de9 BC130000 		.4byte	0x13bc
 2622 0ded 1D0E0000 		.4byte	0xe1d
 2623 0df1 21       		.uleb128 0x21
 2624 0df2 01       		.byte	0x1
 2625 0df3 53       		.byte	0x53
 2626 0df4 02       		.byte	0x2
 2627 0df5 76       		.byte	0x76
 2628 0df6 00       		.sleb128 0
 2629 0df7 21       		.uleb128 0x21
 2630 0df8 01       		.byte	0x1
 2631 0df9 52       		.byte	0x52
 2632 0dfa 02       		.byte	0x2
 2633 0dfb 74       		.byte	0x74
 2634 0dfc 00       		.sleb128 0
 2635 0dfd 21       		.uleb128 0x21
 2636 0dfe 01       		.byte	0x1
 2637 0dff 51       		.byte	0x51
 2638 0e00 02       		.byte	0x2
 2639 0e01 79       		.byte	0x79
 2640 0e02 00       		.sleb128 0
 2641 0e03 21       		.uleb128 0x21
 2642 0e04 01       		.byte	0x1
 2643 0e05 50       		.byte	0x50
 2644 0e06 02       		.byte	0x2
 2645 0e07 75       		.byte	0x75
 2646 0e08 00       		.sleb128 0
 2647 0e09 21       		.uleb128 0x21
 2648 0e0a 02       		.byte	0x2
 2649 0e0b 7D       		.byte	0x7d
 2650 0e0c 08       		.sleb128 8
 2651 0e0d 01       		.byte	0x1
 2652 0e0e 34       		.byte	0x34
 2653 0e0f 21       		.uleb128 0x21
 2654 0e10 02       		.byte	0x2
 2655 0e11 7D       		.byte	0x7d
 2656 0e12 04       		.sleb128 4
 2657 0e13 01       		.byte	0x1
 2658 0e14 36       		.byte	0x36
 2659 0e15 21       		.uleb128 0x21
 2660 0e16 02       		.byte	0x2
 2661 0e17 7D       		.byte	0x7d
 2662 0e18 00       		.sleb128 0
 2663 0e19 02       		.byte	0x2
 2664 0e1a 91       		.byte	0x91
 2665 0e1b 50       		.sleb128 -48
 2666 0e1c 00       		.byte	0
 2667 0e1d 20       		.uleb128 0x20
 2668 0e1e 3A000000 		.4byte	.LVL13
 2669 0e22 F2130000 		.4byte	0x13f2
 2670 0e26 310E0000 		.4byte	0xe31
 2671 0e2a 21       		.uleb128 0x21
 2672 0e2b 01       		.byte	0x1
 2673 0e2c 50       		.byte	0x50
 2674 0e2d 02       		.byte	0x2
 2675 0e2e 75       		.byte	0x75
 2676 0e2f 00       		.sleb128 0
ARM GAS  /tmp/cc44dd1z.s 			page 48


 2677 0e30 00       		.byte	0
 2678 0e31 22       		.uleb128 0x22
 2679 0e32 44000000 		.4byte	.LVL14
 2680 0e36 06140000 		.4byte	0x1406
 2681 0e3a 21       		.uleb128 0x21
 2682 0e3b 01       		.byte	0x1
 2683 0e3c 50       		.byte	0x50
 2684 0e3d 02       		.byte	0x2
 2685 0e3e 75       		.byte	0x75
 2686 0e3f 00       		.sleb128 0
 2687 0e40 00       		.byte	0
 2688 0e41 00       		.byte	0
 2689 0e42 09       		.uleb128 0x9
 2690 0e43 04       		.byte	0x4
 2691 0e44 480E0000 		.4byte	0xe48
 2692 0e48 04       		.uleb128 0x4
 2693 0e49 04       		.byte	0x4
 2694 0e4a 04       		.byte	0x4
 2695 0e4b 15040000 		.4byte	.LASF165
 2696 0e4f 1A       		.uleb128 0x1a
 2697 0e50 49000000 		.4byte	0x49
 2698 0e54 5F0E0000 		.4byte	0xe5f
 2699 0e58 1B       		.uleb128 0x1b
 2700 0e59 7F030000 		.4byte	0x37f
 2701 0e5d 05       		.byte	0x5
 2702 0e5e 00       		.byte	0
 2703 0e5f 1C       		.uleb128 0x1c
 2704 0e60 01       		.byte	0x1
 2705 0e61 1B040000 		.4byte	.LASF166
 2706 0e65 01       		.byte	0x1
 2707 0e66 36       		.byte	0x36
 2708 0e67 01       		.byte	0x1
 2709 0e68 00000000 		.4byte	.LFB65
 2710 0e6c 84000000 		.4byte	.LFE65
 2711 0e70 81010000 		.4byte	.LLST11
 2712 0e74 01       		.byte	0x1
 2713 0e75 970F0000 		.4byte	0xf97
 2714 0e79 1D       		.uleb128 0x1d
 2715 0e7a 9D030000 		.4byte	.LASF154
 2716 0e7e 01       		.byte	0x1
 2717 0e7f 36       		.byte	0x36
 2718 0e80 020D0000 		.4byte	0xd02
 2719 0e84 AD010000 		.4byte	.LLST12
 2720 0e88 1D       		.uleb128 0x1d
 2721 0e89 77000000 		.4byte	.LASF133
 2722 0e8d 01       		.byte	0x1
 2723 0e8e 36       		.byte	0x36
 2724 0e8f 49000000 		.4byte	0x49
 2725 0e93 CB010000 		.4byte	.LLST13
 2726 0e97 1E       		.uleb128 0x1e
 2727 0e98 90020000 		.4byte	.LASF155
 2728 0e9c 01       		.byte	0x1
 2729 0e9d 38       		.byte	0x38
 2730 0e9e 080D0000 		.4byte	0xd08
 2731 0ea2 02       		.byte	0x2
 2732 0ea3 91       		.byte	0x91
 2733 0ea4 68       		.sleb128 -24
ARM GAS  /tmp/cc44dd1z.s 			page 49


 2734 0ea5 1F       		.uleb128 0x1f
 2735 0ea6 6D736700 		.ascii	"msg\000"
 2736 0eaa 01       		.byte	0x1
 2737 0eab 39       		.byte	0x39
 2738 0eac EF000000 		.4byte	0xef
 2739 0eb0 EC010000 		.4byte	.LLST14
 2740 0eb4 20       		.uleb128 0x20
 2741 0eb5 18000000 		.4byte	.LVL27
 2742 0eb9 A8130000 		.4byte	0x13a8
 2743 0ebd C80E0000 		.4byte	0xec8
 2744 0ec1 21       		.uleb128 0x21
 2745 0ec2 01       		.byte	0x1
 2746 0ec3 50       		.byte	0x50
 2747 0ec4 02       		.byte	0x2
 2748 0ec5 74       		.byte	0x74
 2749 0ec6 00       		.sleb128 0
 2750 0ec7 00       		.byte	0
 2751 0ec8 20       		.uleb128 0x20
 2752 0ec9 2E000000 		.4byte	.LVL28
 2753 0ecd BC130000 		.4byte	0x13bc
 2754 0ed1 FF0E0000 		.4byte	0xeff
 2755 0ed5 21       		.uleb128 0x21
 2756 0ed6 01       		.byte	0x1
 2757 0ed7 53       		.byte	0x53
 2758 0ed8 01       		.byte	0x1
 2759 0ed9 32       		.byte	0x32
 2760 0eda 21       		.uleb128 0x21
 2761 0edb 01       		.byte	0x1
 2762 0edc 52       		.byte	0x52
 2763 0edd 02       		.byte	0x2
 2764 0ede 91       		.byte	0x91
 2765 0edf 68       		.sleb128 -24
 2766 0ee0 21       		.uleb128 0x21
 2767 0ee1 01       		.byte	0x1
 2768 0ee2 51       		.byte	0x51
 2769 0ee3 02       		.byte	0x2
 2770 0ee4 75       		.byte	0x75
 2771 0ee5 00       		.sleb128 0
 2772 0ee6 21       		.uleb128 0x21
 2773 0ee7 01       		.byte	0x1
 2774 0ee8 50       		.byte	0x50
 2775 0ee9 02       		.byte	0x2
 2776 0eea 74       		.byte	0x74
 2777 0eeb 00       		.sleb128 0
 2778 0eec 21       		.uleb128 0x21
 2779 0eed 02       		.byte	0x2
 2780 0eee 7D       		.byte	0x7d
 2781 0eef 08       		.sleb128 8
 2782 0ef0 01       		.byte	0x1
 2783 0ef1 34       		.byte	0x34
 2784 0ef2 21       		.uleb128 0x21
 2785 0ef3 02       		.byte	0x2
 2786 0ef4 7D       		.byte	0x7d
 2787 0ef5 04       		.sleb128 4
 2788 0ef6 01       		.byte	0x1
 2789 0ef7 30       		.byte	0x30
 2790 0ef8 21       		.uleb128 0x21
ARM GAS  /tmp/cc44dd1z.s 			page 50


 2791 0ef9 02       		.byte	0x2
 2792 0efa 7D       		.byte	0x7d
 2793 0efb 00       		.sleb128 0
 2794 0efc 01       		.byte	0x1
 2795 0efd 30       		.byte	0x30
 2796 0efe 00       		.byte	0
 2797 0eff 20       		.uleb128 0x20
 2798 0f00 36000000 		.4byte	.LVL31
 2799 0f04 F2130000 		.4byte	0x13f2
 2800 0f08 130F0000 		.4byte	0xf13
 2801 0f0c 21       		.uleb128 0x21
 2802 0f0d 01       		.byte	0x1
 2803 0f0e 50       		.byte	0x50
 2804 0f0f 02       		.byte	0x2
 2805 0f10 74       		.byte	0x74
 2806 0f11 00       		.sleb128 0
 2807 0f12 00       		.byte	0
 2808 0f13 20       		.uleb128 0x20
 2809 0f14 4A000000 		.4byte	.LVL32
 2810 0f18 A8130000 		.4byte	0x13a8
 2811 0f1c 270F0000 		.4byte	0xf27
 2812 0f20 21       		.uleb128 0x21
 2813 0f21 01       		.byte	0x1
 2814 0f22 50       		.byte	0x50
 2815 0f23 02       		.byte	0x2
 2816 0f24 74       		.byte	0x74
 2817 0f25 00       		.sleb128 0
 2818 0f26 00       		.byte	0
 2819 0f27 20       		.uleb128 0x20
 2820 0f28 60000000 		.4byte	.LVL33
 2821 0f2c BC130000 		.4byte	0x13bc
 2822 0f30 5E0F0000 		.4byte	0xf5e
 2823 0f34 21       		.uleb128 0x21
 2824 0f35 01       		.byte	0x1
 2825 0f36 53       		.byte	0x53
 2826 0f37 01       		.byte	0x1
 2827 0f38 32       		.byte	0x32
 2828 0f39 21       		.uleb128 0x21
 2829 0f3a 01       		.byte	0x1
 2830 0f3b 52       		.byte	0x52
 2831 0f3c 02       		.byte	0x2
 2832 0f3d 91       		.byte	0x91
 2833 0f3e 68       		.sleb128 -24
 2834 0f3f 21       		.uleb128 0x21
 2835 0f40 01       		.byte	0x1
 2836 0f41 51       		.byte	0x51
 2837 0f42 02       		.byte	0x2
 2838 0f43 75       		.byte	0x75
 2839 0f44 00       		.sleb128 0
 2840 0f45 21       		.uleb128 0x21
 2841 0f46 01       		.byte	0x1
 2842 0f47 50       		.byte	0x50
 2843 0f48 02       		.byte	0x2
 2844 0f49 74       		.byte	0x74
 2845 0f4a 00       		.sleb128 0
 2846 0f4b 21       		.uleb128 0x21
 2847 0f4c 02       		.byte	0x2
ARM GAS  /tmp/cc44dd1z.s 			page 51


 2848 0f4d 7D       		.byte	0x7d
 2849 0f4e 08       		.sleb128 8
 2850 0f4f 01       		.byte	0x1
 2851 0f50 34       		.byte	0x34
 2852 0f51 21       		.uleb128 0x21
 2853 0f52 02       		.byte	0x2
 2854 0f53 7D       		.byte	0x7d
 2855 0f54 04       		.sleb128 4
 2856 0f55 01       		.byte	0x1
 2857 0f56 30       		.byte	0x30
 2858 0f57 21       		.uleb128 0x21
 2859 0f58 02       		.byte	0x2
 2860 0f59 7D       		.byte	0x7d
 2861 0f5a 00       		.sleb128 0
 2862 0f5b 01       		.byte	0x1
 2863 0f5c 30       		.byte	0x30
 2864 0f5d 00       		.byte	0
 2865 0f5e 20       		.uleb128 0x20
 2866 0f5f 68000000 		.4byte	.LVL36
 2867 0f63 F2130000 		.4byte	0x13f2
 2868 0f67 720F0000 		.4byte	0xf72
 2869 0f6b 21       		.uleb128 0x21
 2870 0f6c 01       		.byte	0x1
 2871 0f6d 50       		.byte	0x50
 2872 0f6e 02       		.byte	0x2
 2873 0f6f 74       		.byte	0x74
 2874 0f70 00       		.sleb128 0
 2875 0f71 00       		.byte	0
 2876 0f72 20       		.uleb128 0x20
 2877 0f73 72000000 		.4byte	.LVL37
 2878 0f77 06140000 		.4byte	0x1406
 2879 0f7b 860F0000 		.4byte	0xf86
 2880 0f7f 21       		.uleb128 0x21
 2881 0f80 01       		.byte	0x1
 2882 0f81 50       		.byte	0x50
 2883 0f82 02       		.byte	0x2
 2884 0f83 74       		.byte	0x74
 2885 0f84 00       		.sleb128 0
 2886 0f85 00       		.byte	0
 2887 0f86 22       		.uleb128 0x22
 2888 0f87 7E000000 		.4byte	.LVL39
 2889 0f8b 06140000 		.4byte	0x1406
 2890 0f8f 21       		.uleb128 0x21
 2891 0f90 01       		.byte	0x1
 2892 0f91 50       		.byte	0x50
 2893 0f92 02       		.byte	0x2
 2894 0f93 74       		.byte	0x74
 2895 0f94 00       		.sleb128 0
 2896 0f95 00       		.byte	0
 2897 0f96 00       		.byte	0
 2898 0f97 23       		.uleb128 0x23
 2899 0f98 01       		.byte	0x1
 2900 0f99 FB000000 		.4byte	.LASF167
 2901 0f9d 01       		.byte	0x1
 2902 0f9e 4B       		.byte	0x4b
 2903 0f9f 01       		.byte	0x1
 2904 0fa0 00000000 		.4byte	.LFB66
ARM GAS  /tmp/cc44dd1z.s 			page 52


 2905 0fa4 AC010000 		.4byte	.LFE66
 2906 0fa8 2B020000 		.4byte	.LLST15
 2907 0fac 01       		.byte	0x1
 2908 0fad 99120000 		.4byte	0x1299
 2909 0fb1 1D       		.uleb128 0x1d
 2910 0fb2 9D030000 		.4byte	.LASF154
 2911 0fb6 01       		.byte	0x1
 2912 0fb7 4B       		.byte	0x4b
 2913 0fb8 020D0000 		.4byte	0xd02
 2914 0fbc 58020000 		.4byte	.LLST16
 2915 0fc0 1D       		.uleb128 0x1d
 2916 0fc1 77000000 		.4byte	.LASF133
 2917 0fc5 01       		.byte	0x1
 2918 0fc6 4B       		.byte	0x4b
 2919 0fc7 49000000 		.4byte	0x49
 2920 0fcb 76020000 		.4byte	.LLST17
 2921 0fcf 1D       		.uleb128 0x1d
 2922 0fd0 5D030000 		.4byte	.LASF168
 2923 0fd4 01       		.byte	0x1
 2924 0fd5 4B       		.byte	0x4b
 2925 0fd6 420E0000 		.4byte	0xe42
 2926 0fda 97020000 		.4byte	.LLST18
 2927 0fde 1D       		.uleb128 0x1d
 2928 0fdf 64030000 		.4byte	.LASF169
 2929 0fe3 01       		.byte	0x1
 2930 0fe4 4B       		.byte	0x4b
 2931 0fe5 420E0000 		.4byte	0xe42
 2932 0fe9 B5020000 		.4byte	.LLST19
 2933 0fed 24       		.uleb128 0x24
 2934 0fee 6B030000 		.4byte	.LASF170
 2935 0ff2 01       		.byte	0x1
 2936 0ff3 4B       		.byte	0x4b
 2937 0ff4 420E0000 		.4byte	0xe42
 2938 0ff8 02       		.byte	0x2
 2939 0ff9 91       		.byte	0x91
 2940 0ffa 00       		.sleb128 0
 2941 0ffb 1E       		.uleb128 0x1e
 2942 0ffc 90020000 		.4byte	.LASF155
 2943 1000 01       		.byte	0x1
 2944 1001 4D       		.byte	0x4d
 2945 1002 080D0000 		.4byte	0xd08
 2946 1006 02       		.byte	0x2
 2947 1007 91       		.byte	0x91
 2948 1008 50       		.sleb128 -48
 2949 1009 1E       		.uleb128 0x1e
 2950 100a 53020000 		.4byte	.LASF161
 2951 100e 01       		.byte	0x1
 2952 100f 4E       		.byte	0x4e
 2953 1010 4F0E0000 		.4byte	0xe4f
 2954 1014 02       		.byte	0x2
 2955 1015 91       		.byte	0x91
 2956 1016 48       		.sleb128 -56
 2957 1017 25       		.uleb128 0x25
 2958 1018 D5060000 		.4byte	.LASF162
 2959 101c 01       		.byte	0x1
 2960 101d 4F       		.byte	0x4f
 2961 101e 62000000 		.4byte	0x62
ARM GAS  /tmp/cc44dd1z.s 			page 53


 2962 1022 D3020000 		.4byte	.LLST20
 2963 1026 25       		.uleb128 0x25
 2964 1027 DB060000 		.4byte	.LASF163
 2965 102b 01       		.byte	0x1
 2966 102c 50       		.byte	0x50
 2967 102d 62000000 		.4byte	0x62
 2968 1031 E6020000 		.4byte	.LLST21
 2969 1035 25       		.uleb128 0x25
 2970 1036 E1060000 		.4byte	.LASF164
 2971 103a 01       		.byte	0x1
 2972 103b 51       		.byte	0x51
 2973 103c 62000000 		.4byte	0x62
 2974 1040 F9020000 		.4byte	.LLST22
 2975 1044 1F       		.uleb128 0x1f
 2976 1045 6C736200 		.ascii	"lsb\000"
 2977 1049 01       		.byte	0x1
 2978 104a 52       		.byte	0x52
 2979 104b 49000000 		.4byte	0x49
 2980 104f 0C030000 		.4byte	.LLST23
 2981 1053 1F       		.uleb128 0x1f
 2982 1054 6D736700 		.ascii	"msg\000"
 2983 1058 01       		.byte	0x1
 2984 1059 53       		.byte	0x53
 2985 105a EF000000 		.4byte	0xef
 2986 105e 64030000 		.4byte	.LLST24
 2987 1062 20       		.uleb128 0x20
 2988 1063 1C000000 		.4byte	.LVL42
 2989 1067 A8130000 		.4byte	0x13a8
 2990 106b 76100000 		.4byte	0x1076
 2991 106f 21       		.uleb128 0x21
 2992 1070 01       		.byte	0x1
 2993 1071 50       		.byte	0x50
 2994 1072 02       		.byte	0x2
 2995 1073 74       		.byte	0x74
 2996 1074 00       		.sleb128 0
 2997 1075 00       		.byte	0
 2998 1076 20       		.uleb128 0x20
 2999 1077 32000000 		.4byte	.LVL43
 3000 107b BC130000 		.4byte	0x13bc
 3001 107f AE100000 		.4byte	0x10ae
 3002 1083 21       		.uleb128 0x21
 3003 1084 01       		.byte	0x1
 3004 1085 53       		.byte	0x53
 3005 1086 01       		.byte	0x1
 3006 1087 31       		.byte	0x31
 3007 1088 21       		.uleb128 0x21
 3008 1089 01       		.byte	0x1
 3009 108a 52       		.byte	0x52
 3010 108b 02       		.byte	0x2
 3011 108c 75       		.byte	0x75
 3012 108d 00       		.sleb128 0
 3013 108e 21       		.uleb128 0x21
 3014 108f 01       		.byte	0x1
 3015 1090 51       		.byte	0x51
 3016 1091 02       		.byte	0x2
 3017 1092 76       		.byte	0x76
 3018 1093 00       		.sleb128 0
ARM GAS  /tmp/cc44dd1z.s 			page 54


 3019 1094 21       		.uleb128 0x21
 3020 1095 01       		.byte	0x1
 3021 1096 50       		.byte	0x50
 3022 1097 02       		.byte	0x2
 3023 1098 74       		.byte	0x74
 3024 1099 00       		.sleb128 0
 3025 109a 21       		.uleb128 0x21
 3026 109b 02       		.byte	0x2
 3027 109c 7D       		.byte	0x7d
 3028 109d 08       		.sleb128 8
 3029 109e 01       		.byte	0x1
 3030 109f 34       		.byte	0x34
 3031 10a0 21       		.uleb128 0x21
 3032 10a1 02       		.byte	0x2
 3033 10a2 7D       		.byte	0x7d
 3034 10a3 04       		.sleb128 4
 3035 10a4 01       		.byte	0x1
 3036 10a5 36       		.byte	0x36
 3037 10a6 21       		.uleb128 0x21
 3038 10a7 02       		.byte	0x2
 3039 10a8 7D       		.byte	0x7d
 3040 10a9 00       		.sleb128 0
 3041 10aa 02       		.byte	0x2
 3042 10ab 77       		.byte	0x77
 3043 10ac 00       		.sleb128 0
 3044 10ad 00       		.byte	0
 3045 10ae 20       		.uleb128 0x20
 3046 10af 5A000000 		.4byte	.LVL46
 3047 10b3 BC130000 		.4byte	0x13bc
 3048 10b7 E6100000 		.4byte	0x10e6
 3049 10bb 21       		.uleb128 0x21
 3050 10bc 01       		.byte	0x1
 3051 10bd 53       		.byte	0x53
 3052 10be 01       		.byte	0x1
 3053 10bf 31       		.byte	0x31
 3054 10c0 21       		.uleb128 0x21
 3055 10c1 01       		.byte	0x1
 3056 10c2 52       		.byte	0x52
 3057 10c3 02       		.byte	0x2
 3058 10c4 75       		.byte	0x75
 3059 10c5 00       		.sleb128 0
 3060 10c6 21       		.uleb128 0x21
 3061 10c7 01       		.byte	0x1
 3062 10c8 51       		.byte	0x51
 3063 10c9 02       		.byte	0x2
 3064 10ca 76       		.byte	0x76
 3065 10cb 00       		.sleb128 0
 3066 10cc 21       		.uleb128 0x21
 3067 10cd 01       		.byte	0x1
 3068 10ce 50       		.byte	0x50
 3069 10cf 02       		.byte	0x2
 3070 10d0 74       		.byte	0x74
 3071 10d1 00       		.sleb128 0
 3072 10d2 21       		.uleb128 0x21
 3073 10d3 02       		.byte	0x2
 3074 10d4 7D       		.byte	0x7d
 3075 10d5 08       		.sleb128 8
ARM GAS  /tmp/cc44dd1z.s 			page 55


 3076 10d6 01       		.byte	0x1
 3077 10d7 34       		.byte	0x34
 3078 10d8 21       		.uleb128 0x21
 3079 10d9 02       		.byte	0x2
 3080 10da 7D       		.byte	0x7d
 3081 10db 04       		.sleb128 4
 3082 10dc 01       		.byte	0x1
 3083 10dd 36       		.byte	0x36
 3084 10de 21       		.uleb128 0x21
 3085 10df 02       		.byte	0x2
 3086 10e0 7D       		.byte	0x7d
 3087 10e1 00       		.sleb128 0
 3088 10e2 02       		.byte	0x2
 3089 10e3 77       		.byte	0x77
 3090 10e4 00       		.sleb128 0
 3091 10e5 00       		.byte	0
 3092 10e6 20       		.uleb128 0x20
 3093 10e7 62000000 		.4byte	.LVL49
 3094 10eb F2130000 		.4byte	0x13f2
 3095 10ef FA100000 		.4byte	0x10fa
 3096 10f3 21       		.uleb128 0x21
 3097 10f4 01       		.byte	0x1
 3098 10f5 50       		.byte	0x50
 3099 10f6 02       		.byte	0x2
 3100 10f7 74       		.byte	0x74
 3101 10f8 00       		.sleb128 0
 3102 10f9 00       		.byte	0
 3103 10fa 20       		.uleb128 0x20
 3104 10fb 7E000000 		.4byte	.LVL51
 3105 10ff A8130000 		.4byte	0x13a8
 3106 1103 0E110000 		.4byte	0x110e
 3107 1107 21       		.uleb128 0x21
 3108 1108 01       		.byte	0x1
 3109 1109 50       		.byte	0x50
 3110 110a 02       		.byte	0x2
 3111 110b 74       		.byte	0x74
 3112 110c 00       		.sleb128 0
 3113 110d 00       		.byte	0
 3114 110e 20       		.uleb128 0x20
 3115 110f 94000000 		.4byte	.LVL52
 3116 1113 BC130000 		.4byte	0x13bc
 3117 1117 46110000 		.4byte	0x1146
 3118 111b 21       		.uleb128 0x21
 3119 111c 01       		.byte	0x1
 3120 111d 53       		.byte	0x53
 3121 111e 01       		.byte	0x1
 3122 111f 31       		.byte	0x31
 3123 1120 21       		.uleb128 0x21
 3124 1121 01       		.byte	0x1
 3125 1122 52       		.byte	0x52
 3126 1123 02       		.byte	0x2
 3127 1124 75       		.byte	0x75
 3128 1125 00       		.sleb128 0
 3129 1126 21       		.uleb128 0x21
 3130 1127 01       		.byte	0x1
 3131 1128 51       		.byte	0x51
 3132 1129 02       		.byte	0x2
ARM GAS  /tmp/cc44dd1z.s 			page 56


 3133 112a 76       		.byte	0x76
 3134 112b 00       		.sleb128 0
 3135 112c 21       		.uleb128 0x21
 3136 112d 01       		.byte	0x1
 3137 112e 50       		.byte	0x50
 3138 112f 02       		.byte	0x2
 3139 1130 74       		.byte	0x74
 3140 1131 00       		.sleb128 0
 3141 1132 21       		.uleb128 0x21
 3142 1133 02       		.byte	0x2
 3143 1134 7D       		.byte	0x7d
 3144 1135 08       		.sleb128 8
 3145 1136 01       		.byte	0x1
 3146 1137 34       		.byte	0x34
 3147 1138 21       		.uleb128 0x21
 3148 1139 02       		.byte	0x2
 3149 113a 7D       		.byte	0x7d
 3150 113b 04       		.sleb128 4
 3151 113c 01       		.byte	0x1
 3152 113d 36       		.byte	0x36
 3153 113e 21       		.uleb128 0x21
 3154 113f 02       		.byte	0x2
 3155 1140 7D       		.byte	0x7d
 3156 1141 00       		.sleb128 0
 3157 1142 02       		.byte	0x2
 3158 1143 77       		.byte	0x77
 3159 1144 00       		.sleb128 0
 3160 1145 00       		.byte	0
 3161 1146 20       		.uleb128 0x20
 3162 1147 BA000000 		.4byte	.LVL55
 3163 114b BC130000 		.4byte	0x13bc
 3164 114f 7E110000 		.4byte	0x117e
 3165 1153 21       		.uleb128 0x21
 3166 1154 01       		.byte	0x1
 3167 1155 53       		.byte	0x53
 3168 1156 01       		.byte	0x1
 3169 1157 31       		.byte	0x31
 3170 1158 21       		.uleb128 0x21
 3171 1159 01       		.byte	0x1
 3172 115a 52       		.byte	0x52
 3173 115b 02       		.byte	0x2
 3174 115c 75       		.byte	0x75
 3175 115d 00       		.sleb128 0
 3176 115e 21       		.uleb128 0x21
 3177 115f 01       		.byte	0x1
 3178 1160 51       		.byte	0x51
 3179 1161 02       		.byte	0x2
 3180 1162 76       		.byte	0x76
 3181 1163 00       		.sleb128 0
 3182 1164 21       		.uleb128 0x21
 3183 1165 01       		.byte	0x1
 3184 1166 50       		.byte	0x50
 3185 1167 02       		.byte	0x2
 3186 1168 74       		.byte	0x74
 3187 1169 00       		.sleb128 0
 3188 116a 21       		.uleb128 0x21
 3189 116b 02       		.byte	0x2
ARM GAS  /tmp/cc44dd1z.s 			page 57


 3190 116c 7D       		.byte	0x7d
 3191 116d 08       		.sleb128 8
 3192 116e 01       		.byte	0x1
 3193 116f 34       		.byte	0x34
 3194 1170 21       		.uleb128 0x21
 3195 1171 02       		.byte	0x2
 3196 1172 7D       		.byte	0x7d
 3197 1173 04       		.sleb128 4
 3198 1174 01       		.byte	0x1
 3199 1175 36       		.byte	0x36
 3200 1176 21       		.uleb128 0x21
 3201 1177 02       		.byte	0x2
 3202 1178 7D       		.byte	0x7d
 3203 1179 00       		.sleb128 0
 3204 117a 02       		.byte	0x2
 3205 117b 77       		.byte	0x77
 3206 117c 00       		.sleb128 0
 3207 117d 00       		.byte	0
 3208 117e 20       		.uleb128 0x20
 3209 117f C4000000 		.4byte	.LVL58
 3210 1183 F2130000 		.4byte	0x13f2
 3211 1187 92110000 		.4byte	0x1192
 3212 118b 21       		.uleb128 0x21
 3213 118c 01       		.byte	0x1
 3214 118d 50       		.byte	0x50
 3215 118e 02       		.byte	0x2
 3216 118f 74       		.byte	0x74
 3217 1190 00       		.sleb128 0
 3218 1191 00       		.byte	0
 3219 1192 20       		.uleb128 0x20
 3220 1193 DE000000 		.4byte	.LVL60
 3221 1197 A8130000 		.4byte	0x13a8
 3222 119b A6110000 		.4byte	0x11a6
 3223 119f 21       		.uleb128 0x21
 3224 11a0 01       		.byte	0x1
 3225 11a1 50       		.byte	0x50
 3226 11a2 02       		.byte	0x2
 3227 11a3 74       		.byte	0x74
 3228 11a4 00       		.sleb128 0
 3229 11a5 00       		.byte	0
 3230 11a6 20       		.uleb128 0x20
 3231 11a7 F4000000 		.4byte	.LVL61
 3232 11ab BC130000 		.4byte	0x13bc
 3233 11af DE110000 		.4byte	0x11de
 3234 11b3 21       		.uleb128 0x21
 3235 11b4 01       		.byte	0x1
 3236 11b5 53       		.byte	0x53
 3237 11b6 01       		.byte	0x1
 3238 11b7 31       		.byte	0x31
 3239 11b8 21       		.uleb128 0x21
 3240 11b9 01       		.byte	0x1
 3241 11ba 52       		.byte	0x52
 3242 11bb 02       		.byte	0x2
 3243 11bc 75       		.byte	0x75
 3244 11bd 00       		.sleb128 0
 3245 11be 21       		.uleb128 0x21
 3246 11bf 01       		.byte	0x1
ARM GAS  /tmp/cc44dd1z.s 			page 58


 3247 11c0 51       		.byte	0x51
 3248 11c1 02       		.byte	0x2
 3249 11c2 76       		.byte	0x76
 3250 11c3 00       		.sleb128 0
 3251 11c4 21       		.uleb128 0x21
 3252 11c5 01       		.byte	0x1
 3253 11c6 50       		.byte	0x50
 3254 11c7 02       		.byte	0x2
 3255 11c8 74       		.byte	0x74
 3256 11c9 00       		.sleb128 0
 3257 11ca 21       		.uleb128 0x21
 3258 11cb 02       		.byte	0x2
 3259 11cc 7D       		.byte	0x7d
 3260 11cd 08       		.sleb128 8
 3261 11ce 01       		.byte	0x1
 3262 11cf 34       		.byte	0x34
 3263 11d0 21       		.uleb128 0x21
 3264 11d1 02       		.byte	0x2
 3265 11d2 7D       		.byte	0x7d
 3266 11d3 04       		.sleb128 4
 3267 11d4 01       		.byte	0x1
 3268 11d5 36       		.byte	0x36
 3269 11d6 21       		.uleb128 0x21
 3270 11d7 02       		.byte	0x2
 3271 11d8 7D       		.byte	0x7d
 3272 11d9 00       		.sleb128 0
 3273 11da 02       		.byte	0x2
 3274 11db 77       		.byte	0x77
 3275 11dc 00       		.sleb128 0
 3276 11dd 00       		.byte	0
 3277 11de 20       		.uleb128 0x20
 3278 11df 18010000 		.4byte	.LVL64
 3279 11e3 BC130000 		.4byte	0x13bc
 3280 11e7 10120000 		.4byte	0x1210
 3281 11eb 21       		.uleb128 0x21
 3282 11ec 01       		.byte	0x1
 3283 11ed 53       		.byte	0x53
 3284 11ee 01       		.byte	0x1
 3285 11ef 31       		.byte	0x31
 3286 11f0 21       		.uleb128 0x21
 3287 11f1 01       		.byte	0x1
 3288 11f2 52       		.byte	0x52
 3289 11f3 02       		.byte	0x2
 3290 11f4 91       		.byte	0x91
 3291 11f5 50       		.sleb128 -48
 3292 11f6 21       		.uleb128 0x21
 3293 11f7 01       		.byte	0x1
 3294 11f8 50       		.byte	0x50
 3295 11f9 02       		.byte	0x2
 3296 11fa 74       		.byte	0x74
 3297 11fb 00       		.sleb128 0
 3298 11fc 21       		.uleb128 0x21
 3299 11fd 02       		.byte	0x2
 3300 11fe 7D       		.byte	0x7d
 3301 11ff 08       		.sleb128 8
 3302 1200 01       		.byte	0x1
 3303 1201 34       		.byte	0x34
ARM GAS  /tmp/cc44dd1z.s 			page 59


 3304 1202 21       		.uleb128 0x21
 3305 1203 02       		.byte	0x2
 3306 1204 7D       		.byte	0x7d
 3307 1205 04       		.sleb128 4
 3308 1206 01       		.byte	0x1
 3309 1207 36       		.byte	0x36
 3310 1208 21       		.uleb128 0x21
 3311 1209 02       		.byte	0x2
 3312 120a 7D       		.byte	0x7d
 3313 120b 00       		.sleb128 0
 3314 120c 02       		.byte	0x2
 3315 120d 77       		.byte	0x77
 3316 120e 00       		.sleb128 0
 3317 120f 00       		.byte	0
 3318 1210 20       		.uleb128 0x20
 3319 1211 20010000 		.4byte	.LVL67
 3320 1215 F2130000 		.4byte	0x13f2
 3321 1219 24120000 		.4byte	0x1224
 3322 121d 21       		.uleb128 0x21
 3323 121e 01       		.byte	0x1
 3324 121f 50       		.byte	0x50
 3325 1220 02       		.byte	0x2
 3326 1221 74       		.byte	0x74
 3327 1222 00       		.sleb128 0
 3328 1223 00       		.byte	0
 3329 1224 20       		.uleb128 0x20
 3330 1225 2A010000 		.4byte	.LVL68
 3331 1229 06140000 		.4byte	0x1406
 3332 122d 38120000 		.4byte	0x1238
 3333 1231 21       		.uleb128 0x21
 3334 1232 01       		.byte	0x1
 3335 1233 50       		.byte	0x50
 3336 1234 02       		.byte	0x2
 3337 1235 74       		.byte	0x74
 3338 1236 00       		.sleb128 0
 3339 1237 00       		.byte	0
 3340 1238 20       		.uleb128 0x20
 3341 1239 7C010000 		.4byte	.LVL78
 3342 123d 06140000 		.4byte	0x1406
 3343 1241 4C120000 		.4byte	0x124c
 3344 1245 21       		.uleb128 0x21
 3345 1246 01       		.byte	0x1
 3346 1247 50       		.byte	0x50
 3347 1248 02       		.byte	0x2
 3348 1249 74       		.byte	0x74
 3349 124a 00       		.sleb128 0
 3350 124b 00       		.byte	0
 3351 124c 20       		.uleb128 0x20
 3352 124d 86010000 		.4byte	.LVL80
 3353 1251 06140000 		.4byte	0x1406
 3354 1255 60120000 		.4byte	0x1260
 3355 1259 21       		.uleb128 0x21
 3356 125a 01       		.byte	0x1
 3357 125b 50       		.byte	0x50
 3358 125c 02       		.byte	0x2
 3359 125d 74       		.byte	0x74
 3360 125e 00       		.sleb128 0
ARM GAS  /tmp/cc44dd1z.s 			page 60


 3361 125f 00       		.byte	0
 3362 1260 20       		.uleb128 0x20
 3363 1261 90010000 		.4byte	.LVL83
 3364 1265 06140000 		.4byte	0x1406
 3365 1269 74120000 		.4byte	0x1274
 3366 126d 21       		.uleb128 0x21
 3367 126e 01       		.byte	0x1
 3368 126f 50       		.byte	0x50
 3369 1270 02       		.byte	0x2
 3370 1271 74       		.byte	0x74
 3371 1272 00       		.sleb128 0
 3372 1273 00       		.byte	0
 3373 1274 20       		.uleb128 0x20
 3374 1275 9A010000 		.4byte	.LVL85
 3375 1279 06140000 		.4byte	0x1406
 3376 127d 88120000 		.4byte	0x1288
 3377 1281 21       		.uleb128 0x21
 3378 1282 01       		.byte	0x1
 3379 1283 50       		.byte	0x50
 3380 1284 02       		.byte	0x2
 3381 1285 74       		.byte	0x74
 3382 1286 00       		.sleb128 0
 3383 1287 00       		.byte	0
 3384 1288 22       		.uleb128 0x22
 3385 1289 A4010000 		.4byte	.LVL88
 3386 128d 06140000 		.4byte	0x1406
 3387 1291 21       		.uleb128 0x21
 3388 1292 01       		.byte	0x1
 3389 1293 50       		.byte	0x50
 3390 1294 02       		.byte	0x2
 3391 1295 74       		.byte	0x74
 3392 1296 00       		.sleb128 0
 3393 1297 00       		.byte	0
 3394 1298 00       		.byte	0
 3395 1299 1C       		.uleb128 0x1c
 3396 129a 01       		.byte	0x1
 3397 129b 26050000 		.4byte	.LASF171
 3398 129f 01       		.byte	0x1
 3399 12a0 82       		.byte	0x82
 3400 12a1 01       		.byte	0x1
 3401 12a2 00000000 		.4byte	.LFB67
 3402 12a6 50000000 		.4byte	.LFE67
 3403 12aa FB030000 		.4byte	.LLST25
 3404 12ae 01       		.byte	0x1
 3405 12af 7C130000 		.4byte	0x137c
 3406 12b3 1D       		.uleb128 0x1d
 3407 12b4 9D030000 		.4byte	.LASF154
 3408 12b8 01       		.byte	0x1
 3409 12b9 82       		.byte	0x82
 3410 12ba 020D0000 		.4byte	0xd02
 3411 12be 27040000 		.4byte	.LLST26
 3412 12c2 1D       		.uleb128 0x1d
 3413 12c3 77000000 		.4byte	.LASF133
 3414 12c7 01       		.byte	0x1
 3415 12c8 82       		.byte	0x82
 3416 12c9 49000000 		.4byte	0x49
 3417 12cd 45040000 		.4byte	.LLST27
ARM GAS  /tmp/cc44dd1z.s 			page 61


 3418 12d1 1D       		.uleb128 0x1d
 3419 12d2 7C010000 		.4byte	.LASF172
 3420 12d6 01       		.byte	0x1
 3421 12d7 82       		.byte	0x82
 3422 12d8 63050000 		.4byte	0x563
 3423 12dc 66040000 		.4byte	.LLST28
 3424 12e0 1E       		.uleb128 0x1e
 3425 12e1 90020000 		.4byte	.LASF155
 3426 12e5 01       		.byte	0x1
 3427 12e6 84       		.byte	0x84
 3428 12e7 080D0000 		.4byte	0xd08
 3429 12eb 02       		.byte	0x2
 3430 12ec 91       		.byte	0x91
 3431 12ed 60       		.sleb128 -32
 3432 12ee 1E       		.uleb128 0x1e
 3433 12ef 53020000 		.4byte	.LASF161
 3434 12f3 01       		.byte	0x1
 3435 12f4 85       		.byte	0x85
 3436 12f5 7C130000 		.4byte	0x137c
 3437 12f9 02       		.byte	0x2
 3438 12fa 91       		.byte	0x91
 3439 12fb 5C       		.sleb128 -36
 3440 12fc 1F       		.uleb128 0x1f
 3441 12fd 6D736700 		.ascii	"msg\000"
 3442 1301 01       		.byte	0x1
 3443 1302 86       		.byte	0x86
 3444 1303 EF000000 		.4byte	0xef
 3445 1307 84040000 		.4byte	.LLST29
 3446 130b 20       		.uleb128 0x20
 3447 130c 16000000 		.4byte	.LVL90
 3448 1310 A8130000 		.4byte	0x13a8
 3449 1314 1F130000 		.4byte	0x131f
 3450 1318 21       		.uleb128 0x21
 3451 1319 01       		.byte	0x1
 3452 131a 50       		.byte	0x50
 3453 131b 02       		.byte	0x2
 3454 131c 75       		.byte	0x75
 3455 131d 00       		.sleb128 0
 3456 131e 00       		.byte	0
 3457 131f 20       		.uleb128 0x20
 3458 1320 2E000000 		.4byte	.LVL91
 3459 1324 BC130000 		.4byte	0x13bc
 3460 1328 57130000 		.4byte	0x1357
 3461 132c 21       		.uleb128 0x21
 3462 132d 01       		.byte	0x1
 3463 132e 53       		.byte	0x53
 3464 132f 01       		.byte	0x1
 3465 1330 31       		.byte	0x31
 3466 1331 21       		.uleb128 0x21
 3467 1332 01       		.byte	0x1
 3468 1333 52       		.byte	0x52
 3469 1334 02       		.byte	0x2
 3470 1335 74       		.byte	0x74
 3471 1336 00       		.sleb128 0
 3472 1337 21       		.uleb128 0x21
 3473 1338 01       		.byte	0x1
 3474 1339 51       		.byte	0x51
ARM GAS  /tmp/cc44dd1z.s 			page 62


 3475 133a 02       		.byte	0x2
 3476 133b 77       		.byte	0x77
 3477 133c 00       		.sleb128 0
 3478 133d 21       		.uleb128 0x21
 3479 133e 01       		.byte	0x1
 3480 133f 50       		.byte	0x50
 3481 1340 02       		.byte	0x2
 3482 1341 75       		.byte	0x75
 3483 1342 00       		.sleb128 0
 3484 1343 21       		.uleb128 0x21
 3485 1344 02       		.byte	0x2
 3486 1345 7D       		.byte	0x7d
 3487 1346 08       		.sleb128 8
 3488 1347 01       		.byte	0x1
 3489 1348 34       		.byte	0x34
 3490 1349 21       		.uleb128 0x21
 3491 134a 02       		.byte	0x2
 3492 134b 7D       		.byte	0x7d
 3493 134c 04       		.sleb128 4
 3494 134d 01       		.byte	0x1
 3495 134e 32       		.byte	0x32
 3496 134f 21       		.uleb128 0x21
 3497 1350 02       		.byte	0x2
 3498 1351 7D       		.byte	0x7d
 3499 1352 00       		.sleb128 0
 3500 1353 02       		.byte	0x2
 3501 1354 91       		.byte	0x91
 3502 1355 5C       		.sleb128 -36
 3503 1356 00       		.byte	0
 3504 1357 20       		.uleb128 0x20
 3505 1358 36000000 		.4byte	.LVL94
 3506 135c F2130000 		.4byte	0x13f2
 3507 1360 6B130000 		.4byte	0x136b
 3508 1364 21       		.uleb128 0x21
 3509 1365 01       		.byte	0x1
 3510 1366 50       		.byte	0x50
 3511 1367 02       		.byte	0x2
 3512 1368 75       		.byte	0x75
 3513 1369 00       		.sleb128 0
 3514 136a 00       		.byte	0
 3515 136b 22       		.uleb128 0x22
 3516 136c 40000000 		.4byte	.LVL95
 3517 1370 06140000 		.4byte	0x1406
 3518 1374 21       		.uleb128 0x21
 3519 1375 01       		.byte	0x1
 3520 1376 50       		.byte	0x50
 3521 1377 02       		.byte	0x2
 3522 1378 75       		.byte	0x75
 3523 1379 00       		.sleb128 0
 3524 137a 00       		.byte	0
 3525 137b 00       		.byte	0
 3526 137c 1A       		.uleb128 0x1a
 3527 137d 49000000 		.4byte	0x49
 3528 1381 8C130000 		.4byte	0x138c
 3529 1385 1B       		.uleb128 0x1b
 3530 1386 7F030000 		.4byte	0x37f
 3531 138a 01       		.byte	0x1
ARM GAS  /tmp/cc44dd1z.s 			page 63


 3532 138b 00       		.byte	0
 3533 138c 26       		.uleb128 0x26
 3534 138d A4000000 		.4byte	.LASF173
 3535 1391 11       		.byte	0x11
 3536 1392 0706     		.2byte	0x607
 3537 1394 EA050000 		.4byte	0x5ea
 3538 1398 01       		.byte	0x1
 3539 1399 01       		.byte	0x1
 3540 139a 27       		.uleb128 0x27
 3541 139b 53443200 		.ascii	"SD2\000"
 3542 139f 12       		.byte	0x12
 3543 13a0 1201     		.2byte	0x112
 3544 13a2 190B0000 		.4byte	0xb19
 3545 13a6 01       		.byte	0x1
 3546 13a7 01       		.byte	0x1
 3547 13a8 28       		.uleb128 0x28
 3548 13a9 01       		.byte	0x1
 3549 13aa 71060000 		.4byte	.LASF174
 3550 13ae 0D       		.byte	0xd
 3551 13af 87       		.byte	0x87
 3552 13b0 01       		.byte	0x1
 3553 13b1 01       		.byte	0x1
 3554 13b2 BC130000 		.4byte	0x13bc
 3555 13b6 12       		.uleb128 0x12
 3556 13b7 020D0000 		.4byte	0xd02
 3557 13bb 00       		.byte	0
 3558 13bc 29       		.uleb128 0x29
 3559 13bd 01       		.byte	0x1
 3560 13be B8000000 		.4byte	.LASF180
 3561 13c2 0D       		.byte	0xd
 3562 13c3 7D       		.byte	0x7d
 3563 13c4 01       		.byte	0x1
 3564 13c5 EF000000 		.4byte	0xef
 3565 13c9 01       		.byte	0x1
 3566 13ca F2130000 		.4byte	0x13f2
 3567 13ce 12       		.uleb128 0x12
 3568 13cf 020D0000 		.4byte	0xd02
 3569 13d3 12       		.uleb128 0x12
 3570 13d4 6D090000 		.4byte	0x96d
 3571 13d8 12       		.uleb128 0x12
 3572 13d9 99050000 		.4byte	0x599
 3573 13dd 12       		.uleb128 0x12
 3574 13de 30000000 		.4byte	0x30
 3575 13e2 12       		.uleb128 0x12
 3576 13e3 63050000 		.4byte	0x563
 3577 13e7 12       		.uleb128 0x12
 3578 13e8 30000000 		.4byte	0x30
 3579 13ec 12       		.uleb128 0x12
 3580 13ed 10010000 		.4byte	0x110
 3581 13f1 00       		.byte	0
 3582 13f2 28       		.uleb128 0x28
 3583 13f3 01       		.byte	0x1
 3584 13f4 96000000 		.4byte	.LASF175
 3585 13f8 0D       		.byte	0xd
 3586 13f9 88       		.byte	0x88
 3587 13fa 01       		.byte	0x1
 3588 13fb 01       		.byte	0x1
ARM GAS  /tmp/cc44dd1z.s 			page 64


 3589 13fc 06140000 		.4byte	0x1406
 3590 1400 12       		.uleb128 0x12
 3591 1401 020D0000 		.4byte	0xd02
 3592 1405 00       		.byte	0
 3593 1406 28       		.uleb128 0x28
 3594 1407 01       		.byte	0x1
 3595 1408 7C000000 		.4byte	.LASF176
 3596 140c 10       		.byte	0x10
 3597 140d 0D       		.byte	0xd
 3598 140e 01       		.byte	0x1
 3599 140f 01       		.byte	0x1
 3600 1410 1F140000 		.4byte	0x141f
 3601 1414 12       		.uleb128 0x12
 3602 1415 020D0000 		.4byte	0xd02
 3603 1419 12       		.uleb128 0x12
 3604 141a 1F140000 		.4byte	0x141f
 3605 141e 00       		.byte	0
 3606 141f 09       		.uleb128 0x9
 3607 1420 04       		.byte	0x4
 3608 1421 190B0000 		.4byte	0xb19
 3609 1425 00       		.byte	0
 3610              		.section	.debug_abbrev,"",%progbits
 3611              	.Ldebug_abbrev0:
 3612 0000 01       		.uleb128 0x1
 3613 0001 11       		.uleb128 0x11
 3614 0002 01       		.byte	0x1
 3615 0003 25       		.uleb128 0x25
 3616 0004 0E       		.uleb128 0xe
 3617 0005 13       		.uleb128 0x13
 3618 0006 0B       		.uleb128 0xb
 3619 0007 03       		.uleb128 0x3
 3620 0008 0E       		.uleb128 0xe
 3621 0009 1B       		.uleb128 0x1b
 3622 000a 0E       		.uleb128 0xe
 3623 000b 55       		.uleb128 0x55
 3624 000c 06       		.uleb128 0x6
 3625 000d 11       		.uleb128 0x11
 3626 000e 01       		.uleb128 0x1
 3627 000f 52       		.uleb128 0x52
 3628 0010 01       		.uleb128 0x1
 3629 0011 10       		.uleb128 0x10
 3630 0012 06       		.uleb128 0x6
 3631 0013 00       		.byte	0
 3632 0014 00       		.byte	0
 3633 0015 02       		.uleb128 0x2
 3634 0016 24       		.uleb128 0x24
 3635 0017 00       		.byte	0
 3636 0018 0B       		.uleb128 0xb
 3637 0019 0B       		.uleb128 0xb
 3638 001a 3E       		.uleb128 0x3e
 3639 001b 0B       		.uleb128 0xb
 3640 001c 03       		.uleb128 0x3
 3641 001d 08       		.uleb128 0x8
 3642 001e 00       		.byte	0
 3643 001f 00       		.byte	0
 3644 0020 03       		.uleb128 0x3
 3645 0021 16       		.uleb128 0x16
ARM GAS  /tmp/cc44dd1z.s 			page 65


 3646 0022 00       		.byte	0
 3647 0023 03       		.uleb128 0x3
 3648 0024 0E       		.uleb128 0xe
 3649 0025 3A       		.uleb128 0x3a
 3650 0026 0B       		.uleb128 0xb
 3651 0027 3B       		.uleb128 0x3b
 3652 0028 0B       		.uleb128 0xb
 3653 0029 49       		.uleb128 0x49
 3654 002a 13       		.uleb128 0x13
 3655 002b 00       		.byte	0
 3656 002c 00       		.byte	0
 3657 002d 04       		.uleb128 0x4
 3658 002e 24       		.uleb128 0x24
 3659 002f 00       		.byte	0
 3660 0030 0B       		.uleb128 0xb
 3661 0031 0B       		.uleb128 0xb
 3662 0032 3E       		.uleb128 0x3e
 3663 0033 0B       		.uleb128 0xb
 3664 0034 03       		.uleb128 0x3
 3665 0035 0E       		.uleb128 0xe
 3666 0036 00       		.byte	0
 3667 0037 00       		.byte	0
 3668 0038 05       		.uleb128 0x5
 3669 0039 13       		.uleb128 0x13
 3670 003a 01       		.byte	0x1
 3671 003b 03       		.uleb128 0x3
 3672 003c 0E       		.uleb128 0xe
 3673 003d 0B       		.uleb128 0xb
 3674 003e 0B       		.uleb128 0xb
 3675 003f 3A       		.uleb128 0x3a
 3676 0040 0B       		.uleb128 0xb
 3677 0041 3B       		.uleb128 0x3b
 3678 0042 0B       		.uleb128 0xb
 3679 0043 01       		.uleb128 0x1
 3680 0044 13       		.uleb128 0x13
 3681 0045 00       		.byte	0
 3682 0046 00       		.byte	0
 3683 0047 06       		.uleb128 0x6
 3684 0048 0D       		.uleb128 0xd
 3685 0049 00       		.byte	0
 3686 004a 03       		.uleb128 0x3
 3687 004b 0E       		.uleb128 0xe
 3688 004c 3A       		.uleb128 0x3a
 3689 004d 0B       		.uleb128 0xb
 3690 004e 3B       		.uleb128 0x3b
 3691 004f 0B       		.uleb128 0xb
 3692 0050 49       		.uleb128 0x49
 3693 0051 13       		.uleb128 0x13
 3694 0052 38       		.uleb128 0x38
 3695 0053 0A       		.uleb128 0xa
 3696 0054 00       		.byte	0
 3697 0055 00       		.byte	0
 3698 0056 07       		.uleb128 0x7
 3699 0057 0D       		.uleb128 0xd
 3700 0058 00       		.byte	0
 3701 0059 03       		.uleb128 0x3
 3702 005a 08       		.uleb128 0x8
ARM GAS  /tmp/cc44dd1z.s 			page 66


 3703 005b 3A       		.uleb128 0x3a
 3704 005c 0B       		.uleb128 0xb
 3705 005d 3B       		.uleb128 0x3b
 3706 005e 0B       		.uleb128 0xb
 3707 005f 49       		.uleb128 0x49
 3708 0060 13       		.uleb128 0x13
 3709 0061 38       		.uleb128 0x38
 3710 0062 0A       		.uleb128 0xa
 3711 0063 00       		.byte	0
 3712 0064 00       		.byte	0
 3713 0065 08       		.uleb128 0x8
 3714 0066 13       		.uleb128 0x13
 3715 0067 01       		.byte	0x1
 3716 0068 0B       		.uleb128 0xb
 3717 0069 0B       		.uleb128 0xb
 3718 006a 3A       		.uleb128 0x3a
 3719 006b 0B       		.uleb128 0xb
 3720 006c 3B       		.uleb128 0x3b
 3721 006d 0B       		.uleb128 0xb
 3722 006e 01       		.uleb128 0x1
 3723 006f 13       		.uleb128 0x13
 3724 0070 00       		.byte	0
 3725 0071 00       		.byte	0
 3726 0072 09       		.uleb128 0x9
 3727 0073 0F       		.uleb128 0xf
 3728 0074 00       		.byte	0
 3729 0075 0B       		.uleb128 0xb
 3730 0076 0B       		.uleb128 0xb
 3731 0077 49       		.uleb128 0x49
 3732 0078 13       		.uleb128 0x13
 3733 0079 00       		.byte	0
 3734 007a 00       		.byte	0
 3735 007b 0A       		.uleb128 0xa
 3736 007c 0F       		.uleb128 0xf
 3737 007d 00       		.byte	0
 3738 007e 0B       		.uleb128 0xb
 3739 007f 0B       		.uleb128 0xb
 3740 0080 00       		.byte	0
 3741 0081 00       		.byte	0
 3742 0082 0B       		.uleb128 0xb
 3743 0083 13       		.uleb128 0x13
 3744 0084 01       		.byte	0x1
 3745 0085 03       		.uleb128 0x3
 3746 0086 0E       		.uleb128 0xe
 3747 0087 0B       		.uleb128 0xb
 3748 0088 0B       		.uleb128 0xb
 3749 0089 3A       		.uleb128 0x3a
 3750 008a 0B       		.uleb128 0xb
 3751 008b 3B       		.uleb128 0x3b
 3752 008c 05       		.uleb128 0x5
 3753 008d 01       		.uleb128 0x1
 3754 008e 13       		.uleb128 0x13
 3755 008f 00       		.byte	0
 3756 0090 00       		.byte	0
 3757 0091 0C       		.uleb128 0xc
 3758 0092 0D       		.uleb128 0xd
 3759 0093 00       		.byte	0
ARM GAS  /tmp/cc44dd1z.s 			page 67


 3760 0094 03       		.uleb128 0x3
 3761 0095 08       		.uleb128 0x8
 3762 0096 3A       		.uleb128 0x3a
 3763 0097 0B       		.uleb128 0xb
 3764 0098 3B       		.uleb128 0x3b
 3765 0099 05       		.uleb128 0x5
 3766 009a 49       		.uleb128 0x49
 3767 009b 13       		.uleb128 0x13
 3768 009c 38       		.uleb128 0x38
 3769 009d 0A       		.uleb128 0xa
 3770 009e 00       		.byte	0
 3771 009f 00       		.byte	0
 3772 00a0 0D       		.uleb128 0xd
 3773 00a1 35       		.uleb128 0x35
 3774 00a2 00       		.byte	0
 3775 00a3 49       		.uleb128 0x49
 3776 00a4 13       		.uleb128 0x13
 3777 00a5 00       		.byte	0
 3778 00a6 00       		.byte	0
 3779 00a7 0E       		.uleb128 0xe
 3780 00a8 17       		.uleb128 0x17
 3781 00a9 01       		.byte	0x1
 3782 00aa 0B       		.uleb128 0xb
 3783 00ab 0B       		.uleb128 0xb
 3784 00ac 3A       		.uleb128 0x3a
 3785 00ad 0B       		.uleb128 0xb
 3786 00ae 3B       		.uleb128 0x3b
 3787 00af 0B       		.uleb128 0xb
 3788 00b0 01       		.uleb128 0x1
 3789 00b1 13       		.uleb128 0x13
 3790 00b2 00       		.byte	0
 3791 00b3 00       		.byte	0
 3792 00b4 0F       		.uleb128 0xf
 3793 00b5 0D       		.uleb128 0xd
 3794 00b6 00       		.byte	0
 3795 00b7 03       		.uleb128 0x3
 3796 00b8 0E       		.uleb128 0xe
 3797 00b9 3A       		.uleb128 0x3a
 3798 00ba 0B       		.uleb128 0xb
 3799 00bb 3B       		.uleb128 0x3b
 3800 00bc 0B       		.uleb128 0xb
 3801 00bd 49       		.uleb128 0x49
 3802 00be 13       		.uleb128 0x13
 3803 00bf 00       		.byte	0
 3804 00c0 00       		.byte	0
 3805 00c1 10       		.uleb128 0x10
 3806 00c2 26       		.uleb128 0x26
 3807 00c3 00       		.byte	0
 3808 00c4 49       		.uleb128 0x49
 3809 00c5 13       		.uleb128 0x13
 3810 00c6 00       		.byte	0
 3811 00c7 00       		.byte	0
 3812 00c8 11       		.uleb128 0x11
 3813 00c9 15       		.uleb128 0x15
 3814 00ca 01       		.byte	0x1
 3815 00cb 27       		.uleb128 0x27
 3816 00cc 0C       		.uleb128 0xc
ARM GAS  /tmp/cc44dd1z.s 			page 68


 3817 00cd 49       		.uleb128 0x49
 3818 00ce 13       		.uleb128 0x13
 3819 00cf 01       		.uleb128 0x1
 3820 00d0 13       		.uleb128 0x13
 3821 00d1 00       		.byte	0
 3822 00d2 00       		.byte	0
 3823 00d3 12       		.uleb128 0x12
 3824 00d4 05       		.uleb128 0x5
 3825 00d5 00       		.byte	0
 3826 00d6 49       		.uleb128 0x49
 3827 00d7 13       		.uleb128 0x13
 3828 00d8 00       		.byte	0
 3829 00d9 00       		.byte	0
 3830 00da 13       		.uleb128 0x13
 3831 00db 15       		.uleb128 0x15
 3832 00dc 01       		.byte	0x1
 3833 00dd 27       		.uleb128 0x27
 3834 00de 0C       		.uleb128 0xc
 3835 00df 01       		.uleb128 0x1
 3836 00e0 13       		.uleb128 0x13
 3837 00e1 00       		.byte	0
 3838 00e2 00       		.byte	0
 3839 00e3 14       		.uleb128 0x14
 3840 00e4 13       		.uleb128 0x13
 3841 00e5 01       		.byte	0x1
 3842 00e6 0B       		.uleb128 0xb
 3843 00e7 0B       		.uleb128 0xb
 3844 00e8 3A       		.uleb128 0x3a
 3845 00e9 0B       		.uleb128 0xb
 3846 00ea 3B       		.uleb128 0x3b
 3847 00eb 05       		.uleb128 0x5
 3848 00ec 01       		.uleb128 0x1
 3849 00ed 13       		.uleb128 0x13
 3850 00ee 00       		.byte	0
 3851 00ef 00       		.byte	0
 3852 00f0 15       		.uleb128 0x15
 3853 00f1 0D       		.uleb128 0xd
 3854 00f2 00       		.byte	0
 3855 00f3 03       		.uleb128 0x3
 3856 00f4 0E       		.uleb128 0xe
 3857 00f5 3A       		.uleb128 0x3a
 3858 00f6 0B       		.uleb128 0xb
 3859 00f7 3B       		.uleb128 0x3b
 3860 00f8 05       		.uleb128 0x5
 3861 00f9 49       		.uleb128 0x49
 3862 00fa 13       		.uleb128 0x13
 3863 00fb 38       		.uleb128 0x38
 3864 00fc 0A       		.uleb128 0xa
 3865 00fd 00       		.byte	0
 3866 00fe 00       		.byte	0
 3867 00ff 16       		.uleb128 0x16
 3868 0100 16       		.uleb128 0x16
 3869 0101 00       		.byte	0
 3870 0102 03       		.uleb128 0x3
 3871 0103 0E       		.uleb128 0xe
 3872 0104 3A       		.uleb128 0x3a
 3873 0105 0B       		.uleb128 0xb
ARM GAS  /tmp/cc44dd1z.s 			page 69


 3874 0106 3B       		.uleb128 0x3b
 3875 0107 05       		.uleb128 0x5
 3876 0108 49       		.uleb128 0x49
 3877 0109 13       		.uleb128 0x13
 3878 010a 00       		.byte	0
 3879 010b 00       		.byte	0
 3880 010c 17       		.uleb128 0x17
 3881 010d 04       		.uleb128 0x4
 3882 010e 01       		.byte	0x1
 3883 010f 0B       		.uleb128 0xb
 3884 0110 0B       		.uleb128 0xb
 3885 0111 3A       		.uleb128 0x3a
 3886 0112 0B       		.uleb128 0xb
 3887 0113 3B       		.uleb128 0x3b
 3888 0114 0B       		.uleb128 0xb
 3889 0115 01       		.uleb128 0x1
 3890 0116 13       		.uleb128 0x13
 3891 0117 00       		.byte	0
 3892 0118 00       		.byte	0
 3893 0119 18       		.uleb128 0x18
 3894 011a 28       		.uleb128 0x28
 3895 011b 00       		.byte	0
 3896 011c 03       		.uleb128 0x3
 3897 011d 0E       		.uleb128 0xe
 3898 011e 1C       		.uleb128 0x1c
 3899 011f 0D       		.uleb128 0xd
 3900 0120 00       		.byte	0
 3901 0121 00       		.byte	0
 3902 0122 19       		.uleb128 0x19
 3903 0123 04       		.uleb128 0x4
 3904 0124 01       		.byte	0x1
 3905 0125 0B       		.uleb128 0xb
 3906 0126 0B       		.uleb128 0xb
 3907 0127 3A       		.uleb128 0x3a
 3908 0128 0B       		.uleb128 0xb
 3909 0129 3B       		.uleb128 0x3b
 3910 012a 05       		.uleb128 0x5
 3911 012b 01       		.uleb128 0x1
 3912 012c 13       		.uleb128 0x13
 3913 012d 00       		.byte	0
 3914 012e 00       		.byte	0
 3915 012f 1A       		.uleb128 0x1a
 3916 0130 01       		.uleb128 0x1
 3917 0131 01       		.byte	0x1
 3918 0132 49       		.uleb128 0x49
 3919 0133 13       		.uleb128 0x13
 3920 0134 01       		.uleb128 0x1
 3921 0135 13       		.uleb128 0x13
 3922 0136 00       		.byte	0
 3923 0137 00       		.byte	0
 3924 0138 1B       		.uleb128 0x1b
 3925 0139 21       		.uleb128 0x21
 3926 013a 00       		.byte	0
 3927 013b 49       		.uleb128 0x49
 3928 013c 13       		.uleb128 0x13
 3929 013d 2F       		.uleb128 0x2f
 3930 013e 0B       		.uleb128 0xb
ARM GAS  /tmp/cc44dd1z.s 			page 70


 3931 013f 00       		.byte	0
 3932 0140 00       		.byte	0
 3933 0141 1C       		.uleb128 0x1c
 3934 0142 2E       		.uleb128 0x2e
 3935 0143 01       		.byte	0x1
 3936 0144 3F       		.uleb128 0x3f
 3937 0145 0C       		.uleb128 0xc
 3938 0146 03       		.uleb128 0x3
 3939 0147 0E       		.uleb128 0xe
 3940 0148 3A       		.uleb128 0x3a
 3941 0149 0B       		.uleb128 0xb
 3942 014a 3B       		.uleb128 0x3b
 3943 014b 0B       		.uleb128 0xb
 3944 014c 27       		.uleb128 0x27
 3945 014d 0C       		.uleb128 0xc
 3946 014e 11       		.uleb128 0x11
 3947 014f 01       		.uleb128 0x1
 3948 0150 12       		.uleb128 0x12
 3949 0151 01       		.uleb128 0x1
 3950 0152 40       		.uleb128 0x40
 3951 0153 06       		.uleb128 0x6
 3952 0154 9742     		.uleb128 0x2117
 3953 0156 0C       		.uleb128 0xc
 3954 0157 01       		.uleb128 0x1
 3955 0158 13       		.uleb128 0x13
 3956 0159 00       		.byte	0
 3957 015a 00       		.byte	0
 3958 015b 1D       		.uleb128 0x1d
 3959 015c 05       		.uleb128 0x5
 3960 015d 00       		.byte	0
 3961 015e 03       		.uleb128 0x3
 3962 015f 0E       		.uleb128 0xe
 3963 0160 3A       		.uleb128 0x3a
 3964 0161 0B       		.uleb128 0xb
 3965 0162 3B       		.uleb128 0x3b
 3966 0163 0B       		.uleb128 0xb
 3967 0164 49       		.uleb128 0x49
 3968 0165 13       		.uleb128 0x13
 3969 0166 02       		.uleb128 0x2
 3970 0167 06       		.uleb128 0x6
 3971 0168 00       		.byte	0
 3972 0169 00       		.byte	0
 3973 016a 1E       		.uleb128 0x1e
 3974 016b 34       		.uleb128 0x34
 3975 016c 00       		.byte	0
 3976 016d 03       		.uleb128 0x3
 3977 016e 0E       		.uleb128 0xe
 3978 016f 3A       		.uleb128 0x3a
 3979 0170 0B       		.uleb128 0xb
 3980 0171 3B       		.uleb128 0x3b
 3981 0172 0B       		.uleb128 0xb
 3982 0173 49       		.uleb128 0x49
 3983 0174 13       		.uleb128 0x13
 3984 0175 02       		.uleb128 0x2
 3985 0176 0A       		.uleb128 0xa
 3986 0177 00       		.byte	0
 3987 0178 00       		.byte	0
ARM GAS  /tmp/cc44dd1z.s 			page 71


 3988 0179 1F       		.uleb128 0x1f
 3989 017a 34       		.uleb128 0x34
 3990 017b 00       		.byte	0
 3991 017c 03       		.uleb128 0x3
 3992 017d 08       		.uleb128 0x8
 3993 017e 3A       		.uleb128 0x3a
 3994 017f 0B       		.uleb128 0xb
 3995 0180 3B       		.uleb128 0x3b
 3996 0181 0B       		.uleb128 0xb
 3997 0182 49       		.uleb128 0x49
 3998 0183 13       		.uleb128 0x13
 3999 0184 02       		.uleb128 0x2
 4000 0185 06       		.uleb128 0x6
 4001 0186 00       		.byte	0
 4002 0187 00       		.byte	0
 4003 0188 20       		.uleb128 0x20
 4004 0189 898201   		.uleb128 0x4109
 4005 018c 01       		.byte	0x1
 4006 018d 11       		.uleb128 0x11
 4007 018e 01       		.uleb128 0x1
 4008 018f 31       		.uleb128 0x31
 4009 0190 13       		.uleb128 0x13
 4010 0191 01       		.uleb128 0x1
 4011 0192 13       		.uleb128 0x13
 4012 0193 00       		.byte	0
 4013 0194 00       		.byte	0
 4014 0195 21       		.uleb128 0x21
 4015 0196 8A8201   		.uleb128 0x410a
 4016 0199 00       		.byte	0
 4017 019a 02       		.uleb128 0x2
 4018 019b 0A       		.uleb128 0xa
 4019 019c 9142     		.uleb128 0x2111
 4020 019e 0A       		.uleb128 0xa
 4021 019f 00       		.byte	0
 4022 01a0 00       		.byte	0
 4023 01a1 22       		.uleb128 0x22
 4024 01a2 898201   		.uleb128 0x4109
 4025 01a5 01       		.byte	0x1
 4026 01a6 11       		.uleb128 0x11
 4027 01a7 01       		.uleb128 0x1
 4028 01a8 31       		.uleb128 0x31
 4029 01a9 13       		.uleb128 0x13
 4030 01aa 00       		.byte	0
 4031 01ab 00       		.byte	0
 4032 01ac 23       		.uleb128 0x23
 4033 01ad 2E       		.uleb128 0x2e
 4034 01ae 01       		.byte	0x1
 4035 01af 3F       		.uleb128 0x3f
 4036 01b0 0C       		.uleb128 0xc
 4037 01b1 03       		.uleb128 0x3
 4038 01b2 0E       		.uleb128 0xe
 4039 01b3 3A       		.uleb128 0x3a
 4040 01b4 0B       		.uleb128 0xb
 4041 01b5 3B       		.uleb128 0x3b
 4042 01b6 0B       		.uleb128 0xb
 4043 01b7 27       		.uleb128 0x27
 4044 01b8 0C       		.uleb128 0xc
ARM GAS  /tmp/cc44dd1z.s 			page 72


 4045 01b9 11       		.uleb128 0x11
 4046 01ba 01       		.uleb128 0x1
 4047 01bb 12       		.uleb128 0x12
 4048 01bc 01       		.uleb128 0x1
 4049 01bd 40       		.uleb128 0x40
 4050 01be 06       		.uleb128 0x6
 4051 01bf 9642     		.uleb128 0x2116
 4052 01c1 0C       		.uleb128 0xc
 4053 01c2 01       		.uleb128 0x1
 4054 01c3 13       		.uleb128 0x13
 4055 01c4 00       		.byte	0
 4056 01c5 00       		.byte	0
 4057 01c6 24       		.uleb128 0x24
 4058 01c7 05       		.uleb128 0x5
 4059 01c8 00       		.byte	0
 4060 01c9 03       		.uleb128 0x3
 4061 01ca 0E       		.uleb128 0xe
 4062 01cb 3A       		.uleb128 0x3a
 4063 01cc 0B       		.uleb128 0xb
 4064 01cd 3B       		.uleb128 0x3b
 4065 01ce 0B       		.uleb128 0xb
 4066 01cf 49       		.uleb128 0x49
 4067 01d0 13       		.uleb128 0x13
 4068 01d1 02       		.uleb128 0x2
 4069 01d2 0A       		.uleb128 0xa
 4070 01d3 00       		.byte	0
 4071 01d4 00       		.byte	0
 4072 01d5 25       		.uleb128 0x25
 4073 01d6 34       		.uleb128 0x34
 4074 01d7 00       		.byte	0
 4075 01d8 03       		.uleb128 0x3
 4076 01d9 0E       		.uleb128 0xe
 4077 01da 3A       		.uleb128 0x3a
 4078 01db 0B       		.uleb128 0xb
 4079 01dc 3B       		.uleb128 0x3b
 4080 01dd 0B       		.uleb128 0xb
 4081 01de 49       		.uleb128 0x49
 4082 01df 13       		.uleb128 0x13
 4083 01e0 02       		.uleb128 0x2
 4084 01e1 06       		.uleb128 0x6
 4085 01e2 00       		.byte	0
 4086 01e3 00       		.byte	0
 4087 01e4 26       		.uleb128 0x26
 4088 01e5 34       		.uleb128 0x34
 4089 01e6 00       		.byte	0
 4090 01e7 03       		.uleb128 0x3
 4091 01e8 0E       		.uleb128 0xe
 4092 01e9 3A       		.uleb128 0x3a
 4093 01ea 0B       		.uleb128 0xb
 4094 01eb 3B       		.uleb128 0x3b
 4095 01ec 05       		.uleb128 0x5
 4096 01ed 49       		.uleb128 0x49
 4097 01ee 13       		.uleb128 0x13
 4098 01ef 3F       		.uleb128 0x3f
 4099 01f0 0C       		.uleb128 0xc
 4100 01f1 3C       		.uleb128 0x3c
 4101 01f2 0C       		.uleb128 0xc
ARM GAS  /tmp/cc44dd1z.s 			page 73


 4102 01f3 00       		.byte	0
 4103 01f4 00       		.byte	0
 4104 01f5 27       		.uleb128 0x27
 4105 01f6 34       		.uleb128 0x34
 4106 01f7 00       		.byte	0
 4107 01f8 03       		.uleb128 0x3
 4108 01f9 08       		.uleb128 0x8
 4109 01fa 3A       		.uleb128 0x3a
 4110 01fb 0B       		.uleb128 0xb
 4111 01fc 3B       		.uleb128 0x3b
 4112 01fd 05       		.uleb128 0x5
 4113 01fe 49       		.uleb128 0x49
 4114 01ff 13       		.uleb128 0x13
 4115 0200 3F       		.uleb128 0x3f
 4116 0201 0C       		.uleb128 0xc
 4117 0202 3C       		.uleb128 0x3c
 4118 0203 0C       		.uleb128 0xc
 4119 0204 00       		.byte	0
 4120 0205 00       		.byte	0
 4121 0206 28       		.uleb128 0x28
 4122 0207 2E       		.uleb128 0x2e
 4123 0208 01       		.byte	0x1
 4124 0209 3F       		.uleb128 0x3f
 4125 020a 0C       		.uleb128 0xc
 4126 020b 03       		.uleb128 0x3
 4127 020c 0E       		.uleb128 0xe
 4128 020d 3A       		.uleb128 0x3a
 4129 020e 0B       		.uleb128 0xb
 4130 020f 3B       		.uleb128 0x3b
 4131 0210 0B       		.uleb128 0xb
 4132 0211 27       		.uleb128 0x27
 4133 0212 0C       		.uleb128 0xc
 4134 0213 3C       		.uleb128 0x3c
 4135 0214 0C       		.uleb128 0xc
 4136 0215 01       		.uleb128 0x1
 4137 0216 13       		.uleb128 0x13
 4138 0217 00       		.byte	0
 4139 0218 00       		.byte	0
 4140 0219 29       		.uleb128 0x29
 4141 021a 2E       		.uleb128 0x2e
 4142 021b 01       		.byte	0x1
 4143 021c 3F       		.uleb128 0x3f
 4144 021d 0C       		.uleb128 0xc
 4145 021e 03       		.uleb128 0x3
 4146 021f 0E       		.uleb128 0xe
 4147 0220 3A       		.uleb128 0x3a
 4148 0221 0B       		.uleb128 0xb
 4149 0222 3B       		.uleb128 0x3b
 4150 0223 0B       		.uleb128 0xb
 4151 0224 27       		.uleb128 0x27
 4152 0225 0C       		.uleb128 0xc
 4153 0226 49       		.uleb128 0x49
 4154 0227 13       		.uleb128 0x13
 4155 0228 3C       		.uleb128 0x3c
 4156 0229 0C       		.uleb128 0xc
 4157 022a 01       		.uleb128 0x1
 4158 022b 13       		.uleb128 0x13
ARM GAS  /tmp/cc44dd1z.s 			page 74


 4159 022c 00       		.byte	0
 4160 022d 00       		.byte	0
 4161 022e 00       		.byte	0
 4162              		.section	.debug_loc,"",%progbits
 4163              	.Ldebug_loc0:
 4164              	.LLST0:
 4165 0000 00000000 		.4byte	.LFB63
 4166 0004 02000000 		.4byte	.LCFI0
 4167 0008 0200     		.2byte	0x2
 4168 000a 7D       		.byte	0x7d
 4169 000b 00       		.sleb128 0
 4170 000c 02000000 		.4byte	.LCFI0
 4171 0010 06000000 		.4byte	.LCFI1
 4172 0014 0200     		.2byte	0x2
 4173 0016 7D       		.byte	0x7d
 4174 0017 0C       		.sleb128 12
 4175 0018 06000000 		.4byte	.LCFI1
 4176 001c 48000000 		.4byte	.LFE63
 4177 0020 0200     		.2byte	0x2
 4178 0022 7D       		.byte	0x7d
 4179 0023 28       		.sleb128 40
 4180 0024 00000000 		.4byte	0
 4181 0028 00000000 		.4byte	0
 4182              	.LLST1:
 4183 002c 00000000 		.4byte	.LVL0
 4184 0030 17000000 		.4byte	.LVL2-1
 4185 0034 0100     		.2byte	0x1
 4186 0036 50       		.byte	0x50
 4187 0037 17000000 		.4byte	.LVL2-1
 4188 003b 48000000 		.4byte	.LFE63
 4189 003f 0100     		.2byte	0x1
 4190 0041 54       		.byte	0x54
 4191 0042 00000000 		.4byte	0
 4192 0046 00000000 		.4byte	0
 4193              	.LLST2:
 4194 004a 00000000 		.4byte	.LVL0
 4195 004e 0A000000 		.4byte	.LVL1
 4196 0052 0100     		.2byte	0x1
 4197 0054 51       		.byte	0x51
 4198 0055 0A000000 		.4byte	.LVL1
 4199 0059 48000000 		.4byte	.LFE63
 4200 005d 0400     		.2byte	0x4
 4201 005f F3       		.byte	0xf3
 4202 0060 01       		.uleb128 0x1
 4203 0061 51       		.byte	0x51
 4204 0062 9F       		.byte	0x9f
 4205 0063 00000000 		.4byte	0
 4206 0067 00000000 		.4byte	0
 4207              	.LLST3:
 4208 006b 30000000 		.4byte	.LVL4
 4209 006f 32000000 		.4byte	.LVL5
 4210 0073 0100     		.2byte	0x1
 4211 0075 50       		.byte	0x50
 4212 0076 32000000 		.4byte	.LVL5
 4213 007a 48000000 		.4byte	.LFE63
 4214 007e 0100     		.2byte	0x1
 4215 0080 55       		.byte	0x55
ARM GAS  /tmp/cc44dd1z.s 			page 75


 4216 0081 00000000 		.4byte	0
 4217 0085 00000000 		.4byte	0
 4218              	.LLST4:
 4219 0089 00000000 		.4byte	.LFB64
 4220 008d 04000000 		.4byte	.LCFI2
 4221 0091 0200     		.2byte	0x2
 4222 0093 7D       		.byte	0x7d
 4223 0094 00       		.sleb128 0
 4224 0095 04000000 		.4byte	.LCFI2
 4225 0099 06000000 		.4byte	.LCFI3
 4226 009d 0200     		.2byte	0x2
 4227 009f 7D       		.byte	0x7d
 4228 00a0 1C       		.sleb128 28
 4229 00a1 06000000 		.4byte	.LCFI3
 4230 00a5 AC000000 		.4byte	.LFE64
 4231 00a9 0300     		.2byte	0x3
 4232 00ab 7D       		.byte	0x7d
 4233 00ac C000     		.sleb128 64
 4234 00ae 00000000 		.4byte	0
 4235 00b2 00000000 		.4byte	0
 4236              	.LLST5:
 4237 00b6 00000000 		.4byte	.LVL8
 4238 00ba 19000000 		.4byte	.LVL9-1
 4239 00be 0100     		.2byte	0x1
 4240 00c0 50       		.byte	0x50
 4241 00c1 19000000 		.4byte	.LVL9-1
 4242 00c5 58000000 		.4byte	.LVL15
 4243 00c9 0100     		.2byte	0x1
 4244 00cb 55       		.byte	0x55
 4245 00cc 58000000 		.4byte	.LVL15
 4246 00d0 AC000000 		.4byte	.LFE64
 4247 00d4 0400     		.2byte	0x4
 4248 00d6 F3       		.byte	0xf3
 4249 00d7 01       		.uleb128 0x1
 4250 00d8 50       		.byte	0x50
 4251 00d9 9F       		.byte	0x9f
 4252 00da 00000000 		.4byte	0
 4253 00de 00000000 		.4byte	0
 4254              	.LLST6:
 4255 00e2 00000000 		.4byte	.LVL8
 4256 00e6 19000000 		.4byte	.LVL9-1
 4257 00ea 0100     		.2byte	0x1
 4258 00ec 51       		.byte	0x51
 4259 00ed 19000000 		.4byte	.LVL9-1
 4260 00f1 AC000000 		.4byte	.LFE64
 4261 00f5 0400     		.2byte	0x4
 4262 00f7 F3       		.byte	0xf3
 4263 00f8 01       		.uleb128 0x1
 4264 00f9 51       		.byte	0x51
 4265 00fa 9F       		.byte	0x9f
 4266 00fb 00000000 		.4byte	0
 4267 00ff 00000000 		.4byte	0
 4268              	.LLST7:
 4269 0103 00000000 		.4byte	.LVL8
 4270 0107 19000000 		.4byte	.LVL9-1
 4271 010b 0100     		.2byte	0x1
 4272 010d 52       		.byte	0x52
ARM GAS  /tmp/cc44dd1z.s 			page 76


 4273 010e 19000000 		.4byte	.LVL9-1
 4274 0112 AC000000 		.4byte	.LFE64
 4275 0116 0100     		.2byte	0x1
 4276 0118 58       		.byte	0x58
 4277 0119 00000000 		.4byte	0
 4278 011d 00000000 		.4byte	0
 4279              	.LLST8:
 4280 0121 00000000 		.4byte	.LVL8
 4281 0125 19000000 		.4byte	.LVL9-1
 4282 0129 0100     		.2byte	0x1
 4283 012b 53       		.byte	0x53
 4284 012c 19000000 		.4byte	.LVL9-1
 4285 0130 AC000000 		.4byte	.LFE64
 4286 0134 0100     		.2byte	0x1
 4287 0136 57       		.byte	0x57
 4288 0137 00000000 		.4byte	0
 4289 013b 00000000 		.4byte	0
 4290              	.LLST9:
 4291 013f 44000000 		.4byte	.LVL14
 4292 0143 6B000000 		.4byte	.LVL19-1
 4293 0147 1200     		.2byte	0x12
 4294 0149 91       		.byte	0x91
 4295 014a 50       		.sleb128 -48
 4296 014b 94       		.byte	0x94
 4297 014c 01       		.byte	0x1
 4298 014d 08       		.byte	0x8
 4299 014e FF       		.byte	0xff
 4300 014f 1A       		.byte	0x1a
 4301 0150 38       		.byte	0x38
 4302 0151 24       		.byte	0x24
 4303 0152 91       		.byte	0x91
 4304 0153 51       		.sleb128 -47
 4305 0154 94       		.byte	0x94
 4306 0155 01       		.byte	0x1
 4307 0156 08       		.byte	0x8
 4308 0157 FF       		.byte	0xff
 4309 0158 1A       		.byte	0x1a
 4310 0159 21       		.byte	0x21
 4311 015a 9F       		.byte	0x9f
 4312 015b 00000000 		.4byte	0
 4313 015f 00000000 		.4byte	0
 4314              	.LLST10:
 4315 0163 34000000 		.4byte	.LVL11
 4316 0167 36000000 		.4byte	.LVL12
 4317 016b 0100     		.2byte	0x1
 4318 016d 50       		.byte	0x50
 4319 016e 36000000 		.4byte	.LVL12
 4320 0172 5C000000 		.4byte	.LVL16
 4321 0176 0100     		.2byte	0x1
 4322 0178 54       		.byte	0x54
 4323 0179 00000000 		.4byte	0
 4324 017d 00000000 		.4byte	0
 4325              	.LLST11:
 4326 0181 00000000 		.4byte	.LFB65
 4327 0185 02000000 		.4byte	.LCFI4
 4328 0189 0200     		.2byte	0x2
 4329 018b 7D       		.byte	0x7d
ARM GAS  /tmp/cc44dd1z.s 			page 77


 4330 018c 00       		.sleb128 0
 4331 018d 02000000 		.4byte	.LCFI4
 4332 0191 06000000 		.4byte	.LCFI5
 4333 0195 0200     		.2byte	0x2
 4334 0197 7D       		.byte	0x7d
 4335 0198 10       		.sleb128 16
 4336 0199 06000000 		.4byte	.LCFI5
 4337 019d 84000000 		.4byte	.LFE65
 4338 01a1 0200     		.2byte	0x2
 4339 01a3 7D       		.byte	0x7d
 4340 01a4 28       		.sleb128 40
 4341 01a5 00000000 		.4byte	0
 4342 01a9 00000000 		.4byte	0
 4343              	.LLST12:
 4344 01ad 00000000 		.4byte	.LVL25
 4345 01b1 17000000 		.4byte	.LVL27-1
 4346 01b5 0100     		.2byte	0x1
 4347 01b7 50       		.byte	0x50
 4348 01b8 17000000 		.4byte	.LVL27-1
 4349 01bc 84000000 		.4byte	.LFE65
 4350 01c0 0100     		.2byte	0x1
 4351 01c2 54       		.byte	0x54
 4352 01c3 00000000 		.4byte	0
 4353 01c7 00000000 		.4byte	0
 4354              	.LLST13:
 4355 01cb 00000000 		.4byte	.LVL25
 4356 01cf 0A000000 		.4byte	.LVL26
 4357 01d3 0100     		.2byte	0x1
 4358 01d5 51       		.byte	0x51
 4359 01d6 0A000000 		.4byte	.LVL26
 4360 01da 84000000 		.4byte	.LFE65
 4361 01de 0400     		.2byte	0x4
 4362 01e0 F3       		.byte	0xf3
 4363 01e1 01       		.uleb128 0x1
 4364 01e2 51       		.byte	0x51
 4365 01e3 9F       		.byte	0x9f
 4366 01e4 00000000 		.4byte	0
 4367 01e8 00000000 		.4byte	0
 4368              	.LLST14:
 4369 01ec 30000000 		.4byte	.LVL29
 4370 01f0 32000000 		.4byte	.LVL30
 4371 01f4 0100     		.2byte	0x1
 4372 01f6 50       		.byte	0x50
 4373 01f7 32000000 		.4byte	.LVL30
 4374 01fb 62000000 		.4byte	.LVL34
 4375 01ff 0100     		.2byte	0x1
 4376 0201 56       		.byte	0x56
 4377 0202 62000000 		.4byte	.LVL34
 4378 0206 64000000 		.4byte	.LVL35
 4379 020a 0100     		.2byte	0x1
 4380 020c 50       		.byte	0x50
 4381 020d 64000000 		.4byte	.LVL35
 4382 0211 76000000 		.4byte	.LVL38
 4383 0215 0100     		.2byte	0x1
 4384 0217 55       		.byte	0x55
 4385 0218 76000000 		.4byte	.LVL38
 4386 021c 84000000 		.4byte	.LFE65
ARM GAS  /tmp/cc44dd1z.s 			page 78


 4387 0220 0100     		.2byte	0x1
 4388 0222 56       		.byte	0x56
 4389 0223 00000000 		.4byte	0
 4390 0227 00000000 		.4byte	0
 4391              	.LLST15:
 4392 022b 00000000 		.4byte	.LFB66
 4393 022f 04000000 		.4byte	.LCFI6
 4394 0233 0200     		.2byte	0x2
 4395 0235 7D       		.byte	0x7d
 4396 0236 00       		.sleb128 0
 4397 0237 04000000 		.4byte	.LCFI6
 4398 023b 06000000 		.4byte	.LCFI7
 4399 023f 0200     		.2byte	0x2
 4400 0241 7D       		.byte	0x7d
 4401 0242 24       		.sleb128 36
 4402 0243 06000000 		.4byte	.LCFI7
 4403 0247 AC010000 		.4byte	.LFE66
 4404 024b 0300     		.2byte	0x3
 4405 024d 7D       		.byte	0x7d
 4406 024e D000     		.sleb128 80
 4407 0250 00000000 		.4byte	0
 4408 0254 00000000 		.4byte	0
 4409              	.LLST16:
 4410 0258 00000000 		.4byte	.LVL40
 4411 025c 1B000000 		.4byte	.LVL42-1
 4412 0260 0100     		.2byte	0x1
 4413 0262 50       		.byte	0x50
 4414 0263 1B000000 		.4byte	.LVL42-1
 4415 0267 AC010000 		.4byte	.LFE66
 4416 026b 0100     		.2byte	0x1
 4417 026d 54       		.byte	0x54
 4418 026e 00000000 		.4byte	0
 4419 0272 00000000 		.4byte	0
 4420              	.LLST17:
 4421 0276 00000000 		.4byte	.LVL40
 4422 027a 1B000000 		.4byte	.LVL42-1
 4423 027e 0100     		.2byte	0x1
 4424 0280 51       		.byte	0x51
 4425 0281 1B000000 		.4byte	.LVL42-1
 4426 0285 AC010000 		.4byte	.LFE66
 4427 0289 0400     		.2byte	0x4
 4428 028b F3       		.byte	0xf3
 4429 028c 01       		.uleb128 0x1
 4430 028d 51       		.byte	0x51
 4431 028e 9F       		.byte	0x9f
 4432 028f 00000000 		.4byte	0
 4433 0293 00000000 		.4byte	0
 4434              	.LLST18:
 4435 0297 00000000 		.4byte	.LVL40
 4436 029b 1B000000 		.4byte	.LVL42-1
 4437 029f 0100     		.2byte	0x1
 4438 02a1 52       		.byte	0x52
 4439 02a2 1B000000 		.4byte	.LVL42-1
 4440 02a6 AC010000 		.4byte	.LFE66
 4441 02aa 0100     		.2byte	0x1
 4442 02ac 5A       		.byte	0x5a
 4443 02ad 00000000 		.4byte	0
ARM GAS  /tmp/cc44dd1z.s 			page 79


 4444 02b1 00000000 		.4byte	0
 4445              	.LLST19:
 4446 02b5 00000000 		.4byte	.LVL40
 4447 02b9 0C000000 		.4byte	.LVL41
 4448 02bd 0100     		.2byte	0x1
 4449 02bf 53       		.byte	0x53
 4450 02c0 0C000000 		.4byte	.LVL41
 4451 02c4 AC010000 		.4byte	.LFE66
 4452 02c8 0100     		.2byte	0x1
 4453 02ca 58       		.byte	0x58
 4454 02cb 00000000 		.4byte	0
 4455 02cf 00000000 		.4byte	0
 4456              	.LLST20:
 4457 02d3 76000000 		.4byte	.LVL50
 4458 02d7 92010000 		.4byte	.LVL84
 4459 02db 0100     		.2byte	0x1
 4460 02dd 5B       		.byte	0x5b
 4461 02de 00000000 		.4byte	0
 4462 02e2 00000000 		.4byte	0
 4463              	.LLST21:
 4464 02e6 D6000000 		.4byte	.LVL59
 4465 02ea 7E010000 		.4byte	.LVL79
 4466 02ee 0100     		.2byte	0x1
 4467 02f0 59       		.byte	0x59
 4468 02f1 00000000 		.4byte	0
 4469 02f5 00000000 		.4byte	0
 4470              	.LLST22:
 4471 02f9 34010000 		.4byte	.LVL69
 4472 02fd 74010000 		.4byte	.LVL76
 4473 0301 0100     		.2byte	0x1
 4474 0303 55       		.byte	0x55
 4475 0304 00000000 		.4byte	0
 4476 0308 00000000 		.4byte	0
 4477              	.LLST23:
 4478 030c 52000000 		.4byte	.LVL45
 4479 0310 59000000 		.4byte	.LVL46-1
 4480 0314 0200     		.2byte	0x2
 4481 0316 77       		.byte	0x77
 4482 0317 00       		.sleb128 0
 4483 0318 59000000 		.4byte	.LVL46-1
 4484 031c B6000000 		.4byte	.LVL54
 4485 0320 0100     		.2byte	0x1
 4486 0322 59       		.byte	0x59
 4487 0323 B6000000 		.4byte	.LVL54
 4488 0327 B9000000 		.4byte	.LVL55-1
 4489 032b 0200     		.2byte	0x2
 4490 032d 77       		.byte	0x77
 4491 032e 00       		.sleb128 0
 4492 032f B9000000 		.4byte	.LVL55-1
 4493 0333 D6000000 		.4byte	.LVL59
 4494 0337 0100     		.2byte	0x1
 4495 0339 59       		.byte	0x59
 4496 033a 14010000 		.4byte	.LVL63
 4497 033e 17010000 		.4byte	.LVL64-1
 4498 0342 0200     		.2byte	0x2
 4499 0344 77       		.byte	0x77
 4500 0345 00       		.sleb128 0
ARM GAS  /tmp/cc44dd1z.s 			page 80


 4501 0346 17010000 		.4byte	.LVL64-1
 4502 034a 34010000 		.4byte	.LVL69
 4503 034e 0100     		.2byte	0x1
 4504 0350 55       		.byte	0x55
 4505 0351 7E010000 		.4byte	.LVL79
 4506 0355 9C010000 		.4byte	.LVL86
 4507 0359 0100     		.2byte	0x1
 4508 035b 59       		.byte	0x59
 4509 035c 00000000 		.4byte	0
 4510 0360 00000000 		.4byte	0
 4511              	.LLST24:
 4512 0364 32000000 		.4byte	.LVL43
 4513 0368 38000000 		.4byte	.LVL44
 4514 036c 0100     		.2byte	0x1
 4515 036e 50       		.byte	0x50
 4516 036f 5C000000 		.4byte	.LVL47
 4517 0373 5E000000 		.4byte	.LVL48
 4518 0377 0100     		.2byte	0x1
 4519 0379 50       		.byte	0x50
 4520 037a 5E000000 		.4byte	.LVL48
 4521 037e 76000000 		.4byte	.LVL50
 4522 0382 0100     		.2byte	0x1
 4523 0384 5B       		.byte	0x5b
 4524 0385 94000000 		.4byte	.LVL52
 4525 0389 98000000 		.4byte	.LVL53
 4526 038d 0100     		.2byte	0x1
 4527 038f 50       		.byte	0x50
 4528 0390 BC000000 		.4byte	.LVL56
 4529 0394 BE000000 		.4byte	.LVL57
 4530 0398 0100     		.2byte	0x1
 4531 039a 50       		.byte	0x50
 4532 039b BE000000 		.4byte	.LVL57
 4533 039f C3000000 		.4byte	.LVL58-1
 4534 03a3 0100     		.2byte	0x1
 4535 03a5 53       		.byte	0x53
 4536 03a6 F4000000 		.4byte	.LVL61
 4537 03aa F8000000 		.4byte	.LVL62
 4538 03ae 0100     		.2byte	0x1
 4539 03b0 50       		.byte	0x50
 4540 03b1 1A010000 		.4byte	.LVL65
 4541 03b5 1C010000 		.4byte	.LVL66
 4542 03b9 0100     		.2byte	0x1
 4543 03bb 50       		.byte	0x50
 4544 03bc 1C010000 		.4byte	.LVL66
 4545 03c0 74010000 		.4byte	.LVL76
 4546 03c4 0100     		.2byte	0x1
 4547 03c6 56       		.byte	0x56
 4548 03c7 74010000 		.4byte	.LVL76
 4549 03cb 76010000 		.4byte	.LVL77
 4550 03cf 0100     		.2byte	0x1
 4551 03d1 50       		.byte	0x50
 4552 03d2 88010000 		.4byte	.LVL81
 4553 03d6 8A010000 		.4byte	.LVL82
 4554 03da 0100     		.2byte	0x1
 4555 03dc 50       		.byte	0x50
 4556 03dd 92010000 		.4byte	.LVL84
 4557 03e1 9C010000 		.4byte	.LVL86
ARM GAS  /tmp/cc44dd1z.s 			page 81


 4558 03e5 0100     		.2byte	0x1
 4559 03e7 5B       		.byte	0x5b
 4560 03e8 9C010000 		.4byte	.LVL86
 4561 03ec 9E010000 		.4byte	.LVL87
 4562 03f0 0100     		.2byte	0x1
 4563 03f2 50       		.byte	0x50
 4564 03f3 00000000 		.4byte	0
 4565 03f7 00000000 		.4byte	0
 4566              	.LLST25:
 4567 03fb 00000000 		.4byte	.LFB67
 4568 03ff 02000000 		.4byte	.LCFI8
 4569 0403 0200     		.2byte	0x2
 4570 0405 7D       		.byte	0x7d
 4571 0406 00       		.sleb128 0
 4572 0407 02000000 		.4byte	.LCFI8
 4573 040b 04000000 		.4byte	.LCFI9
 4574 040f 0200     		.2byte	0x2
 4575 0411 7D       		.byte	0x7d
 4576 0412 14       		.sleb128 20
 4577 0413 04000000 		.4byte	.LCFI9
 4578 0417 50000000 		.4byte	.LFE67
 4579 041b 0200     		.2byte	0x2
 4580 041d 7D       		.byte	0x7d
 4581 041e 38       		.sleb128 56
 4582 041f 00000000 		.4byte	0
 4583 0423 00000000 		.4byte	0
 4584              	.LLST26:
 4585 0427 00000000 		.4byte	.LVL89
 4586 042b 15000000 		.4byte	.LVL90-1
 4587 042f 0100     		.2byte	0x1
 4588 0431 50       		.byte	0x50
 4589 0432 15000000 		.4byte	.LVL90-1
 4590 0436 50000000 		.4byte	.LFE67
 4591 043a 0100     		.2byte	0x1
 4592 043c 55       		.byte	0x55
 4593 043d 00000000 		.4byte	0
 4594 0441 00000000 		.4byte	0
 4595              	.LLST27:
 4596 0445 00000000 		.4byte	.LVL89
 4597 0449 15000000 		.4byte	.LVL90-1
 4598 044d 0100     		.2byte	0x1
 4599 044f 51       		.byte	0x51
 4600 0450 15000000 		.4byte	.LVL90-1
 4601 0454 50000000 		.4byte	.LFE67
 4602 0458 0400     		.2byte	0x4
 4603 045a F3       		.byte	0xf3
 4604 045b 01       		.uleb128 0x1
 4605 045c 51       		.byte	0x51
 4606 045d 9F       		.byte	0x9f
 4607 045e 00000000 		.4byte	0
 4608 0462 00000000 		.4byte	0
 4609              	.LLST28:
 4610 0466 00000000 		.4byte	.LVL89
 4611 046a 15000000 		.4byte	.LVL90-1
 4612 046e 0100     		.2byte	0x1
 4613 0470 52       		.byte	0x52
 4614 0471 15000000 		.4byte	.LVL90-1
ARM GAS  /tmp/cc44dd1z.s 			page 82


 4615 0475 50000000 		.4byte	.LFE67
 4616 0479 0100     		.2byte	0x1
 4617 047b 56       		.byte	0x56
 4618 047c 00000000 		.4byte	0
 4619 0480 00000000 		.4byte	0
 4620              	.LLST29:
 4621 0484 30000000 		.4byte	.LVL92
 4622 0488 32000000 		.4byte	.LVL93
 4623 048c 0100     		.2byte	0x1
 4624 048e 50       		.byte	0x50
 4625 048f 32000000 		.4byte	.LVL93
 4626 0493 50000000 		.4byte	.LFE67
 4627 0497 0100     		.2byte	0x1
 4628 0499 54       		.byte	0x54
 4629 049a 00000000 		.4byte	0
 4630 049e 00000000 		.4byte	0
 4631              		.section	.debug_aranges,"",%progbits
 4632 0000 3C000000 		.4byte	0x3c
 4633 0004 0200     		.2byte	0x2
 4634 0006 00000000 		.4byte	.Ldebug_info0
 4635 000a 04       		.byte	0x4
 4636 000b 00       		.byte	0
 4637 000c 0000     		.2byte	0
 4638 000e 0000     		.2byte	0
 4639 0010 00000000 		.4byte	.LFB63
 4640 0014 48000000 		.4byte	.LFE63-.LFB63
 4641 0018 00000000 		.4byte	.LFB64
 4642 001c AC000000 		.4byte	.LFE64-.LFB64
 4643 0020 00000000 		.4byte	.LFB65
 4644 0024 84000000 		.4byte	.LFE65-.LFB65
 4645 0028 00000000 		.4byte	.LFB66
 4646 002c AC010000 		.4byte	.LFE66-.LFB66
 4647 0030 00000000 		.4byte	.LFB67
 4648 0034 50000000 		.4byte	.LFE67-.LFB67
 4649 0038 00000000 		.4byte	0
 4650 003c 00000000 		.4byte	0
 4651              		.section	.debug_ranges,"",%progbits
 4652              	.Ldebug_ranges0:
 4653 0000 00000000 		.4byte	.LFB63
 4654 0004 48000000 		.4byte	.LFE63
 4655 0008 00000000 		.4byte	.LFB64
 4656 000c AC000000 		.4byte	.LFE64
 4657 0010 00000000 		.4byte	.LFB65
 4658 0014 84000000 		.4byte	.LFE65
 4659 0018 00000000 		.4byte	.LFB66
 4660 001c AC010000 		.4byte	.LFE66
 4661 0020 00000000 		.4byte	.LFB67
 4662 0024 50000000 		.4byte	.LFE67
 4663 0028 00000000 		.4byte	0
 4664 002c 00000000 		.4byte	0
 4665              		.section	.debug_line,"",%progbits
 4666              	.Ldebug_line0:
 4667 0000 96030000 		.section	.debug_str,"MS",%progbits,1
 4667      02006A02 
 4667      00000201 
 4667      FB0E0D00 
 4667      01010101 
ARM GAS  /tmp/cc44dd1z.s 			page 83


 4668              	.LASF119:
 4669 0000 5354445F 		.ascii	"STD_DUTY_CYCLE\000"
 4669      44555459 
 4669      5F435943 
 4669      4C4500
 4670              	.LASF136:
 4671 000f 646D6172 		.ascii	"dmarx\000"
 4671      7800
 4672              	.LASF122:
 4673 0015 69326364 		.ascii	"i2cdutycycle_t\000"
 4673      75747963 
 4673      79636C65 
 4673      5F7400
 4674              	.LASF18:
 4675 0024 74726566 		.ascii	"trefs_t\000"
 4675      735F7400 
 4676              	.LASF112:
 4677 002c 69326373 		.ascii	"i2cstate_t\000"
 4677      74617465 
 4677      5F7400
 4678              	.LASF2:
 4679 0037 73697A65 		.ascii	"size_t\000"
 4679      5F7400
 4680              	.LASF64:
 4681 003e 7264796D 		.ascii	"rdymsg\000"
 4681      736700
 4682              	.LASF13:
 4683 0045 75696E74 		.ascii	"uint64_t\000"
 4683      36345F74 
 4683      00
 4684              	.LASF80:
 4685 004e 4F757470 		.ascii	"OutputQueue\000"
 4685      75745175 
 4685      65756500 
 4686              	.LASF95:
 4687 005a 54524953 		.ascii	"TRISE\000"
 4687      4500
 4688              	.LASF14:
 4689 0060 6C6F6E67 		.ascii	"long long unsigned int\000"
 4689      206C6F6E 
 4689      6720756E 
 4689      7369676E 
 4689      65642069 
 4690              	.LASF133:
 4691 0077 61646472 		.ascii	"addr\000"
 4691      00
 4692              	.LASF176:
 4693 007c 69326347 		.ascii	"i2cGetErr\000"
 4693      65744572 
 4693      7200
 4694              	.LASF65:
 4695 0086 65786974 		.ascii	"exitcode\000"
 4695      636F6465 
 4695      00
 4696              	.LASF104:
 4697 008f 76656374 		.ascii	"vector\000"
 4697      6F7200
ARM GAS  /tmp/cc44dd1z.s 			page 84


 4698              	.LASF175:
 4699 0096 69326352 		.ascii	"i2cReleaseBus\000"
 4699      656C6561 
 4699      73654275 
 4699      7300
 4700              	.LASF173:
 4701 00a4 49544D5F 		.ascii	"ITM_RxBuffer\000"
 4701      52784275 
 4701      66666572 
 4701      00
 4702              	.LASF28:
 4703 00b1 705F7072 		.ascii	"p_prio\000"
 4703      696F00
 4704              	.LASF180:
 4705 00b8 6932634D 		.ascii	"i2cMasterTransmitTimeout\000"
 4705      61737465 
 4705      72547261 
 4705      6E736D69 
 4705      7454696D 
 4706              	.LASF153:
 4707 00d1 72656164 		.ascii	"readt\000"
 4707      7400
 4708              	.LASF70:
 4709 00d7 715F7761 		.ascii	"q_waiting\000"
 4709      6974696E 
 4709      6700
 4710              	.LASF12:
 4711 00e1 6C6F6E67 		.ascii	"long long int\000"
 4711      206C6F6E 
 4711      6720696E 
 4711      7400
 4712              	.LASF1:
 4713 00ef 7369676E 		.ascii	"signed char\000"
 4713      65642063 
 4713      68617200 
 4714              	.LASF167:
 4715 00fb 6779726F 		.ascii	"gyroRead\000"
 4715      52656164 
 4715      00
 4716              	.LASF98:
 4717 0104 47545052 		.ascii	"GTPR\000"
 4717      00
 4718              	.LASF45:
 4719 0109 705F6D70 		.ascii	"p_mpool\000"
 4719      6F6F6C00 
 4720              	.LASF54:
 4721 0111 6D5F7175 		.ascii	"m_queue\000"
 4721      65756500 
 4722              	.LASF19:
 4723 0119 74736C69 		.ascii	"tslices_t\000"
 4723      6365735F 
 4723      7400
 4724              	.LASF177:
 4725 0123 474E5520 		.ascii	"GNU C 4.7.4 20130913 (release) [ARM/embedded-4_7-br"
 4725      4320342E 
 4725      372E3420 
 4725      32303133 
ARM GAS  /tmp/cc44dd1z.s 			page 85


 4725      30393133 
 4726 0156 616E6368 		.ascii	"anch revision 202601]\000"
 4726      20726576 
 4726      6973696F 
 4726      6E203230 
 4726      32363031 
 4727              	.LASF113:
 4728 016c 69326361 		.ascii	"i2caddr_t\000"
 4728      6464725F 
 4728      7400
 4729              	.LASF128:
 4730 0176 73746174 		.ascii	"state\000"
 4730      6500
 4731              	.LASF172:
 4732 017c 74656D70 		.ascii	"temp\000"
 4732      00
 4733              	.LASF9:
 4734 0181 6C6F6E67 		.ascii	"long int\000"
 4734      20696E74 
 4734      00
 4735              	.LASF17:
 4736 018a 74737461 		.ascii	"tstate_t\000"
 4736      74655F74 
 4736      00
 4737              	.LASF132:
 4738 0193 74687265 		.ascii	"thread\000"
 4738      616400
 4739              	.LASF36:
 4740 019a 705F7265 		.ascii	"p_refs\000"
 4740      667300
 4741              	.LASF72:
 4742 01a1 715F6275 		.ascii	"q_buffer\000"
 4742      66666572 
 4742      00
 4743              	.LASF74:
 4744 01aa 715F7772 		.ascii	"q_wrptr\000"
 4744      70747200 
 4745              	.LASF38:
 4746 01b2 705F7469 		.ascii	"p_time\000"
 4746      6D6500
 4747              	.LASF109:
 4748 01b9 4932435F 		.ascii	"I2C_ACTIVE_TX\000"
 4748      41435449 
 4748      56455F54 
 4748      5800
 4749              	.LASF30:
 4750 01c7 705F6E65 		.ascii	"p_newer\000"
 4750      77657200 
 4751              	.LASF134:
 4752 01cf 7278646D 		.ascii	"rxdmamode\000"
 4752      616D6F64 
 4752      6500
 4753              	.LASF137:
 4754 01d9 646D6174 		.ascii	"dmatx\000"
 4754      7800
 4755              	.LASF117:
 4756 01df 4F504D4F 		.ascii	"OPMODE_SMBUS_HOST\000"
ARM GAS  /tmp/cc44dd1z.s 			page 86


 4756      44455F53 
 4756      4D425553 
 4756      5F484F53 
 4756      5400
 4757              	.LASF48:
 4758 01f1 72656761 		.ascii	"regarm_t\000"
 4758      726D5F74 
 4758      00
 4759              	.LASF103:
 4760 01fa 73656C66 		.ascii	"selfindex\000"
 4760      696E6465 
 4760      7800
 4761              	.LASF123:
 4762 0204 6F705F6D 		.ascii	"op_mode\000"
 4762      6F646500 
 4763              	.LASF25:
 4764 020c 54687265 		.ascii	"Thread\000"
 4764      616400
 4765              	.LASF62:
 4766 0213 4576656E 		.ascii	"EventSource\000"
 4766      74536F75 
 4766      72636500 
 4767              	.LASF146:
 4768 021f 75736172 		.ascii	"usart\000"
 4768      7400
 4769              	.LASF0:
 4770 0225 756E7369 		.ascii	"unsigned int\000"
 4770      676E6564 
 4770      20696E74 
 4770      00
 4771              	.LASF6:
 4772 0232 75696E74 		.ascii	"uint16_t\000"
 4772      31365F74 
 4772      00
 4773              	.LASF147:
 4774 023b 53657269 		.ascii	"SerialDriverVMT\000"
 4774      616C4472 
 4774      69766572 
 4774      564D5400 
 4775              	.LASF156:
 4776 024b 61636349 		.ascii	"accInit\000"
 4776      6E697400 
 4777              	.LASF161:
 4778 0253 72785F64 		.ascii	"rx_data\000"
 4778      61746100 
 4779              	.LASF82:
 4780 025b 43504152 		.ascii	"CPAR\000"
 4780      00
 4781              	.LASF144:
 4782 0260 69717565 		.ascii	"iqueue\000"
 4782      756500
 4783              	.LASF40:
 4784 0267 705F6D73 		.ascii	"p_msgqueue\000"
 4784      67717565 
 4784      756500
 4785              	.LASF158:
 4786 0272 6163635F 		.ascii	"acc_x\000"
ARM GAS  /tmp/cc44dd1z.s 			page 87


 4786      7800
 4787              	.LASF159:
 4788 0278 6163635F 		.ascii	"acc_y\000"
 4788      7900
 4789              	.LASF160:
 4790 027e 6163635F 		.ascii	"acc_z\000"
 4790      7A00
 4791              	.LASF151:
 4792 0284 67657474 		.ascii	"gett\000"
 4792      00
 4793              	.LASF102:
 4794 0289 69736869 		.ascii	"ishift\000"
 4794      667400
 4795              	.LASF155:
 4796 0290 74785F64 		.ascii	"tx_data\000"
 4796      61746100 
 4797              	.LASF143:
 4798 0298 6576656E 		.ascii	"event\000"
 4798      7400
 4799              	.LASF116:
 4800 029e 4F504D4F 		.ascii	"OPMODE_SMBUS_DEVICE\000"
 4800      44455F53 
 4800      4D425553 
 4800      5F444556 
 4800      49434500 
 4801              	.LASF7:
 4802 02b2 73686F72 		.ascii	"short unsigned int\000"
 4802      7420756E 
 4802      7369676E 
 4802      65642069 
 4802      6E7400
 4803              	.LASF127:
 4804 02c5 49324344 		.ascii	"I2CDriver\000"
 4804      72697665 
 4804      7200
 4805              	.LASF124:
 4806 02cf 636C6F63 		.ascii	"clock_speed\000"
 4806      6B5F7370 
 4806      65656400 
 4807              	.LASF21:
 4808 02db 6D73675F 		.ascii	"msg_t\000"
 4808      7400
 4809              	.LASF145:
 4810 02e1 6F717565 		.ascii	"oqueue\000"
 4810      756500
 4811              	.LASF99:
 4812 02e8 55534152 		.ascii	"USART_TypeDef\000"
 4812      545F5479 
 4812      70654465 
 4812      6600
 4813              	.LASF152:
 4814 02f6 77726974 		.ascii	"writet\000"
 4814      657400
 4815              	.LASF16:
 4816 02fd 746D6F64 		.ascii	"tmode_t\000"
 4816      655F7400 
 4817              	.LASF47:
ARM GAS  /tmp/cc44dd1z.s 			page 88


 4818 0305 54687265 		.ascii	"ThreadsList\000"
 4818      6164734C 
 4818      69737400 
 4819              	.LASF22:
 4820 0311 6576656E 		.ascii	"eventmask_t\000"
 4820      746D6173 
 4820      6B5F7400 
 4821              	.LASF5:
 4822 031d 73686F72 		.ascii	"short int\000"
 4822      7420696E 
 4822      7400
 4823              	.LASF78:
 4824 0327 716E6F74 		.ascii	"qnotify_t\000"
 4824      6966795F 
 4824      7400
 4825              	.LASF69:
 4826 0331 47656E65 		.ascii	"GenericQueue\000"
 4826      72696351 
 4826      75657565 
 4826      00
 4827              	.LASF49:
 4828 033e 73746B61 		.ascii	"stkalign_t\000"
 4828      6C69676E 
 4828      5F7400
 4829              	.LASF148:
 4830 0349 77726974 		.ascii	"write\000"
 4830      6500
 4831              	.LASF150:
 4832 034f 70757474 		.ascii	"putt\000"
 4832      00
 4833              	.LASF107:
 4834 0354 4932435F 		.ascii	"I2C_STOP\000"
 4834      53544F50 
 4834      00
 4835              	.LASF168:
 4836 035d 6779726F 		.ascii	"gyro_x\000"
 4836      5F7800
 4837              	.LASF169:
 4838 0364 6779726F 		.ascii	"gyro_y\000"
 4838      5F7900
 4839              	.LASF170:
 4840 036b 6779726F 		.ascii	"gyro_z\000"
 4840      5F7A00
 4841              	.LASF52:
 4842 0372 73697A65 		.ascii	"sizetype\000"
 4842      74797065 
 4842      00
 4843              	.LASF71:
 4844 037b 715F636F 		.ascii	"q_counter\000"
 4844      756E7465 
 4844      7200
 4845              	.LASF53:
 4846 0385 4D757465 		.ascii	"Mutex\000"
 4846      7800
 4847              	.LASF130:
 4848 038b 6572726F 		.ascii	"errors\000"
 4848      727300
ARM GAS  /tmp/cc44dd1z.s 			page 89


 4849              	.LASF125:
 4850 0392 64757479 		.ascii	"duty_cycle\000"
 4850      5F637963 
 4850      6C6500
 4851              	.LASF154:
 4852 039d 6932635F 		.ascii	"i2c_drv\000"
 4852      64727600 
 4853              	.LASF60:
 4854 03a5 656C5F6D 		.ascii	"el_mask\000"
 4854      61736B00 
 4855              	.LASF31:
 4856 03ad 705F6F6C 		.ascii	"p_older\000"
 4856      64657200 
 4857              	.LASF126:
 4858 03b5 49324343 		.ascii	"I2CConfig\000"
 4858      6F6E6669 
 4858      6700
 4859              	.LASF46:
 4860 03bf 54687265 		.ascii	"ThreadsQueue\000"
 4860      61647351 
 4860      75657565 
 4860      00
 4861              	.LASF135:
 4862 03cc 7478646D 		.ascii	"txdmamode\000"
 4862      616D6F64 
 4862      6500
 4863              	.LASF33:
 4864 03d6 705F7374 		.ascii	"p_stklimit\000"
 4864      6B6C696D 
 4864      697400
 4865              	.LASF115:
 4866 03e1 4F504D4F 		.ascii	"OPMODE_I2C\000"
 4866      44455F49 
 4866      324300
 4867              	.LASF121:
 4868 03ec 46415354 		.ascii	"FAST_DUTY_CYCLE_16_9\000"
 4868      5F445554 
 4868      595F4359 
 4868      434C455F 
 4868      31365F39 
 4869              	.LASF84:
 4870 0401 444D415F 		.ascii	"DMA_Channel_TypeDef\000"
 4870      4368616E 
 4870      6E656C5F 
 4870      54797065 
 4870      44656600 
 4871              	.LASF165:
 4872 0415 666C6F61 		.ascii	"float\000"
 4872      7400
 4873              	.LASF166:
 4874 041b 6779726F 		.ascii	"gyroInit\000"
 4874      496E6974 
 4874      00
 4875              	.LASF101:
 4876 0424 69666372 		.ascii	"ifcr\000"
 4876      00
 4877              	.LASF179:
ARM GAS  /tmp/cc44dd1z.s 			page 90


 4878 0429 2F686F6D 		.ascii	"/home/ondra6ak/Documents/ARM/mlab-ChibiOSRT/demos/S"
 4878      652F6F6E 
 4878      64726136 
 4878      616B2F44 
 4878      6F63756D 
 4879 045c 544D3332 		.ascii	"TM32F107RxT01A--IMU01A\000"
 4879      46313037 
 4879      52785430 
 4879      31412D2D 
 4879      494D5530 
 4880              	.LASF85:
 4881 0473 52455345 		.ascii	"RESERVED0\000"
 4881      52564544 
 4881      3000
 4882              	.LASF86:
 4883 047d 52455345 		.ascii	"RESERVED1\000"
 4883      52564544 
 4883      3100
 4884              	.LASF88:
 4885 0487 52455345 		.ascii	"RESERVED2\000"
 4885      52564544 
 4885      3200
 4886              	.LASF90:
 4887 0491 52455345 		.ascii	"RESERVED3\000"
 4887      52564544 
 4887      3300
 4888              	.LASF91:
 4889 049b 52455345 		.ascii	"RESERVED4\000"
 4889      52564544 
 4889      3400
 4890              	.LASF27:
 4891 04a5 705F7072 		.ascii	"p_prev\000"
 4891      657600
 4892              	.LASF93:
 4893 04ac 52455345 		.ascii	"RESERVED6\000"
 4893      52564544 
 4893      3600
 4894              	.LASF94:
 4895 04b6 52455345 		.ascii	"RESERVED7\000"
 4895      52564544 
 4895      3700
 4896              	.LASF96:
 4897 04c0 52455345 		.ascii	"RESERVED8\000"
 4897      52564544 
 4897      3800
 4898              	.LASF20:
 4899 04ca 74707269 		.ascii	"tprio_t\000"
 4899      6F5F7400 
 4900              	.LASF75:
 4901 04d2 715F7264 		.ascii	"q_rdptr\000"
 4901      70747200 
 4902              	.LASF114:
 4903 04da 69326366 		.ascii	"i2cflags_t\000"
 4903      6C616773 
 4903      5F7400
 4904              	.LASF131:
 4905 04e5 6D757465 		.ascii	"mutex\000"
ARM GAS  /tmp/cc44dd1z.s 			page 91


 4905      7800
 4906              	.LASF15:
 4907 04eb 5F426F6F 		.ascii	"_Bool\000"
 4907      6C00
 4908              	.LASF8:
 4909 04f1 696E7433 		.ascii	"int32_t\000"
 4909      325F7400 
 4910              	.LASF4:
 4911 04f9 756E7369 		.ascii	"unsigned char\000"
 4911      676E6564 
 4911      20636861 
 4911      7200
 4912              	.LASF105:
 4913 0507 73746D33 		.ascii	"stm32_dma_stream_t\000"
 4913      325F646D 
 4913      615F7374 
 4913      7265616D 
 4913      5F7400
 4914              	.LASF59:
 4915 051a 656C5F6C 		.ascii	"el_listener\000"
 4915      69737465 
 4915      6E657200 
 4916              	.LASF171:
 4917 0526 74656D70 		.ascii	"tempRead\000"
 4917      52656164 
 4917      00
 4918              	.LASF61:
 4919 052f 656C5F66 		.ascii	"el_flags\000"
 4919      6C616773 
 4919      00
 4920              	.LASF43:
 4921 0538 705F6D74 		.ascii	"p_mtxlist\000"
 4921      786C6973 
 4921      7400
 4922              	.LASF106:
 4923 0542 4932435F 		.ascii	"I2C_UNINIT\000"
 4923      554E494E 
 4923      495400
 4924              	.LASF34:
 4925 054d 705F7374 		.ascii	"p_state\000"
 4925      61746500 
 4926              	.LASF37:
 4927 0555 705F7072 		.ascii	"p_preempt\000"
 4927      65656D70 
 4927      7400
 4928              	.LASF67:
 4929 055f 65776D61 		.ascii	"ewmask\000"
 4929      736B00
 4930              	.LASF26:
 4931 0566 705F6E65 		.ascii	"p_next\000"
 4931      787400
 4932              	.LASF35:
 4933 056d 705F666C 		.ascii	"p_flags\000"
 4933      61677300 
 4934              	.LASF58:
 4935 0575 656C5F6E 		.ascii	"el_next\000"
 4935      65787400 
ARM GAS  /tmp/cc44dd1z.s 			page 92


 4936              	.LASF139:
 4937 057d 53445F53 		.ascii	"SD_STOP\000"
 4937      544F5000 
 4938              	.LASF120:
 4939 0585 46415354 		.ascii	"FAST_DUTY_CYCLE_2\000"
 4939      5F445554 
 4939      595F4359 
 4939      434C455F 
 4939      3200
 4940              	.LASF100:
 4941 0597 6368616E 		.ascii	"channel\000"
 4941      6E656C00 
 4942              	.LASF111:
 4943 059f 4932435F 		.ascii	"I2C_LOCKED\000"
 4943      4C4F434B 
 4943      454400
 4944              	.LASF42:
 4945 05aa 705F6570 		.ascii	"p_epending\000"
 4945      656E6469 
 4945      6E6700
 4946              	.LASF138:
 4947 05b5 53445F55 		.ascii	"SD_UNINIT\000"
 4947      4E494E49 
 4947      5400
 4948              	.LASF92:
 4949 05bf 52455345 		.ascii	"RESERVED5\000"
 4949      52564544 
 4949      3500
 4950              	.LASF10:
 4951 05c9 75696E74 		.ascii	"uint32_t\000"
 4951      33325F74 
 4951      00
 4952              	.LASF141:
 4953 05d2 73647374 		.ascii	"sdstate_t\000"
 4953      6174655F 
 4953      7400
 4954              	.LASF142:
 4955 05dc 53657269 		.ascii	"SerialDriver\000"
 4955      616C4472 
 4955      69766572 
 4955      00
 4956              	.LASF110:
 4957 05e9 4932435F 		.ascii	"I2C_ACTIVE_RX\000"
 4957      41435449 
 4957      56455F52 
 4957      5800
 4958              	.LASF11:
 4959 05f7 6C6F6E67 		.ascii	"long unsigned int\000"
 4959      20756E73 
 4959      69676E65 
 4959      6420696E 
 4959      7400
 4960              	.LASF149:
 4961 0609 72656164 		.ascii	"read\000"
 4961      00
 4962              	.LASF68:
 4963 060e 63686172 		.ascii	"char\000"
ARM GAS  /tmp/cc44dd1z.s 			page 93


 4963      00
 4964              	.LASF129:
 4965 0613 636F6E66 		.ascii	"config\000"
 4965      696700
 4966              	.LASF56:
 4967 061a 6D5F6E65 		.ascii	"m_next\000"
 4967      787400
 4968              	.LASF24:
 4969 0621 73797374 		.ascii	"systime_t\000"
 4969      696D655F 
 4969      7400
 4970              	.LASF44:
 4971 062b 705F7265 		.ascii	"p_realprio\000"
 4971      616C7072 
 4971      696F00
 4972              	.LASF108:
 4973 0636 4932435F 		.ascii	"I2C_READY\000"
 4973      52454144 
 4973      5900
 4974              	.LASF51:
 4975 0640 636F6E74 		.ascii	"context\000"
 4975      65787400 
 4976              	.LASF50:
 4977 0648 696E7463 		.ascii	"intctx\000"
 4977      747800
 4978              	.LASF140:
 4979 064f 53445F52 		.ascii	"SD_READY\000"
 4979      45414459 
 4979      00
 4980              	.LASF23:
 4981 0658 666C6167 		.ascii	"flagsmask_t\000"
 4981      736D6173 
 4981      6B5F7400 
 4982              	.LASF73:
 4983 0664 715F746F 		.ascii	"q_top\000"
 4983      7000
 4984              	.LASF32:
 4985 066a 705F6E61 		.ascii	"p_name\000"
 4985      6D6500
 4986              	.LASF174:
 4987 0671 69326341 		.ascii	"i2cAcquireBus\000"
 4987      63717569 
 4987      72654275 
 4987      7300
 4988              	.LASF81:
 4989 067f 434E4454 		.ascii	"CNDTR\000"
 4989      5200
 4990              	.LASF83:
 4991 0685 434D4152 		.ascii	"CMAR\000"
 4991      00
 4992              	.LASF76:
 4993 068a 715F6E6F 		.ascii	"q_notify\000"
 4993      74696679 
 4993      00
 4994              	.LASF157:
 4995 0693 61636352 		.ascii	"accRead\000"
 4995      65616400 
ARM GAS  /tmp/cc44dd1z.s 			page 94


 4996              	.LASF3:
 4997 069b 75696E74 		.ascii	"uint8_t\000"
 4997      385F7400 
 4998              	.LASF79:
 4999 06a3 496E7075 		.ascii	"InputQueue\000"
 4999      74517565 
 4999      756500
 5000              	.LASF87:
 5001 06ae 4F415231 		.ascii	"OAR1\000"
 5001      00
 5002              	.LASF89:
 5003 06b3 4F415232 		.ascii	"OAR2\000"
 5003      00
 5004              	.LASF57:
 5005 06b8 4576656E 		.ascii	"EventListener\000"
 5005      744C6973 
 5005      74656E65 
 5005      7200
 5006              	.LASF66:
 5007 06c6 77746F62 		.ascii	"wtobjp\000"
 5007      6A7000
 5008              	.LASF63:
 5009 06cd 65735F6E 		.ascii	"es_next\000"
 5009      65787400 
 5010              	.LASF162:
 5011 06d5 7261775F 		.ascii	"raw_x\000"
 5011      7800
 5012              	.LASF163:
 5013 06db 7261775F 		.ascii	"raw_y\000"
 5013      7900
 5014              	.LASF164:
 5015 06e1 7261775F 		.ascii	"raw_z\000"
 5015      7A00
 5016              	.LASF41:
 5017 06e7 705F6D73 		.ascii	"p_msg\000"
 5017      6700
 5018              	.LASF178:
 5019 06ed 2E2E2F2E 		.ascii	"../../os/various/IMU01A.c\000"
 5019      2E2F6F73 
 5019      2F766172 
 5019      696F7573 
 5019      2F494D55 
 5020              	.LASF97:
 5021 0707 4932435F 		.ascii	"I2C_TypeDef\000"
 5021      54797065 
 5021      44656600 
 5022              	.LASF118:
 5023 0713 6932636F 		.ascii	"i2copmode_t\000"
 5023      706D6F64 
 5023      655F7400 
 5024              	.LASF77:
 5025 071f 715F6C69 		.ascii	"q_link\000"
 5025      6E6B00
 5026              	.LASF55:
 5027 0726 6D5F6F77 		.ascii	"m_owner\000"
 5027      6E657200 
 5028              	.LASF29:
ARM GAS  /tmp/cc44dd1z.s 			page 95


 5029 072e 705F6374 		.ascii	"p_ctx\000"
 5029      7800
 5030              	.LASF39:
 5031 0734 705F7761 		.ascii	"p_waiting\000"
 5031      6974696E 
 5031      6700
 5032              		.ident	"GCC: (GNU Tools for ARM Embedded Processors) 4.7.4 20130913 (release) [ARM/embedded-4_7-br
ARM GAS  /tmp/cc44dd1z.s 			page 96


DEFINED SYMBOLS
                            *ABS*:00000000 IMU01A.c
     /tmp/cc44dd1z.s:19     .text.accInit:00000000 $t
     /tmp/cc44dd1z.s:25     .text.accInit:00000000 accInit
     /tmp/cc44dd1z.s:92     .text.accInit:00000044 $d
     /tmp/cc44dd1z.s:99     .text.accRead:00000000 $t
     /tmp/cc44dd1z.s:105    .text.accRead:00000000 accRead
     /tmp/cc44dd1z.s:221    .text.accRead:000000a8 $d
     /tmp/cc44dd1z.s:226    .text.gyroInit:00000000 $t
     /tmp/cc44dd1z.s:232    .text.gyroInit:00000000 gyroInit
     /tmp/cc44dd1z.s:342    .text.gyroInit:00000080 $d
     /tmp/cc44dd1z.s:347    .text.gyroRead:00000000 $t
     /tmp/cc44dd1z.s:353    .text.gyroRead:00000000 gyroRead
     /tmp/cc44dd1z.s:658    .text.gyroRead:000001a8 $d
     /tmp/cc44dd1z.s:663    .text.tempRead:00000000 $t
     /tmp/cc44dd1z.s:669    .text.tempRead:00000000 tempRead
     /tmp/cc44dd1z.s:737    .text.tempRead:0000004c $d
                     .debug_frame:00000010 $d
     /tmp/cc44dd1z.s:98     .text.accInit:00000048 $t
     /tmp/cc44dd1z.s:225    .text.accRead:000000ac $t
     /tmp/cc44dd1z.s:346    .text.gyroInit:00000084 $t
     /tmp/cc44dd1z.s:662    .text.gyroRead:000001ac $t

UNDEFINED SYMBOLS
i2cAcquireBus
i2cMasterTransmitTimeout
i2cReleaseBus
i2cGetErr
SD2
__aeabi_ui2f
__aeabi_fdiv
