ARM GAS  /tmp/ccIGwOX9.s 			page 1


   1              		.syntax unified
   2              		.cpu cortex-m3
   3              		.fpu softvfp
   4              		.eabi_attribute 20, 1
   5              		.eabi_attribute 21, 1
   6              		.eabi_attribute 23, 3
   7              		.eabi_attribute 24, 1
   8              		.eabi_attribute 25, 1
   9              		.eabi_attribute 26, 1
  10              		.eabi_attribute 30, 2
  11              		.eabi_attribute 34, 1
  12              		.eabi_attribute 18, 4
  13              		.thumb
  14              		.file	"IMU01A.c"
  15              		.text
  16              	.Ltext0:
  17              		.cfi_sections	.debug_frame
  18              		.section	.text.accInit,"ax",%progbits
  19              		.align	2
  20              		.p2align 4,,15
  21              		.global	accInit
  22              		.thumb
  23              		.thumb_func
  24              		.type	accInit, %function
  25              	accInit:
  26              	.LFB63:
  27              		.file 1 "../../os/various/IMU01A.c"
  28              		.loc 1 16 0
  29              		.cfi_startproc
  30              		@ args = 0, pretend = 0, frame = 8
  31              		@ frame_needed = 0, uses_anonymous_args = 0
  32              	.LVL0:
  33 0000 30B5     		push	{r4, r5, lr}
  34              	.LCFI0:
  35              		.cfi_def_cfa_offset 12
  36              		.cfi_offset 4, -12
  37              		.cfi_offset 5, -8
  38              		.cfi_offset 14, -4
  39              		.loc 1 20 0
  40 0002 2A23     		movs	r3, #42
  41              		.loc 1 16 0
  42 0004 87B0     		sub	sp, sp, #28
  43              	.LCFI1:
  44              		.cfi_def_cfa_offset 40
  45              		.loc 1 16 0
  46 0006 0D46     		mov	r5, r1
  47              		.loc 1 21 0
  48 0008 0121     		movs	r1, #1
  49              	.LVL1:
  50              		.loc 1 16 0
  51 000a 0446     		mov	r4, r0
  52              		.loc 1 20 0
  53 000c 8DF81030 		strb	r3, [sp, #16]
  54              		.loc 1 21 0
  55 0010 8DF81110 		strb	r1, [sp, #17]
  56              		.loc 1 22 0
  57 0014 FFF7FEFF 		bl	i2cAcquireBus
ARM GAS  /tmp/ccIGwOX9.s 			page 2


  58              	.LVL2:
  59              		.loc 1 23 0
  60 0018 0020     		movs	r0, #0
  61 001a 0422     		movs	r2, #4
  62 001c 0090     		str	r0, [sp, #0]
  63 001e 0190     		str	r0, [sp, #4]
  64 0020 0292     		str	r2, [sp, #8]
  65 0022 2946     		mov	r1, r5
  66 0024 2046     		mov	r0, r4
  67 0026 04AA     		add	r2, sp, #16
  68 0028 0223     		movs	r3, #2
  69 002a FFF7FEFF 		bl	i2cMasterTransmitTimeout
  70              	.LVL3:
  71 002e 0546     		mov	r5, r0
  72              	.LVL4:
  73              		.loc 1 24 0
  74 0030 2046     		mov	r0, r4
  75              	.LVL5:
  76 0032 FFF7FEFF 		bl	i2cReleaseBus
  77              	.LVL6:
  78              		.loc 1 25 0
  79 0036 1DB1     		cbz	r5, .L1
  80              		.loc 1 25 0 is_stmt 0 discriminator 1
  81 0038 2046     		mov	r0, r4
  82 003a 0249     		ldr	r1, .L7
  83 003c FFF7FEFF 		bl	i2cGetErr
  84              	.LVL7:
  85              	.L1:
  86              		.loc 1 26 0 is_stmt 1
  87 0040 07B0     		add	sp, sp, #28
  88 0042 30BD     		pop	{r4, r5, pc}
  89              	.L8:
  90              		.align	2
  91              	.L7:
  92 0044 00000000 		.word	SD2
  93              		.cfi_endproc
  94              	.LFE63:
  95              		.size	accInit, .-accInit
  96              		.global	__aeabi_i2f
  97              		.global	__aeabi_fdiv
  98 0048 AFF30080 		.section	.text.accRead,"ax",%progbits
  98      AFF30080 
  99              		.align	2
 100              		.p2align 4,,15
 101              		.global	accRead
 102              		.thumb
 103              		.thumb_func
 104              		.type	accRead, %function
 105              	accRead:
 106              	.LFB64:
 107              		.loc 1 30 0
 108              		.cfi_startproc
 109              		@ args = 4, pretend = 0, frame = 16
 110              		@ frame_needed = 0, uses_anonymous_args = 0
 111              	.LVL8:
 112 0000 2DE9F047 		push	{r4, r5, r6, r7, r8, r9, sl, lr}
 113              	.LCFI2:
ARM GAS  /tmp/ccIGwOX9.s 			page 3


 114              		.cfi_def_cfa_offset 32
 115              		.cfi_offset 4, -32
 116              		.cfi_offset 5, -28
 117              		.cfi_offset 6, -24
 118              		.cfi_offset 7, -20
 119              		.cfi_offset 8, -16
 120              		.cfi_offset 9, -12
 121              		.cfi_offset 10, -8
 122              		.cfi_offset 14, -4
 123 0004 88B0     		sub	sp, sp, #32
 124              	.LCFI3:
 125              		.cfi_def_cfa_offset 64
 126              		.loc 1 35 0
 127 0006 08AF     		add	r7, sp, #32
 128 0008 4FF00109 		mov	r9, #1
 129              		.loc 1 30 0
 130 000c 8046     		mov	r8, r0
 131 000e 8A46     		mov	sl, r1
 132              		.loc 1 35 0
 133 0010 07F8089D 		strb	r9, [r7, #-8]!
 134              		.loc 1 30 0
 135 0014 1646     		mov	r6, r2
 136 0016 1D46     		mov	r5, r3
 137 0018 109C     		ldr	r4, [sp, #64]
 138              		.loc 1 36 0
 139 001a FFF7FEFF 		bl	i2cAcquireBus
 140              	.LVL9:
 141              		.loc 1 37 0
 142 001e 04AB     		add	r3, sp, #16
 143 0020 0620     		movs	r0, #6
 144 0022 0421     		movs	r1, #4
 145 0024 0093     		str	r3, [sp, #0]
 146 0026 0190     		str	r0, [sp, #4]
 147 0028 0291     		str	r1, [sp, #8]
 148 002a 3A46     		mov	r2, r7
 149 002c 4046     		mov	r0, r8
 150 002e 5146     		mov	r1, sl
 151 0030 4B46     		mov	r3, r9
 152 0032 FFF7FEFF 		bl	i2cMasterTransmitTimeout
 153              	.LVL10:
 154 0036 0746     		mov	r7, r0
 155              	.LVL11:
 156              		.loc 1 38 0
 157 0038 4046     		mov	r0, r8
 158              	.LVL12:
 159 003a FFF7FEFF 		bl	i2cReleaseBus
 160              	.LVL13:
 161              		.loc 1 39 0
 162 003e 1FB1     		cbz	r7, .L10
 163              		.loc 1 39 0 is_stmt 0 discriminator 1
 164 0040 4046     		mov	r0, r8
 165 0042 1B49     		ldr	r1, .L14
 166 0044 FFF7FEFF 		bl	i2cGetErr
 167              	.LVL14:
 168              	.L10:
 169              		.loc 1 41 0 is_stmt 1
 170 0048 9DF81130 		ldrb	r3, [sp, #17]	@ zero_extendqisi2
ARM GAS  /tmp/ccIGwOX9.s 			page 4


 171 004c 9DF81020 		ldrb	r2, [sp, #16]	@ zero_extendqisi2
 172 0050 43EA0220 		orr	r0, r3, r2, lsl #8
 173 0054 FFF7FEFF 		bl	__aeabi_i2f
 174              	.LVL15:
 175              		.loc 1 42 0
 176 0058 9DF81320 		ldrb	r2, [sp, #19]	@ zero_extendqisi2
 177 005c 9DF81210 		ldrb	r1, [sp, #18]	@ zero_extendqisi2
 178              		.loc 1 41 0
 179 0060 3060     		str	r0, [r6, #0]	@ float
 180              		.loc 1 42 0
 181 0062 42EA0120 		orr	r0, r2, r1, lsl #8
 182 0066 FFF7FEFF 		bl	__aeabi_i2f
 183              	.LVL16:
 184              		.loc 1 43 0
 185 006a 9DF81530 		ldrb	r3, [sp, #21]	@ zero_extendqisi2
 186 006e 9DF81410 		ldrb	r1, [sp, #20]	@ zero_extendqisi2
 187              		.loc 1 42 0
 188 0072 2860     		str	r0, [r5, #0]	@ float
 189              		.loc 1 43 0
 190 0074 43EA0120 		orr	r0, r3, r1, lsl #8
 191 0078 FFF7FEFF 		bl	__aeabi_i2f
 192              	.LVL17:
 193              		.loc 1 44 0
 194 007c 0021     		movs	r1, #0
 195              		.loc 1 43 0
 196 007e 2060     		str	r0, [r4, #0]	@ float
 197              		.loc 1 44 0
 198 0080 3068     		ldr	r0, [r6, #0]	@ float
 199 0082 C4F27A41 		movt	r1, 17530
 200 0086 FFF7FEFF 		bl	__aeabi_fdiv
 201              	.LVL18:
 202              		.loc 1 45 0
 203 008a 0021     		movs	r1, #0
 204              		.loc 1 44 0
 205 008c 3060     		str	r0, [r6, #0]	@ float
 206              		.loc 1 45 0
 207 008e 2868     		ldr	r0, [r5, #0]	@ float
 208 0090 C4F27A41 		movt	r1, 17530
 209 0094 FFF7FEFF 		bl	__aeabi_fdiv
 210              	.LVL19:
 211              		.loc 1 46 0
 212 0098 0021     		movs	r1, #0
 213              		.loc 1 45 0
 214 009a 2860     		str	r0, [r5, #0]	@ float
 215              		.loc 1 46 0
 216 009c 2068     		ldr	r0, [r4, #0]	@ float
 217 009e C4F27A41 		movt	r1, 17530
 218 00a2 FFF7FEFF 		bl	__aeabi_fdiv
 219              	.LVL20:
 220 00a6 2060     		str	r0, [r4, #0]	@ float
 221              		.loc 1 47 0
 222 00a8 08B0     		add	sp, sp, #32
 223 00aa BDE8F087 		pop	{r4, r5, r6, r7, r8, r9, sl, pc}
 224              	.L15:
 225 00ae 00BF     		.align	2
 226              	.L14:
 227 00b0 00000000 		.word	SD2
ARM GAS  /tmp/ccIGwOX9.s 			page 5


 228              		.cfi_endproc
 229              	.LFE64:
 230              		.size	accRead, .-accRead
 231              		.section	.text.gyroInit,"ax",%progbits
 232              		.align	2
 233              		.p2align 4,,15
 234              		.global	gyroInit
 235              		.thumb
 236              		.thumb_func
 237              		.type	gyroInit, %function
 238              	gyroInit:
 239              	.LFB65:
 240              		.loc 1 51 0
 241              		.cfi_startproc
 242              		@ args = 0, pretend = 0, frame = 8
 243              		@ frame_needed = 0, uses_anonymous_args = 0
 244              	.LVL21:
 245 0000 70B5     		push	{r4, r5, r6, lr}
 246              	.LCFI4:
 247              		.cfi_def_cfa_offset 16
 248              		.cfi_offset 4, -16
 249              		.cfi_offset 5, -12
 250              		.cfi_offset 6, -8
 251              		.cfi_offset 14, -4
 252              		.loc 1 55 0
 253 0002 2023     		movs	r3, #32
 254              		.loc 1 51 0
 255 0004 86B0     		sub	sp, sp, #24
 256              	.LCFI5:
 257              		.cfi_def_cfa_offset 40
 258              		.loc 1 51 0
 259 0006 0D46     		mov	r5, r1
 260              		.loc 1 56 0
 261 0008 FF21     		movs	r1, #255
 262              	.LVL22:
 263              		.loc 1 51 0
 264 000a 0446     		mov	r4, r0
 265              		.loc 1 55 0
 266 000c 8DF81030 		strb	r3, [sp, #16]
 267              		.loc 1 56 0
 268 0010 8DF81110 		strb	r1, [sp, #17]
 269              		.loc 1 57 0
 270 0014 FFF7FEFF 		bl	i2cAcquireBus
 271              	.LVL23:
 272              		.loc 1 58 0
 273 0018 0020     		movs	r0, #0
 274 001a 0422     		movs	r2, #4
 275 001c 0090     		str	r0, [sp, #0]
 276 001e 0190     		str	r0, [sp, #4]
 277 0020 0292     		str	r2, [sp, #8]
 278 0022 2046     		mov	r0, r4
 279 0024 2946     		mov	r1, r5
 280 0026 04AA     		add	r2, sp, #16
 281 0028 0223     		movs	r3, #2
 282 002a FFF7FEFF 		bl	i2cMasterTransmitTimeout
 283              	.LVL24:
 284 002e 0646     		mov	r6, r0
ARM GAS  /tmp/ccIGwOX9.s 			page 6


 285              	.LVL25:
 286              		.loc 1 59 0
 287 0030 2046     		mov	r0, r4
 288              	.LVL26:
 289 0032 FFF7FEFF 		bl	i2cReleaseBus
 290              	.LVL27:
 291              		.loc 1 60 0
 292 0036 F6B9     		cbnz	r6, .L25
 293              	.L17:
 294              		.loc 1 62 0
 295 0038 2E23     		movs	r3, #46
 296              		.loc 1 63 0
 297 003a 4021     		movs	r1, #64
 298              		.loc 1 64 0
 299 003c 2046     		mov	r0, r4
 300              		.loc 1 62 0
 301 003e 8DF81030 		strb	r3, [sp, #16]
 302              		.loc 1 63 0
 303 0042 8DF81110 		strb	r1, [sp, #17]
 304              		.loc 1 64 0
 305 0046 FFF7FEFF 		bl	i2cAcquireBus
 306              	.LVL28:
 307              		.loc 1 65 0
 308 004a 0020     		movs	r0, #0
 309 004c 0422     		movs	r2, #4
 310 004e 0090     		str	r0, [sp, #0]
 311 0050 0190     		str	r0, [sp, #4]
 312 0052 0292     		str	r2, [sp, #8]
 313 0054 2946     		mov	r1, r5
 314 0056 2046     		mov	r0, r4
 315 0058 04AA     		add	r2, sp, #16
 316 005a 0223     		movs	r3, #2
 317 005c FFF7FEFF 		bl	i2cMasterTransmitTimeout
 318              	.LVL29:
 319 0060 0546     		mov	r5, r0
 320              	.LVL30:
 321              		.loc 1 66 0
 322 0062 2046     		mov	r0, r4
 323              	.LVL31:
 324 0064 FFF7FEFF 		bl	i2cReleaseBus
 325              	.LVL32:
 326              		.loc 1 67 0
 327 0068 1DB1     		cbz	r5, .L16
 328              		.loc 1 67 0 is_stmt 0 discriminator 1
 329 006a 2046     		mov	r0, r4
 330 006c 0449     		ldr	r1, .L26
 331 006e FFF7FEFF 		bl	i2cGetErr
 332              	.LVL33:
 333              	.L16:
 334              		.loc 1 68 0 is_stmt 1
 335 0072 06B0     		add	sp, sp, #24
 336 0074 70BD     		pop	{r4, r5, r6, pc}
 337              	.LVL34:
 338              	.L25:
 339              		.loc 1 60 0 discriminator 1
 340 0076 2046     		mov	r0, r4
 341 0078 0149     		ldr	r1, .L26
ARM GAS  /tmp/ccIGwOX9.s 			page 7


 342 007a FFF7FEFF 		bl	i2cGetErr
 343              	.LVL35:
 344 007e DBE7     		b	.L17
 345              	.L27:
 346              		.align	2
 347              	.L26:
 348 0080 00000000 		.word	SD2
 349              		.cfi_endproc
 350              	.LFE65:
 351              		.size	gyroInit, .-gyroInit
 352 0084 AFF30080 		.section	.text.gyroRead,"ax",%progbits
 352      AFF30080 
 352      AFF30080 
 353              		.align	2
 354              		.p2align 4,,15
 355              		.global	gyroRead
 356              		.thumb
 357              		.thumb_func
 358              		.type	gyroRead, %function
 359              	gyroRead:
 360              	.LFB66:
 361              		.loc 1 72 0
 362              		.cfi_startproc
 363              		@ args = 4, pretend = 0, frame = 24
 364              		@ frame_needed = 0, uses_anonymous_args = 0
 365              	.LVL36:
 366 0000 2DE9F04F 		push	{r4, r5, r6, r7, r8, r9, sl, fp, lr}
 367              	.LCFI6:
 368              		.cfi_def_cfa_offset 36
 369              		.cfi_offset 4, -36
 370              		.cfi_offset 5, -32
 371              		.cfi_offset 6, -28
 372              		.cfi_offset 7, -24
 373              		.cfi_offset 8, -20
 374              		.cfi_offset 9, -16
 375              		.cfi_offset 10, -12
 376              		.cfi_offset 11, -8
 377              		.cfi_offset 14, -4
 378 0004 8BB0     		sub	sp, sp, #44
 379              	.LCFI7:
 380              		.cfi_def_cfa_offset 80
 381              		.loc 1 79 0
 382 0006 0AAD     		add	r5, sp, #40
 383              		.loc 1 72 0
 384 0008 9946     		mov	r9, r3
 385              		.loc 1 79 0
 386 000a 2923     		movs	r3, #41
 387              	.LVL37:
 388              		.loc 1 72 0
 389 000c 0446     		mov	r4, r0
 390 000e 0E46     		mov	r6, r1
 391              		.loc 1 79 0
 392 0010 05F8083D 		strb	r3, [r5, #-8]!
 393              		.loc 1 72 0
 394 0014 9246     		mov	sl, r2
 395 0016 DDF85080 		ldr	r8, [sp, #80]
 396              		.loc 1 81 0
ARM GAS  /tmp/ccIGwOX9.s 			page 8


 397 001a 06AF     		add	r7, sp, #24
 398              		.loc 1 80 0
 399 001c FFF7FEFF 		bl	i2cAcquireBus
 400              	.LVL38:
 401              		.loc 1 81 0
 402 0020 0620     		movs	r0, #6
 403 0022 0421     		movs	r1, #4
 404 0024 0190     		str	r0, [sp, #4]
 405 0026 0291     		str	r1, [sp, #8]
 406 0028 0097     		str	r7, [sp, #0]
 407 002a 2046     		mov	r0, r4
 408 002c 3146     		mov	r1, r6
 409 002e 2A46     		mov	r2, r5
 410 0030 0123     		movs	r3, #1
 411 0032 FFF7FEFF 		bl	i2cMasterTransmitTimeout
 412              	.LVL39:
 413              		.loc 1 82 0
 414 0036 0028     		cmp	r0, #0
 415 0038 40F0BC80 		bne	.L53
 416              	.LVL40:
 417              	.L29:
 418              		.loc 1 86 0
 419 003c 0622     		movs	r2, #6
 420 003e 0423     		movs	r3, #4
 421              		.loc 1 85 0
 422 0040 4FF0280E 		mov	lr, #40
 423              		.loc 1 86 0
 424 0044 0192     		str	r2, [sp, #4]
 425 0046 0293     		str	r3, [sp, #8]
 426 0048 3146     		mov	r1, r6
 427 004a 2A46     		mov	r2, r5
 428 004c 0123     		movs	r3, #1
 429 004e 0097     		str	r7, [sp, #0]
 430 0050 2046     		mov	r0, r4
 431              		.loc 1 85 0
 432 0052 8DF820E0 		strb	lr, [sp, #32]
 433              		.loc 1 83 0
 434 0056 9DF818B0 		ldrb	fp, [sp, #24]	@ zero_extendqisi2
 435              	.LVL41:
 436              		.loc 1 86 0
 437 005a FFF7FEFF 		bl	i2cMasterTransmitTimeout
 438              	.LVL42:
 439 005e 0146     		mov	r1, r0
 440              	.LVL43:
 441              		.loc 1 87 0
 442 0060 2046     		mov	r0, r4
 443              	.LVL44:
 444 0062 0591     		str	r1, [sp, #20]
 445 0064 FFF7FEFF 		bl	i2cReleaseBus
 446              	.LVL45:
 447              		.loc 1 88 0
 448 0068 0598     		ldr	r0, [sp, #20]
 449 006a 0028     		cmp	r0, #0
 450 006c 40F09D80 		bne	.L54
 451              	.L30:
 452              		.loc 1 89 0
 453 0070 9DF81820 		ldrb	r2, [sp, #24]	@ zero_extendqisi2
ARM GAS  /tmp/ccIGwOX9.s 			page 9


 454 0074 42EA0B20 		orr	r0, r2, fp, lsl #8
 455 0078 FFF7FEFF 		bl	__aeabi_i2f
 456              	.LVL46:
 457              		.loc 1 92 0
 458 007c 2B23     		movs	r3, #43
 459              		.loc 1 89 0
 460 007e CAF80000 		str	r0, [sl, #0]	@ float
 461              		.loc 1 93 0
 462 0082 2046     		mov	r0, r4
 463              		.loc 1 92 0
 464 0084 8DF82030 		strb	r3, [sp, #32]
 465              		.loc 1 93 0
 466 0088 FFF7FEFF 		bl	i2cAcquireBus
 467              	.LVL47:
 468              		.loc 1 94 0
 469 008c 0621     		movs	r1, #6
 470 008e 0420     		movs	r0, #4
 471 0090 0191     		str	r1, [sp, #4]
 472 0092 0290     		str	r0, [sp, #8]
 473 0094 0097     		str	r7, [sp, #0]
 474 0096 2046     		mov	r0, r4
 475 0098 3146     		mov	r1, r6
 476 009a 2A46     		mov	r2, r5
 477 009c 0123     		movs	r3, #1
 478 009e FFF7FEFF 		bl	i2cMasterTransmitTimeout
 479              	.LVL48:
 480              		.loc 1 95 0
 481 00a2 0028     		cmp	r0, #0
 482 00a4 7CD1     		bne	.L55
 483              	.LVL49:
 484              	.L31:
 485              		.loc 1 99 0
 486 00a6 0622     		movs	r2, #6
 487 00a8 0423     		movs	r3, #4
 488              		.loc 1 98 0
 489 00aa 4FF02A0C 		mov	ip, #42
 490              		.loc 1 99 0
 491 00ae 0192     		str	r2, [sp, #4]
 492 00b0 0293     		str	r3, [sp, #8]
 493 00b2 3146     		mov	r1, r6
 494 00b4 2A46     		mov	r2, r5
 495 00b6 0123     		movs	r3, #1
 496 00b8 0097     		str	r7, [sp, #0]
 497 00ba 2046     		mov	r0, r4
 498              		.loc 1 98 0
 499 00bc 8DF820C0 		strb	ip, [sp, #32]
 500              		.loc 1 96 0
 501 00c0 9DF818B0 		ldrb	fp, [sp, #24]	@ zero_extendqisi2
 502              	.LVL50:
 503              		.loc 1 99 0
 504 00c4 FFF7FEFF 		bl	i2cMasterTransmitTimeout
 505              	.LVL51:
 506 00c8 0146     		mov	r1, r0
 507              	.LVL52:
 508              		.loc 1 100 0
 509 00ca 2046     		mov	r0, r4
 510              	.LVL53:
ARM GAS  /tmp/ccIGwOX9.s 			page 10


 511 00cc 0591     		str	r1, [sp, #20]
 512 00ce FFF7FEFF 		bl	i2cReleaseBus
 513              	.LVL54:
 514              		.loc 1 101 0
 515 00d2 0598     		ldr	r0, [sp, #20]
 516 00d4 0028     		cmp	r0, #0
 517 00d6 5ED1     		bne	.L56
 518              	.L32:
 519              		.loc 1 102 0
 520 00d8 9DF81820 		ldrb	r2, [sp, #24]	@ zero_extendqisi2
 521 00dc 42EA0B20 		orr	r0, r2, fp, lsl #8
 522 00e0 FFF7FEFF 		bl	__aeabi_i2f
 523              	.LVL55:
 524              		.loc 1 105 0
 525 00e4 2D23     		movs	r3, #45
 526              		.loc 1 102 0
 527 00e6 C9F80000 		str	r0, [r9, #0]	@ float
 528              		.loc 1 106 0
 529 00ea 2046     		mov	r0, r4
 530              		.loc 1 105 0
 531 00ec 8DF82030 		strb	r3, [sp, #32]
 532              		.loc 1 106 0
 533 00f0 FFF7FEFF 		bl	i2cAcquireBus
 534              	.LVL56:
 535              		.loc 1 107 0
 536 00f4 0621     		movs	r1, #6
 537 00f6 0420     		movs	r0, #4
 538 00f8 0191     		str	r1, [sp, #4]
 539 00fa 0290     		str	r0, [sp, #8]
 540 00fc 0097     		str	r7, [sp, #0]
 541 00fe 2046     		mov	r0, r4
 542 0100 3146     		mov	r1, r6
 543 0102 2A46     		mov	r2, r5
 544 0104 0123     		movs	r3, #1
 545 0106 FFF7FEFF 		bl	i2cMasterTransmitTimeout
 546              	.LVL57:
 547              		.loc 1 108 0
 548 010a 0028     		cmp	r0, #0
 549 010c 3ED1     		bne	.L57
 550              	.LVL58:
 551              	.L33:
 552              		.loc 1 112 0
 553 010e 0622     		movs	r2, #6
 554 0110 0423     		movs	r3, #4
 555 0112 0192     		str	r2, [sp, #4]
 556 0114 0293     		str	r3, [sp, #8]
 557 0116 3146     		mov	r1, r6
 558 0118 2A46     		mov	r2, r5
 559              		.loc 1 111 0
 560 011a 2C26     		movs	r6, #44
 561              		.loc 1 112 0
 562 011c 0097     		str	r7, [sp, #0]
 563 011e 2046     		mov	r0, r4
 564 0120 0123     		movs	r3, #1
 565              		.loc 1 111 0
 566 0122 8DF82060 		strb	r6, [sp, #32]
 567              		.loc 1 109 0
ARM GAS  /tmp/ccIGwOX9.s 			page 11


 568 0126 9DF81850 		ldrb	r5, [sp, #24]	@ zero_extendqisi2
 569              	.LVL59:
 570              		.loc 1 112 0
 571 012a FFF7FEFF 		bl	i2cMasterTransmitTimeout
 572              	.LVL60:
 573 012e 0646     		mov	r6, r0
 574              	.LVL61:
 575              		.loc 1 113 0
 576 0130 2046     		mov	r0, r4
 577              	.LVL62:
 578 0132 FFF7FEFF 		bl	i2cReleaseBus
 579              	.LVL63:
 580              		.loc 1 114 0
 581 0136 1EB1     		cbz	r6, .L34
 582              		.loc 1 114 0 is_stmt 0 discriminator 1
 583 0138 2046     		mov	r0, r4
 584 013a 2149     		ldr	r1, .L58
 585 013c FFF7FEFF 		bl	i2cGetErr
 586              	.LVL64:
 587              	.L34:
 588              		.loc 1 115 0 is_stmt 1
 589 0140 9DF81810 		ldrb	r1, [sp, #24]	@ zero_extendqisi2
 590 0144 41EA0520 		orr	r0, r1, r5, lsl #8
 591 0148 FFF7FEFF 		bl	__aeabi_i2f
 592              	.LVL65:
 593              		.loc 1 117 0
 594 014c 0021     		movs	r1, #0
 595              		.loc 1 115 0
 596 014e C8F80000 		str	r0, [r8, #0]	@ float
 597              		.loc 1 117 0
 598 0152 DAF80000 		ldr	r0, [sl, #0]	@ float
 599 0156 C4F27A41 		movt	r1, 17530
 600 015a FFF7FEFF 		bl	__aeabi_fdiv
 601              	.LVL66:
 602              		.loc 1 118 0
 603 015e 0021     		movs	r1, #0
 604              		.loc 1 117 0
 605 0160 CAF80000 		str	r0, [sl, #0]	@ float
 606              		.loc 1 118 0
 607 0164 D9F80000 		ldr	r0, [r9, #0]	@ float
 608 0168 C4F27A41 		movt	r1, 17530
 609 016c FFF7FEFF 		bl	__aeabi_fdiv
 610              	.LVL67:
 611              		.loc 1 119 0
 612 0170 0021     		movs	r1, #0
 613              		.loc 1 118 0
 614 0172 C9F80000 		str	r0, [r9, #0]	@ float
 615              		.loc 1 119 0
 616 0176 D8F80000 		ldr	r0, [r8, #0]	@ float
 617 017a C4F27A41 		movt	r1, 17530
 618 017e FFF7FEFF 		bl	__aeabi_fdiv
 619              	.LVL68:
 620 0182 C8F80000 		str	r0, [r8, #0]	@ float
 621              		.loc 1 120 0
 622 0186 0BB0     		add	sp, sp, #44
 623 0188 BDE8F08F 		pop	{r4, r5, r6, r7, r8, r9, sl, fp, pc}
 624              	.LVL69:
ARM GAS  /tmp/ccIGwOX9.s 			page 12


 625              	.L57:
 626              		.loc 1 108 0 discriminator 1
 627 018c 2046     		mov	r0, r4
 628              	.LVL70:
 629 018e 0C49     		ldr	r1, .L58
 630 0190 FFF7FEFF 		bl	i2cGetErr
 631              	.LVL71:
 632 0194 BBE7     		b	.L33
 633              	.L56:
 634              		.loc 1 101 0 discriminator 1
 635 0196 2046     		mov	r0, r4
 636 0198 0949     		ldr	r1, .L58
 637 019a FFF7FEFF 		bl	i2cGetErr
 638              	.LVL72:
 639 019e 9BE7     		b	.L32
 640              	.LVL73:
 641              	.L55:
 642              		.loc 1 95 0 discriminator 1
 643 01a0 2046     		mov	r0, r4
 644              	.LVL74:
 645 01a2 0749     		ldr	r1, .L58
 646 01a4 FFF7FEFF 		bl	i2cGetErr
 647              	.LVL75:
 648 01a8 7DE7     		b	.L31
 649              	.L54:
 650              		.loc 1 88 0 discriminator 1
 651 01aa 2046     		mov	r0, r4
 652 01ac 0449     		ldr	r1, .L58
 653 01ae FFF7FEFF 		bl	i2cGetErr
 654              	.LVL76:
 655 01b2 5DE7     		b	.L30
 656              	.LVL77:
 657              	.L53:
 658              		.loc 1 82 0 discriminator 1
 659 01b4 2046     		mov	r0, r4
 660              	.LVL78:
 661 01b6 0249     		ldr	r1, .L58
 662 01b8 FFF7FEFF 		bl	i2cGetErr
 663              	.LVL79:
 664 01bc 3EE7     		b	.L29
 665              	.L59:
 666 01be 00BF     		.align	2
 667              	.L58:
 668 01c0 00000000 		.word	SD2
 669              		.cfi_endproc
 670              	.LFE66:
 671              		.size	gyroRead, .-gyroRead
 672 01c4 AFF30080 		.section	.text.tempRead,"ax",%progbits
 672      AFF30080 
 672      AFF30080 
 673              		.align	2
 674              		.p2align 4,,15
 675              		.global	tempRead
 676              		.thumb
 677              		.thumb_func
 678              		.type	tempRead, %function
 679              	tempRead:
ARM GAS  /tmp/ccIGwOX9.s 			page 13


 680              	.LFB67:
 681              		.loc 1 124 0
 682              		.cfi_startproc
 683              		@ args = 0, pretend = 0, frame = 16
 684              		@ frame_needed = 0, uses_anonymous_args = 0
 685              	.LVL80:
 686 0000 F0B5     		push	{r4, r5, r6, r7, lr}
 687              	.LCFI8:
 688              		.cfi_def_cfa_offset 20
 689              		.cfi_offset 4, -20
 690              		.cfi_offset 5, -16
 691              		.cfi_offset 6, -12
 692              		.cfi_offset 7, -8
 693              		.cfi_offset 14, -4
 694 0002 89B0     		sub	sp, sp, #36
 695              	.LCFI9:
 696              		.cfi_def_cfa_offset 56
 697              		.loc 1 129 0
 698 0004 08AC     		add	r4, sp, #32
 699 0006 2623     		movs	r3, #38
 700              		.loc 1 124 0
 701 0008 0546     		mov	r5, r0
 702              		.loc 1 129 0
 703 000a 04F8083D 		strb	r3, [r4, #-8]!
 704              		.loc 1 124 0
 705 000e 0F46     		mov	r7, r1
 706 0010 1646     		mov	r6, r2
 707              		.loc 1 130 0
 708 0012 FFF7FEFF 		bl	i2cAcquireBus
 709              	.LVL81:
 710              		.loc 1 131 0
 711 0016 05A8     		add	r0, sp, #20
 712 0018 0221     		movs	r1, #2
 713 001a 0422     		movs	r2, #4
 714 001c 0090     		str	r0, [sp, #0]
 715 001e 0191     		str	r1, [sp, #4]
 716 0020 0292     		str	r2, [sp, #8]
 717 0022 2846     		mov	r0, r5
 718 0024 2246     		mov	r2, r4
 719 0026 3946     		mov	r1, r7
 720 0028 0123     		movs	r3, #1
 721 002a FFF7FEFF 		bl	i2cMasterTransmitTimeout
 722              	.LVL82:
 723 002e 0446     		mov	r4, r0
 724              	.LVL83:
 725              		.loc 1 132 0
 726 0030 2846     		mov	r0, r5
 727              	.LVL84:
 728 0032 FFF7FEFF 		bl	i2cReleaseBus
 729              	.LVL85:
 730              		.loc 1 133 0
 731 0036 1CB1     		cbz	r4, .L61
 732              		.loc 1 133 0 is_stmt 0 discriminator 1
 733 0038 2846     		mov	r0, r5
 734 003a 0449     		ldr	r1, .L65
 735 003c FFF7FEFF 		bl	i2cGetErr
 736              	.LVL86:
ARM GAS  /tmp/ccIGwOX9.s 			page 14


 737              	.L61:
 738              		.loc 1 135 0 is_stmt 1
 739 0040 9DF81430 		ldrb	r3, [sp, #20]	@ zero_extendqisi2
 740 0044 3370     		strb	r3, [r6, #0]
 741              		.loc 1 136 0
 742 0046 09B0     		add	sp, sp, #36
 743 0048 F0BD     		pop	{r4, r5, r6, r7, pc}
 744              	.L66:
 745 004a 00BF     		.align	2
 746              	.L65:
 747 004c 00000000 		.word	SD2
 748              		.cfi_endproc
 749              	.LFE67:
 750              		.size	tempRead, .-tempRead
 751              		.text
 752              	.Letext0:
 753              		.file 2 "/usr/bin/../lib/gcc/arm-none-eabi/4.7.4/include/stddef.h"
 754              		.file 3 "/usr/bin/../lib/gcc/arm-none-eabi/4.7.4/../../../../arm-none-eabi/include/stdint.h"
 755              		.file 4 "../../os/ports/GCC/ARMCMx/chtypes.h"
 756              		.file 5 "../../os/kernel/include/chlists.h"
 757              		.file 6 "../../os/kernel/include/chthreads.h"
 758              		.file 7 "../../os/ports/GCC/ARMCMx/chcore_v7m.h"
 759              		.file 8 "../../os/kernel/include/chmtx.h"
 760              		.file 9 "../../os/kernel/include/chevents.h"
 761              		.file 10 "../../os/kernel/include/chqueues.h"
 762              		.file 11 "../../os/hal/platforms/STM32F1xx/stm32f10x.h"
 763              		.file 12 "../../os/hal/platforms/STM32F1xx/stm32_dma.h"
 764              		.file 13 "../../os/hal/include/i2c.h"
 765              		.file 14 "../../os/hal/platforms/STM32/I2Cv1/i2c_lld.h"
 766              		.file 15 "../../os/hal/include/serial.h"
 767              		.file 16 "../../os/various/i2cGetErr.h"
 768              		.file 17 "../../os/ports/common/ARMCMx/CMSIS/include/core_cm3.h"
 769              		.file 18 "../../os/hal/platforms/STM32/USARTv1/serial_lld.h"