ARM GAS  /tmp/ccbHRHJC.s 			page 1


   1              		.syntax unified
   2              		.cpu cortex-m3
   3              		.fpu softvfp
   4              		.eabi_attribute 20, 1
   5              		.eabi_attribute 21, 1
   6              		.eabi_attribute 23, 3
   7              		.eabi_attribute 24, 1
   8              		.eabi_attribute 25, 1
   9              		.eabi_attribute 26, 1
  10              		.eabi_attribute 30, 2
  11              		.eabi_attribute 34, 1
  12              		.eabi_attribute 18, 4
  13              		.thumb
  14              		.file	"main.c"
  15              		.text
  16              	.Ltext0:
  17              		.cfi_sections	.debug_frame
  18              		.section	.text.heartBeat,"ax",%progbits
  19              		.align	2
  20              		.p2align 4,,15
  21              		.thumb
  22              		.thumb_func
  23              		.type	heartBeat, %function
  24              	heartBeat:
  25              	.LFB63:
  26              		.file 1 "main.c"
  27              		.loc 1 25 0
  28              		.cfi_startproc
  29              		@ args = 0, pretend = 0, frame = 0
  30              		@ frame_needed = 0, uses_anonymous_args = 0
  31              	.LVL0:
  32 0000 10B5     		push	{r4, lr}
  33              	.LCFI0:
  34              		.cfi_def_cfa_offset 8
  35              		.cfi_offset 4, -8
  36              		.cfi_offset 14, -4
  37              		.loc 1 26 0
  38 0002 0D48     		ldr	r0, .L4
  39              	.LVL1:
  40 0004 0D49     		ldr	r1, .L4+4
  41 0006 FFF7FEFF 		bl	chprintf
  42              	.LVL2:
  43              		.loc 1 28 0
  44 000a 4FF44063 		mov	r3, #3072
  45 000e C4F20103 		movt	r3, 16385
  46 0012 4FF48072 		mov	r2, #256
  47              		.loc 1 29 0
  48 0016 8020     		movs	r0, #128
  49              		.loc 1 28 0
  50 0018 1A61     		str	r2, [r3, #16]
  51              		.loc 1 33 0
  52 001a 1C46     		mov	r4, r3
  53              		.loc 1 29 0
  54 001c 5861     		str	r0, [r3, #20]
  55              	.L2:
  56              		.loc 1 33 0 discriminator 1
  57 001e E168     		ldr	r1, [r4, #12]
ARM GAS  /tmp/ccbHRHJC.s 			page 2


  58              		.loc 1 35 0 discriminator 1
  59 0020 FA20     		movs	r0, #250
  60              		.loc 1 33 0 discriminator 1
  61 0022 81F48073 		eor	r3, r1, #256
  62 0026 E360     		str	r3, [r4, #12]
  63              		.loc 1 34 0 discriminator 1
  64 0028 E268     		ldr	r2, [r4, #12]
  65 002a 82F08001 		eor	r1, r2, #128
  66 002e E160     		str	r1, [r4, #12]
  67              		.loc 1 35 0 discriminator 1
  68 0030 FFF7FEFF 		bl	chThdSleep
  69              	.LVL3:
  70 0034 F3E7     		b	.L2
  71              	.L5:
  72 0036 00BF     		.align	2
  73              	.L4:
  74 0038 00000000 		.word	SD2
  75 003c 00000000 		.word	.LC0
  76              		.cfi_endproc
  77              	.LFE63:
  78              		.size	heartBeat, .-heartBeat
  79              		.section	.text.gyroDemo,"ax",%progbits
  80              		.align	2
  81              		.p2align 4,,15
  82              		.thumb
  83              		.thumb_func
  84              		.type	gyroDemo, %function
  85              	gyroDemo:
  86              	.LFB64:
  87              		.loc 1 42 0
  88              		.cfi_startproc
  89              		@ args = 0, pretend = 0, frame = 16
  90              		@ frame_needed = 0, uses_anonymous_args = 0
  91              	.LVL4:
  92 0000 30B5     		push	{r4, r5, lr}
  93              	.LCFI1:
  94              		.cfi_def_cfa_offset 12
  95              		.cfi_offset 4, -12
  96              		.cfi_offset 5, -8
  97              		.cfi_offset 14, -4
  98              		.loc 1 48 0
  99 0002 2148     		ldr	r0, .L8
 100              	.LVL5:
 101              		.loc 1 42 0
 102 0004 87B0     		sub	sp, sp, #28
 103              	.LCFI2:
 104              		.cfi_def_cfa_offset 40
 105              		.loc 1 48 0
 106 0006 6821     		movs	r1, #104
 107 0008 FFF7FEFF 		bl	gyroInit
 108              	.LVL6:
 109              		.loc 1 49 0
 110 000c 1E48     		ldr	r0, .L8
 111 000e 1C21     		movs	r1, #28
 112 0010 FFF7FEFF 		bl	accInit
 113              	.LVL7:
 114              		.loc 1 50 0
ARM GAS  /tmp/ccbHRHJC.s 			page 3


 115 0014 1D48     		ldr	r0, .L8+4
 116 0016 1E49     		ldr	r1, .L8+8
 117 0018 FFF7FEFF 		bl	chprintf
 118              	.LVL8:
 119 001c 0DF11605 		add	r5, sp, #22
 120 0020 04AC     		add	r4, sp, #16
 121              	.LVL9:
 122              	.L7:
 123              		.loc 1 55 0 discriminator 1
 124 0022 05AB     		add	r3, sp, #20
 125 0024 0DF11202 		add	r2, sp, #18
 126 0028 6821     		movs	r1, #104
 127 002a 0095     		str	r5, [sp, #0]
 128 002c 1648     		ldr	r0, .L8
 129 002e FFF7FEFF 		bl	gyroRead
 130              	.LVL10:
 131              		.loc 1 56 0 discriminator 1
 132 0032 0DF10B02 		add	r2, sp, #11
 133 0036 6821     		movs	r1, #104
 134 0038 1348     		ldr	r0, .L8
 135 003a FFF7FEFF 		bl	tempRead
 136              	.LVL11:
 137              		.loc 1 58 0 discriminator 1
 138 003e 03AA     		add	r2, sp, #12
 139 0040 0DF10E03 		add	r3, sp, #14
 140 0044 1C21     		movs	r1, #28
 141 0046 0094     		str	r4, [sp, #0]
 142 0048 0F48     		ldr	r0, .L8
 143 004a FFF7FEFF 		bl	accRead
 144              	.LVL12:
 145              		.loc 1 61 0 discriminator 1
 146 004e BDF91610 		ldrsh	r1, [sp, #22]
 147              	.LVL13:
 148 0052 BDF91220 		ldrsh	r2, [sp, #18]
 149              	.LVL14:
 150 0056 BDF91430 		ldrsh	r3, [sp, #20]
 151              	.LVL15:
 152 005a 0091     		str	r1, [sp, #0]
 153              	.LVL16:
 154 005c 0B48     		ldr	r0, .L8+4
 155 005e 0D49     		ldr	r1, .L8+12
 156              	.LVL17:
 157 0060 FFF7FEFF 		bl	chprintf
 158              	.LVL18:
 159              		.loc 1 63 0 discriminator 1
 160 0064 BDF91000 		ldrsh	r0, [sp, #16]
 161              	.LVL19:
 162 0068 BDF90C20 		ldrsh	r2, [sp, #12]
 163              	.LVL20:
 164 006c 0090     		str	r0, [sp, #0]
 165              	.LVL21:
 166 006e BDF90E30 		ldrsh	r3, [sp, #14]
 167              	.LVL22:
 168 0072 0648     		ldr	r0, .L8+4
 169              	.LVL23:
 170 0074 0849     		ldr	r1, .L8+16
 171 0076 FFF7FEFF 		bl	chprintf
ARM GAS  /tmp/ccbHRHJC.s 			page 4


 172              	.LVL24:
 173              		.loc 1 64 0 discriminator 1
 174 007a 0448     		ldr	r0, .L8+4
 175 007c 0749     		ldr	r1, .L8+20
 176 007e 9DF80B20 		ldrb	r2, [sp, #11]	@ zero_extendqisi2
 177 0082 FFF7FEFF 		bl	chprintf
 178              	.LVL25:
 179 0086 CCE7     		b	.L7
 180              	.L9:
 181              		.align	2
 182              	.L8:
 183 0088 00000000 		.word	I2CD2
 184 008c 00000000 		.word	SD2
 185 0090 14000000 		.word	.LC1
 186 0094 2C000000 		.word	.LC2
 187 0098 48000000 		.word	.LC3
 188 009c 64000000 		.word	.LC4
 189              		.cfi_endproc
 190              	.LFE64:
 191              		.size	gyroDemo, .-gyroDemo
 192              		.section	.text.startup.main,"ax",%progbits
 193              		.align	2
 194              		.p2align 4,,15
 195              		.global	main
 196              		.thumb
 197              		.thumb_func
 198              		.type	main, %function
 199              	main:
 200              	.LFB65:
 201              		.loc 1 70 0
 202              		.cfi_startproc
 203              		@ args = 0, pretend = 0, frame = 0
 204              		@ frame_needed = 0, uses_anonymous_args = 0
 205 0000 10B5     		push	{r4, lr}
 206              	.LCFI3:
 207              		.cfi_def_cfa_offset 8
 208              		.cfi_offset 4, -8
 209              		.cfi_offset 14, -4
 210 0002 82B0     		sub	sp, sp, #8
 211              	.LCFI4:
 212              		.cfi_def_cfa_offset 16
 213              		.loc 1 71 0
 214 0004 FFF7FEFF 		bl	halInit
 215              	.LVL26:
 216              		.loc 1 72 0
 217 0008 FFF7FEFF 		bl	chSysInit
 218              	.LVL27:
 219              		.loc 1 74 0
 220 000c 40F20000 		movw	r0, #:lower16:SD2
 221 0010 0021     		movs	r1, #0
 222 0012 C0F20000 		movt	r0, #:upper16:SD2
 223 0016 FFF7FEFF 		bl	sdStart
 224              	.LVL28:
 225              		.loc 1 77 0
 226 001a 4FF44064 		mov	r4, #3072
 227              		.loc 1 75 0
 228 001e 40F20000 		movw	r0, #:lower16:I2CD2
ARM GAS  /tmp/ccbHRHJC.s 			page 5


 229 0022 40F20001 		movw	r1, #:lower16:.LANCHOR0
 230              		.loc 1 77 0
 231 0026 C4F20104 		movt	r4, 16385
 232              		.loc 1 75 0
 233 002a C0F20000 		movt	r0, #:upper16:I2CD2
 234 002e C0F20001 		movt	r1, #:upper16:.LANCHOR0
 235 0032 FFF7FEFF 		bl	i2cStart
 236              	.LVL29:
 237              		.loc 1 77 0
 238 0036 1122     		movs	r2, #17
 239 0038 2046     		mov	r0, r4
 240 003a 4FF48061 		mov	r1, #1024
 241 003e FFF7FEFF 		bl	_pal_lld_setgroupmode
 242              	.LVL30:
 243              		.loc 1 78 0
 244 0042 1122     		movs	r2, #17
 245 0044 2046     		mov	r0, r4
 246 0046 4FF40061 		mov	r1, #2048
 247 004a FFF7FEFF 		bl	_pal_lld_setgroupmode
 248              	.LVL31:
 249              		.loc 1 79 0
 250 004e 6420     		movs	r0, #100
 251 0050 FFF7FEFF 		bl	chThdSleep
 252              	.LVL32:
 253              		.loc 1 81 0
 254 0054 0024     		movs	r4, #0
 255 0056 40F20003 		movw	r3, #:lower16:heartBeat
 256 005a 40F20000 		movw	r0, #:lower16:.LANCHOR1
 257 005e D021     		movs	r1, #208
 258 0060 4022     		movs	r2, #64
 259 0062 C0F20003 		movt	r3, #:upper16:heartBeat
 260 0066 0094     		str	r4, [sp, #0]
 261 0068 C0F20000 		movt	r0, #:upper16:.LANCHOR1
 262 006c FFF7FEFF 		bl	chThdCreateStatic
 263              	.LVL33:
 264              		.loc 1 82 0
 265 0070 40F20000 		movw	r0, #:lower16:.LANCHOR2
 266 0074 40F20003 		movw	r3, #:lower16:gyroDemo
 267 0078 0094     		str	r4, [sp, #0]
 268 007a 4FF4D871 		mov	r1, #432
 269 007e 4022     		movs	r2, #64
 270 0080 C0F20003 		movt	r3, #:upper16:gyroDemo
 271 0084 C0F20000 		movt	r0, #:upper16:.LANCHOR2
 272 0088 FFF7FEFF 		bl	chThdCreateStatic
 273              	.LVL34:
 274              		.loc 1 83 0
 275 008c 2046     		mov	r0, r4
 276 008e 02B0     		add	sp, sp, #8
 277 0090 10BD     		pop	{r4, pc}
 278              		.cfi_endproc
 279              	.LFE65:
 280              		.size	main, .-main
 281 0092 00BFAFF3 		.section	.rodata.i2cCfg,"a",%progbits
 281      0080AFF3 
 281      0080AFF3 
 281      0080
 282              		.align	2
ARM GAS  /tmp/ccbHRHJC.s 			page 6


 283              		.set	.LANCHOR0,. + 0
 284              		.type	i2cCfg, %object
 285              		.size	i2cCfg, 12
 286              	i2cCfg:
 287 0000 01       		.byte	1
 288 0001 000000   		.space	3
 289 0004 801A0600 		.word	400000
 290 0008 02       		.byte	2
 291 0009 000000   		.space	3
 292              		.section	.rodata.str1.4,"aMS",%progbits,1
 293              		.align	2
 294              	.LC0:
 295 0000 0A0D4865 		.ascii	"\012\015Hello world!\012\015\000"
 295      6C6C6F20 
 295      776F726C 
 295      64210A0D 
 295      00
 296 0011 000000   		.space	3
 297              	.LC1:
 298 0014 436F6E66 		.ascii	"Configuration done\012\015\000"
 298      69677572 
 298      6174696F 
 298      6E20646F 
 298      6E650A0D 
 299 0029 000000   		.space	3
 300              	.LC2:
 301 002c 25642067 		.ascii	"%d gX    %d gY    %d gZ    \000"
 301      58202020 
 301      20256420 
 301      67592020 
 301      20202564 
 302              	.LC3:
 303 0048 25642061 		.ascii	"%d aX    %d aY    %d aZ    \000"
 303      58202020 
 303      20256420 
 303      61592020 
 303      20202564 
 304              	.LC4:
 305 0064 25642054 		.ascii	"%d T    \012\015\000"
 305      20202020 
 305      0A0D00
 306 006f 00       		.section	.bss.heartWrkArea,"aw",%nobits
 307              		.align	3
 308              		.set	.LANCHOR1,. + 0
 309              		.type	heartWrkArea, %object
 310              		.size	heartWrkArea, 208
 311              	heartWrkArea:
 312 0000 00000000 		.space	208
 312      00000000 
 312      00000000 
 312      00000000 
 312      00000000 
 313              		.section	.bss.gyroDemoWrkArea,"aw",%nobits
 314              		.align	3
 315              		.set	.LANCHOR2,. + 0
 316              		.type	gyroDemoWrkArea, %object
 317              		.size	gyroDemoWrkArea, 432
ARM GAS  /tmp/ccbHRHJC.s 			page 7


 318              	gyroDemoWrkArea:
 319 0000 00000000 		.space	432
 319      00000000 
 319      00000000 
 319      00000000 
 319      00000000 
 320              		.text
 321              	.Letext0:
 322              		.file 2 "/usr/bin/../lib/gcc/arm-none-eabi/4.7.4/include/stddef.h"
 323              		.file 3 "/usr/bin/../lib/gcc/arm-none-eabi/4.7.4/../../../../arm-none-eabi/include/stdint.h"
 324              		.file 4 "../../os/ports/GCC/ARMCMx/chtypes.h"
 325              		.file 5 "../../os/kernel/include/chlists.h"
 326              		.file 6 "../../os/kernel/include/chthreads.h"
 327              		.file 7 "../../os/ports/GCC/ARMCMx/chcore_v7m.h"
 328              		.file 8 "../../os/kernel/include/chmtx.h"
 329              		.file 9 "../../os/kernel/include/chevents.h"
 330              		.file 10 "../../os/kernel/include/chqueues.h"
 331              		.file 11 "../../os/kernel/include/chstreams.h"
 332              		.file 12 "../../os/hal/platforms/STM32F1xx/stm32f10x.h"
 333              		.file 13 "../../os/hal/platforms/STM32F1xx/stm32_dma.h"
 334              		.file 14 "../../os/hal/platforms/STM32/GPIOv1/pal_lld.h"
 335              		.file 15 "../../os/hal/include/i2c.h"
 336              		.file 16 "../../os/hal/platforms/STM32/I2Cv1/i2c_lld.h"
 337              		.file 17 "../../os/hal/include/serial.h"
 338              		.file 18 "../../os/hal/platforms/STM32/USARTv1/serial_lld.h"
 339              		.file 19 "../../os/ports/common/ARMCMx/CMSIS/include/core_cm3.h"
 340              		.file 20 "../../os/various/chprintf.h"
 341              		.file 21 "../../os/various/IMU01A.h"
 342              		.file 22 "../../os/hal/include/hal.h"
 343              		.file 23 "../../os/kernel/include/chsys.h"
 344              		.section	.debug_info,"",%progbits
 345              	.Ldebug_info0:
 346 0000 93120000 		.4byte	0x1293
 347 0004 0200     		.2byte	0x2
 348 0006 00000000 		.4byte	.Ldebug_abbrev0
 349 000a 04       		.byte	0x4
 350 000b 01       		.uleb128 0x1
 351 000c 10010000 		.4byte	.LASF193
 352 0010 01       		.byte	0x1
 353 0011 48040000 		.4byte	.LASF194
 354 0015 9E040000 		.4byte	.LASF195
 355 0019 00000000 		.4byte	.Ldebug_ranges0+0
 356 001d 00000000 		.4byte	0
 357 0021 00000000 		.4byte	0
 358 0025 00000000 		.4byte	.Ldebug_line0
 359 0029 02       		.uleb128 0x2
 360 002a 04       		.byte	0x4
 361 002b 05       		.byte	0x5
 362 002c 696E7400 		.ascii	"int\000"
 363 0030 03       		.uleb128 0x3
 364 0031 37000000 		.4byte	.LASF2
 365 0035 02       		.byte	0x2
 366 0036 D5       		.byte	0xd5
 367 0037 3B000000 		.4byte	0x3b
 368 003b 04       		.uleb128 0x4
 369 003c 04       		.byte	0x4
 370 003d 07       		.byte	0x7
ARM GAS  /tmp/ccbHRHJC.s 			page 8


 371 003e 47020000 		.4byte	.LASF0
 372 0042 04       		.uleb128 0x4
 373 0043 01       		.byte	0x1
 374 0044 06       		.byte	0x6
 375 0045 D7000000 		.4byte	.LASF1
 376 0049 03       		.uleb128 0x3
 377 004a 60070000 		.4byte	.LASF3
 378 004e 03       		.byte	0x3
 379 004f 2A       		.byte	0x2a
 380 0050 54000000 		.4byte	0x54
 381 0054 04       		.uleb128 0x4
 382 0055 01       		.byte	0x1
 383 0056 08       		.byte	0x8
 384 0057 75050000 		.4byte	.LASF4
 385 005b 03       		.uleb128 0x3
 386 005c 5F050000 		.4byte	.LASF5
 387 0060 03       		.byte	0x3
 388 0061 35       		.byte	0x35
 389 0062 66000000 		.4byte	0x66
 390 0066 04       		.uleb128 0x4
 391 0067 02       		.byte	0x2
 392 0068 05       		.byte	0x5
 393 0069 55030000 		.4byte	.LASF6
 394 006d 03       		.uleb128 0x3
 395 006e 54020000 		.4byte	.LASF7
 396 0072 03       		.byte	0x3
 397 0073 36       		.byte	0x36
 398 0074 78000000 		.4byte	0x78
 399 0078 04       		.uleb128 0x4
 400 0079 02       		.byte	0x2
 401 007a 07       		.byte	0x7
 402 007b E0020000 		.4byte	.LASF8
 403 007f 03       		.uleb128 0x3
 404 0080 6D050000 		.4byte	.LASF9
 405 0084 03       		.byte	0x3
 406 0085 4F       		.byte	0x4f
 407 0086 8A000000 		.4byte	0x8a
 408 008a 04       		.uleb128 0x4
 409 008b 04       		.byte	0x4
 410 008c 05       		.byte	0x5
 411 008d 6E010000 		.4byte	.LASF10
 412 0091 03       		.uleb128 0x3
 413 0092 62060000 		.4byte	.LASF11
 414 0096 03       		.byte	0x3
 415 0097 50       		.byte	0x50
 416 0098 9C000000 		.4byte	0x9c
 417 009c 04       		.uleb128 0x4
 418 009d 04       		.byte	0x4
 419 009e 07       		.byte	0x7
 420 009f 96060000 		.4byte	.LASF12
 421 00a3 04       		.uleb128 0x4
 422 00a4 08       		.byte	0x8
 423 00a5 05       		.byte	0x5
 424 00a6 C9000000 		.4byte	.LASF13
 425 00aa 03       		.uleb128 0x3
 426 00ab 45000000 		.4byte	.LASF14
 427 00af 03       		.byte	0x3
ARM GAS  /tmp/ccbHRHJC.s 			page 9


 428 00b0 78       		.byte	0x78
 429 00b1 B5000000 		.4byte	0xb5
 430 00b5 04       		.uleb128 0x4
 431 00b6 08       		.byte	0x8
 432 00b7 07       		.byte	0x7
 433 00b8 6D000000 		.4byte	.LASF15
 434 00bc 04       		.uleb128 0x4
 435 00bd 01       		.byte	0x1
 436 00be 02       		.byte	0x2
 437 00bf 67050000 		.4byte	.LASF16
 438 00c3 03       		.uleb128 0x3
 439 00c4 35030000 		.4byte	.LASF17
 440 00c8 04       		.byte	0x4
 441 00c9 25       		.byte	0x25
 442 00ca 49000000 		.4byte	0x49
 443 00ce 03       		.uleb128 0x3
 444 00cf 77010000 		.4byte	.LASF18
 445 00d3 04       		.byte	0x4
 446 00d4 26       		.byte	0x26
 447 00d5 49000000 		.4byte	0x49
 448 00d9 03       		.uleb128 0x3
 449 00da 24000000 		.4byte	.LASF19
 450 00de 04       		.byte	0x4
 451 00df 27       		.byte	0x27
 452 00e0 49000000 		.4byte	0x49
 453 00e4 03       		.uleb128 0x3
 454 00e5 06010000 		.4byte	.LASF20
 455 00e9 04       		.byte	0x4
 456 00ea 28       		.byte	0x28
 457 00eb 49000000 		.4byte	0x49
 458 00ef 03       		.uleb128 0x3
 459 00f0 3E050000 		.4byte	.LASF21
 460 00f4 04       		.byte	0x4
 461 00f5 29       		.byte	0x29
 462 00f6 91000000 		.4byte	0x91
 463 00fa 03       		.uleb128 0x3
 464 00fb 13030000 		.4byte	.LASF22
 465 00ff 04       		.byte	0x4
 466 0100 2A       		.byte	0x2a
 467 0101 7F000000 		.4byte	0x7f
 468 0105 03       		.uleb128 0x3
 469 0106 49030000 		.4byte	.LASF23
 470 010a 04       		.byte	0x4
 471 010b 2C       		.byte	0x2c
 472 010c 91000000 		.4byte	0x91
 473 0110 03       		.uleb128 0x3
 474 0111 89000000 		.4byte	.LASF24
 475 0115 04       		.byte	0x4
 476 0116 2D       		.byte	0x2d
 477 0117 91000000 		.4byte	0x91
 478 011b 03       		.uleb128 0x3
 479 011c D0060000 		.4byte	.LASF25
 480 0120 04       		.byte	0x4
 481 0121 2E       		.byte	0x2e
 482 0122 91000000 		.4byte	0x91
 483 0126 03       		.uleb128 0x3
 484 0127 19020000 		.4byte	.LASF26
ARM GAS  /tmp/ccbHRHJC.s 			page 10


 485 012b 05       		.byte	0x5
 486 012c 23       		.byte	0x23
 487 012d 31010000 		.4byte	0x131
 488 0131 05       		.uleb128 0x5
 489 0132 19020000 		.4byte	.LASF26
 490 0136 4C       		.byte	0x4c
 491 0137 06       		.byte	0x6
 492 0138 57       		.byte	0x57
 493 0139 64020000 		.4byte	0x264
 494 013d 06       		.uleb128 0x6
 495 013e E2050000 		.4byte	.LASF27
 496 0142 06       		.byte	0x6
 497 0143 58       		.byte	0x58
 498 0144 89020000 		.4byte	0x289
 499 0148 02       		.byte	0x2
 500 0149 23       		.byte	0x23
 501 014a 00       		.uleb128 0
 502 014b 06       		.uleb128 0x6
 503 014c 19050000 		.4byte	.LASF28
 504 0150 06       		.byte	0x6
 505 0151 5A       		.byte	0x5a
 506 0152 89020000 		.4byte	0x289
 507 0156 02       		.byte	0x2
 508 0157 23       		.byte	0x23
 509 0158 04       		.uleb128 0x4
 510 0159 06       		.uleb128 0x6
 511 015a B2000000 		.4byte	.LASF29
 512 015e 06       		.byte	0x6
 513 015f 5C       		.byte	0x5c
 514 0160 EF000000 		.4byte	0xef
 515 0164 02       		.byte	0x2
 516 0165 23       		.byte	0x23
 517 0166 08       		.uleb128 0x8
 518 0167 06       		.uleb128 0x6
 519 0168 CB070000 		.4byte	.LASF30
 520 016c 06       		.byte	0x6
 521 016d 5D       		.byte	0x5d
 522 016e 62030000 		.4byte	0x362
 523 0172 02       		.byte	0x2
 524 0173 23       		.byte	0x23
 525 0174 0C       		.uleb128 0xc
 526 0175 06       		.uleb128 0x6
 527 0176 B4010000 		.4byte	.LASF31
 528 017a 06       		.byte	0x6
 529 017b 5F       		.byte	0x5f
 530 017c 89020000 		.4byte	0x289
 531 0180 02       		.byte	0x2
 532 0181 23       		.byte	0x23
 533 0182 10       		.uleb128 0x10
 534 0183 06       		.uleb128 0x6
 535 0184 09040000 		.4byte	.LASF32
 536 0188 06       		.byte	0x6
 537 0189 60       		.byte	0x60
 538 018a 89020000 		.4byte	0x289
 539 018e 02       		.byte	0x2
 540 018f 23       		.byte	0x23
 541 0190 14       		.uleb128 0x14
ARM GAS  /tmp/ccbHRHJC.s 			page 11


 542 0191 06       		.uleb128 0x6
 543 0192 2E070000 		.4byte	.LASF33
 544 0196 06       		.byte	0x6
 545 0197 67       		.byte	0x67
 546 0198 8F040000 		.4byte	0x48f
 547 019c 02       		.byte	0x2
 548 019d 23       		.byte	0x23
 549 019e 18       		.uleb128 0x18
 550 019f 06       		.uleb128 0x6
 551 01a0 32040000 		.4byte	.LASF34
 552 01a4 06       		.byte	0x6
 553 01a5 6D       		.byte	0x6d
 554 01a6 A1040000 		.4byte	0x4a1
 555 01aa 02       		.byte	0x2
 556 01ab 23       		.byte	0x23
 557 01ac 1C       		.uleb128 0x1c
 558 01ad 06       		.uleb128 0x6
 559 01ae C9050000 		.4byte	.LASF35
 560 01b2 06       		.byte	0x6
 561 01b3 72       		.byte	0x72
 562 01b4 CE000000 		.4byte	0xce
 563 01b8 02       		.byte	0x2
 564 01b9 23       		.byte	0x23
 565 01ba 20       		.uleb128 0x20
 566 01bb 06       		.uleb128 0x6
 567 01bc 01060000 		.4byte	.LASF36
 568 01c0 06       		.byte	0x6
 569 01c1 76       		.byte	0x76
 570 01c2 C3000000 		.4byte	0xc3
 571 01c6 02       		.byte	0x2
 572 01c7 23       		.byte	0x23
 573 01c8 21       		.uleb128 0x21
 574 01c9 06       		.uleb128 0x6
 575 01ca 87010000 		.4byte	.LASF37
 576 01ce 06       		.byte	0x6
 577 01cf 7B       		.byte	0x7b
 578 01d0 D9000000 		.4byte	0xd9
 579 01d4 02       		.byte	0x2
 580 01d5 23       		.byte	0x23
 581 01d6 22       		.uleb128 0x22
 582 01d7 06       		.uleb128 0x6
 583 01d8 D1050000 		.4byte	.LASF38
 584 01dc 06       		.byte	0x6
 585 01dd 81       		.byte	0x81
 586 01de E4000000 		.4byte	0xe4
 587 01e2 02       		.byte	0x2
 588 01e3 23       		.byte	0x23
 589 01e4 23       		.uleb128 0x23
 590 01e5 06       		.uleb128 0x6
 591 01e6 6D020000 		.4byte	.LASF39
 592 01ea 06       		.byte	0x6
 593 01eb 88       		.byte	0x88
 594 01ec 91030000 		.4byte	0x391
 595 01f0 02       		.byte	0x2
 596 01f1 23       		.byte	0x23
 597 01f2 24       		.uleb128 0x24
 598 01f3 07       		.uleb128 0x7
ARM GAS  /tmp/ccbHRHJC.s 			page 12


 599 01f4 705F7500 		.ascii	"p_u\000"
 600 01f8 06       		.byte	0x6
 601 01f9 AD       		.byte	0xad
 602 01fa 5A040000 		.4byte	0x45a
 603 01fe 02       		.byte	0x2
 604 01ff 23       		.byte	0x23
 605 0200 28       		.uleb128 0x28
 606 0201 06       		.uleb128 0x6
 607 0202 D1070000 		.4byte	.LASF40
 608 0206 06       		.byte	0x6
 609 0207 B2       		.byte	0xb2
 610 0208 B1020000 		.4byte	0x2b1
 611 020c 02       		.byte	0x2
 612 020d 23       		.byte	0x23
 613 020e 2C       		.uleb128 0x2c
 614 020f 06       		.uleb128 0x6
 615 0210 8E020000 		.4byte	.LASF41
 616 0214 06       		.byte	0x6
 617 0215 B8       		.byte	0xb8
 618 0216 8F020000 		.4byte	0x28f
 619 021a 02       		.byte	0x2
 620 021b 23       		.byte	0x23
 621 021c 30       		.uleb128 0x30
 622 021d 06       		.uleb128 0x6
 623 021e 92070000 		.4byte	.LASF42
 624 0222 06       		.byte	0x6
 625 0223 BC       		.byte	0xbc
 626 0224 FA000000 		.4byte	0xfa
 627 0228 02       		.byte	0x2
 628 0229 23       		.byte	0x23
 629 022a 38       		.uleb128 0x38
 630 022b 06       		.uleb128 0x6
 631 022c 43060000 		.4byte	.LASF43
 632 0230 06       		.byte	0x6
 633 0231 C2       		.byte	0xc2
 634 0232 05010000 		.4byte	0x105
 635 0236 02       		.byte	0x2
 636 0237 23       		.byte	0x23
 637 0238 3C       		.uleb128 0x3c
 638 0239 06       		.uleb128 0x6
 639 023a B4050000 		.4byte	.LASF44
 640 023e 06       		.byte	0x6
 641 023f C9       		.byte	0xc9
 642 0240 A7040000 		.4byte	0x4a7
 643 0244 02       		.byte	0x2
 644 0245 23       		.byte	0x23
 645 0246 40       		.uleb128 0x40
 646 0247 06       		.uleb128 0x6
 647 0248 DA060000 		.4byte	.LASF45
 648 024c 06       		.byte	0x6
 649 024d CD       		.byte	0xcd
 650 024e EF000000 		.4byte	0xef
 651 0252 02       		.byte	0x2
 652 0253 23       		.byte	0x23
 653 0254 44       		.uleb128 0x44
 654 0255 06       		.uleb128 0x6
 655 0256 F6000000 		.4byte	.LASF46
ARM GAS  /tmp/ccbHRHJC.s 			page 13


 656 025a 06       		.byte	0x6
 657 025b D3       		.byte	0xd3
 658 025c C7020000 		.4byte	0x2c7
 659 0260 02       		.byte	0x2
 660 0261 23       		.byte	0x23
 661 0262 48       		.uleb128 0x48
 662 0263 00       		.byte	0
 663 0264 08       		.uleb128 0x8
 664 0265 08       		.byte	0x8
 665 0266 05       		.byte	0x5
 666 0267 5A       		.byte	0x5a
 667 0268 89020000 		.4byte	0x289
 668 026c 06       		.uleb128 0x6
 669 026d E2050000 		.4byte	.LASF27
 670 0271 05       		.byte	0x5
 671 0272 5B       		.byte	0x5b
 672 0273 89020000 		.4byte	0x289
 673 0277 02       		.byte	0x2
 674 0278 23       		.byte	0x23
 675 0279 00       		.uleb128 0
 676 027a 06       		.uleb128 0x6
 677 027b 19050000 		.4byte	.LASF28
 678 027f 05       		.byte	0x5
 679 0280 5D       		.byte	0x5d
 680 0281 89020000 		.4byte	0x289
 681 0285 02       		.byte	0x2
 682 0286 23       		.byte	0x23
 683 0287 04       		.uleb128 0x4
 684 0288 00       		.byte	0
 685 0289 09       		.uleb128 0x9
 686 028a 04       		.byte	0x4
 687 028b 26010000 		.4byte	0x126
 688 028f 03       		.uleb128 0x3
 689 0290 1B040000 		.4byte	.LASF47
 690 0294 05       		.byte	0x5
 691 0295 5F       		.byte	0x5f
 692 0296 64020000 		.4byte	0x264
 693 029a 08       		.uleb128 0x8
 694 029b 04       		.byte	0x4
 695 029c 05       		.byte	0x5
 696 029d 64       		.byte	0x64
 697 029e B1020000 		.4byte	0x2b1
 698 02a2 06       		.uleb128 0x6
 699 02a3 E2050000 		.4byte	.LASF27
 700 02a7 05       		.byte	0x5
 701 02a8 66       		.byte	0x66
 702 02a9 89020000 		.4byte	0x289
 703 02ad 02       		.byte	0x2
 704 02ae 23       		.byte	0x23
 705 02af 00       		.uleb128 0
 706 02b0 00       		.byte	0
 707 02b1 03       		.uleb128 0x3
 708 02b2 3D030000 		.4byte	.LASF48
 709 02b6 05       		.byte	0x5
 710 02b7 69       		.byte	0x69
 711 02b8 9A020000 		.4byte	0x29a
 712 02bc 03       		.uleb128 0x3
ARM GAS  /tmp/ccbHRHJC.s 			page 14


 713 02bd EB010000 		.4byte	.LASF49
 714 02c1 07       		.byte	0x7
 715 02c2 DE       		.byte	0xde
 716 02c3 C7020000 		.4byte	0x2c7
 717 02c7 0A       		.uleb128 0xa
 718 02c8 04       		.byte	0x4
 719 02c9 03       		.uleb128 0x3
 720 02ca 7C030000 		.4byte	.LASF50
 721 02ce 07       		.byte	0x7
 722 02cf E4       		.byte	0xe4
 723 02d0 AA000000 		.4byte	0xaa
 724 02d4 0B       		.uleb128 0xb
 725 02d5 18070000 		.4byte	.LASF51
 726 02d9 24       		.byte	0x24
 727 02da 07       		.byte	0x7
 728 02db 0501     		.2byte	0x105
 729 02dd 62030000 		.4byte	0x362
 730 02e1 0C       		.uleb128 0xc
 731 02e2 723400   		.ascii	"r4\000"
 732 02e5 07       		.byte	0x7
 733 02e6 1801     		.2byte	0x118
 734 02e8 BC020000 		.4byte	0x2bc
 735 02ec 02       		.byte	0x2
 736 02ed 23       		.byte	0x23
 737 02ee 00       		.uleb128 0
 738 02ef 0C       		.uleb128 0xc
 739 02f0 723500   		.ascii	"r5\000"
 740 02f3 07       		.byte	0x7
 741 02f4 1901     		.2byte	0x119
 742 02f6 BC020000 		.4byte	0x2bc
 743 02fa 02       		.byte	0x2
 744 02fb 23       		.byte	0x23
 745 02fc 04       		.uleb128 0x4
 746 02fd 0C       		.uleb128 0xc
 747 02fe 723600   		.ascii	"r6\000"
 748 0301 07       		.byte	0x7
 749 0302 1A01     		.2byte	0x11a
 750 0304 BC020000 		.4byte	0x2bc
 751 0308 02       		.byte	0x2
 752 0309 23       		.byte	0x23
 753 030a 08       		.uleb128 0x8
 754 030b 0C       		.uleb128 0xc
 755 030c 723700   		.ascii	"r7\000"
 756 030f 07       		.byte	0x7
 757 0310 1B01     		.2byte	0x11b
 758 0312 BC020000 		.4byte	0x2bc
 759 0316 02       		.byte	0x2
 760 0317 23       		.byte	0x23
 761 0318 0C       		.uleb128 0xc
 762 0319 0C       		.uleb128 0xc
 763 031a 723800   		.ascii	"r8\000"
 764 031d 07       		.byte	0x7
 765 031e 1C01     		.2byte	0x11c
 766 0320 BC020000 		.4byte	0x2bc
 767 0324 02       		.byte	0x2
 768 0325 23       		.byte	0x23
 769 0326 10       		.uleb128 0x10
ARM GAS  /tmp/ccbHRHJC.s 			page 15


 770 0327 0C       		.uleb128 0xc
 771 0328 723900   		.ascii	"r9\000"
 772 032b 07       		.byte	0x7
 773 032c 1D01     		.2byte	0x11d
 774 032e BC020000 		.4byte	0x2bc
 775 0332 02       		.byte	0x2
 776 0333 23       		.byte	0x23
 777 0334 14       		.uleb128 0x14
 778 0335 0C       		.uleb128 0xc
 779 0336 72313000 		.ascii	"r10\000"
 780 033a 07       		.byte	0x7
 781 033b 1E01     		.2byte	0x11e
 782 033d BC020000 		.4byte	0x2bc
 783 0341 02       		.byte	0x2
 784 0342 23       		.byte	0x23
 785 0343 18       		.uleb128 0x18
 786 0344 0C       		.uleb128 0xc
 787 0345 72313100 		.ascii	"r11\000"
 788 0349 07       		.byte	0x7
 789 034a 1F01     		.2byte	0x11f
 790 034c BC020000 		.4byte	0x2bc
 791 0350 02       		.byte	0x2
 792 0351 23       		.byte	0x23
 793 0352 1C       		.uleb128 0x1c
 794 0353 0C       		.uleb128 0xc
 795 0354 6C7200   		.ascii	"lr\000"
 796 0357 07       		.byte	0x7
 797 0358 2001     		.2byte	0x120
 798 035a BC020000 		.4byte	0x2bc
 799 035e 02       		.byte	0x2
 800 035f 23       		.byte	0x23
 801 0360 20       		.uleb128 0x20
 802 0361 00       		.byte	0
 803 0362 0B       		.uleb128 0xb
 804 0363 FA060000 		.4byte	.LASF52
 805 0367 04       		.byte	0x4
 806 0368 07       		.byte	0x7
 807 0369 2A01     		.2byte	0x12a
 808 036b 7F030000 		.4byte	0x37f
 809 036f 0C       		.uleb128 0xc
 810 0370 72313300 		.ascii	"r13\000"
 811 0374 07       		.byte	0x7
 812 0375 2B01     		.2byte	0x12b
 813 0377 7F030000 		.4byte	0x37f
 814 037b 02       		.byte	0x2
 815 037c 23       		.byte	0x23
 816 037d 00       		.uleb128 0
 817 037e 00       		.byte	0
 818 037f 09       		.uleb128 0x9
 819 0380 04       		.byte	0x4
 820 0381 D4020000 		.4byte	0x2d4
 821 0385 0D       		.uleb128 0xd
 822 0386 91000000 		.4byte	0x91
 823 038a 04       		.uleb128 0x4
 824 038b 04       		.byte	0x4
 825 038c 07       		.byte	0x7
 826 038d BD030000 		.4byte	.LASF53
ARM GAS  /tmp/ccbHRHJC.s 			page 16


 827 0391 0D       		.uleb128 0xd
 828 0392 1B010000 		.4byte	0x11b
 829 0396 05       		.uleb128 0x5
 830 0397 D9030000 		.4byte	.LASF54
 831 039b 10       		.byte	0x10
 832 039c 08       		.byte	0x8
 833 039d 25       		.byte	0x25
 834 039e CD030000 		.4byte	0x3cd
 835 03a2 06       		.uleb128 0x6
 836 03a3 FE000000 		.4byte	.LASF55
 837 03a7 08       		.byte	0x8
 838 03a8 26       		.byte	0x26
 839 03a9 8F020000 		.4byte	0x28f
 840 03ad 02       		.byte	0x2
 841 03ae 23       		.byte	0x23
 842 03af 00       		.uleb128 0
 843 03b0 06       		.uleb128 0x6
 844 03b1 C3070000 		.4byte	.LASF56
 845 03b5 08       		.byte	0x8
 846 03b6 28       		.byte	0x28
 847 03b7 89020000 		.4byte	0x289
 848 03bb 02       		.byte	0x2
 849 03bc 23       		.byte	0x23
 850 03bd 08       		.uleb128 0x8
 851 03be 06       		.uleb128 0x6
 852 03bf C9060000 		.4byte	.LASF57
 853 03c3 08       		.byte	0x8
 854 03c4 2A       		.byte	0x2a
 855 03c5 CD030000 		.4byte	0x3cd
 856 03c9 02       		.byte	0x2
 857 03ca 23       		.byte	0x23
 858 03cb 0C       		.uleb128 0xc
 859 03cc 00       		.byte	0
 860 03cd 09       		.uleb128 0x9
 861 03ce 04       		.byte	0x4
 862 03cf 96030000 		.4byte	0x396
 863 03d3 03       		.uleb128 0x3
 864 03d4 D9030000 		.4byte	.LASF54
 865 03d8 08       		.byte	0x8
 866 03d9 2C       		.byte	0x2c
 867 03da 96030000 		.4byte	0x396
 868 03de 03       		.uleb128 0x3
 869 03df 7D070000 		.4byte	.LASF58
 870 03e3 09       		.byte	0x9
 871 03e4 25       		.byte	0x25
 872 03e5 E9030000 		.4byte	0x3e9
 873 03e9 05       		.uleb128 0x5
 874 03ea 7D070000 		.4byte	.LASF58
 875 03ee 10       		.byte	0x10
 876 03ef 09       		.byte	0x9
 877 03f0 2A       		.byte	0x2a
 878 03f1 2E040000 		.4byte	0x42e
 879 03f5 06       		.uleb128 0x6
 880 03f6 09060000 		.4byte	.LASF59
 881 03fa 09       		.byte	0x9
 882 03fb 2B       		.byte	0x2b
 883 03fc 2E040000 		.4byte	0x42e
ARM GAS  /tmp/ccbHRHJC.s 			page 17


 884 0400 02       		.byte	0x2
 885 0401 23       		.byte	0x23
 886 0402 00       		.uleb128 0
 887 0403 06       		.uleb128 0x6
 888 0404 96050000 		.4byte	.LASF60
 889 0408 09       		.byte	0x9
 890 0409 2E       		.byte	0x2e
 891 040a 89020000 		.4byte	0x289
 892 040e 02       		.byte	0x2
 893 040f 23       		.byte	0x23
 894 0410 04       		.uleb128 0x4
 895 0411 06       		.uleb128 0x6
 896 0412 01040000 		.4byte	.LASF61
 897 0416 09       		.byte	0x9
 898 0417 30       		.byte	0x30
 899 0418 05010000 		.4byte	0x105
 900 041c 02       		.byte	0x2
 901 041d 23       		.byte	0x23
 902 041e 08       		.uleb128 0x8
 903 041f 06       		.uleb128 0x6
 904 0420 AB050000 		.4byte	.LASF62
 905 0424 09       		.byte	0x9
 906 0425 33       		.byte	0x33
 907 0426 10010000 		.4byte	0x110
 908 042a 02       		.byte	0x2
 909 042b 23       		.byte	0x23
 910 042c 0C       		.uleb128 0xc
 911 042d 00       		.byte	0
 912 042e 09       		.uleb128 0x9
 913 042f 04       		.byte	0x4
 914 0430 DE030000 		.4byte	0x3de
 915 0434 05       		.uleb128 0x5
 916 0435 20020000 		.4byte	.LASF63
 917 0439 04       		.byte	0x4
 918 043a 09       		.byte	0x9
 919 043b 3A       		.byte	0x3a
 920 043c 4F040000 		.4byte	0x44f
 921 0440 06       		.uleb128 0x6
 922 0441 35070000 		.4byte	.LASF64
 923 0445 09       		.byte	0x9
 924 0446 3B       		.byte	0x3b
 925 0447 2E040000 		.4byte	0x42e
 926 044b 02       		.byte	0x2
 927 044c 23       		.byte	0x23
 928 044d 00       		.uleb128 0
 929 044e 00       		.byte	0
 930 044f 03       		.uleb128 0x3
 931 0450 20020000 		.4byte	.LASF63
 932 0454 09       		.byte	0x9
 933 0455 3E       		.byte	0x3e
 934 0456 34040000 		.4byte	0x434
 935 045a 0E       		.uleb128 0xe
 936 045b 04       		.byte	0x4
 937 045c 06       		.byte	0x6
 938 045d 8F       		.byte	0x8f
 939 045e 8F040000 		.4byte	0x48f
 940 0462 0F       		.uleb128 0xf
ARM GAS  /tmp/ccbHRHJC.s 			page 18


 941 0463 3E000000 		.4byte	.LASF65
 942 0467 06       		.byte	0x6
 943 0468 96       		.byte	0x96
 944 0469 FA000000 		.4byte	0xfa
 945 046d 0F       		.uleb128 0xf
 946 046e 95000000 		.4byte	.LASF66
 947 0472 06       		.byte	0x6
 948 0473 9D       		.byte	0x9d
 949 0474 FA000000 		.4byte	0xfa
 950 0478 0F       		.uleb128 0xf
 951 0479 8B070000 		.4byte	.LASF67
 952 047d 06       		.byte	0x6
 953 047e A4       		.byte	0xa4
 954 047f C7020000 		.4byte	0x2c7
 955 0483 0F       		.uleb128 0xf
 956 0484 DB050000 		.4byte	.LASF68
 957 0488 06       		.byte	0x6
 958 0489 AB       		.byte	0xab
 959 048a 05010000 		.4byte	0x105
 960 048e 00       		.byte	0
 961 048f 09       		.uleb128 0x9
 962 0490 04       		.byte	0x4
 963 0491 95040000 		.4byte	0x495
 964 0495 10       		.uleb128 0x10
 965 0496 9A040000 		.4byte	0x49a
 966 049a 04       		.uleb128 0x4
 967 049b 01       		.byte	0x1
 968 049c 08       		.byte	0x8
 969 049d AD060000 		.4byte	.LASF69
 970 04a1 09       		.uleb128 0x9
 971 04a2 04       		.byte	0x4
 972 04a3 C9020000 		.4byte	0x2c9
 973 04a7 09       		.uleb128 0x9
 974 04a8 04       		.byte	0x4
 975 04a9 D3030000 		.4byte	0x3d3
 976 04ad 03       		.uleb128 0x3
 977 04ae C1060000 		.4byte	.LASF70
 978 04b2 06       		.byte	0x6
 979 04b3 DE       		.byte	0xde
 980 04b4 B8040000 		.4byte	0x4b8
 981 04b8 09       		.uleb128 0x9
 982 04b9 04       		.byte	0x4
 983 04ba BE040000 		.4byte	0x4be
 984 04be 11       		.uleb128 0x11
 985 04bf 01       		.byte	0x1
 986 04c0 FA000000 		.4byte	0xfa
 987 04c4 CE040000 		.4byte	0x4ce
 988 04c8 12       		.uleb128 0x12
 989 04c9 C7020000 		.4byte	0x2c7
 990 04cd 00       		.byte	0
 991 04ce 03       		.uleb128 0x3
 992 04cf 6F030000 		.4byte	.LASF71
 993 04d3 0A       		.byte	0xa
 994 04d4 30       		.byte	0x30
 995 04d5 D9040000 		.4byte	0x4d9
 996 04d9 05       		.uleb128 0x5
 997 04da 6F030000 		.4byte	.LASF71
ARM GAS  /tmp/ccbHRHJC.s 			page 19


 998 04de 24       		.byte	0x24
 999 04df 0A       		.byte	0xa
 1000 04e0 3E       		.byte	0x3e
 1001 04e1 56050000 		.4byte	0x556
 1002 04e5 06       		.uleb128 0x6
 1003 04e6 BF000000 		.4byte	.LASF72
 1004 04ea 0A       		.byte	0xa
 1005 04eb 3F       		.byte	0x3f
 1006 04ec 8F020000 		.4byte	0x28f
 1007 04f0 02       		.byte	0x2
 1008 04f1 23       		.byte	0x23
 1009 04f2 00       		.uleb128 0
 1010 04f3 06       		.uleb128 0x6
 1011 04f4 C6030000 		.4byte	.LASF73
 1012 04f8 0A       		.byte	0xa
 1013 04f9 40       		.byte	0x40
 1014 04fa 30000000 		.4byte	0x30
 1015 04fe 02       		.byte	0x2
 1016 04ff 23       		.byte	0x23
 1017 0500 08       		.uleb128 0x8
 1018 0501 06       		.uleb128 0x6
 1019 0502 8E010000 		.4byte	.LASF74
 1020 0506 0A       		.byte	0xa
 1021 0507 41       		.byte	0x41
 1022 0508 79050000 		.4byte	0x579
 1023 050c 02       		.byte	0x2
 1024 050d 23       		.byte	0x23
 1025 050e 0C       		.uleb128 0xc
 1026 050f 06       		.uleb128 0x6
 1027 0510 28070000 		.4byte	.LASF75
 1028 0514 0A       		.byte	0xa
 1029 0515 42       		.byte	0x42
 1030 0516 79050000 		.4byte	0x579
 1031 051a 02       		.byte	0x2
 1032 051b 23       		.byte	0x23
 1033 051c 10       		.uleb128 0x10
 1034 051d 06       		.uleb128 0x6
 1035 051e 97010000 		.4byte	.LASF76
 1036 0522 0A       		.byte	0xa
 1037 0523 44       		.byte	0x44
 1038 0524 79050000 		.4byte	0x579
 1039 0528 02       		.byte	0x2
 1040 0529 23       		.byte	0x23
 1041 052a 14       		.uleb128 0x14
 1042 052b 06       		.uleb128 0x6
 1043 052c 46050000 		.4byte	.LASF77
 1044 0530 0A       		.byte	0xa
 1045 0531 45       		.byte	0x45
 1046 0532 79050000 		.4byte	0x579
 1047 0536 02       		.byte	0x2
 1048 0537 23       		.byte	0x23
 1049 0538 18       		.uleb128 0x18
 1050 0539 06       		.uleb128 0x6
 1051 053a 48070000 		.4byte	.LASF78
 1052 053e 0A       		.byte	0xa
 1053 053f 46       		.byte	0x46
 1054 0540 56050000 		.4byte	0x556
ARM GAS  /tmp/ccbHRHJC.s 			page 20


 1055 0544 02       		.byte	0x2
 1056 0545 23       		.byte	0x23
 1057 0546 1C       		.uleb128 0x1c
 1058 0547 06       		.uleb128 0x6
 1059 0548 9F010000 		.4byte	.LASF79
 1060 054c 0A       		.byte	0xa
 1061 054d 47       		.byte	0x47
 1062 054e C7020000 		.4byte	0x2c7
 1063 0552 02       		.byte	0x2
 1064 0553 23       		.byte	0x23
 1065 0554 20       		.uleb128 0x20
 1066 0555 00       		.byte	0
 1067 0556 03       		.uleb128 0x3
 1068 0557 65030000 		.4byte	.LASF80
 1069 055b 0A       		.byte	0xa
 1070 055c 33       		.byte	0x33
 1071 055d 61050000 		.4byte	0x561
 1072 0561 09       		.uleb128 0x9
 1073 0562 04       		.byte	0x4
 1074 0563 67050000 		.4byte	0x567
 1075 0567 13       		.uleb128 0x13
 1076 0568 01       		.byte	0x1
 1077 0569 73050000 		.4byte	0x573
 1078 056d 12       		.uleb128 0x12
 1079 056e 73050000 		.4byte	0x573
 1080 0572 00       		.byte	0
 1081 0573 09       		.uleb128 0x9
 1082 0574 04       		.byte	0x4
 1083 0575 CE040000 		.4byte	0x4ce
 1084 0579 09       		.uleb128 0x9
 1085 057a 04       		.byte	0x4
 1086 057b 49000000 		.4byte	0x49
 1087 057f 03       		.uleb128 0x3
 1088 0580 68070000 		.4byte	.LASF81
 1089 0584 0A       		.byte	0xa
 1090 0585 7B       		.byte	0x7b
 1091 0586 CE040000 		.4byte	0x4ce
 1092 058a 03       		.uleb128 0x3
 1093 058b 4E000000 		.4byte	.LASF82
 1094 058f 0A       		.byte	0xa
 1095 0590 EE       		.byte	0xee
 1096 0591 CE040000 		.4byte	0x4ce
 1097 0595 05       		.uleb128 0x5
 1098 0596 E9050000 		.4byte	.LASF83
 1099 059a 10       		.byte	0x10
 1100 059b 0B       		.byte	0xb
 1101 059c 41       		.byte	0x41
 1102 059d DA050000 		.4byte	0x5da
 1103 05a1 06       		.uleb128 0x6
 1104 05a2 99030000 		.4byte	.LASF84
 1105 05a6 0B       		.byte	0xb
 1106 05a7 42       		.byte	0x42
 1107 05a8 FF050000 		.4byte	0x5ff
 1108 05ac 02       		.byte	0x2
 1109 05ad 23       		.byte	0x23
 1110 05ae 00       		.uleb128 0
 1111 05af 06       		.uleb128 0x6
ARM GAS  /tmp/ccbHRHJC.s 			page 21


 1112 05b0 A8060000 		.4byte	.LASF85
 1113 05b4 0B       		.byte	0xb
 1114 05b5 42       		.byte	0x42
 1115 05b6 1F060000 		.4byte	0x61f
 1116 05ba 02       		.byte	0x2
 1117 05bb 23       		.byte	0x23
 1118 05bc 04       		.uleb128 0x4
 1119 05bd 07       		.uleb128 0x7
 1120 05be 70757400 		.ascii	"put\000"
 1121 05c2 0B       		.byte	0xb
 1122 05c3 42       		.byte	0x42
 1123 05c4 3A060000 		.4byte	0x63a
 1124 05c8 02       		.byte	0x2
 1125 05c9 23       		.byte	0x23
 1126 05ca 08       		.uleb128 0x8
 1127 05cb 07       		.uleb128 0x7
 1128 05cc 67657400 		.ascii	"get\000"
 1129 05d0 0B       		.byte	0xb
 1130 05d1 42       		.byte	0x42
 1131 05d2 B8040000 		.4byte	0x4b8
 1132 05d6 02       		.byte	0x2
 1133 05d7 23       		.byte	0x23
 1134 05d8 0C       		.uleb128 0xc
 1135 05d9 00       		.byte	0
 1136 05da 11       		.uleb128 0x11
 1137 05db 01       		.byte	0x1
 1138 05dc 30000000 		.4byte	0x30
 1139 05e0 F4050000 		.4byte	0x5f4
 1140 05e4 12       		.uleb128 0x12
 1141 05e5 C7020000 		.4byte	0x2c7
 1142 05e9 12       		.uleb128 0x12
 1143 05ea F4050000 		.4byte	0x5f4
 1144 05ee 12       		.uleb128 0x12
 1145 05ef 30000000 		.4byte	0x30
 1146 05f3 00       		.byte	0
 1147 05f4 09       		.uleb128 0x9
 1148 05f5 04       		.byte	0x4
 1149 05f6 FA050000 		.4byte	0x5fa
 1150 05fa 10       		.uleb128 0x10
 1151 05fb 49000000 		.4byte	0x49
 1152 05ff 09       		.uleb128 0x9
 1153 0600 04       		.byte	0x4
 1154 0601 DA050000 		.4byte	0x5da
 1155 0605 11       		.uleb128 0x11
 1156 0606 01       		.byte	0x1
 1157 0607 30000000 		.4byte	0x30
 1158 060b 1F060000 		.4byte	0x61f
 1159 060f 12       		.uleb128 0x12
 1160 0610 C7020000 		.4byte	0x2c7
 1161 0614 12       		.uleb128 0x12
 1162 0615 79050000 		.4byte	0x579
 1163 0619 12       		.uleb128 0x12
 1164 061a 30000000 		.4byte	0x30
 1165 061e 00       		.byte	0
 1166 061f 09       		.uleb128 0x9
 1167 0620 04       		.byte	0x4
 1168 0621 05060000 		.4byte	0x605
ARM GAS  /tmp/ccbHRHJC.s 			page 22


 1169 0625 11       		.uleb128 0x11
 1170 0626 01       		.byte	0x1
 1171 0627 FA000000 		.4byte	0xfa
 1172 062b 3A060000 		.4byte	0x63a
 1173 062f 12       		.uleb128 0x12
 1174 0630 C7020000 		.4byte	0x2c7
 1175 0634 12       		.uleb128 0x12
 1176 0635 49000000 		.4byte	0x49
 1177 0639 00       		.byte	0
 1178 063a 09       		.uleb128 0x9
 1179 063b 04       		.byte	0x4
 1180 063c 25060000 		.4byte	0x625
 1181 0640 08       		.uleb128 0x8
 1182 0641 04       		.byte	0x4
 1183 0642 0B       		.byte	0xb
 1184 0643 4A       		.byte	0x4a
 1185 0644 57060000 		.4byte	0x657
 1186 0648 07       		.uleb128 0x7
 1187 0649 766D7400 		.ascii	"vmt\000"
 1188 064d 0B       		.byte	0xb
 1189 064e 4C       		.byte	0x4c
 1190 064f 57060000 		.4byte	0x657
 1191 0653 02       		.byte	0x2
 1192 0654 23       		.byte	0x23
 1193 0655 00       		.uleb128 0
 1194 0656 00       		.byte	0
 1195 0657 09       		.uleb128 0x9
 1196 0658 04       		.byte	0x4
 1197 0659 5D060000 		.4byte	0x65d
 1198 065d 10       		.uleb128 0x10
 1199 065e 95050000 		.4byte	0x595
 1200 0662 03       		.uleb128 0x3
 1201 0663 2C020000 		.4byte	.LASF86
 1202 0667 0B       		.byte	0xb
 1203 0668 4E       		.byte	0x4e
 1204 0669 40060000 		.4byte	0x640
 1205 066d 0D       		.uleb128 0xd
 1206 066e 6D000000 		.4byte	0x6d
 1207 0672 0D       		.uleb128 0xd
 1208 0673 7F000000 		.4byte	0x7f
 1209 0677 14       		.uleb128 0x14
 1210 0678 10       		.byte	0x10
 1211 0679 0C       		.byte	0xc
 1212 067a 2D03     		.2byte	0x32d
 1213 067c BD060000 		.4byte	0x6bd
 1214 0680 0C       		.uleb128 0xc
 1215 0681 43435200 		.ascii	"CCR\000"
 1216 0685 0C       		.byte	0xc
 1217 0686 2F03     		.2byte	0x32f
 1218 0688 85030000 		.4byte	0x385
 1219 068c 02       		.byte	0x2
 1220 068d 23       		.byte	0x23
 1221 068e 00       		.uleb128 0
 1222 068f 15       		.uleb128 0x15
 1223 0690 3D070000 		.4byte	.LASF87
 1224 0694 0C       		.byte	0xc
 1225 0695 3003     		.2byte	0x330
ARM GAS  /tmp/ccbHRHJC.s 			page 23


 1226 0697 85030000 		.4byte	0x385
 1227 069b 02       		.byte	0x2
 1228 069c 23       		.byte	0x23
 1229 069d 04       		.uleb128 0x4
 1230 069e 15       		.uleb128 0x15
 1231 069f 7C020000 		.4byte	.LASF88
 1232 06a3 0C       		.byte	0xc
 1233 06a4 3103     		.2byte	0x331
 1234 06a6 85030000 		.4byte	0x385
 1235 06aa 02       		.byte	0x2
 1236 06ab 23       		.byte	0x23
 1237 06ac 08       		.uleb128 0x8
 1238 06ad 15       		.uleb128 0x15
 1239 06ae 43070000 		.4byte	.LASF89
 1240 06b2 0C       		.byte	0xc
 1241 06b3 3203     		.2byte	0x332
 1242 06b5 85030000 		.4byte	0x385
 1243 06b9 02       		.byte	0x2
 1244 06ba 23       		.byte	0x23
 1245 06bb 0C       		.uleb128 0xc
 1246 06bc 00       		.byte	0
 1247 06bd 16       		.uleb128 0x16
 1248 06be 7C040000 		.4byte	.LASF90
 1249 06c2 0C       		.byte	0xc
 1250 06c3 3303     		.2byte	0x333
 1251 06c5 77060000 		.4byte	0x677
 1252 06c9 14       		.uleb128 0x14
 1253 06ca 1C       		.byte	0x1c
 1254 06cb 0C       		.byte	0xc
 1255 06cc F803     		.2byte	0x3f8
 1256 06ce 3C070000 		.4byte	0x73c
 1257 06d2 0C       		.uleb128 0xc
 1258 06d3 43524C00 		.ascii	"CRL\000"
 1259 06d7 0C       		.byte	0xc
 1260 06d8 FA03     		.2byte	0x3fa
 1261 06da 85030000 		.4byte	0x385
 1262 06de 02       		.byte	0x2
 1263 06df 23       		.byte	0x23
 1264 06e0 00       		.uleb128 0
 1265 06e1 0C       		.uleb128 0xc
 1266 06e2 43524800 		.ascii	"CRH\000"
 1267 06e6 0C       		.byte	0xc
 1268 06e7 FB03     		.2byte	0x3fb
 1269 06e9 85030000 		.4byte	0x385
 1270 06ed 02       		.byte	0x2
 1271 06ee 23       		.byte	0x23
 1272 06ef 04       		.uleb128 0x4
 1273 06f0 0C       		.uleb128 0xc
 1274 06f1 49445200 		.ascii	"IDR\000"
 1275 06f5 0C       		.byte	0xc
 1276 06f6 FC03     		.2byte	0x3fc
 1277 06f8 85030000 		.4byte	0x385
 1278 06fc 02       		.byte	0x2
 1279 06fd 23       		.byte	0x23
 1280 06fe 08       		.uleb128 0x8
 1281 06ff 0C       		.uleb128 0xc
 1282 0700 4F445200 		.ascii	"ODR\000"
ARM GAS  /tmp/ccbHRHJC.s 			page 24


 1283 0704 0C       		.byte	0xc
 1284 0705 FD03     		.2byte	0x3fd
 1285 0707 85030000 		.4byte	0x385
 1286 070b 02       		.byte	0x2
 1287 070c 23       		.byte	0x23
 1288 070d 0C       		.uleb128 0xc
 1289 070e 15       		.uleb128 0x15
 1290 070f E3000000 		.4byte	.LASF91
 1291 0713 0C       		.byte	0xc
 1292 0714 FE03     		.2byte	0x3fe
 1293 0716 85030000 		.4byte	0x385
 1294 071a 02       		.byte	0x2
 1295 071b 23       		.byte	0x23
 1296 071c 10       		.uleb128 0x10
 1297 071d 0C       		.uleb128 0xc
 1298 071e 42525200 		.ascii	"BRR\000"
 1299 0722 0C       		.byte	0xc
 1300 0723 FF03     		.2byte	0x3ff
 1301 0725 85030000 		.4byte	0x385
 1302 0729 02       		.byte	0x2
 1303 072a 23       		.byte	0x23
 1304 072b 14       		.uleb128 0x14
 1305 072c 15       		.uleb128 0x15
 1306 072d 33060000 		.4byte	.LASF92
 1307 0731 0C       		.byte	0xc
 1308 0732 0004     		.2byte	0x400
 1309 0734 85030000 		.4byte	0x385
 1310 0738 02       		.byte	0x2
 1311 0739 23       		.byte	0x23
 1312 073a 18       		.uleb128 0x18
 1313 073b 00       		.byte	0
 1314 073c 16       		.uleb128 0x16
 1315 073d C6010000 		.4byte	.LASF93
 1316 0741 0C       		.byte	0xc
 1317 0742 0104     		.2byte	0x401
 1318 0744 C9060000 		.4byte	0x6c9
 1319 0748 14       		.uleb128 0x14
 1320 0749 24       		.byte	0x24
 1321 074a 0C       		.byte	0xc
 1322 074b 1304     		.2byte	0x413
 1323 074d 5F080000 		.4byte	0x85f
 1324 0751 0C       		.uleb128 0xc
 1325 0752 43523100 		.ascii	"CR1\000"
 1326 0756 0C       		.byte	0xc
 1327 0757 1504     		.2byte	0x415
 1328 0759 6D060000 		.4byte	0x66d
 1329 075d 02       		.byte	0x2
 1330 075e 23       		.byte	0x23
 1331 075f 00       		.uleb128 0
 1332 0760 15       		.uleb128 0x15
 1333 0761 E7040000 		.4byte	.LASF94
 1334 0765 0C       		.byte	0xc
 1335 0766 1604     		.2byte	0x416
 1336 0768 6D000000 		.4byte	0x6d
 1337 076c 02       		.byte	0x2
 1338 076d 23       		.byte	0x23
 1339 076e 02       		.uleb128 0x2
ARM GAS  /tmp/ccbHRHJC.s 			page 25


 1340 076f 0C       		.uleb128 0xc
 1341 0770 43523200 		.ascii	"CR2\000"
 1342 0774 0C       		.byte	0xc
 1343 0775 1704     		.2byte	0x417
 1344 0777 6D060000 		.4byte	0x66d
 1345 077b 02       		.byte	0x2
 1346 077c 23       		.byte	0x23
 1347 077d 04       		.uleb128 0x4
 1348 077e 15       		.uleb128 0x15
 1349 077f F1040000 		.4byte	.LASF95
 1350 0783 0C       		.byte	0xc
 1351 0784 1804     		.2byte	0x418
 1352 0786 6D000000 		.4byte	0x6d
 1353 078a 02       		.byte	0x2
 1354 078b 23       		.byte	0x23
 1355 078c 06       		.uleb128 0x6
 1356 078d 15       		.uleb128 0x15
 1357 078e 73070000 		.4byte	.LASF96
 1358 0792 0C       		.byte	0xc
 1359 0793 1904     		.2byte	0x419
 1360 0795 6D060000 		.4byte	0x66d
 1361 0799 02       		.byte	0x2
 1362 079a 23       		.byte	0x23
 1363 079b 08       		.uleb128 0x8
 1364 079c 15       		.uleb128 0x15
 1365 079d FB040000 		.4byte	.LASF97
 1366 07a1 0C       		.byte	0xc
 1367 07a2 1A04     		.2byte	0x41a
 1368 07a4 6D000000 		.4byte	0x6d
 1369 07a8 02       		.byte	0x2
 1370 07a9 23       		.byte	0x23
 1371 07aa 0A       		.uleb128 0xa
 1372 07ab 15       		.uleb128 0x15
 1373 07ac 78070000 		.4byte	.LASF98
 1374 07b0 0C       		.byte	0xc
 1375 07b1 1B04     		.2byte	0x41b
 1376 07b3 6D060000 		.4byte	0x66d
 1377 07b7 02       		.byte	0x2
 1378 07b8 23       		.byte	0x23
 1379 07b9 0C       		.uleb128 0xc
 1380 07ba 15       		.uleb128 0x15
 1381 07bb 05050000 		.4byte	.LASF99
 1382 07bf 0C       		.byte	0xc
 1383 07c0 1C04     		.2byte	0x41c
 1384 07c2 6D000000 		.4byte	0x6d
 1385 07c6 02       		.byte	0x2
 1386 07c7 23       		.byte	0x23
 1387 07c8 0E       		.uleb128 0xe
 1388 07c9 0C       		.uleb128 0xc
 1389 07ca 445200   		.ascii	"DR\000"
 1390 07cd 0C       		.byte	0xc
 1391 07ce 1D04     		.2byte	0x41d
 1392 07d0 6D060000 		.4byte	0x66d
 1393 07d4 02       		.byte	0x2
 1394 07d5 23       		.byte	0x23
 1395 07d6 10       		.uleb128 0x10
 1396 07d7 15       		.uleb128 0x15
ARM GAS  /tmp/ccbHRHJC.s 			page 26


 1397 07d8 0F050000 		.4byte	.LASF100
 1398 07dc 0C       		.byte	0xc
 1399 07dd 1E04     		.2byte	0x41e
 1400 07df 6D000000 		.4byte	0x6d
 1401 07e3 02       		.byte	0x2
 1402 07e4 23       		.byte	0x23
 1403 07e5 12       		.uleb128 0x12
 1404 07e6 0C       		.uleb128 0xc
 1405 07e7 53523100 		.ascii	"SR1\000"
 1406 07eb 0C       		.byte	0xc
 1407 07ec 1F04     		.2byte	0x41f
 1408 07ee 6D060000 		.4byte	0x66d
 1409 07f2 02       		.byte	0x2
 1410 07f3 23       		.byte	0x23
 1411 07f4 14       		.uleb128 0x14
 1412 07f5 15       		.uleb128 0x15
 1413 07f6 58060000 		.4byte	.LASF101
 1414 07fa 0C       		.byte	0xc
 1415 07fb 2004     		.2byte	0x420
 1416 07fd 6D000000 		.4byte	0x6d
 1417 0801 02       		.byte	0x2
 1418 0802 23       		.byte	0x23
 1419 0803 16       		.uleb128 0x16
 1420 0804 0C       		.uleb128 0xc
 1421 0805 53523200 		.ascii	"SR2\000"
 1422 0809 0C       		.byte	0xc
 1423 080a 2104     		.2byte	0x421
 1424 080c 6D060000 		.4byte	0x66d
 1425 0810 02       		.byte	0x2
 1426 0811 23       		.byte	0x23
 1427 0812 18       		.uleb128 0x18
 1428 0813 15       		.uleb128 0x15
 1429 0814 20050000 		.4byte	.LASF102
 1430 0818 0C       		.byte	0xc
 1431 0819 2204     		.2byte	0x422
 1432 081b 6D000000 		.4byte	0x6d
 1433 081f 02       		.byte	0x2
 1434 0820 23       		.byte	0x23
 1435 0821 1A       		.uleb128 0x1a
 1436 0822 0C       		.uleb128 0xc
 1437 0823 43435200 		.ascii	"CCR\000"
 1438 0827 0C       		.byte	0xc
 1439 0828 2304     		.2byte	0x423
 1440 082a 6D060000 		.4byte	0x66d
 1441 082e 02       		.byte	0x2
 1442 082f 23       		.byte	0x23
 1443 0830 1C       		.uleb128 0x1c
 1444 0831 15       		.uleb128 0x15
 1445 0832 2A050000 		.4byte	.LASF103
 1446 0836 0C       		.byte	0xc
 1447 0837 2404     		.2byte	0x424
 1448 0839 6D000000 		.4byte	0x6d
 1449 083d 02       		.byte	0x2
 1450 083e 23       		.byte	0x23
 1451 083f 1E       		.uleb128 0x1e
 1452 0840 15       		.uleb128 0x15
 1453 0841 5A000000 		.4byte	.LASF104
ARM GAS  /tmp/ccbHRHJC.s 			page 27


 1454 0845 0C       		.byte	0xc
 1455 0846 2504     		.2byte	0x425
 1456 0848 6D060000 		.4byte	0x66d
 1457 084c 02       		.byte	0x2
 1458 084d 23       		.byte	0x23
 1459 084e 20       		.uleb128 0x20
 1460 084f 15       		.uleb128 0x15
 1461 0850 34050000 		.4byte	.LASF105
 1462 0854 0C       		.byte	0xc
 1463 0855 2604     		.2byte	0x426
 1464 0857 6D000000 		.4byte	0x6d
 1465 085b 02       		.byte	0x2
 1466 085c 23       		.byte	0x23
 1467 085d 22       		.uleb128 0x22
 1468 085e 00       		.byte	0
 1469 085f 16       		.uleb128 0x16
 1470 0860 98070000 		.4byte	.LASF106
 1471 0864 0C       		.byte	0xc
 1472 0865 2704     		.2byte	0x427
 1473 0867 48070000 		.4byte	0x748
 1474 086b 14       		.uleb128 0x14
 1475 086c 1C       		.byte	0x1c
 1476 086d 0C       		.byte	0xc
 1477 086e E104     		.2byte	0x4e1
 1478 0870 45090000 		.4byte	0x945
 1479 0874 0C       		.uleb128 0xc
 1480 0875 535200   		.ascii	"SR\000"
 1481 0878 0C       		.byte	0xc
 1482 0879 E304     		.2byte	0x4e3
 1483 087b 6D060000 		.4byte	0x66d
 1484 087f 02       		.byte	0x2
 1485 0880 23       		.byte	0x23
 1486 0881 00       		.uleb128 0
 1487 0882 15       		.uleb128 0x15
 1488 0883 E7040000 		.4byte	.LASF94
 1489 0887 0C       		.byte	0xc
 1490 0888 E404     		.2byte	0x4e4
 1491 088a 6D000000 		.4byte	0x6d
 1492 088e 02       		.byte	0x2
 1493 088f 23       		.byte	0x23
 1494 0890 02       		.uleb128 0x2
 1495 0891 0C       		.uleb128 0xc
 1496 0892 445200   		.ascii	"DR\000"
 1497 0895 0C       		.byte	0xc
 1498 0896 E504     		.2byte	0x4e5
 1499 0898 6D060000 		.4byte	0x66d
 1500 089c 02       		.byte	0x2
 1501 089d 23       		.byte	0x23
 1502 089e 04       		.uleb128 0x4
 1503 089f 15       		.uleb128 0x15
 1504 08a0 F1040000 		.4byte	.LASF95
 1505 08a4 0C       		.byte	0xc
 1506 08a5 E604     		.2byte	0x4e6
 1507 08a7 6D000000 		.4byte	0x6d
 1508 08ab 02       		.byte	0x2
 1509 08ac 23       		.byte	0x23
 1510 08ad 06       		.uleb128 0x6
ARM GAS  /tmp/ccbHRHJC.s 			page 28


 1511 08ae 0C       		.uleb128 0xc
 1512 08af 42525200 		.ascii	"BRR\000"
 1513 08b3 0C       		.byte	0xc
 1514 08b4 E704     		.2byte	0x4e7
 1515 08b6 6D060000 		.4byte	0x66d
 1516 08ba 02       		.byte	0x2
 1517 08bb 23       		.byte	0x23
 1518 08bc 08       		.uleb128 0x8
 1519 08bd 15       		.uleb128 0x15
 1520 08be FB040000 		.4byte	.LASF97
 1521 08c2 0C       		.byte	0xc
 1522 08c3 E804     		.2byte	0x4e8
 1523 08c5 6D000000 		.4byte	0x6d
 1524 08c9 02       		.byte	0x2
 1525 08ca 23       		.byte	0x23
 1526 08cb 0A       		.uleb128 0xa
 1527 08cc 0C       		.uleb128 0xc
 1528 08cd 43523100 		.ascii	"CR1\000"
 1529 08d1 0C       		.byte	0xc
 1530 08d2 E904     		.2byte	0x4e9
 1531 08d4 6D060000 		.4byte	0x66d
 1532 08d8 02       		.byte	0x2
 1533 08d9 23       		.byte	0x23
 1534 08da 0C       		.uleb128 0xc
 1535 08db 15       		.uleb128 0x15
 1536 08dc 05050000 		.4byte	.LASF99
 1537 08e0 0C       		.byte	0xc
 1538 08e1 EA04     		.2byte	0x4ea
 1539 08e3 6D000000 		.4byte	0x6d
 1540 08e7 02       		.byte	0x2
 1541 08e8 23       		.byte	0x23
 1542 08e9 0E       		.uleb128 0xe
 1543 08ea 0C       		.uleb128 0xc
 1544 08eb 43523200 		.ascii	"CR2\000"
 1545 08ef 0C       		.byte	0xc
 1546 08f0 EB04     		.2byte	0x4eb
 1547 08f2 6D060000 		.4byte	0x66d
 1548 08f6 02       		.byte	0x2
 1549 08f7 23       		.byte	0x23
 1550 08f8 10       		.uleb128 0x10
 1551 08f9 15       		.uleb128 0x15
 1552 08fa 0F050000 		.4byte	.LASF100
 1553 08fe 0C       		.byte	0xc
 1554 08ff EC04     		.2byte	0x4ec
 1555 0901 6D000000 		.4byte	0x6d
 1556 0905 02       		.byte	0x2
 1557 0906 23       		.byte	0x23
 1558 0907 12       		.uleb128 0x12
 1559 0908 0C       		.uleb128 0xc
 1560 0909 43523300 		.ascii	"CR3\000"
 1561 090d 0C       		.byte	0xc
 1562 090e ED04     		.2byte	0x4ed
 1563 0910 6D060000 		.4byte	0x66d
 1564 0914 02       		.byte	0x2
 1565 0915 23       		.byte	0x23
 1566 0916 14       		.uleb128 0x14
 1567 0917 15       		.uleb128 0x15
ARM GAS  /tmp/ccbHRHJC.s 			page 29


 1568 0918 58060000 		.4byte	.LASF101
 1569 091c 0C       		.byte	0xc
 1570 091d EE04     		.2byte	0x4ee
 1571 091f 6D000000 		.4byte	0x6d
 1572 0923 02       		.byte	0x2
 1573 0924 23       		.byte	0x23
 1574 0925 16       		.uleb128 0x16
 1575 0926 15       		.uleb128 0x15
 1576 0927 F1000000 		.4byte	.LASF107
 1577 092b 0C       		.byte	0xc
 1578 092c EF04     		.2byte	0x4ef
 1579 092e 6D060000 		.4byte	0x66d
 1580 0932 02       		.byte	0x2
 1581 0933 23       		.byte	0x23
 1582 0934 18       		.uleb128 0x18
 1583 0935 15       		.uleb128 0x15
 1584 0936 20050000 		.4byte	.LASF102
 1585 093a 0C       		.byte	0xc
 1586 093b F004     		.2byte	0x4f0
 1587 093d 6D000000 		.4byte	0x6d
 1588 0941 02       		.byte	0x2
 1589 0942 23       		.byte	0x23
 1590 0943 1A       		.uleb128 0x1a
 1591 0944 00       		.byte	0
 1592 0945 16       		.uleb128 0x16
 1593 0946 20030000 		.4byte	.LASF108
 1594 094a 0C       		.byte	0xc
 1595 094b F104     		.2byte	0x4f1
 1596 094d 6B080000 		.4byte	0x86b
 1597 0951 08       		.uleb128 0x8
 1598 0952 0C       		.byte	0xc
 1599 0953 0D       		.byte	0xd
 1600 0954 C1       		.byte	0xc1
 1601 0955 A0090000 		.4byte	0x9a0
 1602 0959 06       		.uleb128 0x6
 1603 095a 2B060000 		.4byte	.LASF109
 1604 095e 0D       		.byte	0xd
 1605 095f C2       		.byte	0xc2
 1606 0960 A0090000 		.4byte	0x9a0
 1607 0964 02       		.byte	0x2
 1608 0965 23       		.byte	0x23
 1609 0966 00       		.uleb128 0
 1610 0967 06       		.uleb128 0x6
 1611 0968 99040000 		.4byte	.LASF110
 1612 096c 0D       		.byte	0xd
 1613 096d C3       		.byte	0xc3
 1614 096e A6090000 		.4byte	0x9a6
 1615 0972 02       		.byte	0x2
 1616 0973 23       		.byte	0x23
 1617 0974 04       		.uleb128 0x4
 1618 0975 06       		.uleb128 0x6
 1619 0976 BF020000 		.4byte	.LASF111
 1620 097a 0D       		.byte	0xd
 1621 097b C4       		.byte	0xc4
 1622 097c 49000000 		.4byte	0x49
 1623 0980 02       		.byte	0x2
 1624 0981 23       		.byte	0x23
ARM GAS  /tmp/ccbHRHJC.s 			page 30


 1625 0982 08       		.uleb128 0x8
 1626 0983 06       		.uleb128 0x6
 1627 0984 F4010000 		.4byte	.LASF112
 1628 0988 0D       		.byte	0xd
 1629 0989 C6       		.byte	0xc6
 1630 098a 49000000 		.4byte	0x49
 1631 098e 02       		.byte	0x2
 1632 098f 23       		.byte	0x23
 1633 0990 09       		.uleb128 0x9
 1634 0991 06       		.uleb128 0x6
 1635 0992 9E000000 		.4byte	.LASF113
 1636 0996 0D       		.byte	0xd
 1637 0997 C7       		.byte	0xc7
 1638 0998 49000000 		.4byte	0x49
 1639 099c 02       		.byte	0x2
 1640 099d 23       		.byte	0x23
 1641 099e 0A       		.uleb128 0xa
 1642 099f 00       		.byte	0
 1643 09a0 09       		.uleb128 0x9
 1644 09a1 04       		.byte	0x4
 1645 09a2 BD060000 		.4byte	0x6bd
 1646 09a6 09       		.uleb128 0x9
 1647 09a7 04       		.byte	0x4
 1648 09a8 85030000 		.4byte	0x385
 1649 09ac 03       		.uleb128 0x3
 1650 09ad 83050000 		.4byte	.LASF114
 1651 09b1 0D       		.byte	0xd
 1652 09b2 C8       		.byte	0xc8
 1653 09b3 51090000 		.4byte	0x951
 1654 09b7 11       		.uleb128 0x11
 1655 09b8 01       		.byte	0x1
 1656 09b9 FA000000 		.4byte	0xfa
 1657 09bd D1090000 		.4byte	0x9d1
 1658 09c1 12       		.uleb128 0x12
 1659 09c2 C7020000 		.4byte	0x2c7
 1660 09c6 12       		.uleb128 0x12
 1661 09c7 49000000 		.4byte	0x49
 1662 09cb 12       		.uleb128 0x12
 1663 09cc 1B010000 		.4byte	0x11b
 1664 09d0 00       		.byte	0
 1665 09d1 09       		.uleb128 0x9
 1666 09d2 04       		.byte	0x4
 1667 09d3 B7090000 		.4byte	0x9b7
 1668 09d7 11       		.uleb128 0x11
 1669 09d8 01       		.byte	0x1
 1670 09d9 FA000000 		.4byte	0xfa
 1671 09dd EC090000 		.4byte	0x9ec
 1672 09e1 12       		.uleb128 0x12
 1673 09e2 C7020000 		.4byte	0x2c7
 1674 09e6 12       		.uleb128 0x12
 1675 09e7 1B010000 		.4byte	0x11b
 1676 09eb 00       		.byte	0
 1677 09ec 09       		.uleb128 0x9
 1678 09ed 04       		.byte	0x4
 1679 09ee D7090000 		.4byte	0x9d7
 1680 09f2 11       		.uleb128 0x11
 1681 09f3 01       		.byte	0x1
ARM GAS  /tmp/ccbHRHJC.s 			page 31


 1682 09f4 30000000 		.4byte	0x30
 1683 09f8 110A0000 		.4byte	0xa11
 1684 09fc 12       		.uleb128 0x12
 1685 09fd C7020000 		.4byte	0x2c7
 1686 0a01 12       		.uleb128 0x12
 1687 0a02 F4050000 		.4byte	0x5f4
 1688 0a06 12       		.uleb128 0x12
 1689 0a07 30000000 		.4byte	0x30
 1690 0a0b 12       		.uleb128 0x12
 1691 0a0c 1B010000 		.4byte	0x11b
 1692 0a10 00       		.byte	0
 1693 0a11 09       		.uleb128 0x9
 1694 0a12 04       		.byte	0x4
 1695 0a13 F2090000 		.4byte	0x9f2
 1696 0a17 11       		.uleb128 0x11
 1697 0a18 01       		.byte	0x1
 1698 0a19 30000000 		.4byte	0x30
 1699 0a1d 360A0000 		.4byte	0xa36
 1700 0a21 12       		.uleb128 0x12
 1701 0a22 C7020000 		.4byte	0x2c7
 1702 0a26 12       		.uleb128 0x12
 1703 0a27 79050000 		.4byte	0x579
 1704 0a2b 12       		.uleb128 0x12
 1705 0a2c 30000000 		.4byte	0x30
 1706 0a30 12       		.uleb128 0x12
 1707 0a31 1B010000 		.4byte	0x11b
 1708 0a35 00       		.byte	0
 1709 0a36 09       		.uleb128 0x9
 1710 0a37 04       		.byte	0x4
 1711 0a38 170A0000 		.4byte	0xa17
 1712 0a3c 03       		.uleb128 0x3
 1713 0a3d 60000000 		.4byte	.LASF115
 1714 0a41 0E       		.byte	0xe
 1715 0a42 6D       		.byte	0x6d
 1716 0a43 91000000 		.4byte	0x91
 1717 0a47 03       		.uleb128 0x3
 1718 0a48 BA070000 		.4byte	.LASF116
 1719 0a4c 0E       		.byte	0xe
 1720 0a4d 72       		.byte	0x72
 1721 0a4e 91000000 		.4byte	0x91
 1722 0a52 03       		.uleb128 0x3
 1723 0a53 EF060000 		.4byte	.LASF117
 1724 0a57 0E       		.byte	0xe
 1725 0a58 7A       		.byte	0x7a
 1726 0a59 5D0A0000 		.4byte	0xa5d
 1727 0a5d 09       		.uleb128 0x9
 1728 0a5e 04       		.byte	0x4
 1729 0a5f 3C070000 		.4byte	0x73c
 1730 0a63 17       		.uleb128 0x17
 1731 0a64 01       		.byte	0x1
 1732 0a65 0F       		.byte	0xf
 1733 0a66 53       		.byte	0x53
 1734 0a67 900A0000 		.4byte	0xa90
 1735 0a6b 18       		.uleb128 0x18
 1736 0a6c BE050000 		.4byte	.LASF118
 1737 0a70 00       		.sleb128 0
 1738 0a71 18       		.uleb128 0x18
ARM GAS  /tmp/ccbHRHJC.s 			page 32


 1739 0a72 9F030000 		.4byte	.LASF119
 1740 0a76 01       		.sleb128 1
 1741 0a77 18       		.uleb128 0x18
 1742 0a78 E5060000 		.4byte	.LASF120
 1743 0a7c 02       		.sleb128 2
 1744 0a7d 18       		.uleb128 0x18
 1745 0a7e A6010000 		.4byte	.LASF121
 1746 0a82 03       		.sleb128 3
 1747 0a83 18       		.uleb128 0x18
 1748 0a84 88060000 		.4byte	.LASF122
 1749 0a88 04       		.sleb128 4
 1750 0a89 18       		.uleb128 0x18
 1751 0a8a 38060000 		.4byte	.LASF123
 1752 0a8e 05       		.sleb128 5
 1753 0a8f 00       		.byte	0
 1754 0a90 03       		.uleb128 0x3
 1755 0a91 2C000000 		.4byte	.LASF124
 1756 0a95 0F       		.byte	0xf
 1757 0a96 5A       		.byte	0x5a
 1758 0a97 630A0000 		.4byte	0xa63
 1759 0a9b 16       		.uleb128 0x16
 1760 0a9c 59010000 		.4byte	.LASF125
 1761 0aa0 10       		.byte	0x10
 1762 0aa1 3501     		.2byte	0x135
 1763 0aa3 6D000000 		.4byte	0x6d
 1764 0aa7 16       		.uleb128 0x16
 1765 0aa8 4E050000 		.4byte	.LASF126
 1766 0aac 10       		.byte	0x10
 1767 0aad 3A01     		.2byte	0x13a
 1768 0aaf 91000000 		.4byte	0x91
 1769 0ab3 19       		.uleb128 0x19
 1770 0ab4 01       		.byte	0x1
 1771 0ab5 10       		.byte	0x10
 1772 0ab6 3F01     		.2byte	0x13f
 1773 0ab8 CF0A0000 		.4byte	0xacf
 1774 0abc 18       		.uleb128 0x18
 1775 0abd 3D040000 		.4byte	.LASF127
 1776 0ac1 01       		.sleb128 1
 1777 0ac2 18       		.uleb128 0x18
 1778 0ac3 CC020000 		.4byte	.LASF128
 1779 0ac7 02       		.sleb128 2
 1780 0ac8 18       		.uleb128 0x18
 1781 0ac9 D9010000 		.4byte	.LASF129
 1782 0acd 03       		.sleb128 3
 1783 0ace 00       		.byte	0
 1784 0acf 16       		.uleb128 0x16
 1785 0ad0 A4070000 		.4byte	.LASF130
 1786 0ad4 10       		.byte	0x10
 1787 0ad5 4301     		.2byte	0x143
 1788 0ad7 B30A0000 		.4byte	0xab3
 1789 0adb 19       		.uleb128 0x19
 1790 0adc 01       		.byte	0x1
 1791 0add 10       		.byte	0x10
 1792 0ade 4801     		.2byte	0x148
 1793 0ae0 F70A0000 		.4byte	0xaf7
 1794 0ae4 18       		.uleb128 0x18
 1795 0ae5 00000000 		.4byte	.LASF131
ARM GAS  /tmp/ccbHRHJC.s 			page 33


 1796 0ae9 01       		.sleb128 1
 1797 0aea 18       		.uleb128 0x18
 1798 0aeb 19060000 		.4byte	.LASF132
 1799 0aef 02       		.sleb128 2
 1800 0af0 18       		.uleb128 0x18
 1801 0af1 4F040000 		.4byte	.LASF133
 1802 0af5 03       		.sleb128 3
 1803 0af6 00       		.byte	0
 1804 0af7 16       		.uleb128 0x16
 1805 0af8 15000000 		.4byte	.LASF134
 1806 0afc 10       		.byte	0x10
 1807 0afd 4C01     		.2byte	0x14c
 1808 0aff DB0A0000 		.4byte	0xadb
 1809 0b03 14       		.uleb128 0x14
 1810 0b04 0C       		.byte	0xc
 1811 0b05 10       		.byte	0x10
 1812 0b06 5101     		.2byte	0x151
 1813 0b08 3A0B0000 		.4byte	0xb3a
 1814 0b0c 15       		.uleb128 0x15
 1815 0b0d 11020000 		.4byte	.LASF135
 1816 0b11 10       		.byte	0x10
 1817 0b12 5201     		.2byte	0x152
 1818 0b14 CF0A0000 		.4byte	0xacf
 1819 0b18 02       		.byte	0x2
 1820 0b19 23       		.byte	0x23
 1821 0b1a 00       		.uleb128 0
 1822 0b1b 15       		.uleb128 0x15
 1823 0b1c 07030000 		.4byte	.LASF136
 1824 0b20 10       		.byte	0x10
 1825 0b21 5301     		.2byte	0x153
 1826 0b23 91000000 		.4byte	0x91
 1827 0b27 02       		.byte	0x2
 1828 0b28 23       		.byte	0x23
 1829 0b29 04       		.uleb128 0x4
 1830 0b2a 15       		.uleb128 0x15
 1831 0b2b E6030000 		.4byte	.LASF137
 1832 0b2f 10       		.byte	0x10
 1833 0b30 5601     		.2byte	0x156
 1834 0b32 F70A0000 		.4byte	0xaf7
 1835 0b36 02       		.byte	0x2
 1836 0b37 23       		.byte	0x23
 1837 0b38 08       		.uleb128 0x8
 1838 0b39 00       		.byte	0
 1839 0b3a 16       		.uleb128 0x16
 1840 0b3b 11040000 		.4byte	.LASF138
 1841 0b3f 10       		.byte	0x10
 1842 0b40 5801     		.2byte	0x158
 1843 0b42 030B0000 		.4byte	0xb03
 1844 0b46 16       		.uleb128 0x16
 1845 0b47 FD020000 		.4byte	.LASF139
 1846 0b4b 10       		.byte	0x10
 1847 0b4c 5D01     		.2byte	0x15d
 1848 0b4e 520B0000 		.4byte	0xb52
 1849 0b52 0B       		.uleb128 0xb
 1850 0b53 FD020000 		.4byte	.LASF139
 1851 0b57 38       		.byte	0x38
 1852 0b58 10       		.byte	0x10
ARM GAS  /tmp/ccbHRHJC.s 			page 34


 1853 0b59 6201     		.2byte	0x162
 1854 0b5b 050C0000 		.4byte	0xc05
 1855 0b5f 15       		.uleb128 0x15
 1856 0b60 63010000 		.4byte	.LASF140
 1857 0b64 10       		.byte	0x10
 1858 0b65 6601     		.2byte	0x166
 1859 0b67 900A0000 		.4byte	0xa90
 1860 0b6b 02       		.byte	0x2
 1861 0b6c 23       		.byte	0x23
 1862 0b6d 00       		.uleb128 0
 1863 0b6e 15       		.uleb128 0x15
 1864 0b6f B2060000 		.4byte	.LASF141
 1865 0b73 10       		.byte	0x10
 1866 0b74 6A01     		.2byte	0x16a
 1867 0b76 050C0000 		.4byte	0xc05
 1868 0b7a 02       		.byte	0x2
 1869 0b7b 23       		.byte	0x23
 1870 0b7c 04       		.uleb128 0x4
 1871 0b7d 15       		.uleb128 0x15
 1872 0b7e DF030000 		.4byte	.LASF142
 1873 0b82 10       		.byte	0x10
 1874 0b83 6E01     		.2byte	0x16e
 1875 0b85 A70A0000 		.4byte	0xaa7
 1876 0b89 02       		.byte	0x2
 1877 0b8a 23       		.byte	0x23
 1878 0b8b 08       		.uleb128 0x8
 1879 0b8c 15       		.uleb128 0x15
 1880 0b8d 59050000 		.4byte	.LASF143
 1881 0b91 10       		.byte	0x10
 1882 0b92 7401     		.2byte	0x174
 1883 0b94 D3030000 		.4byte	0x3d3
 1884 0b98 02       		.byte	0x2
 1885 0b99 23       		.byte	0x23
 1886 0b9a 0C       		.uleb128 0xc
 1887 0b9b 15       		.uleb128 0x15
 1888 0b9c 80010000 		.4byte	.LASF144
 1889 0ba0 10       		.byte	0x10
 1890 0ba1 8001     		.2byte	0x180
 1891 0ba3 89020000 		.4byte	0x289
 1892 0ba7 02       		.byte	0x2
 1893 0ba8 23       		.byte	0x23
 1894 0ba9 1C       		.uleb128 0x1c
 1895 0baa 15       		.uleb128 0x15
 1896 0bab 84000000 		.4byte	.LASF145
 1897 0baf 10       		.byte	0x10
 1898 0bb0 8401     		.2byte	0x184
 1899 0bb2 9B0A0000 		.4byte	0xa9b
 1900 0bb6 02       		.byte	0x2
 1901 0bb7 23       		.byte	0x23
 1902 0bb8 20       		.uleb128 0x20
 1903 0bb9 15       		.uleb128 0x15
 1904 0bba BC010000 		.4byte	.LASF146
 1905 0bbe 10       		.byte	0x10
 1906 0bbf 8801     		.2byte	0x188
 1907 0bc1 91000000 		.4byte	0x91
 1908 0bc5 02       		.byte	0x2
 1909 0bc6 23       		.byte	0x23
ARM GAS  /tmp/ccbHRHJC.s 			page 35


 1910 0bc7 24       		.uleb128 0x24
 1911 0bc8 15       		.uleb128 0x15
 1912 0bc9 28040000 		.4byte	.LASF147
 1913 0bcd 10       		.byte	0x10
 1914 0bce 8C01     		.2byte	0x18c
 1915 0bd0 91000000 		.4byte	0x91
 1916 0bd4 02       		.byte	0x2
 1917 0bd5 23       		.byte	0x23
 1918 0bd6 28       		.uleb128 0x28
 1919 0bd7 15       		.uleb128 0x15
 1920 0bd8 0F000000 		.4byte	.LASF148
 1921 0bdc 10       		.byte	0x10
 1922 0bdd 9001     		.2byte	0x190
 1923 0bdf 100C0000 		.4byte	0xc10
 1924 0be3 02       		.byte	0x2
 1925 0be4 23       		.byte	0x23
 1926 0be5 2C       		.uleb128 0x2c
 1927 0be6 15       		.uleb128 0x15
 1928 0be7 D3010000 		.4byte	.LASF149
 1929 0beb 10       		.byte	0x10
 1930 0bec 9401     		.2byte	0x194
 1931 0bee 100C0000 		.4byte	0xc10
 1932 0bf2 02       		.byte	0x2
 1933 0bf3 23       		.byte	0x23
 1934 0bf4 30       		.uleb128 0x30
 1935 0bf5 0C       		.uleb128 0xc
 1936 0bf6 69326300 		.ascii	"i2c\000"
 1937 0bfa 10       		.byte	0x10
 1938 0bfb 9801     		.2byte	0x198
 1939 0bfd 1B0C0000 		.4byte	0xc1b
 1940 0c01 02       		.byte	0x2
 1941 0c02 23       		.byte	0x23
 1942 0c03 34       		.uleb128 0x34
 1943 0c04 00       		.byte	0
 1944 0c05 09       		.uleb128 0x9
 1945 0c06 04       		.byte	0x4
 1946 0c07 0B0C0000 		.4byte	0xc0b
 1947 0c0b 10       		.uleb128 0x10
 1948 0c0c 3A0B0000 		.4byte	0xb3a
 1949 0c10 09       		.uleb128 0x9
 1950 0c11 04       		.byte	0x4
 1951 0c12 160C0000 		.4byte	0xc16
 1952 0c16 10       		.uleb128 0x10
 1953 0c17 AC090000 		.4byte	0x9ac
 1954 0c1b 09       		.uleb128 0x9
 1955 0c1c 04       		.byte	0x4
 1956 0c1d 5F080000 		.4byte	0x85f
 1957 0c21 17       		.uleb128 0x17
 1958 0c22 01       		.byte	0x1
 1959 0c23 11       		.byte	0x11
 1960 0c24 5D       		.byte	0x5d
 1961 0c25 3C0C0000 		.4byte	0xc3c
 1962 0c29 18       		.uleb128 0x18
 1963 0c2a 4E060000 		.4byte	.LASF150
 1964 0c2e 00       		.sleb128 0
 1965 0c2f 18       		.uleb128 0x18
 1966 0c30 11060000 		.4byte	.LASF151
ARM GAS  /tmp/ccbHRHJC.s 			page 36


 1967 0c34 01       		.sleb128 1
 1968 0c35 18       		.uleb128 0x18
 1969 0c36 1F070000 		.4byte	.LASF152
 1970 0c3a 02       		.sleb128 2
 1971 0c3b 00       		.byte	0
 1972 0c3c 03       		.uleb128 0x3
 1973 0c3d 6B060000 		.4byte	.LASF153
 1974 0c41 11       		.byte	0x11
 1975 0c42 61       		.byte	0x61
 1976 0c43 210C0000 		.4byte	0xc21
 1977 0c47 03       		.uleb128 0x3
 1978 0c48 75060000 		.4byte	.LASF154
 1979 0c4c 11       		.byte	0x11
 1980 0c4d 66       		.byte	0x66
 1981 0c4e 520C0000 		.4byte	0xc52
 1982 0c52 05       		.uleb128 0x5
 1983 0c53 75060000 		.4byte	.LASF154
 1984 0c57 78       		.byte	0x78
 1985 0c58 11       		.byte	0x11
 1986 0c59 80       		.byte	0x80
 1987 0c5a CD0C0000 		.4byte	0xccd
 1988 0c5e 07       		.uleb128 0x7
 1989 0c5f 766D7400 		.ascii	"vmt\000"
 1990 0c63 11       		.byte	0x11
 1991 0c64 82       		.byte	0x82
 1992 0c65 960D0000 		.4byte	0xd96
 1993 0c69 02       		.byte	0x2
 1994 0c6a 23       		.byte	0x23
 1995 0c6b 00       		.uleb128 0
 1996 0c6c 06       		.uleb128 0x6
 1997 0c6d C6020000 		.4byte	.LASF155
 1998 0c71 11       		.byte	0x11
 1999 0c72 83       		.byte	0x83
 2000 0c73 4F040000 		.4byte	0x44f
 2001 0c77 02       		.byte	0x2
 2002 0c78 23       		.byte	0x23
 2003 0c79 04       		.uleb128 0x4
 2004 0c7a 06       		.uleb128 0x6
 2005 0c7b 63010000 		.4byte	.LASF140
 2006 0c7f 11       		.byte	0x11
 2007 0c80 83       		.byte	0x83
 2008 0c81 3C0C0000 		.4byte	0xc3c
 2009 0c85 02       		.byte	0x2
 2010 0c86 23       		.byte	0x23
 2011 0c87 08       		.uleb128 0x8
 2012 0c88 06       		.uleb128 0x6
 2013 0c89 87020000 		.4byte	.LASF156
 2014 0c8d 11       		.byte	0x11
 2015 0c8e 83       		.byte	0x83
 2016 0c8f 7F050000 		.4byte	0x57f
 2017 0c93 02       		.byte	0x2
 2018 0c94 23       		.byte	0x23
 2019 0c95 0C       		.uleb128 0xc
 2020 0c96 06       		.uleb128 0x6
 2021 0c97 19030000 		.4byte	.LASF157
 2022 0c9b 11       		.byte	0x11
 2023 0c9c 83       		.byte	0x83
ARM GAS  /tmp/ccbHRHJC.s 			page 37


 2024 0c9d 8A050000 		.4byte	0x58a
 2025 0ca1 02       		.byte	0x2
 2026 0ca2 23       		.byte	0x23
 2027 0ca3 30       		.uleb128 0x30
 2028 0ca4 07       		.uleb128 0x7
 2029 0ca5 696200   		.ascii	"ib\000"
 2030 0ca8 11       		.byte	0x11
 2031 0ca9 83       		.byte	0x83
 2032 0caa A10D0000 		.4byte	0xda1
 2033 0cae 02       		.byte	0x2
 2034 0caf 23       		.byte	0x23
 2035 0cb0 54       		.uleb128 0x54
 2036 0cb1 07       		.uleb128 0x7
 2037 0cb2 6F6200   		.ascii	"ob\000"
 2038 0cb5 11       		.byte	0x11
 2039 0cb6 83       		.byte	0x83
 2040 0cb7 A10D0000 		.4byte	0xda1
 2041 0cbb 02       		.byte	0x2
 2042 0cbc 23       		.byte	0x23
 2043 0cbd 64       		.uleb128 0x64
 2044 0cbe 06       		.uleb128 0x6
 2045 0cbf 41020000 		.4byte	.LASF158
 2046 0cc3 11       		.byte	0x11
 2047 0cc4 83       		.byte	0x83
 2048 0cc5 B10D0000 		.4byte	0xdb1
 2049 0cc9 02       		.byte	0x2
 2050 0cca 23       		.byte	0x23
 2051 0ccb 74       		.uleb128 0x74
 2052 0ccc 00       		.byte	0
 2053 0ccd 08       		.uleb128 0x8
 2054 0cce 0C       		.byte	0xc
 2055 0ccf 12       		.byte	0x12
 2056 0cd0 D7       		.byte	0xd7
 2057 0cd1 0E0D0000 		.4byte	0xd0e
 2058 0cd5 06       		.uleb128 0x6
 2059 0cd6 5F030000 		.4byte	.LASF159
 2060 0cda 12       		.byte	0x12
 2061 0cdb DB       		.byte	0xdb
 2062 0cdc 91000000 		.4byte	0x91
 2063 0ce0 02       		.byte	0x2
 2064 0ce1 23       		.byte	0x23
 2065 0ce2 00       		.uleb128 0
 2066 0ce3 07       		.uleb128 0x7
 2067 0ce4 63723100 		.ascii	"cr1\000"
 2068 0ce8 12       		.byte	0x12
 2069 0ce9 E0       		.byte	0xe0
 2070 0cea 6D000000 		.4byte	0x6d
 2071 0cee 02       		.byte	0x2
 2072 0cef 23       		.byte	0x23
 2073 0cf0 04       		.uleb128 0x4
 2074 0cf1 07       		.uleb128 0x7
 2075 0cf2 63723200 		.ascii	"cr2\000"
 2076 0cf6 12       		.byte	0x12
 2077 0cf7 E4       		.byte	0xe4
 2078 0cf8 6D000000 		.4byte	0x6d
 2079 0cfc 02       		.byte	0x2
 2080 0cfd 23       		.byte	0x23
ARM GAS  /tmp/ccbHRHJC.s 			page 38


 2081 0cfe 06       		.uleb128 0x6
 2082 0cff 07       		.uleb128 0x7
 2083 0d00 63723300 		.ascii	"cr3\000"
 2084 0d04 12       		.byte	0x12
 2085 0d05 E8       		.byte	0xe8
 2086 0d06 6D000000 		.4byte	0x6d
 2087 0d0a 02       		.byte	0x2
 2088 0d0b 23       		.byte	0x23
 2089 0d0c 08       		.uleb128 0x8
 2090 0d0d 00       		.byte	0
 2091 0d0e 03       		.uleb128 0x3
 2092 0d0f 6F040000 		.4byte	.LASF160
 2093 0d13 12       		.byte	0x12
 2094 0d14 E9       		.byte	0xe9
 2095 0d15 CD0C0000 		.4byte	0xccd
 2096 0d19 05       		.uleb128 0x5
 2097 0d1a 5D020000 		.4byte	.LASF161
 2098 0d1e 20       		.byte	0x20
 2099 0d1f 11       		.byte	0x11
 2100 0d20 75       		.byte	0x75
 2101 0d21 960D0000 		.4byte	0xd96
 2102 0d25 06       		.uleb128 0x6
 2103 0d26 99030000 		.4byte	.LASF84
 2104 0d2a 11       		.byte	0x11
 2105 0d2b 76       		.byte	0x76
 2106 0d2c FF050000 		.4byte	0x5ff
 2107 0d30 02       		.byte	0x2
 2108 0d31 23       		.byte	0x23
 2109 0d32 00       		.uleb128 0
 2110 0d33 06       		.uleb128 0x6
 2111 0d34 A8060000 		.4byte	.LASF85
 2112 0d38 11       		.byte	0x11
 2113 0d39 76       		.byte	0x76
 2114 0d3a 1F060000 		.4byte	0x61f
 2115 0d3e 02       		.byte	0x2
 2116 0d3f 23       		.byte	0x23
 2117 0d40 04       		.uleb128 0x4
 2118 0d41 07       		.uleb128 0x7
 2119 0d42 70757400 		.ascii	"put\000"
 2120 0d46 11       		.byte	0x11
 2121 0d47 76       		.byte	0x76
 2122 0d48 3A060000 		.4byte	0x63a
 2123 0d4c 02       		.byte	0x2
 2124 0d4d 23       		.byte	0x23
 2125 0d4e 08       		.uleb128 0x8
 2126 0d4f 07       		.uleb128 0x7
 2127 0d50 67657400 		.ascii	"get\000"
 2128 0d54 11       		.byte	0x11
 2129 0d55 76       		.byte	0x76
 2130 0d56 B8040000 		.4byte	0x4b8
 2131 0d5a 02       		.byte	0x2
 2132 0d5b 23       		.byte	0x23
 2133 0d5c 0C       		.uleb128 0xc
 2134 0d5d 06       		.uleb128 0x6
 2135 0d5e B5070000 		.4byte	.LASF162
 2136 0d62 11       		.byte	0x11
 2137 0d63 76       		.byte	0x76
ARM GAS  /tmp/ccbHRHJC.s 			page 39


 2138 0d64 D1090000 		.4byte	0x9d1
 2139 0d68 02       		.byte	0x2
 2140 0d69 23       		.byte	0x23
 2141 0d6a 10       		.uleb128 0x10
 2142 0d6b 06       		.uleb128 0x6
 2143 0d6c BA020000 		.4byte	.LASF163
 2144 0d70 11       		.byte	0x11
 2145 0d71 76       		.byte	0x76
 2146 0d72 EC090000 		.4byte	0x9ec
 2147 0d76 02       		.byte	0x2
 2148 0d77 23       		.byte	0x23
 2149 0d78 14       		.uleb128 0x14
 2150 0d79 06       		.uleb128 0x6
 2151 0d7a 2E030000 		.4byte	.LASF164
 2152 0d7e 11       		.byte	0x11
 2153 0d7f 76       		.byte	0x76
 2154 0d80 110A0000 		.4byte	0xa11
 2155 0d84 02       		.byte	0x2
 2156 0d85 23       		.byte	0x23
 2157 0d86 18       		.uleb128 0x18
 2158 0d87 06       		.uleb128 0x6
 2159 0d88 B9000000 		.4byte	.LASF165
 2160 0d8c 11       		.byte	0x11
 2161 0d8d 76       		.byte	0x76
 2162 0d8e 360A0000 		.4byte	0xa36
 2163 0d92 02       		.byte	0x2
 2164 0d93 23       		.byte	0x23
 2165 0d94 1C       		.uleb128 0x1c
 2166 0d95 00       		.byte	0
 2167 0d96 09       		.uleb128 0x9
 2168 0d97 04       		.byte	0x4
 2169 0d98 9C0D0000 		.4byte	0xd9c
 2170 0d9c 10       		.uleb128 0x10
 2171 0d9d 190D0000 		.4byte	0xd19
 2172 0da1 1A       		.uleb128 0x1a
 2173 0da2 49000000 		.4byte	0x49
 2174 0da6 B10D0000 		.4byte	0xdb1
 2175 0daa 1B       		.uleb128 0x1b
 2176 0dab 8A030000 		.4byte	0x38a
 2177 0daf 0F       		.byte	0xf
 2178 0db0 00       		.byte	0
 2179 0db1 09       		.uleb128 0x9
 2180 0db2 04       		.byte	0x4
 2181 0db3 45090000 		.4byte	0x945
 2182 0db7 1C       		.uleb128 0x1c
 2183 0db8 F3020000 		.4byte	.LASF166
 2184 0dbc 01       		.byte	0x1
 2185 0dbd 18       		.byte	0x18
 2186 0dbe 01       		.byte	0x1
 2187 0dbf FA000000 		.4byte	0xfa
 2188 0dc3 00000000 		.4byte	.LFB63
 2189 0dc7 40000000 		.4byte	.LFE63
 2190 0dcb 00000000 		.4byte	.LLST0
 2191 0dcf 01       		.byte	0x1
 2192 0dd0 0B0E0000 		.4byte	0xe0b
 2193 0dd4 1D       		.uleb128 0x1d
 2194 0dd5 41726700 		.ascii	"Arg\000"
ARM GAS  /tmp/ccbHRHJC.s 			page 40


 2195 0dd9 01       		.byte	0x1
 2196 0dda 18       		.byte	0x18
 2197 0ddb C7020000 		.4byte	0x2c7
 2198 0ddf 20000000 		.4byte	.LLST1
 2199 0de3 1E       		.uleb128 0x1e
 2200 0de4 0A000000 		.4byte	.LVL2
 2201 0de8 15110000 		.4byte	0x1115
 2202 0dec FA0D0000 		.4byte	0xdfa
 2203 0df0 1F       		.uleb128 0x1f
 2204 0df1 01       		.byte	0x1
 2205 0df2 51       		.byte	0x51
 2206 0df3 05       		.byte	0x5
 2207 0df4 03       		.byte	0x3
 2208 0df5 00000000 		.4byte	.LC0
 2209 0df9 00       		.byte	0
 2210 0dfa 20       		.uleb128 0x20
 2211 0dfb 34000000 		.4byte	.LVL3
 2212 0dff 35110000 		.4byte	0x1135
 2213 0e03 1F       		.uleb128 0x1f
 2214 0e04 01       		.byte	0x1
 2215 0e05 50       		.byte	0x50
 2216 0e06 02       		.byte	0x2
 2217 0e07 08       		.byte	0x8
 2218 0e08 FA       		.byte	0xfa
 2219 0e09 00       		.byte	0
 2220 0e0a 00       		.byte	0
 2221 0e0b 1C       		.uleb128 0x1c
 2222 0e0c 08020000 		.4byte	.LASF167
 2223 0e10 01       		.byte	0x1
 2224 0e11 29       		.byte	0x29
 2225 0e12 01       		.byte	0x1
 2226 0e13 FA000000 		.4byte	0xfa
 2227 0e17 00000000 		.4byte	.LFB64
 2228 0e1b A0000000 		.4byte	.LFE64
 2229 0e1f 41000000 		.4byte	.LLST2
 2230 0e23 01       		.byte	0x1
 2231 0e24 860F0000 		.4byte	0xf86
 2232 0e28 1D       		.uleb128 0x1d
 2233 0e29 61726700 		.ascii	"arg\000"
 2234 0e2d 01       		.byte	0x1
 2235 0e2e 29       		.byte	0x29
 2236 0e2f C7020000 		.4byte	0x2c7
 2237 0e33 6D000000 		.4byte	.LLST3
 2238 0e37 21       		.uleb128 0x21
 2239 0e38 99020000 		.4byte	.LASF168
 2240 0e3c 01       		.byte	0x1
 2241 0e3d 2B       		.byte	0x2b
 2242 0e3e 5B000000 		.4byte	0x5b
 2243 0e42 8E000000 		.4byte	.LLST4
 2244 0e46 21       		.uleb128 0x21
 2245 0e47 81020000 		.4byte	.LASF169
 2246 0e4b 01       		.byte	0x1
 2247 0e4c 2B       		.byte	0x2b
 2248 0e4d 5B000000 		.4byte	0x5b
 2249 0e51 A2000000 		.4byte	.LLST5
 2250 0e55 21       		.uleb128 0x21
 2251 0e56 A7020000 		.4byte	.LASF170
ARM GAS  /tmp/ccbHRHJC.s 			page 41


 2252 0e5a 01       		.byte	0x1
 2253 0e5b 2B       		.byte	0x2b
 2254 0e5c 5B000000 		.4byte	0x5b
 2255 0e60 B6000000 		.4byte	.LLST6
 2256 0e64 21       		.uleb128 0x21
 2257 0e65 A8030000 		.4byte	.LASF171
 2258 0e69 01       		.byte	0x1
 2259 0e6a 2C       		.byte	0x2c
 2260 0e6b 5B000000 		.4byte	0x5b
 2261 0e6f D5000000 		.4byte	.LLST7
 2262 0e73 21       		.uleb128 0x21
 2263 0e74 AF030000 		.4byte	.LASF172
 2264 0e78 01       		.byte	0x1
 2265 0e79 2C       		.byte	0x2c
 2266 0e7a 5B000000 		.4byte	0x5b
 2267 0e7e E9000000 		.4byte	.LLST8
 2268 0e82 21       		.uleb128 0x21
 2269 0e83 B6030000 		.4byte	.LASF173
 2270 0e87 01       		.byte	0x1
 2271 0e88 2C       		.byte	0x2c
 2272 0e89 5B000000 		.4byte	0x5b
 2273 0e8d FD000000 		.4byte	.LLST9
 2274 0e91 22       		.uleb128 0x22
 2275 0e92 69010000 		.4byte	.LASF174
 2276 0e96 01       		.byte	0x1
 2277 0e97 2D       		.byte	0x2d
 2278 0e98 49000000 		.4byte	0x49
 2279 0e9c 02       		.byte	0x2
 2280 0e9d 91       		.byte	0x91
 2281 0e9e 63       		.sleb128 -29
 2282 0e9f 1E       		.uleb128 0x1e
 2283 0ea0 0C000000 		.4byte	.LVL6
 2284 0ea4 4A110000 		.4byte	0x114a
 2285 0ea8 B30E0000 		.4byte	0xeb3
 2286 0eac 1F       		.uleb128 0x1f
 2287 0ead 01       		.byte	0x1
 2288 0eae 51       		.byte	0x51
 2289 0eaf 02       		.byte	0x2
 2290 0eb0 08       		.byte	0x8
 2291 0eb1 68       		.byte	0x68
 2292 0eb2 00       		.byte	0
 2293 0eb3 1E       		.uleb128 0x1e
 2294 0eb4 14000000 		.4byte	.LVL7
 2295 0eb8 69110000 		.4byte	0x1169
 2296 0ebc C60E0000 		.4byte	0xec6
 2297 0ec0 1F       		.uleb128 0x1f
 2298 0ec1 01       		.byte	0x1
 2299 0ec2 51       		.byte	0x51
 2300 0ec3 01       		.byte	0x1
 2301 0ec4 4C       		.byte	0x4c
 2302 0ec5 00       		.byte	0
 2303 0ec6 1E       		.uleb128 0x1e
 2304 0ec7 1C000000 		.4byte	.LVL8
 2305 0ecb 15110000 		.4byte	0x1115
 2306 0ecf DD0E0000 		.4byte	0xedd
 2307 0ed3 1F       		.uleb128 0x1f
 2308 0ed4 01       		.byte	0x1
ARM GAS  /tmp/ccbHRHJC.s 			page 42


 2309 0ed5 51       		.byte	0x51
 2310 0ed6 05       		.byte	0x5
 2311 0ed7 03       		.byte	0x3
 2312 0ed8 14000000 		.4byte	.LC1
 2313 0edc 00       		.byte	0
 2314 0edd 1E       		.uleb128 0x1e
 2315 0ede 32000000 		.4byte	.LVL10
 2316 0ee2 82110000 		.4byte	0x1182
 2317 0ee6 040F0000 		.4byte	0xf04
 2318 0eea 1F       		.uleb128 0x1f
 2319 0eeb 01       		.byte	0x1
 2320 0eec 53       		.byte	0x53
 2321 0eed 02       		.byte	0x2
 2322 0eee 91       		.byte	0x91
 2323 0eef 6C       		.sleb128 -20
 2324 0ef0 1F       		.uleb128 0x1f
 2325 0ef1 01       		.byte	0x1
 2326 0ef2 52       		.byte	0x52
 2327 0ef3 02       		.byte	0x2
 2328 0ef4 91       		.byte	0x91
 2329 0ef5 6A       		.sleb128 -22
 2330 0ef6 1F       		.uleb128 0x1f
 2331 0ef7 01       		.byte	0x1
 2332 0ef8 51       		.byte	0x51
 2333 0ef9 02       		.byte	0x2
 2334 0efa 08       		.byte	0x8
 2335 0efb 68       		.byte	0x68
 2336 0efc 1F       		.uleb128 0x1f
 2337 0efd 02       		.byte	0x2
 2338 0efe 7D       		.byte	0x7d
 2339 0eff 00       		.sleb128 0
 2340 0f00 02       		.byte	0x2
 2341 0f01 75       		.byte	0x75
 2342 0f02 00       		.sleb128 0
 2343 0f03 00       		.byte	0
 2344 0f04 1E       		.uleb128 0x1e
 2345 0f05 3E000000 		.4byte	.LVL11
 2346 0f09 B0110000 		.4byte	0x11b0
 2347 0f0d 1E0F0000 		.4byte	0xf1e
 2348 0f11 1F       		.uleb128 0x1f
 2349 0f12 01       		.byte	0x1
 2350 0f13 52       		.byte	0x52
 2351 0f14 02       		.byte	0x2
 2352 0f15 91       		.byte	0x91
 2353 0f16 63       		.sleb128 -29
 2354 0f17 1F       		.uleb128 0x1f
 2355 0f18 01       		.byte	0x1
 2356 0f19 51       		.byte	0x51
 2357 0f1a 02       		.byte	0x2
 2358 0f1b 08       		.byte	0x8
 2359 0f1c 68       		.byte	0x68
 2360 0f1d 00       		.byte	0
 2361 0f1e 1E       		.uleb128 0x1e
 2362 0f1f 4E000000 		.4byte	.LVL12
 2363 0f23 CE110000 		.4byte	0x11ce
 2364 0f27 440F0000 		.4byte	0xf44
 2365 0f2b 1F       		.uleb128 0x1f
ARM GAS  /tmp/ccbHRHJC.s 			page 43


 2366 0f2c 01       		.byte	0x1
 2367 0f2d 53       		.byte	0x53
 2368 0f2e 02       		.byte	0x2
 2369 0f2f 91       		.byte	0x91
 2370 0f30 66       		.sleb128 -26
 2371 0f31 1F       		.uleb128 0x1f
 2372 0f32 01       		.byte	0x1
 2373 0f33 52       		.byte	0x52
 2374 0f34 02       		.byte	0x2
 2375 0f35 91       		.byte	0x91
 2376 0f36 64       		.sleb128 -28
 2377 0f37 1F       		.uleb128 0x1f
 2378 0f38 01       		.byte	0x1
 2379 0f39 51       		.byte	0x51
 2380 0f3a 01       		.byte	0x1
 2381 0f3b 4C       		.byte	0x4c
 2382 0f3c 1F       		.uleb128 0x1f
 2383 0f3d 02       		.byte	0x2
 2384 0f3e 7D       		.byte	0x7d
 2385 0f3f 00       		.sleb128 0
 2386 0f40 02       		.byte	0x2
 2387 0f41 74       		.byte	0x74
 2388 0f42 00       		.sleb128 0
 2389 0f43 00       		.byte	0
 2390 0f44 1E       		.uleb128 0x1e
 2391 0f45 64000000 		.4byte	.LVL18
 2392 0f49 15110000 		.4byte	0x1115
 2393 0f4d 5B0F0000 		.4byte	0xf5b
 2394 0f51 1F       		.uleb128 0x1f
 2395 0f52 01       		.byte	0x1
 2396 0f53 51       		.byte	0x51
 2397 0f54 05       		.byte	0x5
 2398 0f55 03       		.byte	0x3
 2399 0f56 2C000000 		.4byte	.LC2
 2400 0f5a 00       		.byte	0
 2401 0f5b 1E       		.uleb128 0x1e
 2402 0f5c 7A000000 		.4byte	.LVL24
 2403 0f60 15110000 		.4byte	0x1115
 2404 0f64 720F0000 		.4byte	0xf72
 2405 0f68 1F       		.uleb128 0x1f
 2406 0f69 01       		.byte	0x1
 2407 0f6a 51       		.byte	0x51
 2408 0f6b 05       		.byte	0x5
 2409 0f6c 03       		.byte	0x3
 2410 0f6d 48000000 		.4byte	.LC3
 2411 0f71 00       		.byte	0
 2412 0f72 20       		.uleb128 0x20
 2413 0f73 86000000 		.4byte	.LVL25
 2414 0f77 15110000 		.4byte	0x1115
 2415 0f7b 1F       		.uleb128 0x1f
 2416 0f7c 01       		.byte	0x1
 2417 0f7d 51       		.byte	0x51
 2418 0f7e 05       		.byte	0x5
 2419 0f7f 03       		.byte	0x3
 2420 0f80 64000000 		.4byte	.LC4
 2421 0f84 00       		.byte	0
 2422 0f85 00       		.byte	0
ARM GAS  /tmp/ccbHRHJC.s 			page 44


 2423 0f86 23       		.uleb128 0x23
 2424 0f87 01       		.byte	0x1
 2425 0f88 B0070000 		.4byte	.LASF196
 2426 0f8c 01       		.byte	0x1
 2427 0f8d 45       		.byte	0x45
 2428 0f8e 01       		.byte	0x1
 2429 0f8f 29000000 		.4byte	0x29
 2430 0f93 00000000 		.4byte	.LFB65
 2431 0f97 92000000 		.4byte	.LFE65
 2432 0f9b 1C010000 		.4byte	.LLST10
 2433 0f9f 01       		.byte	0x1
 2434 0fa0 98100000 		.4byte	0x1098
 2435 0fa4 24       		.uleb128 0x24
 2436 0fa5 08000000 		.4byte	.LVL26
 2437 0fa9 F6110000 		.4byte	0x11f6
 2438 0fad 24       		.uleb128 0x24
 2439 0fae 0C000000 		.4byte	.LVL27
 2440 0fb2 00120000 		.4byte	0x1200
 2441 0fb6 1E       		.uleb128 0x1e
 2442 0fb7 1A000000 		.4byte	.LVL28
 2443 0fbb 0A120000 		.4byte	0x120a
 2444 0fbf C90F0000 		.4byte	0xfc9
 2445 0fc3 1F       		.uleb128 0x1f
 2446 0fc4 01       		.byte	0x1
 2447 0fc5 51       		.byte	0x51
 2448 0fc6 01       		.byte	0x1
 2449 0fc7 30       		.byte	0x30
 2450 0fc8 00       		.byte	0
 2451 0fc9 1E       		.uleb128 0x1e
 2452 0fca 36000000 		.4byte	.LVL29
 2453 0fce 35120000 		.4byte	0x1235
 2454 0fd2 E00F0000 		.4byte	0xfe0
 2455 0fd6 1F       		.uleb128 0x1f
 2456 0fd7 01       		.byte	0x1
 2457 0fd8 51       		.byte	0x51
 2458 0fd9 05       		.byte	0x5
 2459 0fda 03       		.byte	0x3
 2460 0fdb 00000000 		.4byte	.LANCHOR0
 2461 0fdf 00       		.byte	0
 2462 0fe0 1E       		.uleb128 0x1e
 2463 0fe1 42000000 		.4byte	.LVL30
 2464 0fe5 4E120000 		.4byte	0x124e
 2465 0fe9 00100000 		.4byte	0x1000
 2466 0fed 1F       		.uleb128 0x1f
 2467 0fee 01       		.byte	0x1
 2468 0fef 52       		.byte	0x52
 2469 0ff0 01       		.byte	0x1
 2470 0ff1 41       		.byte	0x41
 2471 0ff2 1F       		.uleb128 0x1f
 2472 0ff3 01       		.byte	0x1
 2473 0ff4 51       		.byte	0x51
 2474 0ff5 03       		.byte	0x3
 2475 0ff6 0A       		.byte	0xa
 2476 0ff7 0004     		.2byte	0x400
 2477 0ff9 1F       		.uleb128 0x1f
 2478 0ffa 01       		.byte	0x1
 2479 0ffb 50       		.byte	0x50
ARM GAS  /tmp/ccbHRHJC.s 			page 45


 2480 0ffc 02       		.byte	0x2
 2481 0ffd 74       		.byte	0x74
 2482 0ffe 00       		.sleb128 0
 2483 0fff 00       		.byte	0
 2484 1000 1E       		.uleb128 0x1e
 2485 1001 4E000000 		.4byte	.LVL31
 2486 1005 4E120000 		.4byte	0x124e
 2487 1009 20100000 		.4byte	0x1020
 2488 100d 1F       		.uleb128 0x1f
 2489 100e 01       		.byte	0x1
 2490 100f 52       		.byte	0x52
 2491 1010 01       		.byte	0x1
 2492 1011 41       		.byte	0x41
 2493 1012 1F       		.uleb128 0x1f
 2494 1013 01       		.byte	0x1
 2495 1014 51       		.byte	0x51
 2496 1015 03       		.byte	0x3
 2497 1016 0A       		.byte	0xa
 2498 1017 0008     		.2byte	0x800
 2499 1019 1F       		.uleb128 0x1f
 2500 101a 01       		.byte	0x1
 2501 101b 50       		.byte	0x50
 2502 101c 02       		.byte	0x2
 2503 101d 74       		.byte	0x74
 2504 101e 00       		.sleb128 0
 2505 101f 00       		.byte	0
 2506 1020 1E       		.uleb128 0x1e
 2507 1021 54000000 		.4byte	.LVL32
 2508 1025 35110000 		.4byte	0x1135
 2509 1029 34100000 		.4byte	0x1034
 2510 102d 1F       		.uleb128 0x1f
 2511 102e 01       		.byte	0x1
 2512 102f 50       		.byte	0x50
 2513 1030 02       		.byte	0x2
 2514 1031 08       		.byte	0x8
 2515 1032 64       		.byte	0x64
 2516 1033 00       		.byte	0
 2517 1034 1E       		.uleb128 0x1e
 2518 1035 70000000 		.4byte	.LVL33
 2519 1039 6D120000 		.4byte	0x126d
 2520 103d 67100000 		.4byte	0x1067
 2521 1041 1F       		.uleb128 0x1f
 2522 1042 01       		.byte	0x1
 2523 1043 53       		.byte	0x53
 2524 1044 05       		.byte	0x5
 2525 1045 03       		.byte	0x3
 2526 1046 00000000 		.4byte	heartBeat
 2527 104a 1F       		.uleb128 0x1f
 2528 104b 01       		.byte	0x1
 2529 104c 52       		.byte	0x52
 2530 104d 02       		.byte	0x2
 2531 104e 08       		.byte	0x8
 2532 104f 40       		.byte	0x40
 2533 1050 1F       		.uleb128 0x1f
 2534 1051 01       		.byte	0x1
 2535 1052 51       		.byte	0x51
 2536 1053 02       		.byte	0x2
ARM GAS  /tmp/ccbHRHJC.s 			page 46


 2537 1054 08       		.byte	0x8
 2538 1055 D0       		.byte	0xd0
 2539 1056 1F       		.uleb128 0x1f
 2540 1057 01       		.byte	0x1
 2541 1058 50       		.byte	0x50
 2542 1059 05       		.byte	0x5
 2543 105a 03       		.byte	0x3
 2544 105b 00000000 		.4byte	.LANCHOR1
 2545 105f 1F       		.uleb128 0x1f
 2546 1060 02       		.byte	0x2
 2547 1061 7D       		.byte	0x7d
 2548 1062 00       		.sleb128 0
 2549 1063 02       		.byte	0x2
 2550 1064 74       		.byte	0x74
 2551 1065 00       		.sleb128 0
 2552 1066 00       		.byte	0
 2553 1067 20       		.uleb128 0x20
 2554 1068 8C000000 		.4byte	.LVL34
 2555 106c 6D120000 		.4byte	0x126d
 2556 1070 1F       		.uleb128 0x1f
 2557 1071 01       		.byte	0x1
 2558 1072 53       		.byte	0x53
 2559 1073 05       		.byte	0x5
 2560 1074 03       		.byte	0x3
 2561 1075 00000000 		.4byte	gyroDemo
 2562 1079 1F       		.uleb128 0x1f
 2563 107a 01       		.byte	0x1
 2564 107b 52       		.byte	0x52
 2565 107c 02       		.byte	0x2
 2566 107d 08       		.byte	0x8
 2567 107e 40       		.byte	0x40
 2568 107f 1F       		.uleb128 0x1f
 2569 1080 01       		.byte	0x1
 2570 1081 51       		.byte	0x51
 2571 1082 03       		.byte	0x3
 2572 1083 0A       		.byte	0xa
 2573 1084 B001     		.2byte	0x1b0
 2574 1086 1F       		.uleb128 0x1f
 2575 1087 01       		.byte	0x1
 2576 1088 50       		.byte	0x50
 2577 1089 05       		.byte	0x5
 2578 108a 03       		.byte	0x3
 2579 108b 00000000 		.4byte	.LANCHOR2
 2580 108f 1F       		.uleb128 0x1f
 2581 1090 02       		.byte	0x2
 2582 1091 7D       		.byte	0x7d
 2583 1092 00       		.sleb128 0
 2584 1093 02       		.byte	0x2
 2585 1094 74       		.byte	0x74
 2586 1095 00       		.sleb128 0
 2587 1096 00       		.byte	0
 2588 1097 00       		.byte	0
 2589 1098 22       		.uleb128 0x22
 2590 1099 59070000 		.4byte	.LASF175
 2591 109d 01       		.byte	0x1
 2592 109e 10       		.byte	0x10
 2593 109f 0B0C0000 		.4byte	0xc0b
ARM GAS  /tmp/ccbHRHJC.s 			page 47


 2594 10a3 05       		.byte	0x5
 2595 10a4 03       		.byte	0x3
 2596 10a5 00000000 		.4byte	i2cCfg
 2597 10a9 1A       		.uleb128 0x1a
 2598 10aa C9020000 		.4byte	0x2c9
 2599 10ae B9100000 		.4byte	0x10b9
 2600 10b2 1B       		.uleb128 0x1b
 2601 10b3 8A030000 		.4byte	0x38a
 2602 10b7 19       		.byte	0x19
 2603 10b8 00       		.byte	0
 2604 10b9 22       		.uleb128 0x22
 2605 10ba AD020000 		.4byte	.LASF176
 2606 10be 01       		.byte	0x1
 2607 10bf 17       		.byte	0x17
 2608 10c0 A9100000 		.4byte	0x10a9
 2609 10c4 05       		.byte	0x5
 2610 10c5 03       		.byte	0x3
 2611 10c6 00000000 		.4byte	heartWrkArea
 2612 10ca 1A       		.uleb128 0x1a
 2613 10cb C9020000 		.4byte	0x2c9
 2614 10cf DA100000 		.4byte	0x10da
 2615 10d3 1B       		.uleb128 0x1b
 2616 10d4 8A030000 		.4byte	0x38a
 2617 10d8 35       		.byte	0x35
 2618 10d9 00       		.byte	0
 2619 10da 22       		.uleb128 0x22
 2620 10db F1030000 		.4byte	.LASF177
 2621 10df 01       		.byte	0x1
 2622 10e0 28       		.byte	0x28
 2623 10e1 CA100000 		.4byte	0x10ca
 2624 10e5 05       		.byte	0x5
 2625 10e6 03       		.byte	0x3
 2626 10e7 00000000 		.4byte	gyroDemoWrkArea
 2627 10eb 25       		.uleb128 0x25
 2628 10ec A5000000 		.4byte	.LASF178
 2629 10f0 13       		.byte	0x13
 2630 10f1 0706     		.2byte	0x607
 2631 10f3 72060000 		.4byte	0x672
 2632 10f7 01       		.byte	0x1
 2633 10f8 01       		.byte	0x1
 2634 10f9 25       		.uleb128 0x25
 2635 10fa 82060000 		.4byte	.LASF179
 2636 10fe 10       		.byte	0x10
 2637 10ff B201     		.2byte	0x1b2
 2638 1101 460B0000 		.4byte	0xb46
 2639 1105 01       		.byte	0x1
 2640 1106 01       		.byte	0x1
 2641 1107 26       		.uleb128 0x26
 2642 1108 53443200 		.ascii	"SD2\000"
 2643 110c 12       		.byte	0x12
 2644 110d 1201     		.2byte	0x112
 2645 110f 470C0000 		.4byte	0xc47
 2646 1113 01       		.byte	0x1
 2647 1114 01       		.byte	0x1
 2648 1115 27       		.uleb128 0x27
 2649 1116 01       		.byte	0x1
 2650 1117 DB070000 		.4byte	.LASF180
ARM GAS  /tmp/ccbHRHJC.s 			page 48


 2651 111b 14       		.byte	0x14
 2652 111c 26       		.byte	0x26
 2653 111d 01       		.byte	0x1
 2654 111e 01       		.byte	0x1
 2655 111f 2F110000 		.4byte	0x112f
 2656 1123 12       		.uleb128 0x12
 2657 1124 2F110000 		.4byte	0x112f
 2658 1128 12       		.uleb128 0x12
 2659 1129 8F040000 		.4byte	0x48f
 2660 112d 28       		.uleb128 0x28
 2661 112e 00       		.byte	0
 2662 112f 09       		.uleb128 0x9
 2663 1130 04       		.byte	0x4
 2664 1131 62060000 		.4byte	0x662
 2665 1135 29       		.uleb128 0x29
 2666 1136 01       		.byte	0x1
 2667 1137 64040000 		.4byte	.LASF181
 2668 113b 06       		.byte	0x6
 2669 113c 6E01     		.2byte	0x16e
 2670 113e 01       		.byte	0x1
 2671 113f 01       		.byte	0x1
 2672 1140 4A110000 		.4byte	0x114a
 2673 1144 12       		.uleb128 0x12
 2674 1145 1B010000 		.4byte	0x11b
 2675 1149 00       		.byte	0
 2676 114a 27       		.uleb128 0x27
 2677 114b 01       		.byte	0x1
 2678 114c 90040000 		.4byte	.LASF182
 2679 1150 15       		.byte	0x15
 2680 1151 14       		.byte	0x14
 2681 1152 01       		.byte	0x1
 2682 1153 01       		.byte	0x1
 2683 1154 63110000 		.4byte	0x1163
 2684 1158 12       		.uleb128 0x12
 2685 1159 63110000 		.4byte	0x1163
 2686 115d 12       		.uleb128 0x12
 2687 115e 49000000 		.4byte	0x49
 2688 1162 00       		.byte	0
 2689 1163 09       		.uleb128 0x9
 2690 1164 04       		.byte	0x4
 2691 1165 460B0000 		.4byte	0xb46
 2692 1169 27       		.uleb128 0x27
 2693 116a 01       		.byte	0x1
 2694 116b 74020000 		.4byte	.LASF183
 2695 116f 15       		.byte	0x15
 2696 1170 12       		.byte	0x12
 2697 1171 01       		.byte	0x1
 2698 1172 01       		.byte	0x1
 2699 1173 82110000 		.4byte	0x1182
 2700 1177 12       		.uleb128 0x12
 2701 1178 63110000 		.4byte	0x1163
 2702 117c 12       		.uleb128 0x12
 2703 117d 49000000 		.4byte	0x49
 2704 1181 00       		.byte	0
 2705 1182 27       		.uleb128 0x27
 2706 1183 01       		.byte	0x1
 2707 1184 E8000000 		.4byte	.LASF184
ARM GAS  /tmp/ccbHRHJC.s 			page 49


 2708 1188 15       		.byte	0x15
 2709 1189 15       		.byte	0x15
 2710 118a 01       		.byte	0x1
 2711 118b 01       		.byte	0x1
 2712 118c AA110000 		.4byte	0x11aa
 2713 1190 12       		.uleb128 0x12
 2714 1191 63110000 		.4byte	0x1163
 2715 1195 12       		.uleb128 0x12
 2716 1196 49000000 		.4byte	0x49
 2717 119a 12       		.uleb128 0x12
 2718 119b AA110000 		.4byte	0x11aa
 2719 119f 12       		.uleb128 0x12
 2720 11a0 AA110000 		.4byte	0x11aa
 2721 11a4 12       		.uleb128 0x12
 2722 11a5 AA110000 		.4byte	0x11aa
 2723 11a9 00       		.byte	0
 2724 11aa 09       		.uleb128 0x9
 2725 11ab 04       		.byte	0x4
 2726 11ac 5B000000 		.4byte	0x5b
 2727 11b0 27       		.uleb128 0x27
 2728 11b1 01       		.byte	0x1
 2729 11b2 A2050000 		.4byte	.LASF185
 2730 11b6 15       		.byte	0x15
 2731 11b7 16       		.byte	0x16
 2732 11b8 01       		.byte	0x1
 2733 11b9 01       		.byte	0x1
 2734 11ba CE110000 		.4byte	0x11ce
 2735 11be 12       		.uleb128 0x12
 2736 11bf 63110000 		.4byte	0x1163
 2737 11c3 12       		.uleb128 0x12
 2738 11c4 49000000 		.4byte	0x49
 2739 11c8 12       		.uleb128 0x12
 2740 11c9 79050000 		.4byte	0x579
 2741 11cd 00       		.byte	0
 2742 11ce 27       		.uleb128 0x27
 2743 11cf 01       		.byte	0x1
 2744 11d0 51070000 		.4byte	.LASF186
 2745 11d4 15       		.byte	0x15
 2746 11d5 13       		.byte	0x13
 2747 11d6 01       		.byte	0x1
 2748 11d7 01       		.byte	0x1
 2749 11d8 F6110000 		.4byte	0x11f6
 2750 11dc 12       		.uleb128 0x12
 2751 11dd 63110000 		.4byte	0x1163
 2752 11e1 12       		.uleb128 0x12
 2753 11e2 49000000 		.4byte	0x49
 2754 11e6 12       		.uleb128 0x12
 2755 11e7 AA110000 		.4byte	0x11aa
 2756 11eb 12       		.uleb128 0x12
 2757 11ec AA110000 		.4byte	0x11aa
 2758 11f0 12       		.uleb128 0x12
 2759 11f1 AA110000 		.4byte	0x11aa
 2760 11f5 00       		.byte	0
 2761 11f6 2A       		.uleb128 0x2a
 2762 11f7 01       		.byte	0x1
 2763 11f8 9F020000 		.4byte	.LASF187
 2764 11fc 16       		.byte	0x16
ARM GAS  /tmp/ccbHRHJC.s 			page 50


 2765 11fd CA       		.byte	0xca
 2766 11fe 01       		.byte	0x1
 2767 11ff 01       		.byte	0x1
 2768 1200 2A       		.uleb128 0x2a
 2769 1201 01       		.byte	0x1
 2770 1202 FE010000 		.4byte	.LASF188
 2771 1206 17       		.byte	0x17
 2772 1207 EF       		.byte	0xef
 2773 1208 01       		.byte	0x1
 2774 1209 01       		.byte	0x1
 2775 120a 29       		.uleb128 0x29
 2776 120b 01       		.byte	0x1
 2777 120c B9060000 		.4byte	.LASF189
 2778 1210 11       		.byte	0x11
 2779 1211 3001     		.2byte	0x130
 2780 1213 01       		.byte	0x1
 2781 1214 01       		.byte	0x1
 2782 1215 24120000 		.4byte	0x1224
 2783 1219 12       		.uleb128 0x12
 2784 121a 24120000 		.4byte	0x1224
 2785 121e 12       		.uleb128 0x12
 2786 121f 2A120000 		.4byte	0x122a
 2787 1223 00       		.byte	0
 2788 1224 09       		.uleb128 0x9
 2789 1225 04       		.byte	0x4
 2790 1226 470C0000 		.4byte	0xc47
 2791 122a 09       		.uleb128 0x9
 2792 122b 04       		.byte	0x4
 2793 122c 30120000 		.4byte	0x1230
 2794 1230 10       		.uleb128 0x10
 2795 1231 0E0D0000 		.4byte	0xd0e
 2796 1235 27       		.uleb128 0x27
 2797 1236 01       		.byte	0x1
 2798 1237 D0030000 		.4byte	.LASF190
 2799 123b 0F       		.byte	0xf
 2800 123c 7A       		.byte	0x7a
 2801 123d 01       		.byte	0x1
 2802 123e 01       		.byte	0x1
 2803 123f 4E120000 		.4byte	0x124e
 2804 1243 12       		.uleb128 0x12
 2805 1244 63110000 		.4byte	0x1163
 2806 1248 12       		.uleb128 0x12
 2807 1249 050C0000 		.4byte	0xc05
 2808 124d 00       		.byte	0
 2809 124e 29       		.uleb128 0x29
 2810 124f 01       		.byte	0x1
 2811 1250 02070000 		.4byte	.LASF191
 2812 1254 0E       		.byte	0xe
 2813 1255 4301     		.2byte	0x143
 2814 1257 01       		.byte	0x1
 2815 1258 01       		.byte	0x1
 2816 1259 6D120000 		.4byte	0x126d
 2817 125d 12       		.uleb128 0x12
 2818 125e 520A0000 		.4byte	0xa52
 2819 1262 12       		.uleb128 0x12
 2820 1263 3C0A0000 		.4byte	0xa3c
 2821 1267 12       		.uleb128 0x12
ARM GAS  /tmp/ccbHRHJC.s 			page 51


 2822 1268 470A0000 		.4byte	0xa47
 2823 126c 00       		.byte	0
 2824 126d 2B       		.uleb128 0x2b
 2825 126e 01       		.byte	0x1
 2826 126f 87030000 		.4byte	.LASF192
 2827 1273 06       		.byte	0x6
 2828 1274 6901     		.2byte	0x169
 2829 1276 01       		.byte	0x1
 2830 1277 89020000 		.4byte	0x289
 2831 127b 01       		.byte	0x1
 2832 127c 12       		.uleb128 0x12
 2833 127d C7020000 		.4byte	0x2c7
 2834 1281 12       		.uleb128 0x12
 2835 1282 30000000 		.4byte	0x30
 2836 1286 12       		.uleb128 0x12
 2837 1287 EF000000 		.4byte	0xef
 2838 128b 12       		.uleb128 0x12
 2839 128c AD040000 		.4byte	0x4ad
 2840 1290 12       		.uleb128 0x12
 2841 1291 C7020000 		.4byte	0x2c7
 2842 1295 00       		.byte	0
 2843 1296 00       		.byte	0
 2844              		.section	.debug_abbrev,"",%progbits
 2845              	.Ldebug_abbrev0:
 2846 0000 01       		.uleb128 0x1
 2847 0001 11       		.uleb128 0x11
 2848 0002 01       		.byte	0x1
 2849 0003 25       		.uleb128 0x25
 2850 0004 0E       		.uleb128 0xe
 2851 0005 13       		.uleb128 0x13
 2852 0006 0B       		.uleb128 0xb
 2853 0007 03       		.uleb128 0x3
 2854 0008 0E       		.uleb128 0xe
 2855 0009 1B       		.uleb128 0x1b
 2856 000a 0E       		.uleb128 0xe
 2857 000b 55       		.uleb128 0x55
 2858 000c 06       		.uleb128 0x6
 2859 000d 11       		.uleb128 0x11
 2860 000e 01       		.uleb128 0x1
 2861 000f 52       		.uleb128 0x52
 2862 0010 01       		.uleb128 0x1
 2863 0011 10       		.uleb128 0x10
 2864 0012 06       		.uleb128 0x6
 2865 0013 00       		.byte	0
 2866 0014 00       		.byte	0
 2867 0015 02       		.uleb128 0x2
 2868 0016 24       		.uleb128 0x24
 2869 0017 00       		.byte	0
 2870 0018 0B       		.uleb128 0xb
 2871 0019 0B       		.uleb128 0xb
 2872 001a 3E       		.uleb128 0x3e
 2873 001b 0B       		.uleb128 0xb
 2874 001c 03       		.uleb128 0x3
 2875 001d 08       		.uleb128 0x8
 2876 001e 00       		.byte	0
 2877 001f 00       		.byte	0
 2878 0020 03       		.uleb128 0x3
ARM GAS  /tmp/ccbHRHJC.s 			page 52


 2879 0021 16       		.uleb128 0x16
 2880 0022 00       		.byte	0
 2881 0023 03       		.uleb128 0x3
 2882 0024 0E       		.uleb128 0xe
 2883 0025 3A       		.uleb128 0x3a
 2884 0026 0B       		.uleb128 0xb
 2885 0027 3B       		.uleb128 0x3b
 2886 0028 0B       		.uleb128 0xb
 2887 0029 49       		.uleb128 0x49
 2888 002a 13       		.uleb128 0x13
 2889 002b 00       		.byte	0
 2890 002c 00       		.byte	0
 2891 002d 04       		.uleb128 0x4
 2892 002e 24       		.uleb128 0x24
 2893 002f 00       		.byte	0
 2894 0030 0B       		.uleb128 0xb
 2895 0031 0B       		.uleb128 0xb
 2896 0032 3E       		.uleb128 0x3e
 2897 0033 0B       		.uleb128 0xb
 2898 0034 03       		.uleb128 0x3
 2899 0035 0E       		.uleb128 0xe
 2900 0036 00       		.byte	0
 2901 0037 00       		.byte	0
 2902 0038 05       		.uleb128 0x5
 2903 0039 13       		.uleb128 0x13
 2904 003a 01       		.byte	0x1
 2905 003b 03       		.uleb128 0x3
 2906 003c 0E       		.uleb128 0xe
 2907 003d 0B       		.uleb128 0xb
 2908 003e 0B       		.uleb128 0xb
 2909 003f 3A       		.uleb128 0x3a
 2910 0040 0B       		.uleb128 0xb
 2911 0041 3B       		.uleb128 0x3b
 2912 0042 0B       		.uleb128 0xb
 2913 0043 01       		.uleb128 0x1
 2914 0044 13       		.uleb128 0x13
 2915 0045 00       		.byte	0
 2916 0046 00       		.byte	0
 2917 0047 06       		.uleb128 0x6
 2918 0048 0D       		.uleb128 0xd
 2919 0049 00       		.byte	0
 2920 004a 03       		.uleb128 0x3
 2921 004b 0E       		.uleb128 0xe
 2922 004c 3A       		.uleb128 0x3a
 2923 004d 0B       		.uleb128 0xb
 2924 004e 3B       		.uleb128 0x3b
 2925 004f 0B       		.uleb128 0xb
 2926 0050 49       		.uleb128 0x49
 2927 0051 13       		.uleb128 0x13
 2928 0052 38       		.uleb128 0x38
 2929 0053 0A       		.uleb128 0xa
 2930 0054 00       		.byte	0
 2931 0055 00       		.byte	0
 2932 0056 07       		.uleb128 0x7
 2933 0057 0D       		.uleb128 0xd
 2934 0058 00       		.byte	0
 2935 0059 03       		.uleb128 0x3
ARM GAS  /tmp/ccbHRHJC.s 			page 53


 2936 005a 08       		.uleb128 0x8
 2937 005b 3A       		.uleb128 0x3a
 2938 005c 0B       		.uleb128 0xb
 2939 005d 3B       		.uleb128 0x3b
 2940 005e 0B       		.uleb128 0xb
 2941 005f 49       		.uleb128 0x49
 2942 0060 13       		.uleb128 0x13
 2943 0061 38       		.uleb128 0x38
 2944 0062 0A       		.uleb128 0xa
 2945 0063 00       		.byte	0
 2946 0064 00       		.byte	0
 2947 0065 08       		.uleb128 0x8
 2948 0066 13       		.uleb128 0x13
 2949 0067 01       		.byte	0x1
 2950 0068 0B       		.uleb128 0xb
 2951 0069 0B       		.uleb128 0xb
 2952 006a 3A       		.uleb128 0x3a
 2953 006b 0B       		.uleb128 0xb
 2954 006c 3B       		.uleb128 0x3b
 2955 006d 0B       		.uleb128 0xb
 2956 006e 01       		.uleb128 0x1
 2957 006f 13       		.uleb128 0x13
 2958 0070 00       		.byte	0
 2959 0071 00       		.byte	0
 2960 0072 09       		.uleb128 0x9
 2961 0073 0F       		.uleb128 0xf
 2962 0074 00       		.byte	0
 2963 0075 0B       		.uleb128 0xb
 2964 0076 0B       		.uleb128 0xb
 2965 0077 49       		.uleb128 0x49
 2966 0078 13       		.uleb128 0x13
 2967 0079 00       		.byte	0
 2968 007a 00       		.byte	0
 2969 007b 0A       		.uleb128 0xa
 2970 007c 0F       		.uleb128 0xf
 2971 007d 00       		.byte	0
 2972 007e 0B       		.uleb128 0xb
 2973 007f 0B       		.uleb128 0xb
 2974 0080 00       		.byte	0
 2975 0081 00       		.byte	0
 2976 0082 0B       		.uleb128 0xb
 2977 0083 13       		.uleb128 0x13
 2978 0084 01       		.byte	0x1
 2979 0085 03       		.uleb128 0x3
 2980 0086 0E       		.uleb128 0xe
 2981 0087 0B       		.uleb128 0xb
 2982 0088 0B       		.uleb128 0xb
 2983 0089 3A       		.uleb128 0x3a
 2984 008a 0B       		.uleb128 0xb
 2985 008b 3B       		.uleb128 0x3b
 2986 008c 05       		.uleb128 0x5
 2987 008d 01       		.uleb128 0x1
 2988 008e 13       		.uleb128 0x13
 2989 008f 00       		.byte	0
 2990 0090 00       		.byte	0
 2991 0091 0C       		.uleb128 0xc
 2992 0092 0D       		.uleb128 0xd
ARM GAS  /tmp/ccbHRHJC.s 			page 54


 2993 0093 00       		.byte	0
 2994 0094 03       		.uleb128 0x3
 2995 0095 08       		.uleb128 0x8
 2996 0096 3A       		.uleb128 0x3a
 2997 0097 0B       		.uleb128 0xb
 2998 0098 3B       		.uleb128 0x3b
 2999 0099 05       		.uleb128 0x5
 3000 009a 49       		.uleb128 0x49
 3001 009b 13       		.uleb128 0x13
 3002 009c 38       		.uleb128 0x38
 3003 009d 0A       		.uleb128 0xa
 3004 009e 00       		.byte	0
 3005 009f 00       		.byte	0
 3006 00a0 0D       		.uleb128 0xd
 3007 00a1 35       		.uleb128 0x35
 3008 00a2 00       		.byte	0
 3009 00a3 49       		.uleb128 0x49
 3010 00a4 13       		.uleb128 0x13
 3011 00a5 00       		.byte	0
 3012 00a6 00       		.byte	0
 3013 00a7 0E       		.uleb128 0xe
 3014 00a8 17       		.uleb128 0x17
 3015 00a9 01       		.byte	0x1
 3016 00aa 0B       		.uleb128 0xb
 3017 00ab 0B       		.uleb128 0xb
 3018 00ac 3A       		.uleb128 0x3a
 3019 00ad 0B       		.uleb128 0xb
 3020 00ae 3B       		.uleb128 0x3b
 3021 00af 0B       		.uleb128 0xb
 3022 00b0 01       		.uleb128 0x1
 3023 00b1 13       		.uleb128 0x13
 3024 00b2 00       		.byte	0
 3025 00b3 00       		.byte	0
 3026 00b4 0F       		.uleb128 0xf
 3027 00b5 0D       		.uleb128 0xd
 3028 00b6 00       		.byte	0
 3029 00b7 03       		.uleb128 0x3
 3030 00b8 0E       		.uleb128 0xe
 3031 00b9 3A       		.uleb128 0x3a
 3032 00ba 0B       		.uleb128 0xb
 3033 00bb 3B       		.uleb128 0x3b
 3034 00bc 0B       		.uleb128 0xb
 3035 00bd 49       		.uleb128 0x49
 3036 00be 13       		.uleb128 0x13
 3037 00bf 00       		.byte	0
 3038 00c0 00       		.byte	0
 3039 00c1 10       		.uleb128 0x10
 3040 00c2 26       		.uleb128 0x26
 3041 00c3 00       		.byte	0
 3042 00c4 49       		.uleb128 0x49
 3043 00c5 13       		.uleb128 0x13
 3044 00c6 00       		.byte	0
 3045 00c7 00       		.byte	0
 3046 00c8 11       		.uleb128 0x11
 3047 00c9 15       		.uleb128 0x15
 3048 00ca 01       		.byte	0x1
 3049 00cb 27       		.uleb128 0x27
ARM GAS  /tmp/ccbHRHJC.s 			page 55


 3050 00cc 0C       		.uleb128 0xc
 3051 00cd 49       		.uleb128 0x49
 3052 00ce 13       		.uleb128 0x13
 3053 00cf 01       		.uleb128 0x1
 3054 00d0 13       		.uleb128 0x13
 3055 00d1 00       		.byte	0
 3056 00d2 00       		.byte	0
 3057 00d3 12       		.uleb128 0x12
 3058 00d4 05       		.uleb128 0x5
 3059 00d5 00       		.byte	0
 3060 00d6 49       		.uleb128 0x49
 3061 00d7 13       		.uleb128 0x13
 3062 00d8 00       		.byte	0
 3063 00d9 00       		.byte	0
 3064 00da 13       		.uleb128 0x13
 3065 00db 15       		.uleb128 0x15
 3066 00dc 01       		.byte	0x1
 3067 00dd 27       		.uleb128 0x27
 3068 00de 0C       		.uleb128 0xc
 3069 00df 01       		.uleb128 0x1
 3070 00e0 13       		.uleb128 0x13
 3071 00e1 00       		.byte	0
 3072 00e2 00       		.byte	0
 3073 00e3 14       		.uleb128 0x14
 3074 00e4 13       		.uleb128 0x13
 3075 00e5 01       		.byte	0x1
 3076 00e6 0B       		.uleb128 0xb
 3077 00e7 0B       		.uleb128 0xb
 3078 00e8 3A       		.uleb128 0x3a
 3079 00e9 0B       		.uleb128 0xb
 3080 00ea 3B       		.uleb128 0x3b
 3081 00eb 05       		.uleb128 0x5
 3082 00ec 01       		.uleb128 0x1
 3083 00ed 13       		.uleb128 0x13
 3084 00ee 00       		.byte	0
 3085 00ef 00       		.byte	0
 3086 00f0 15       		.uleb128 0x15
 3087 00f1 0D       		.uleb128 0xd
 3088 00f2 00       		.byte	0
 3089 00f3 03       		.uleb128 0x3
 3090 00f4 0E       		.uleb128 0xe
 3091 00f5 3A       		.uleb128 0x3a
 3092 00f6 0B       		.uleb128 0xb
 3093 00f7 3B       		.uleb128 0x3b
 3094 00f8 05       		.uleb128 0x5
 3095 00f9 49       		.uleb128 0x49
 3096 00fa 13       		.uleb128 0x13
 3097 00fb 38       		.uleb128 0x38
 3098 00fc 0A       		.uleb128 0xa
 3099 00fd 00       		.byte	0
 3100 00fe 00       		.byte	0
 3101 00ff 16       		.uleb128 0x16
 3102 0100 16       		.uleb128 0x16
 3103 0101 00       		.byte	0
 3104 0102 03       		.uleb128 0x3
 3105 0103 0E       		.uleb128 0xe
 3106 0104 3A       		.uleb128 0x3a
ARM GAS  /tmp/ccbHRHJC.s 			page 56


 3107 0105 0B       		.uleb128 0xb
 3108 0106 3B       		.uleb128 0x3b
 3109 0107 05       		.uleb128 0x5
 3110 0108 49       		.uleb128 0x49
 3111 0109 13       		.uleb128 0x13
 3112 010a 00       		.byte	0
 3113 010b 00       		.byte	0
 3114 010c 17       		.uleb128 0x17
 3115 010d 04       		.uleb128 0x4
 3116 010e 01       		.byte	0x1
 3117 010f 0B       		.uleb128 0xb
 3118 0110 0B       		.uleb128 0xb
 3119 0111 3A       		.uleb128 0x3a
 3120 0112 0B       		.uleb128 0xb
 3121 0113 3B       		.uleb128 0x3b
 3122 0114 0B       		.uleb128 0xb
 3123 0115 01       		.uleb128 0x1
 3124 0116 13       		.uleb128 0x13
 3125 0117 00       		.byte	0
 3126 0118 00       		.byte	0
 3127 0119 18       		.uleb128 0x18
 3128 011a 28       		.uleb128 0x28
 3129 011b 00       		.byte	0
 3130 011c 03       		.uleb128 0x3
 3131 011d 0E       		.uleb128 0xe
 3132 011e 1C       		.uleb128 0x1c
 3133 011f 0D       		.uleb128 0xd
 3134 0120 00       		.byte	0
 3135 0121 00       		.byte	0
 3136 0122 19       		.uleb128 0x19
 3137 0123 04       		.uleb128 0x4
 3138 0124 01       		.byte	0x1
 3139 0125 0B       		.uleb128 0xb
 3140 0126 0B       		.uleb128 0xb
 3141 0127 3A       		.uleb128 0x3a
 3142 0128 0B       		.uleb128 0xb
 3143 0129 3B       		.uleb128 0x3b
 3144 012a 05       		.uleb128 0x5
 3145 012b 01       		.uleb128 0x1
 3146 012c 13       		.uleb128 0x13
 3147 012d 00       		.byte	0
 3148 012e 00       		.byte	0
 3149 012f 1A       		.uleb128 0x1a
 3150 0130 01       		.uleb128 0x1
 3151 0131 01       		.byte	0x1
 3152 0132 49       		.uleb128 0x49
 3153 0133 13       		.uleb128 0x13
 3154 0134 01       		.uleb128 0x1
 3155 0135 13       		.uleb128 0x13
 3156 0136 00       		.byte	0
 3157 0137 00       		.byte	0
 3158 0138 1B       		.uleb128 0x1b
 3159 0139 21       		.uleb128 0x21
 3160 013a 00       		.byte	0
 3161 013b 49       		.uleb128 0x49
 3162 013c 13       		.uleb128 0x13
 3163 013d 2F       		.uleb128 0x2f
ARM GAS  /tmp/ccbHRHJC.s 			page 57


 3164 013e 0B       		.uleb128 0xb
 3165 013f 00       		.byte	0
 3166 0140 00       		.byte	0
 3167 0141 1C       		.uleb128 0x1c
 3168 0142 2E       		.uleb128 0x2e
 3169 0143 01       		.byte	0x1
 3170 0144 03       		.uleb128 0x3
 3171 0145 0E       		.uleb128 0xe
 3172 0146 3A       		.uleb128 0x3a
 3173 0147 0B       		.uleb128 0xb
 3174 0148 3B       		.uleb128 0x3b
 3175 0149 0B       		.uleb128 0xb
 3176 014a 27       		.uleb128 0x27
 3177 014b 0C       		.uleb128 0xc
 3178 014c 49       		.uleb128 0x49
 3179 014d 13       		.uleb128 0x13
 3180 014e 11       		.uleb128 0x11
 3181 014f 01       		.uleb128 0x1
 3182 0150 12       		.uleb128 0x12
 3183 0151 01       		.uleb128 0x1
 3184 0152 40       		.uleb128 0x40
 3185 0153 06       		.uleb128 0x6
 3186 0154 9742     		.uleb128 0x2117
 3187 0156 0C       		.uleb128 0xc
 3188 0157 01       		.uleb128 0x1
 3189 0158 13       		.uleb128 0x13
 3190 0159 00       		.byte	0
 3191 015a 00       		.byte	0
 3192 015b 1D       		.uleb128 0x1d
 3193 015c 05       		.uleb128 0x5
 3194 015d 00       		.byte	0
 3195 015e 03       		.uleb128 0x3
 3196 015f 08       		.uleb128 0x8
 3197 0160 3A       		.uleb128 0x3a
 3198 0161 0B       		.uleb128 0xb
 3199 0162 3B       		.uleb128 0x3b
 3200 0163 0B       		.uleb128 0xb
 3201 0164 49       		.uleb128 0x49
 3202 0165 13       		.uleb128 0x13
 3203 0166 02       		.uleb128 0x2
 3204 0167 06       		.uleb128 0x6
 3205 0168 00       		.byte	0
 3206 0169 00       		.byte	0
 3207 016a 1E       		.uleb128 0x1e
 3208 016b 898201   		.uleb128 0x4109
 3209 016e 01       		.byte	0x1
 3210 016f 11       		.uleb128 0x11
 3211 0170 01       		.uleb128 0x1
 3212 0171 31       		.uleb128 0x31
 3213 0172 13       		.uleb128 0x13
 3214 0173 01       		.uleb128 0x1
 3215 0174 13       		.uleb128 0x13
 3216 0175 00       		.byte	0
 3217 0176 00       		.byte	0
 3218 0177 1F       		.uleb128 0x1f
 3219 0178 8A8201   		.uleb128 0x410a
 3220 017b 00       		.byte	0
ARM GAS  /tmp/ccbHRHJC.s 			page 58


 3221 017c 02       		.uleb128 0x2
 3222 017d 0A       		.uleb128 0xa
 3223 017e 9142     		.uleb128 0x2111
 3224 0180 0A       		.uleb128 0xa
 3225 0181 00       		.byte	0
 3226 0182 00       		.byte	0
 3227 0183 20       		.uleb128 0x20
 3228 0184 898201   		.uleb128 0x4109
 3229 0187 01       		.byte	0x1
 3230 0188 11       		.uleb128 0x11
 3231 0189 01       		.uleb128 0x1
 3232 018a 31       		.uleb128 0x31
 3233 018b 13       		.uleb128 0x13
 3234 018c 00       		.byte	0
 3235 018d 00       		.byte	0
 3236 018e 21       		.uleb128 0x21
 3237 018f 34       		.uleb128 0x34
 3238 0190 00       		.byte	0
 3239 0191 03       		.uleb128 0x3
 3240 0192 0E       		.uleb128 0xe
 3241 0193 3A       		.uleb128 0x3a
 3242 0194 0B       		.uleb128 0xb
 3243 0195 3B       		.uleb128 0x3b
 3244 0196 0B       		.uleb128 0xb
 3245 0197 49       		.uleb128 0x49
 3246 0198 13       		.uleb128 0x13
 3247 0199 02       		.uleb128 0x2
 3248 019a 06       		.uleb128 0x6
 3249 019b 00       		.byte	0
 3250 019c 00       		.byte	0
 3251 019d 22       		.uleb128 0x22
 3252 019e 34       		.uleb128 0x34
 3253 019f 00       		.byte	0
 3254 01a0 03       		.uleb128 0x3
 3255 01a1 0E       		.uleb128 0xe
 3256 01a2 3A       		.uleb128 0x3a
 3257 01a3 0B       		.uleb128 0xb
 3258 01a4 3B       		.uleb128 0x3b
 3259 01a5 0B       		.uleb128 0xb
 3260 01a6 49       		.uleb128 0x49
 3261 01a7 13       		.uleb128 0x13
 3262 01a8 02       		.uleb128 0x2
 3263 01a9 0A       		.uleb128 0xa
 3264 01aa 00       		.byte	0
 3265 01ab 00       		.byte	0
 3266 01ac 23       		.uleb128 0x23
 3267 01ad 2E       		.uleb128 0x2e
 3268 01ae 01       		.byte	0x1
 3269 01af 3F       		.uleb128 0x3f
 3270 01b0 0C       		.uleb128 0xc
 3271 01b1 03       		.uleb128 0x3
 3272 01b2 0E       		.uleb128 0xe
 3273 01b3 3A       		.uleb128 0x3a
 3274 01b4 0B       		.uleb128 0xb
 3275 01b5 3B       		.uleb128 0x3b
 3276 01b6 0B       		.uleb128 0xb
 3277 01b7 27       		.uleb128 0x27
ARM GAS  /tmp/ccbHRHJC.s 			page 59


 3278 01b8 0C       		.uleb128 0xc
 3279 01b9 49       		.uleb128 0x49
 3280 01ba 13       		.uleb128 0x13
 3281 01bb 11       		.uleb128 0x11
 3282 01bc 01       		.uleb128 0x1
 3283 01bd 12       		.uleb128 0x12
 3284 01be 01       		.uleb128 0x1
 3285 01bf 40       		.uleb128 0x40
 3286 01c0 06       		.uleb128 0x6
 3287 01c1 9742     		.uleb128 0x2117
 3288 01c3 0C       		.uleb128 0xc
 3289 01c4 01       		.uleb128 0x1
 3290 01c5 13       		.uleb128 0x13
 3291 01c6 00       		.byte	0
 3292 01c7 00       		.byte	0
 3293 01c8 24       		.uleb128 0x24
 3294 01c9 898201   		.uleb128 0x4109
 3295 01cc 00       		.byte	0
 3296 01cd 11       		.uleb128 0x11
 3297 01ce 01       		.uleb128 0x1
 3298 01cf 31       		.uleb128 0x31
 3299 01d0 13       		.uleb128 0x13
 3300 01d1 00       		.byte	0
 3301 01d2 00       		.byte	0
 3302 01d3 25       		.uleb128 0x25
 3303 01d4 34       		.uleb128 0x34
 3304 01d5 00       		.byte	0
 3305 01d6 03       		.uleb128 0x3
 3306 01d7 0E       		.uleb128 0xe
 3307 01d8 3A       		.uleb128 0x3a
 3308 01d9 0B       		.uleb128 0xb
 3309 01da 3B       		.uleb128 0x3b
 3310 01db 05       		.uleb128 0x5
 3311 01dc 49       		.uleb128 0x49
 3312 01dd 13       		.uleb128 0x13
 3313 01de 3F       		.uleb128 0x3f
 3314 01df 0C       		.uleb128 0xc
 3315 01e0 3C       		.uleb128 0x3c
 3316 01e1 0C       		.uleb128 0xc
 3317 01e2 00       		.byte	0
 3318 01e3 00       		.byte	0
 3319 01e4 26       		.uleb128 0x26
 3320 01e5 34       		.uleb128 0x34
 3321 01e6 00       		.byte	0
 3322 01e7 03       		.uleb128 0x3
 3323 01e8 08       		.uleb128 0x8
 3324 01e9 3A       		.uleb128 0x3a
 3325 01ea 0B       		.uleb128 0xb
 3326 01eb 3B       		.uleb128 0x3b
 3327 01ec 05       		.uleb128 0x5
 3328 01ed 49       		.uleb128 0x49
 3329 01ee 13       		.uleb128 0x13
 3330 01ef 3F       		.uleb128 0x3f
 3331 01f0 0C       		.uleb128 0xc
 3332 01f1 3C       		.uleb128 0x3c
 3333 01f2 0C       		.uleb128 0xc
 3334 01f3 00       		.byte	0
ARM GAS  /tmp/ccbHRHJC.s 			page 60


 3335 01f4 00       		.byte	0
 3336 01f5 27       		.uleb128 0x27
 3337 01f6 2E       		.uleb128 0x2e
 3338 01f7 01       		.byte	0x1
 3339 01f8 3F       		.uleb128 0x3f
 3340 01f9 0C       		.uleb128 0xc
 3341 01fa 03       		.uleb128 0x3
 3342 01fb 0E       		.uleb128 0xe
 3343 01fc 3A       		.uleb128 0x3a
 3344 01fd 0B       		.uleb128 0xb
 3345 01fe 3B       		.uleb128 0x3b
 3346 01ff 0B       		.uleb128 0xb
 3347 0200 27       		.uleb128 0x27
 3348 0201 0C       		.uleb128 0xc
 3349 0202 3C       		.uleb128 0x3c
 3350 0203 0C       		.uleb128 0xc
 3351 0204 01       		.uleb128 0x1
 3352 0205 13       		.uleb128 0x13
 3353 0206 00       		.byte	0
 3354 0207 00       		.byte	0
 3355 0208 28       		.uleb128 0x28
 3356 0209 18       		.uleb128 0x18
 3357 020a 00       		.byte	0
 3358 020b 00       		.byte	0
 3359 020c 00       		.byte	0
 3360 020d 29       		.uleb128 0x29
 3361 020e 2E       		.uleb128 0x2e
 3362 020f 01       		.byte	0x1
 3363 0210 3F       		.uleb128 0x3f
 3364 0211 0C       		.uleb128 0xc
 3365 0212 03       		.uleb128 0x3
 3366 0213 0E       		.uleb128 0xe
 3367 0214 3A       		.uleb128 0x3a
 3368 0215 0B       		.uleb128 0xb
 3369 0216 3B       		.uleb128 0x3b
 3370 0217 05       		.uleb128 0x5
 3371 0218 27       		.uleb128 0x27
 3372 0219 0C       		.uleb128 0xc
 3373 021a 3C       		.uleb128 0x3c
 3374 021b 0C       		.uleb128 0xc
 3375 021c 01       		.uleb128 0x1
 3376 021d 13       		.uleb128 0x13
 3377 021e 00       		.byte	0
 3378 021f 00       		.byte	0
 3379 0220 2A       		.uleb128 0x2a
 3380 0221 2E       		.uleb128 0x2e
 3381 0222 00       		.byte	0
 3382 0223 3F       		.uleb128 0x3f
 3383 0224 0C       		.uleb128 0xc
 3384 0225 03       		.uleb128 0x3
 3385 0226 0E       		.uleb128 0xe
 3386 0227 3A       		.uleb128 0x3a
 3387 0228 0B       		.uleb128 0xb
 3388 0229 3B       		.uleb128 0x3b
 3389 022a 0B       		.uleb128 0xb
 3390 022b 27       		.uleb128 0x27
 3391 022c 0C       		.uleb128 0xc
ARM GAS  /tmp/ccbHRHJC.s 			page 61


 3392 022d 3C       		.uleb128 0x3c
 3393 022e 0C       		.uleb128 0xc
 3394 022f 00       		.byte	0
 3395 0230 00       		.byte	0
 3396 0231 2B       		.uleb128 0x2b
 3397 0232 2E       		.uleb128 0x2e
 3398 0233 01       		.byte	0x1
 3399 0234 3F       		.uleb128 0x3f
 3400 0235 0C       		.uleb128 0xc
 3401 0236 03       		.uleb128 0x3
 3402 0237 0E       		.uleb128 0xe
 3403 0238 3A       		.uleb128 0x3a
 3404 0239 0B       		.uleb128 0xb
 3405 023a 3B       		.uleb128 0x3b
 3406 023b 05       		.uleb128 0x5
 3407 023c 27       		.uleb128 0x27
 3408 023d 0C       		.uleb128 0xc
 3409 023e 49       		.uleb128 0x49
 3410 023f 13       		.uleb128 0x13
 3411 0240 3C       		.uleb128 0x3c
 3412 0241 0C       		.uleb128 0xc
 3413 0242 00       		.byte	0
 3414 0243 00       		.byte	0
 3415 0244 00       		.byte	0
 3416              		.section	.debug_loc,"",%progbits
 3417              	.Ldebug_loc0:
 3418              	.LLST0:
 3419 0000 00000000 		.4byte	.LFB63
 3420 0004 02000000 		.4byte	.LCFI0
 3421 0008 0200     		.2byte	0x2
 3422 000a 7D       		.byte	0x7d
 3423 000b 00       		.sleb128 0
 3424 000c 02000000 		.4byte	.LCFI0
 3425 0010 40000000 		.4byte	.LFE63
 3426 0014 0200     		.2byte	0x2
 3427 0016 7D       		.byte	0x7d
 3428 0017 08       		.sleb128 8
 3429 0018 00000000 		.4byte	0
 3430 001c 00000000 		.4byte	0
 3431              	.LLST1:
 3432 0020 00000000 		.4byte	.LVL0
 3433 0024 04000000 		.4byte	.LVL1
 3434 0028 0100     		.2byte	0x1
 3435 002a 50       		.byte	0x50
 3436 002b 04000000 		.4byte	.LVL1
 3437 002f 40000000 		.4byte	.LFE63
 3438 0033 0400     		.2byte	0x4
 3439 0035 F3       		.byte	0xf3
 3440 0036 01       		.uleb128 0x1
 3441 0037 50       		.byte	0x50
 3442 0038 9F       		.byte	0x9f
 3443 0039 00000000 		.4byte	0
 3444 003d 00000000 		.4byte	0
 3445              	.LLST2:
 3446 0041 00000000 		.4byte	.LFB64
 3447 0045 02000000 		.4byte	.LCFI1
 3448 0049 0200     		.2byte	0x2
ARM GAS  /tmp/ccbHRHJC.s 			page 62


 3449 004b 7D       		.byte	0x7d
 3450 004c 00       		.sleb128 0
 3451 004d 02000000 		.4byte	.LCFI1
 3452 0051 06000000 		.4byte	.LCFI2
 3453 0055 0200     		.2byte	0x2
 3454 0057 7D       		.byte	0x7d
 3455 0058 0C       		.sleb128 12
 3456 0059 06000000 		.4byte	.LCFI2
 3457 005d A0000000 		.4byte	.LFE64
 3458 0061 0200     		.2byte	0x2
 3459 0063 7D       		.byte	0x7d
 3460 0064 28       		.sleb128 40
 3461 0065 00000000 		.4byte	0
 3462 0069 00000000 		.4byte	0
 3463              	.LLST3:
 3464 006d 00000000 		.4byte	.LVL4
 3465 0071 04000000 		.4byte	.LVL5
 3466 0075 0100     		.2byte	0x1
 3467 0077 50       		.byte	0x50
 3468 0078 04000000 		.4byte	.LVL5
 3469 007c A0000000 		.4byte	.LFE64
 3470 0080 0400     		.2byte	0x4
 3471 0082 F3       		.byte	0xf3
 3472 0083 01       		.uleb128 0x1
 3473 0084 50       		.byte	0x50
 3474 0085 9F       		.byte	0x9f
 3475 0086 00000000 		.4byte	0
 3476 008a 00000000 		.4byte	0
 3477              	.LLST4:
 3478 008e 68000000 		.4byte	.LVL19
 3479 0092 6C000000 		.4byte	.LVL20
 3480 0096 0200     		.2byte	0x2
 3481 0098 91       		.byte	0x91
 3482 0099 64       		.sleb128 -28
 3483 009a 00000000 		.4byte	0
 3484 009e 00000000 		.4byte	0
 3485              	.LLST5:
 3486 00a2 6E000000 		.4byte	.LVL21
 3487 00a6 72000000 		.4byte	.LVL22
 3488 00aa 0200     		.2byte	0x2
 3489 00ac 91       		.byte	0x91
 3490 00ad 66       		.sleb128 -26
 3491 00ae 00000000 		.4byte	0
 3492 00b2 00000000 		.4byte	0
 3493              	.LLST6:
 3494 00b6 64000000 		.4byte	.LVL18
 3495 00ba 68000000 		.4byte	.LVL19
 3496 00be 0200     		.2byte	0x2
 3497 00c0 91       		.byte	0x91
 3498 00c1 68       		.sleb128 -24
 3499 00c2 6E000000 		.4byte	.LVL21
 3500 00c6 74000000 		.4byte	.LVL23
 3501 00ca 0100     		.2byte	0x1
 3502 00cc 50       		.byte	0x50
 3503 00cd 00000000 		.4byte	0
 3504 00d1 00000000 		.4byte	0
 3505              	.LLST7:
ARM GAS  /tmp/ccbHRHJC.s 			page 63


 3506 00d5 52000000 		.4byte	.LVL13
 3507 00d9 56000000 		.4byte	.LVL14
 3508 00dd 0200     		.2byte	0x2
 3509 00df 91       		.byte	0x91
 3510 00e0 6A       		.sleb128 -22
 3511 00e1 00000000 		.4byte	0
 3512 00e5 00000000 		.4byte	0
 3513              	.LLST8:
 3514 00e9 56000000 		.4byte	.LVL14
 3515 00ed 5A000000 		.4byte	.LVL15
 3516 00f1 0200     		.2byte	0x2
 3517 00f3 91       		.byte	0x91
 3518 00f4 6C       		.sleb128 -20
 3519 00f5 00000000 		.4byte	0
 3520 00f9 00000000 		.4byte	0
 3521              	.LLST9:
 3522 00fd 4E000000 		.4byte	.LVL12
 3523 0101 52000000 		.4byte	.LVL13
 3524 0105 0200     		.2byte	0x2
 3525 0107 91       		.byte	0x91
 3526 0108 6E       		.sleb128 -18
 3527 0109 5C000000 		.4byte	.LVL16
 3528 010d 60000000 		.4byte	.LVL17
 3529 0111 0100     		.2byte	0x1
 3530 0113 51       		.byte	0x51
 3531 0114 00000000 		.4byte	0
 3532 0118 00000000 		.4byte	0
 3533              	.LLST10:
 3534 011c 00000000 		.4byte	.LFB65
 3535 0120 02000000 		.4byte	.LCFI3
 3536 0124 0200     		.2byte	0x2
 3537 0126 7D       		.byte	0x7d
 3538 0127 00       		.sleb128 0
 3539 0128 02000000 		.4byte	.LCFI3
 3540 012c 04000000 		.4byte	.LCFI4
 3541 0130 0200     		.2byte	0x2
 3542 0132 7D       		.byte	0x7d
 3543 0133 08       		.sleb128 8
 3544 0134 04000000 		.4byte	.LCFI4
 3545 0138 92000000 		.4byte	.LFE65
 3546 013c 0200     		.2byte	0x2
 3547 013e 7D       		.byte	0x7d
 3548 013f 10       		.sleb128 16
 3549 0140 00000000 		.4byte	0
 3550 0144 00000000 		.4byte	0
 3551              		.section	.debug_aranges,"",%progbits
 3552 0000 2C000000 		.4byte	0x2c
 3553 0004 0200     		.2byte	0x2
 3554 0006 00000000 		.4byte	.Ldebug_info0
 3555 000a 04       		.byte	0x4
 3556 000b 00       		.byte	0
 3557 000c 0000     		.2byte	0
 3558 000e 0000     		.2byte	0
 3559 0010 00000000 		.4byte	.LFB63
 3560 0014 40000000 		.4byte	.LFE63-.LFB63
 3561 0018 00000000 		.4byte	.LFB64
 3562 001c A0000000 		.4byte	.LFE64-.LFB64
ARM GAS  /tmp/ccbHRHJC.s 			page 64


 3563 0020 00000000 		.4byte	.LFB65
 3564 0024 92000000 		.4byte	.LFE65-.LFB65
 3565 0028 00000000 		.4byte	0
 3566 002c 00000000 		.4byte	0
 3567              		.section	.debug_ranges,"",%progbits
 3568              	.Ldebug_ranges0:
 3569 0000 00000000 		.4byte	.LFB63
 3570 0004 40000000 		.4byte	.LFE63
 3571 0008 00000000 		.4byte	.LFB64
 3572 000c A0000000 		.4byte	.LFE64
 3573 0010 00000000 		.4byte	.LFB65
 3574 0014 92000000 		.4byte	.LFE65
 3575 0018 00000000 		.4byte	0
 3576 001c 00000000 		.4byte	0
 3577              		.section	.debug_line,"",%progbits
 3578              	.Ldebug_line0:
 3579 0000 4C030000 		.section	.debug_str,"MS",%progbits,1
 3579      0200C702 
 3579      00000201 
 3579      FB0E0D00 
 3579      01010101 
 3580              	.LASF131:
 3581 0000 5354445F 		.ascii	"STD_DUTY_CYCLE\000"
 3581      44555459 
 3581      5F435943 
 3581      4C4500
 3582              	.LASF148:
 3583 000f 646D6172 		.ascii	"dmarx\000"
 3583      7800
 3584              	.LASF134:
 3585 0015 69326364 		.ascii	"i2cdutycycle_t\000"
 3585      75747963 
 3585      79636C65 
 3585      5F7400
 3586              	.LASF19:
 3587 0024 74726566 		.ascii	"trefs_t\000"
 3587      735F7400 
 3588              	.LASF124:
 3589 002c 69326373 		.ascii	"i2cstate_t\000"
 3589      74617465 
 3589      5F7400
 3590              	.LASF2:
 3591 0037 73697A65 		.ascii	"size_t\000"
 3591      5F7400
 3592              	.LASF65:
 3593 003e 7264796D 		.ascii	"rdymsg\000"
 3593      736700
 3594              	.LASF14:
 3595 0045 75696E74 		.ascii	"uint64_t\000"
 3595      36345F74 
 3595      00
 3596              	.LASF82:
 3597 004e 4F757470 		.ascii	"OutputQueue\000"
 3597      75745175 
 3597      65756500 
 3598              	.LASF104:
 3599 005a 54524953 		.ascii	"TRISE\000"
ARM GAS  /tmp/ccbHRHJC.s 			page 65


 3599      4500
 3600              	.LASF115:
 3601 0060 696F706F 		.ascii	"ioportmask_t\000"
 3601      72746D61 
 3601      736B5F74 
 3601      00
 3602              	.LASF15:
 3603 006d 6C6F6E67 		.ascii	"long long unsigned int\000"
 3603      206C6F6E 
 3603      6720756E 
 3603      7369676E 
 3603      65642069 
 3604              	.LASF145:
 3605 0084 61646472 		.ascii	"addr\000"
 3605      00
 3606              	.LASF24:
 3607 0089 666C6167 		.ascii	"flagsmask_t\000"
 3607      736D6173 
 3607      6B5F7400 
 3608              	.LASF66:
 3609 0095 65786974 		.ascii	"exitcode\000"
 3609      636F6465 
 3609      00
 3610              	.LASF113:
 3611 009e 76656374 		.ascii	"vector\000"
 3611      6F7200
 3612              	.LASF178:
 3613 00a5 49544D5F 		.ascii	"ITM_RxBuffer\000"
 3613      52784275 
 3613      66666572 
 3613      00
 3614              	.LASF29:
 3615 00b2 705F7072 		.ascii	"p_prio\000"
 3615      696F00
 3616              	.LASF165:
 3617 00b9 72656164 		.ascii	"readt\000"
 3617      7400
 3618              	.LASF72:
 3619 00bf 715F7761 		.ascii	"q_waiting\000"
 3619      6974696E 
 3619      6700
 3620              	.LASF13:
 3621 00c9 6C6F6E67 		.ascii	"long long int\000"
 3621      206C6F6E 
 3621      6720696E 
 3621      7400
 3622              	.LASF1:
 3623 00d7 7369676E 		.ascii	"signed char\000"
 3623      65642063 
 3623      68617200 
 3624              	.LASF91:
 3625 00e3 42535252 		.ascii	"BSRR\000"
 3625      00
 3626              	.LASF184:
 3627 00e8 6779726F 		.ascii	"gyroRead\000"
 3627      52656164 
 3627      00
ARM GAS  /tmp/ccbHRHJC.s 			page 66


 3628              	.LASF107:
 3629 00f1 47545052 		.ascii	"GTPR\000"
 3629      00
 3630              	.LASF46:
 3631 00f6 705F6D70 		.ascii	"p_mpool\000"
 3631      6F6F6C00 
 3632              	.LASF55:
 3633 00fe 6D5F7175 		.ascii	"m_queue\000"
 3633      65756500 
 3634              	.LASF20:
 3635 0106 74736C69 		.ascii	"tslices_t\000"
 3635      6365735F 
 3635      7400
 3636              	.LASF193:
 3637 0110 474E5520 		.ascii	"GNU C 4.7.4 20130913 (release) [ARM/embedded-4_7-br"
 3637      4320342E 
 3637      372E3420 
 3637      32303133 
 3637      30393133 
 3638 0143 616E6368 		.ascii	"anch revision 202601]\000"
 3638      20726576 
 3638      6973696F 
 3638      6E203230 
 3638      32363031 
 3639              	.LASF125:
 3640 0159 69326361 		.ascii	"i2caddr_t\000"
 3640      6464725F 
 3640      7400
 3641              	.LASF140:
 3642 0163 73746174 		.ascii	"state\000"
 3642      6500
 3643              	.LASF174:
 3644 0169 74656D70 		.ascii	"temp\000"
 3644      00
 3645              	.LASF10:
 3646 016e 6C6F6E67 		.ascii	"long int\000"
 3646      20696E74 
 3646      00
 3647              	.LASF18:
 3648 0177 74737461 		.ascii	"tstate_t\000"
 3648      74655F74 
 3648      00
 3649              	.LASF144:
 3650 0180 74687265 		.ascii	"thread\000"
 3650      616400
 3651              	.LASF37:
 3652 0187 705F7265 		.ascii	"p_refs\000"
 3652      667300
 3653              	.LASF74:
 3654 018e 715F6275 		.ascii	"q_buffer\000"
 3654      66666572 
 3654      00
 3655              	.LASF76:
 3656 0197 715F7772 		.ascii	"q_wrptr\000"
 3656      70747200 
 3657              	.LASF79:
 3658 019f 715F6C69 		.ascii	"q_link\000"
ARM GAS  /tmp/ccbHRHJC.s 			page 67


 3658      6E6B00
 3659              	.LASF121:
 3660 01a6 4932435F 		.ascii	"I2C_ACTIVE_TX\000"
 3660      41435449 
 3660      56455F54 
 3660      5800
 3661              	.LASF31:
 3662 01b4 705F6E65 		.ascii	"p_newer\000"
 3662      77657200 
 3663              	.LASF146:
 3664 01bc 7278646D 		.ascii	"rxdmamode\000"
 3664      616D6F64 
 3664      6500
 3665              	.LASF93:
 3666 01c6 4750494F 		.ascii	"GPIO_TypeDef\000"
 3666      5F547970 
 3666      65446566 
 3666      00
 3667              	.LASF149:
 3668 01d3 646D6174 		.ascii	"dmatx\000"
 3668      7800
 3669              	.LASF129:
 3670 01d9 4F504D4F 		.ascii	"OPMODE_SMBUS_HOST\000"
 3670      44455F53 
 3670      4D425553 
 3670      5F484F53 
 3670      5400
 3671              	.LASF49:
 3672 01eb 72656761 		.ascii	"regarm_t\000"
 3672      726D5F74 
 3672      00
 3673              	.LASF112:
 3674 01f4 73656C66 		.ascii	"selfindex\000"
 3674      696E6465 
 3674      7800
 3675              	.LASF188:
 3676 01fe 63685379 		.ascii	"chSysInit\000"
 3676      73496E69 
 3676      7400
 3677              	.LASF167:
 3678 0208 6779726F 		.ascii	"gyroDemo\000"
 3678      44656D6F 
 3678      00
 3679              	.LASF135:
 3680 0211 6F705F6D 		.ascii	"op_mode\000"
 3680      6F646500 
 3681              	.LASF26:
 3682 0219 54687265 		.ascii	"Thread\000"
 3682      616400
 3683              	.LASF63:
 3684 0220 4576656E 		.ascii	"EventSource\000"
 3684      74536F75 
 3684      72636500 
 3685              	.LASF86:
 3686 022c 42617365 		.ascii	"BaseSequentialStream\000"
 3686      53657175 
 3686      656E7469 
ARM GAS  /tmp/ccbHRHJC.s 			page 68


 3686      616C5374 
 3686      7265616D 
 3687              	.LASF158:
 3688 0241 75736172 		.ascii	"usart\000"
 3688      7400
 3689              	.LASF0:
 3690 0247 756E7369 		.ascii	"unsigned int\000"
 3690      676E6564 
 3690      20696E74 
 3690      00
 3691              	.LASF7:
 3692 0254 75696E74 		.ascii	"uint16_t\000"
 3692      31365F74 
 3692      00
 3693              	.LASF161:
 3694 025d 53657269 		.ascii	"SerialDriverVMT\000"
 3694      616C4472 
 3694      69766572 
 3694      564D5400 
 3695              	.LASF39:
 3696 026d 705F7469 		.ascii	"p_time\000"
 3696      6D6500
 3697              	.LASF183:
 3698 0274 61636349 		.ascii	"accInit\000"
 3698      6E697400 
 3699              	.LASF88:
 3700 027c 43504152 		.ascii	"CPAR\000"
 3700      00
 3701              	.LASF169:
 3702 0281 6163635F 		.ascii	"acc_y\000"
 3702      7900
 3703              	.LASF156:
 3704 0287 69717565 		.ascii	"iqueue\000"
 3704      756500
 3705              	.LASF41:
 3706 028e 705F6D73 		.ascii	"p_msgqueue\000"
 3706      67717565 
 3706      756500
 3707              	.LASF168:
 3708 0299 6163635F 		.ascii	"acc_x\000"
 3708      7800
 3709              	.LASF187:
 3710 029f 68616C49 		.ascii	"halInit\000"
 3710      6E697400 
 3711              	.LASF170:
 3712 02a7 6163635F 		.ascii	"acc_z\000"
 3712      7A00
 3713              	.LASF176:
 3714 02ad 68656172 		.ascii	"heartWrkArea\000"
 3714      7457726B 
 3714      41726561 
 3714      00
 3715              	.LASF163:
 3716 02ba 67657474 		.ascii	"gett\000"
 3716      00
 3717              	.LASF111:
 3718 02bf 69736869 		.ascii	"ishift\000"
ARM GAS  /tmp/ccbHRHJC.s 			page 69


 3718      667400
 3719              	.LASF155:
 3720 02c6 6576656E 		.ascii	"event\000"
 3720      7400
 3721              	.LASF128:
 3722 02cc 4F504D4F 		.ascii	"OPMODE_SMBUS_DEVICE\000"
 3722      44455F53 
 3722      4D425553 
 3722      5F444556 
 3722      49434500 
 3723              	.LASF8:
 3724 02e0 73686F72 		.ascii	"short unsigned int\000"
 3724      7420756E 
 3724      7369676E 
 3724      65642069 
 3724      6E7400
 3725              	.LASF166:
 3726 02f3 68656172 		.ascii	"heartBeat\000"
 3726      74426561 
 3726      7400
 3727              	.LASF139:
 3728 02fd 49324344 		.ascii	"I2CDriver\000"
 3728      72697665 
 3728      7200
 3729              	.LASF136:
 3730 0307 636C6F63 		.ascii	"clock_speed\000"
 3730      6B5F7370 
 3730      65656400 
 3731              	.LASF22:
 3732 0313 6D73675F 		.ascii	"msg_t\000"
 3732      7400
 3733              	.LASF157:
 3734 0319 6F717565 		.ascii	"oqueue\000"
 3734      756500
 3735              	.LASF108:
 3736 0320 55534152 		.ascii	"USART_TypeDef\000"
 3736      545F5479 
 3736      70654465 
 3736      6600
 3737              	.LASF164:
 3738 032e 77726974 		.ascii	"writet\000"
 3738      657400
 3739              	.LASF17:
 3740 0335 746D6F64 		.ascii	"tmode_t\000"
 3740      655F7400 
 3741              	.LASF48:
 3742 033d 54687265 		.ascii	"ThreadsList\000"
 3742      6164734C 
 3742      69737400 
 3743              	.LASF23:
 3744 0349 6576656E 		.ascii	"eventmask_t\000"
 3744      746D6173 
 3744      6B5F7400 
 3745              	.LASF6:
 3746 0355 73686F72 		.ascii	"short int\000"
 3746      7420696E 
 3746      7400
ARM GAS  /tmp/ccbHRHJC.s 			page 70


 3747              	.LASF159:
 3748 035f 73706565 		.ascii	"speed\000"
 3748      6400
 3749              	.LASF80:
 3750 0365 716E6F74 		.ascii	"qnotify_t\000"
 3750      6966795F 
 3750      7400
 3751              	.LASF71:
 3752 036f 47656E65 		.ascii	"GenericQueue\000"
 3752      72696351 
 3752      75657565 
 3752      00
 3753              	.LASF50:
 3754 037c 73746B61 		.ascii	"stkalign_t\000"
 3754      6C69676E 
 3754      5F7400
 3755              	.LASF192:
 3756 0387 63685468 		.ascii	"chThdCreateStatic\000"
 3756      64437265 
 3756      61746553 
 3756      74617469 
 3756      6300
 3757              	.LASF84:
 3758 0399 77726974 		.ascii	"write\000"
 3758      6500
 3759              	.LASF119:
 3760 039f 4932435F 		.ascii	"I2C_STOP\000"
 3760      53544F50 
 3760      00
 3761              	.LASF171:
 3762 03a8 6779726F 		.ascii	"gyro_x\000"
 3762      5F7800
 3763              	.LASF172:
 3764 03af 6779726F 		.ascii	"gyro_y\000"
 3764      5F7900
 3765              	.LASF173:
 3766 03b6 6779726F 		.ascii	"gyro_z\000"
 3766      5F7A00
 3767              	.LASF53:
 3768 03bd 73697A65 		.ascii	"sizetype\000"
 3768      74797065 
 3768      00
 3769              	.LASF73:
 3770 03c6 715F636F 		.ascii	"q_counter\000"
 3770      756E7465 
 3770      7200
 3771              	.LASF190:
 3772 03d0 69326353 		.ascii	"i2cStart\000"
 3772      74617274 
 3772      00
 3773              	.LASF54:
 3774 03d9 4D757465 		.ascii	"Mutex\000"
 3774      7800
 3775              	.LASF142:
 3776 03df 6572726F 		.ascii	"errors\000"
 3776      727300
 3777              	.LASF137:
ARM GAS  /tmp/ccbHRHJC.s 			page 71


 3778 03e6 64757479 		.ascii	"duty_cycle\000"
 3778      5F637963 
 3778      6C6500
 3779              	.LASF177:
 3780 03f1 6779726F 		.ascii	"gyroDemoWrkArea\000"
 3780      44656D6F 
 3780      57726B41 
 3780      72656100 
 3781              	.LASF61:
 3782 0401 656C5F6D 		.ascii	"el_mask\000"
 3782      61736B00 
 3783              	.LASF32:
 3784 0409 705F6F6C 		.ascii	"p_older\000"
 3784      64657200 
 3785              	.LASF138:
 3786 0411 49324343 		.ascii	"I2CConfig\000"
 3786      6F6E6669 
 3786      6700
 3787              	.LASF47:
 3788 041b 54687265 		.ascii	"ThreadsQueue\000"
 3788      61647351 
 3788      75657565 
 3788      00
 3789              	.LASF147:
 3790 0428 7478646D 		.ascii	"txdmamode\000"
 3790      616D6F64 
 3790      6500
 3791              	.LASF34:
 3792 0432 705F7374 		.ascii	"p_stklimit\000"
 3792      6B6C696D 
 3792      697400
 3793              	.LASF127:
 3794 043d 4F504D4F 		.ascii	"OPMODE_I2C\000"
 3794      44455F49 
 3794      324300
 3795              	.LASF194:
 3796 0448 6D61696E 		.ascii	"main.c\000"
 3796      2E6300
 3797              	.LASF133:
 3798 044f 46415354 		.ascii	"FAST_DUTY_CYCLE_16_9\000"
 3798      5F445554 
 3798      595F4359 
 3798      434C455F 
 3798      31365F39 
 3799              	.LASF181:
 3800 0464 63685468 		.ascii	"chThdSleep\000"
 3800      64536C65 
 3800      657000
 3801              	.LASF160:
 3802 046f 53657269 		.ascii	"SerialConfig\000"
 3802      616C436F 
 3802      6E666967 
 3802      00
 3803              	.LASF90:
 3804 047c 444D415F 		.ascii	"DMA_Channel_TypeDef\000"
 3804      4368616E 
 3804      6E656C5F 
ARM GAS  /tmp/ccbHRHJC.s 			page 72


 3804      54797065 
 3804      44656600 
 3805              	.LASF182:
 3806 0490 6779726F 		.ascii	"gyroInit\000"
 3806      496E6974 
 3806      00
 3807              	.LASF110:
 3808 0499 69666372 		.ascii	"ifcr\000"
 3808      00
 3809              	.LASF195:
 3810 049e 2F686F6D 		.ascii	"/home/ondra6ak/Documents/ARM/mlab-ChibiOSRT/demos/S"
 3810      652F6F6E 
 3810      64726136 
 3810      616B2F44 
 3810      6F63756D 
 3811 04d1 544D3332 		.ascii	"TM32F107RxT01A-IMU01A\000"
 3811      46313037 
 3811      52785430 
 3811      31412D49 
 3811      4D553031 
 3812              	.LASF94:
 3813 04e7 52455345 		.ascii	"RESERVED0\000"
 3813      52564544 
 3813      3000
 3814              	.LASF95:
 3815 04f1 52455345 		.ascii	"RESERVED1\000"
 3815      52564544 
 3815      3100
 3816              	.LASF97:
 3817 04fb 52455345 		.ascii	"RESERVED2\000"
 3817      52564544 
 3817      3200
 3818              	.LASF99:
 3819 0505 52455345 		.ascii	"RESERVED3\000"
 3819      52564544 
 3819      3300
 3820              	.LASF100:
 3821 050f 52455345 		.ascii	"RESERVED4\000"
 3821      52564544 
 3821      3400
 3822              	.LASF28:
 3823 0519 705F7072 		.ascii	"p_prev\000"
 3823      657600
 3824              	.LASF102:
 3825 0520 52455345 		.ascii	"RESERVED6\000"
 3825      52564544 
 3825      3600
 3826              	.LASF103:
 3827 052a 52455345 		.ascii	"RESERVED7\000"
 3827      52564544 
 3827      3700
 3828              	.LASF105:
 3829 0534 52455345 		.ascii	"RESERVED8\000"
 3829      52564544 
 3829      3800
 3830              	.LASF21:
 3831 053e 74707269 		.ascii	"tprio_t\000"
ARM GAS  /tmp/ccbHRHJC.s 			page 73


 3831      6F5F7400 
 3832              	.LASF77:
 3833 0546 715F7264 		.ascii	"q_rdptr\000"
 3833      70747200 
 3834              	.LASF126:
 3835 054e 69326366 		.ascii	"i2cflags_t\000"
 3835      6C616773 
 3835      5F7400
 3836              	.LASF143:
 3837 0559 6D757465 		.ascii	"mutex\000"
 3837      7800
 3838              	.LASF5:
 3839 055f 696E7431 		.ascii	"int16_t\000"
 3839      365F7400 
 3840              	.LASF16:
 3841 0567 5F426F6F 		.ascii	"_Bool\000"
 3841      6C00
 3842              	.LASF9:
 3843 056d 696E7433 		.ascii	"int32_t\000"
 3843      325F7400 
 3844              	.LASF4:
 3845 0575 756E7369 		.ascii	"unsigned char\000"
 3845      676E6564 
 3845      20636861 
 3845      7200
 3846              	.LASF114:
 3847 0583 73746D33 		.ascii	"stm32_dma_stream_t\000"
 3847      325F646D 
 3847      615F7374 
 3847      7265616D 
 3847      5F7400
 3848              	.LASF60:
 3849 0596 656C5F6C 		.ascii	"el_listener\000"
 3849      69737465 
 3849      6E657200 
 3850              	.LASF185:
 3851 05a2 74656D70 		.ascii	"tempRead\000"
 3851      52656164 
 3851      00
 3852              	.LASF62:
 3853 05ab 656C5F66 		.ascii	"el_flags\000"
 3853      6C616773 
 3853      00
 3854              	.LASF44:
 3855 05b4 705F6D74 		.ascii	"p_mtxlist\000"
 3855      786C6973 
 3855      7400
 3856              	.LASF118:
 3857 05be 4932435F 		.ascii	"I2C_UNINIT\000"
 3857      554E494E 
 3857      495400
 3858              	.LASF35:
 3859 05c9 705F7374 		.ascii	"p_state\000"
 3859      61746500 
 3860              	.LASF38:
 3861 05d1 705F7072 		.ascii	"p_preempt\000"
 3861      65656D70 
ARM GAS  /tmp/ccbHRHJC.s 			page 74


 3861      7400
 3862              	.LASF68:
 3863 05db 65776D61 		.ascii	"ewmask\000"
 3863      736B00
 3864              	.LASF27:
 3865 05e2 705F6E65 		.ascii	"p_next\000"
 3865      787400
 3866              	.LASF83:
 3867 05e9 42617365 		.ascii	"BaseSequentialStreamVMT\000"
 3867      53657175 
 3867      656E7469 
 3867      616C5374 
 3867      7265616D 
 3868              	.LASF36:
 3869 0601 705F666C 		.ascii	"p_flags\000"
 3869      61677300 
 3870              	.LASF59:
 3871 0609 656C5F6E 		.ascii	"el_next\000"
 3871      65787400 
 3872              	.LASF151:
 3873 0611 53445F53 		.ascii	"SD_STOP\000"
 3873      544F5000 
 3874              	.LASF132:
 3875 0619 46415354 		.ascii	"FAST_DUTY_CYCLE_2\000"
 3875      5F445554 
 3875      595F4359 
 3875      434C455F 
 3875      3200
 3876              	.LASF109:
 3877 062b 6368616E 		.ascii	"channel\000"
 3877      6E656C00 
 3878              	.LASF92:
 3879 0633 4C434B52 		.ascii	"LCKR\000"
 3879      00
 3880              	.LASF123:
 3881 0638 4932435F 		.ascii	"I2C_LOCKED\000"
 3881      4C4F434B 
 3881      454400
 3882              	.LASF43:
 3883 0643 705F6570 		.ascii	"p_epending\000"
 3883      656E6469 
 3883      6E6700
 3884              	.LASF150:
 3885 064e 53445F55 		.ascii	"SD_UNINIT\000"
 3885      4E494E49 
 3885      5400
 3886              	.LASF101:
 3887 0658 52455345 		.ascii	"RESERVED5\000"
 3887      52564544 
 3887      3500
 3888              	.LASF11:
 3889 0662 75696E74 		.ascii	"uint32_t\000"
 3889      33325F74 
 3889      00
 3890              	.LASF153:
 3891 066b 73647374 		.ascii	"sdstate_t\000"
 3891      6174655F 
ARM GAS  /tmp/ccbHRHJC.s 			page 75


 3891      7400
 3892              	.LASF154:
 3893 0675 53657269 		.ascii	"SerialDriver\000"
 3893      616C4472 
 3893      69766572 
 3893      00
 3894              	.LASF179:
 3895 0682 49324344 		.ascii	"I2CD2\000"
 3895      3200
 3896              	.LASF122:
 3897 0688 4932435F 		.ascii	"I2C_ACTIVE_RX\000"
 3897      41435449 
 3897      56455F52 
 3897      5800
 3898              	.LASF12:
 3899 0696 6C6F6E67 		.ascii	"long unsigned int\000"
 3899      20756E73 
 3899      69676E65 
 3899      6420696E 
 3899      7400
 3900              	.LASF85:
 3901 06a8 72656164 		.ascii	"read\000"
 3901      00
 3902              	.LASF69:
 3903 06ad 63686172 		.ascii	"char\000"
 3903      00
 3904              	.LASF141:
 3905 06b2 636F6E66 		.ascii	"config\000"
 3905      696700
 3906              	.LASF189:
 3907 06b9 73645374 		.ascii	"sdStart\000"
 3907      61727400 
 3908              	.LASF70:
 3909 06c1 7466756E 		.ascii	"tfunc_t\000"
 3909      635F7400 
 3910              	.LASF57:
 3911 06c9 6D5F6E65 		.ascii	"m_next\000"
 3911      787400
 3912              	.LASF25:
 3913 06d0 73797374 		.ascii	"systime_t\000"
 3913      696D655F 
 3913      7400
 3914              	.LASF45:
 3915 06da 705F7265 		.ascii	"p_realprio\000"
 3915      616C7072 
 3915      696F00
 3916              	.LASF120:
 3917 06e5 4932435F 		.ascii	"I2C_READY\000"
 3917      52454144 
 3917      5900
 3918              	.LASF117:
 3919 06ef 696F706F 		.ascii	"ioportid_t\000"
 3919      72746964 
 3919      5F7400
 3920              	.LASF52:
 3921 06fa 636F6E74 		.ascii	"context\000"
 3921      65787400 
ARM GAS  /tmp/ccbHRHJC.s 			page 76


 3922              	.LASF191:
 3923 0702 5F70616C 		.ascii	"_pal_lld_setgroupmode\000"
 3923      5F6C6C64 
 3923      5F736574 
 3923      67726F75 
 3923      706D6F64 
 3924              	.LASF51:
 3925 0718 696E7463 		.ascii	"intctx\000"
 3925      747800
 3926              	.LASF152:
 3927 071f 53445F52 		.ascii	"SD_READY\000"
 3927      45414459 
 3927      00
 3928              	.LASF75:
 3929 0728 715F746F 		.ascii	"q_top\000"
 3929      7000
 3930              	.LASF33:
 3931 072e 705F6E61 		.ascii	"p_name\000"
 3931      6D6500
 3932              	.LASF64:
 3933 0735 65735F6E 		.ascii	"es_next\000"
 3933      65787400 
 3934              	.LASF87:
 3935 073d 434E4454 		.ascii	"CNDTR\000"
 3935      5200
 3936              	.LASF89:
 3937 0743 434D4152 		.ascii	"CMAR\000"
 3937      00
 3938              	.LASF78:
 3939 0748 715F6E6F 		.ascii	"q_notify\000"
 3939      74696679 
 3939      00
 3940              	.LASF186:
 3941 0751 61636352 		.ascii	"accRead\000"
 3941      65616400 
 3942              	.LASF175:
 3943 0759 69326343 		.ascii	"i2cCfg\000"
 3943      666700
 3944              	.LASF3:
 3945 0760 75696E74 		.ascii	"uint8_t\000"
 3945      385F7400 
 3946              	.LASF81:
 3947 0768 496E7075 		.ascii	"InputQueue\000"
 3947      74517565 
 3947      756500
 3948              	.LASF96:
 3949 0773 4F415231 		.ascii	"OAR1\000"
 3949      00
 3950              	.LASF98:
 3951 0778 4F415232 		.ascii	"OAR2\000"
 3951      00
 3952              	.LASF58:
 3953 077d 4576656E 		.ascii	"EventListener\000"
 3953      744C6973 
 3953      74656E65 
 3953      7200
 3954              	.LASF67:
ARM GAS  /tmp/ccbHRHJC.s 			page 77


 3955 078b 77746F62 		.ascii	"wtobjp\000"
 3955      6A7000
 3956              	.LASF42:
 3957 0792 705F6D73 		.ascii	"p_msg\000"
 3957      6700
 3958              	.LASF106:
 3959 0798 4932435F 		.ascii	"I2C_TypeDef\000"
 3959      54797065 
 3959      44656600 
 3960              	.LASF130:
 3961 07a4 6932636F 		.ascii	"i2copmode_t\000"
 3961      706D6F64 
 3961      655F7400 
 3962              	.LASF196:
 3963 07b0 6D61696E 		.ascii	"main\000"
 3963      00
 3964              	.LASF162:
 3965 07b5 70757474 		.ascii	"putt\000"
 3965      00
 3966              	.LASF116:
 3967 07ba 696F6D6F 		.ascii	"iomode_t\000"
 3967      64655F74 
 3967      00
 3968              	.LASF56:
 3969 07c3 6D5F6F77 		.ascii	"m_owner\000"
 3969      6E657200 
 3970              	.LASF30:
 3971 07cb 705F6374 		.ascii	"p_ctx\000"
 3971      7800
 3972              	.LASF40:
 3973 07d1 705F7761 		.ascii	"p_waiting\000"
 3973      6974696E 
 3973      6700
 3974              	.LASF180:
 3975 07db 63687072 		.ascii	"chprintf\000"
 3975      696E7466 
 3975      00
 3976              		.ident	"GCC: (GNU Tools for ARM Embedded Processors) 4.7.4 20130913 (release) [ARM/embedded-4_7-br
ARM GAS  /tmp/ccbHRHJC.s 			page 78


DEFINED SYMBOLS
                            *ABS*:00000000 main.c
     /tmp/ccbHRHJC.s:19     .text.heartBeat:00000000 $t
     /tmp/ccbHRHJC.s:24     .text.heartBeat:00000000 heartBeat
     /tmp/ccbHRHJC.s:74     .text.heartBeat:00000038 $d
     /tmp/ccbHRHJC.s:80     .text.gyroDemo:00000000 $t
     /tmp/ccbHRHJC.s:85     .text.gyroDemo:00000000 gyroDemo
     /tmp/ccbHRHJC.s:183    .text.gyroDemo:00000088 $d
     /tmp/ccbHRHJC.s:193    .text.startup.main:00000000 $t
     /tmp/ccbHRHJC.s:199    .text.startup.main:00000000 main
     /tmp/ccbHRHJC.s:283    .rodata.i2cCfg:00000000 .LANCHOR0
     /tmp/ccbHRHJC.s:308    .bss.heartWrkArea:00000000 .LANCHOR1
     /tmp/ccbHRHJC.s:315    .bss.gyroDemoWrkArea:00000000 .LANCHOR2
     /tmp/ccbHRHJC.s:282    .rodata.i2cCfg:00000000 $d
     /tmp/ccbHRHJC.s:286    .rodata.i2cCfg:00000000 i2cCfg
     /tmp/ccbHRHJC.s:293    .rodata.str1.4:00000000 $d
     /tmp/ccbHRHJC.s:307    .bss.heartWrkArea:00000000 $d
     /tmp/ccbHRHJC.s:311    .bss.heartWrkArea:00000000 heartWrkArea
     /tmp/ccbHRHJC.s:314    .bss.gyroDemoWrkArea:00000000 $d
     /tmp/ccbHRHJC.s:318    .bss.gyroDemoWrkArea:00000000 gyroDemoWrkArea
                     .debug_frame:00000010 $d

UNDEFINED SYMBOLS
chprintf
chThdSleep
SD2
gyroInit
accInit
gyroRead
tempRead
accRead
I2CD2
halInit
chSysInit
sdStart
i2cStart
_pal_lld_setgroupmode
chThdCreateStatic
