ARM GAS  /tmp/ccbHRHJC.s 			page 1


   1              		.syntax unified
   2              		.cpu cortex-m3
   3              		.fpu softvfp
   4              		.eabi_attribute 20, 1
   5              		.eabi_attribute 21, 1
   6              		.eabi_attribute 23, 3
   7              		.eabi_attribute 24, 1
   8              		.eabi_attribute 25, 1
   9              		.eabi_attribute 26, 1
  10              		.eabi_attribute 30, 2
  11              		.eabi_attribute 34, 1
  12              		.eabi_attribute 18, 4
  13              		.thumb
  14              		.file	"main.c"
  15              		.text
  16              	.Ltext0:
  17              		.cfi_sections	.debug_frame
  18              		.section	.text.heartBeat,"ax",%progbits
  19              		.align	2
  20              		.p2align 4,,15
  21              		.thumb
  22              		.thumb_func
  23              		.type	heartBeat, %function
  24              	heartBeat:
  25              	.LFB63:
  26              		.file 1 "main.c"
  27              		.loc 1 25 0
  28              		.cfi_startproc
  29              		@ args = 0, pretend = 0, frame = 0
  30              		@ frame_needed = 0, uses_anonymous_args = 0
  31              	.LVL0:
  32 0000 10B5     		push	{r4, lr}
  33              	.LCFI0:
  34              		.cfi_def_cfa_offset 8
  35              		.cfi_offset 4, -8
  36              		.cfi_offset 14, -4
  37              		.loc 1 26 0
  38 0002 0D48     		ldr	r0, .L4
  39              	.LVL1:
  40 0004 0D49     		ldr	r1, .L4+4
  41 0006 FFF7FEFF 		bl	chprintf
  42              	.LVL2:
  43              		.loc 1 28 0
  44 000a 4FF44063 		mov	r3, #3072
  45 000e C4F20103 		movt	r3, 16385
  46 0012 4FF48072 		mov	r2, #256
  47              		.loc 1 29 0
  48 0016 8020     		movs	r0, #128
  49              		.loc 1 28 0
  50 0018 1A61     		str	r2, [r3, #16]
  51              		.loc 1 33 0
  52 001a 1C46     		mov	r4, r3
  53              		.loc 1 29 0
  54 001c 5861     		str	r0, [r3, #20]
  55              	.L2:
  56              		.loc 1 33 0 discriminator 1
  57 001e E168     		ldr	r1, [r4, #12]
ARM GAS  /tmp/ccbHRHJC.s 			page 2


  58              		.loc 1 35 0 discriminator 1
  59 0020 FA20     		movs	r0, #250
  60              		.loc 1 33 0 discriminator 1
  61 0022 81F48073 		eor	r3, r1, #256
  62 0026 E360     		str	r3, [r4, #12]
  63              		.loc 1 34 0 discriminator 1
  64 0028 E268     		ldr	r2, [r4, #12]
  65 002a 82F08001 		eor	r1, r2, #128
  66 002e E160     		str	r1, [r4, #12]
  67              		.loc 1 35 0 discriminator 1
  68 0030 FFF7FEFF 		bl	chThdSleep
  69              	.LVL3:
  70 0034 F3E7     		b	.L2
  71              	.L5:
  72 0036 00BF     		.align	2
  73              	.L4:
  74 0038 00000000 		.word	SD2
  75 003c 00000000 		.word	.LC0
  76              		.cfi_endproc
  77              	.LFE63:
  78              		.size	heartBeat, .-heartBeat
  79              		.section	.text.gyroDemo,"ax",%progbits
  80              		.align	2
  81              		.p2align 4,,15
  82              		.thumb
  83              		.thumb_func
  84              		.type	gyroDemo, %function
  85              	gyroDemo:
  86              	.LFB64:
  87              		.loc 1 42 0
  88              		.cfi_startproc
  89              		@ args = 0, pretend = 0, frame = 16
  90              		@ frame_needed = 0, uses_anonymous_args = 0
  91              	.LVL4:
  92 0000 30B5     		push	{r4, r5, lr}
  93              	.LCFI1:
  94              		.cfi_def_cfa_offset 12
  95              		.cfi_offset 4, -12
  96              		.cfi_offset 5, -8
  97              		.cfi_offset 14, -4
  98              		.loc 1 48 0
  99 0002 2148     		ldr	r0, .L8
 100              	.LVL5:
 101              		.loc 1 42 0
 102 0004 87B0     		sub	sp, sp, #28
 103              	.LCFI2:
 104              		.cfi_def_cfa_offset 40
 105              		.loc 1 48 0
 106 0006 6821     		movs	r1, #104
 107 0008 FFF7FEFF 		bl	gyroInit
 108              	.LVL6:
 109              		.loc 1 49 0
 110 000c 1E48     		ldr	r0, .L8
 111 000e 1C21     		movs	r1, #28
 112 0010 FFF7FEFF 		bl	accInit
 113              	.LVL7:
 114              		.loc 1 50 0
ARM GAS  /tmp/ccbHRHJC.s 			page 3


 115 0014 1D48     		ldr	r0, .L8+4
 116 0016 1E49     		ldr	r1, .L8+8
 117 0018 FFF7FEFF 		bl	chprintf
 118              	.LVL8:
 119 001c 0DF11605 		add	r5, sp, #22
 120 0020 04AC     		add	r4, sp, #16
 121              	.LVL9:
 122              	.L7:
 123              		.loc 1 55 0 discriminator 1
 124 0022 05AB     		add	r3, sp, #20
 125 0024 0DF11202 		add	r2, sp, #18
 126 0028 6821     		movs	r1, #104
 127 002a 0095     		str	r5, [sp, #0]
 128 002c 1648     		ldr	r0, .L8
 129 002e FFF7FEFF 		bl	gyroRead
 130              	.LVL10:
 131              		.loc 1 56 0 discriminator 1
 132 0032 0DF10B02 		add	r2, sp, #11
 133 0036 6821     		movs	r1, #104
 134 0038 1348     		ldr	r0, .L8
 135 003a FFF7FEFF 		bl	tempRead
 136              	.LVL11:
 137              		.loc 1 58 0 discriminator 1
 138 003e 03AA     		add	r2, sp, #12
 139 0040 0DF10E03 		add	r3, sp, #14
 140 0044 1C21     		movs	r1, #28
 141 0046 0094     		str	r4, [sp, #0]
 142 0048 0F48     		ldr	r0, .L8
 143 004a FFF7FEFF 		bl	accRead
 144              	.LVL12:
 145              		.loc 1 61 0 discriminator 1
 146 004e BDF91610 		ldrsh	r1, [sp, #22]
 147              	.LVL13:
 148 0052 BDF91220 		ldrsh	r2, [sp, #18]
 149              	.LVL14:
 150 0056 BDF91430 		ldrsh	r3, [sp, #20]
 151              	.LVL15:
 152 005a 0091     		str	r1, [sp, #0]
 153              	.LVL16:
 154 005c 0B48     		ldr	r0, .L8+4
 155 005e 0D49     		ldr	r1, .L8+12
 156              	.LVL17:
 157 0060 FFF7FEFF 		bl	chprintf
 158              	.LVL18:
 159              		.loc 1 63 0 discriminator 1
 160 0064 BDF91000 		ldrsh	r0, [sp, #16]
 161              	.LVL19:
 162 0068 BDF90C20 		ldrsh	r2, [sp, #12]
 163              	.LVL20:
 164 006c 0090     		str	r0, [sp, #0]
 165              	.LVL21:
 166 006e BDF90E30 		ldrsh	r3, [sp, #14]
 167              	.LVL22:
 168 0072 0648     		ldr	r0, .L8+4
 169              	.LVL23:
 170 0074 0849     		ldr	r1, .L8+16
 171 0076 FFF7FEFF 		bl	chprintf
ARM GAS  /tmp/ccbHRHJC.s 			page 4


 172              	.LVL24:
 173              		.loc 1 64 0 discriminator 1
 174 007a 0448     		ldr	r0, .L8+4
 175 007c 0749     		ldr	r1, .L8+20
 176 007e 9DF80B20 		ldrb	r2, [sp, #11]	@ zero_extendqisi2
 177 0082 FFF7FEFF 		bl	chprintf
 178              	.LVL25:
 179 0086 CCE7     		b	.L7
 180              	.L9:
 181              		.align	2
 182              	.L8:
 183 0088 00000000 		.word	I2CD2
 184 008c 00000000 		.word	SD2
 185 0090 14000000 		.word	.LC1
 186 0094 2C000000 		.word	.LC2
 187 0098 48000000 		.word	.LC3
 188 009c 64000000 		.word	.LC4
 189              		.cfi_endproc
 190              	.LFE64:
 191              		.size	gyroDemo, .-gyroDemo
 192              		.section	.text.startup.main,"ax",%progbits
 193              		.align	2
 194              		.p2align 4,,15
 195              		.global	main
 196              		.thumb
 197              		.thumb_func
 198              		.type	main, %function
 199              	main:
 200              	.LFB65:
 201              		.loc 1 70 0
 202              		.cfi_startproc
 203              		@ args = 0, pretend = 0, frame = 0
 204              		@ frame_needed = 0, uses_anonymous_args = 0
 205 0000 10B5     		push	{r4, lr}
 206              	.LCFI3:
 207              		.cfi_def_cfa_offset 8
 208              		.cfi_offset 4, -8
 209              		.cfi_offset 14, -4
 210 0002 82B0     		sub	sp, sp, #8
 211              	.LCFI4:
 212              		.cfi_def_cfa_offset 16
 213              		.loc 1 71 0
 214 0004 FFF7FEFF 		bl	halInit
 215              	.LVL26:
 216              		.loc 1 72 0
 217 0008 FFF7FEFF 		bl	chSysInit
 218              	.LVL27:
 219              		.loc 1 74 0
 220 000c 40F20000 		movw	r0, #:lower16:SD2
 221 0010 0021     		movs	r1, #0
 222 0012 C0F20000 		movt	r0, #:upper16:SD2
 223 0016 FFF7FEFF 		bl	sdStart
 224              	.LVL28:
 225              		.loc 1 77 0
 226 001a 4FF44064 		mov	r4, #3072
 227              		.loc 1 75 0
 228 001e 40F20000 		movw	r0, #:lower16:I2CD2
ARM GAS  /tmp/ccbHRHJC.s 			page 5


 229 0022 40F20001 		movw	r1, #:lower16:.LANCHOR0
 230              		.loc 1 77 0
 231 0026 C4F20104 		movt	r4, 16385
 232              		.loc 1 75 0
 233 002a C0F20000 		movt	r0, #:upper16:I2CD2
 234 002e C0F20001 		movt	r1, #:upper16:.LANCHOR0
 235 0032 FFF7FEFF 		bl	i2cStart
 236              	.LVL29:
 237              		.loc 1 77 0
 238 0036 1122     		movs	r2, #17
 239 0038 2046     		mov	r0, r4
 240 003a 4FF48061 		mov	r1, #1024
 241 003e FFF7FEFF 		bl	_pal_lld_setgroupmode
 242              	.LVL30:
 243              		.loc 1 78 0
 244 0042 1122     		movs	r2, #17
 245 0044 2046     		mov	r0, r4
 246 0046 4FF40061 		mov	r1, #2048
 247 004a FFF7FEFF 		bl	_pal_lld_setgroupmode
 248              	.LVL31:
 249              		.loc 1 79 0
 250 004e 6420     		movs	r0, #100
 251 0050 FFF7FEFF 		bl	chThdSleep
 252              	.LVL32:
 253              		.loc 1 81 0
 254 0054 0024     		movs	r4, #0
 255 0056 40F20003 		movw	r3, #:lower16:heartBeat
 256 005a 40F20000 		movw	r0, #:lower16:.LANCHOR1
 257 005e D021     		movs	r1, #208
 258 0060 4022     		movs	r2, #64
 259 0062 C0F20003 		movt	r3, #:upper16:heartBeat
 260 0066 0094     		str	r4, [sp, #0]
 261 0068 C0F20000 		movt	r0, #:upper16:.LANCHOR1
 262 006c FFF7FEFF 		bl	chThdCreateStatic
 263              	.LVL33:
 264              		.loc 1 82 0
 265 0070 40F20000 		movw	r0, #:lower16:.LANCHOR2
 266 0074 40F20003 		movw	r3, #:lower16:gyroDemo
 267 0078 0094     		str	r4, [sp, #0]
 268 007a 4FF4D871 		mov	r1, #432
 269 007e 4022     		movs	r2, #64
 270 0080 C0F20003 		movt	r3, #:upper16:gyroDemo
 271 0084 C0F20000 		movt	r0, #:upper16:.LANCHOR2
 272 0088 FFF7FEFF 		bl	chThdCreateStatic
 273              	.LVL34:
 274              		.loc 1 83 0
 275 008c 2046     		mov	r0, r4
 276 008e 02B0     		add	sp, sp, #8
 277 0090 10BD     		pop	{r4, pc}
 278              		.cfi_endproc
 279              	.LFE65:
 280              		.size	main, .-main
 281 0092 00BFAFF3 		.section	.rodata.i2cCfg,"a",%progbits
 281      0080AFF3 
 281      0080AFF3 
 281      0080
 282              		.align	2
ARM GAS  /tmp/ccbHRHJC.s 			page 6


 283              		.set	.LANCHOR0,. + 0
 284              		.type	i2cCfg, %object
 285              		.size	i2cCfg, 12
 286              	i2cCfg:
 287 0000 01       		.byte	1
 288 0001 000000   		.space	3
 289 0004 801A0600 		.word	400000
 290 0008 02       		.byte	2
 291 0009 000000   		.space	3
 292              		.section	.rodata.str1.4,"aMS",%progbits,1
 293              		.align	2
 294              	.LC0:
 295 0000 0A0D4865 		.ascii	"\012\015Hello world!\012\015\000"
 295      6C6C6F20 
 295      776F726C 
 295      64210A0D 
 295      00
 296 0011 000000   		.space	3
 297              	.LC1:
 298 0014 436F6E66 		.ascii	"Configuration done\012\015\000"
 298      69677572 
 298      6174696F 
 298      6E20646F 
 298      6E650A0D 
 299 0029 000000   		.space	3
 300              	.LC2:
 301 002c 25642067 		.ascii	"%d gX    %d gY    %d gZ    \000"
 301      58202020 
 301      20256420 
 301      67592020 
 301      20202564 
 302              	.LC3:
 303 0048 25642061 		.ascii	"%d aX    %d aY    %d aZ    \000"
 303      58202020 
 303      20256420 
 303      61592020 
 303      20202564 
 304              	.LC4:
 305 0064 25642054 		.ascii	"%d T    \012\015\000"
 305      20202020 
 305      0A0D00
 306 006f 00       		.section	.bss.heartWrkArea,"aw",%nobits
 307              		.align	3
 308              		.set	.LANCHOR1,. + 0
 309              		.type	heartWrkArea, %object
 310              		.size	heartWrkArea, 208
 311              	heartWrkArea:
 312 0000 00000000 		.space	208
 312      00000000 
 312      00000000 
 312      00000000 
 312      00000000 
 313              		.section	.bss.gyroDemoWrkArea,"aw",%nobits
 314              		.align	3
 315              		.set	.LANCHOR2,. + 0
 316              		.type	gyroDemoWrkArea, %object
 317              		.size	gyroDemoWrkArea, 432
ARM GAS  /tmp/ccbHRHJC.s 			page 7


 318              	gyroDemoWrkArea:
 319 0000 00000000 		.space	432
 319      00000000 
 319      00000000 
 319      00000000 
 319      00000000 
 320              		.text
 321              	.Letext0:
 322              		.file 2 "/usr/bin/../lib/gcc/arm-none-eabi/4.7.4/include/stddef.h"
 323              		.file 3 "/usr/bin/../lib/gcc/arm-none-eabi/4.7.4/../../../../arm-none-eabi/include/stdint.h"
 324              		.file 4 "../../os/ports/GCC/ARMCMx/chtypes.h"
 325              		.file 5 "../../os/kernel/include/chlists.h"
 326              		.file 6 "../../os/kernel/include/chthreads.h"
 327              		.file 7 "../../os/ports/GCC/ARMCMx/chcore_v7m.h"
 328              		.file 8 "../../os/kernel/include/chmtx.h"
 329              		.file 9 "../../os/kernel/include/chevents.h"
 330              		.file 10 "../../os/kernel/include/chqueues.h"
 331              		.file 11 "../../os/kernel/include/chstreams.h"
 332              		.file 12 "../../os/hal/platforms/STM32F1xx/stm32f10x.h"
 333              		.file 13 "../../os/hal/platforms/STM32F1xx/stm32_dma.h"
 334              		.file 14 "../../os/hal/platforms/STM32/GPIOv1/pal_lld.h"
 335              		.file 15 "../../os/hal/include/i2c.h"
 336              		.file 16 "../../os/hal/platforms/STM32/I2Cv1/i2c_lld.h"
 337              		.file 17 "../../os/hal/include/serial.h"
 338              		.file 18 "../../os/hal/platforms/STM32/USARTv1/serial_lld.h"
 339              		.file 19 "../../os/ports/common/ARMCMx/CMSIS/include/core_cm3.h"
 340              		.file 20 "../../os/various/chprintf.h"
 341              		.file 21 "../../os/various/IMU01A.h"
 342              		.file 22 "../../os/hal/include/hal.h"
 343              		.file 23 "../../os/kernel/include/chsys.h"