ARM GAS  /tmp/ccSrQLBK.s 			page 1


   1              		.syntax unified
   2              		.cpu cortex-m3
   3              		.fpu softvfp
   4              		.eabi_attribute 20, 1
   5              		.eabi_attribute 21, 1
   6              		.eabi_attribute 23, 3
   7              		.eabi_attribute 24, 1
   8              		.eabi_attribute 25, 1
   9              		.eabi_attribute 26, 1
  10              		.eabi_attribute 30, 2
  11              		.eabi_attribute 34, 1
  12              		.eabi_attribute 18, 4
  13              		.thumb
  14              		.file	"main.c"
  15              		.text
  16              	.Ltext0:
  17              		.cfi_sections	.debug_frame
  18              		.global	__aeabi_f2d
  19              		.section	.text.sensorsRead,"ax",%progbits
  20              		.align	2
  21              		.p2align 4,,15
  22              		.thumb
  23              		.thumb_func
  24              		.type	sensorsRead, %function
  25              	sensorsRead:
  26              	.LFB64:
  27              		.file 1 "main.c"
  28              		.loc 1 42 0
  29              		.cfi_startproc
  30              		@ args = 0, pretend = 0, frame = 32
  31              		@ frame_needed = 0, uses_anonymous_args = 0
  32              	.LVL0:
  33 0000 F0B5     		push	{r4, r5, r6, r7, lr}
  34              	.LCFI0:
  35              		.cfi_def_cfa_offset 20
  36              		.cfi_offset 4, -20
  37              		.cfi_offset 5, -16
  38              		.cfi_offset 6, -12
  39              		.cfi_offset 7, -8
  40              		.cfi_offset 14, -4
  41              		.loc 1 48 0
  42 0002 2A48     		ldr	r0, .L4
  43              	.LVL1:
  44              		.loc 1 42 0
  45 0004 8DB0     		sub	sp, sp, #52
  46              	.LCFI1:
  47              		.cfi_def_cfa_offset 72
  48              		.loc 1 48 0
  49 0006 6821     		movs	r1, #104
  50 0008 FFF7FEFF 		bl	gyroInit
  51              	.LVL2:
  52              		.loc 1 49 0
  53 000c 2748     		ldr	r0, .L4
  54 000e 1C21     		movs	r1, #28
  55 0010 FFF7FEFF 		bl	accInit
  56              	.LVL3:
  57              		.loc 1 50 0
ARM GAS  /tmp/ccSrQLBK.s 			page 2


  58 0014 2648     		ldr	r0, .L4+4
  59 0016 2749     		ldr	r1, .L4+8
  60 0018 FFF7FEFF 		bl	chprintf
  61              	.LVL4:
  62 001c 0BAF     		add	r7, sp, #44
  63 001e 08AE     		add	r6, sp, #32
  64              	.LVL5:
  65              	.L2:
  66              		.loc 1 55 0 discriminator 1
  67 0020 0AAB     		add	r3, sp, #40
  68 0022 09AA     		add	r2, sp, #36
  69 0024 6821     		movs	r1, #104
  70 0026 0097     		str	r7, [sp, #0]
  71 0028 2048     		ldr	r0, .L4
  72 002a FFF7FEFF 		bl	gyroRead
  73              	.LVL6:
  74              		.loc 1 56 0 discriminator 1
  75 002e 0DF11702 		add	r2, sp, #23
  76 0032 6821     		movs	r1, #104
  77 0034 1D48     		ldr	r0, .L4
  78 0036 FFF7FEFF 		bl	tempRead
  79              	.LVL7:
  80              		.loc 1 58 0 discriminator 1
  81 003a 06AA     		add	r2, sp, #24
  82 003c 07AB     		add	r3, sp, #28
  83 003e 1C21     		movs	r1, #28
  84 0040 0096     		str	r6, [sp, #0]
  85 0042 1A48     		ldr	r0, .L4
  86 0044 FFF7FEFF 		bl	accRead
  87              	.LVL8:
  88              		.loc 1 61 0 discriminator 1
  89 0048 0998     		ldr	r0, [sp, #36]	@ float
  90 004a FFF7FEFF 		bl	__aeabi_f2d
  91              	.LVL9:
  92 004e 0446     		mov	r4, r0
  93 0050 0A98     		ldr	r0, [sp, #40]	@ float
  94 0052 0D46     		mov	r5, r1
  95 0054 FFF7FEFF 		bl	__aeabi_f2d
  96              	.LVL10:
  97 0058 CDE90001 		strd	r0, [sp]
  98 005c 0B98     		ldr	r0, [sp, #44]	@ float
  99 005e FFF7FEFF 		bl	__aeabi_f2d
 100              	.LVL11:
 101 0062 2246     		mov	r2, r4
 102 0064 2B46     		mov	r3, r5
 103 0066 CDE90201 		strd	r0, [sp, #8]
 104 006a 1148     		ldr	r0, .L4+4
 105 006c 1249     		ldr	r1, .L4+12
 106 006e FFF7FEFF 		bl	chprintf
 107              	.LVL12:
 108              		.loc 1 63 0 discriminator 1
 109 0072 0698     		ldr	r0, [sp, #24]	@ float
 110 0074 FFF7FEFF 		bl	__aeabi_f2d
 111              	.LVL13:
 112 0078 0446     		mov	r4, r0
 113 007a 0798     		ldr	r0, [sp, #28]	@ float
 114 007c 0D46     		mov	r5, r1
ARM GAS  /tmp/ccSrQLBK.s 			page 3


 115 007e FFF7FEFF 		bl	__aeabi_f2d
 116              	.LVL14:
 117 0082 CDE90001 		strd	r0, [sp]
 118 0086 0898     		ldr	r0, [sp, #32]	@ float
 119 0088 FFF7FEFF 		bl	__aeabi_f2d
 120              	.LVL15:
 121 008c 2246     		mov	r2, r4
 122 008e CDE90201 		strd	r0, [sp, #8]
 123 0092 2B46     		mov	r3, r5
 124 0094 0648     		ldr	r0, .L4+4
 125 0096 0949     		ldr	r1, .L4+16
 126 0098 FFF7FEFF 		bl	chprintf
 127              	.LVL16:
 128              		.loc 1 64 0 discriminator 1
 129 009c 0448     		ldr	r0, .L4+4
 130 009e 0849     		ldr	r1, .L4+20
 131 00a0 9DF81720 		ldrb	r2, [sp, #23]	@ zero_extendqisi2
 132 00a4 FFF7FEFF 		bl	chprintf
 133              	.LVL17:
 134 00a8 BAE7     		b	.L2
 135              	.L5:
 136 00aa 00BF     		.align	2
 137              	.L4:
 138 00ac 00000000 		.word	I2CD2
 139 00b0 00000000 		.word	SD2
 140 00b4 00000000 		.word	.LC0
 141 00b8 18000000 		.word	.LC1
 142 00bc 34000000 		.word	.LC2
 143 00c0 50000000 		.word	.LC3
 144              		.cfi_endproc
 145              	.LFE64:
 146              		.size	sensorsRead, .-sensorsRead
 147 00c4 AFF30080 		.section	.text.heartBeat,"ax",%progbits
 147      AFF30080 
 147      AFF30080 
 148              		.align	2
 149              		.p2align 4,,15
 150              		.thumb
 151              		.thumb_func
 152              		.type	heartBeat, %function
 153              	heartBeat:
 154              	.LFB63:
 155              		.loc 1 25 0
 156              		.cfi_startproc
 157              		@ args = 0, pretend = 0, frame = 0
 158              		@ frame_needed = 0, uses_anonymous_args = 0
 159              	.LVL18:
 160 0000 10B5     		push	{r4, lr}
 161              	.LCFI2:
 162              		.cfi_def_cfa_offset 8
 163              		.cfi_offset 4, -8
 164              		.cfi_offset 14, -4
 165              		.loc 1 26 0
 166 0002 0D48     		ldr	r0, .L8
 167              	.LVL19:
 168 0004 0D49     		ldr	r1, .L8+4
 169 0006 FFF7FEFF 		bl	chprintf
ARM GAS  /tmp/ccSrQLBK.s 			page 4


 170              	.LVL20:
 171              		.loc 1 28 0
 172 000a 4FF44063 		mov	r3, #3072
 173 000e C4F20103 		movt	r3, 16385
 174 0012 4FF48072 		mov	r2, #256
 175              		.loc 1 29 0
 176 0016 8020     		movs	r0, #128
 177              		.loc 1 28 0
 178 0018 1A61     		str	r2, [r3, #16]
 179              		.loc 1 33 0
 180 001a 1C46     		mov	r4, r3
 181              		.loc 1 29 0
 182 001c 5861     		str	r0, [r3, #20]
 183              	.L7:
 184              		.loc 1 33 0 discriminator 1
 185 001e E168     		ldr	r1, [r4, #12]
 186              		.loc 1 35 0 discriminator 1
 187 0020 FA20     		movs	r0, #250
 188              		.loc 1 33 0 discriminator 1
 189 0022 81F48073 		eor	r3, r1, #256
 190 0026 E360     		str	r3, [r4, #12]
 191              		.loc 1 34 0 discriminator 1
 192 0028 E268     		ldr	r2, [r4, #12]
 193 002a 82F08001 		eor	r1, r2, #128
 194 002e E160     		str	r1, [r4, #12]
 195              		.loc 1 35 0 discriminator 1
 196 0030 FFF7FEFF 		bl	chThdSleep
 197              	.LVL21:
 198 0034 F3E7     		b	.L7
 199              	.L9:
 200 0036 00BF     		.align	2
 201              	.L8:
 202 0038 00000000 		.word	SD2
 203 003c 58000000 		.word	.LC4
 204              		.cfi_endproc
 205              	.LFE63:
 206              		.size	heartBeat, .-heartBeat
 207              		.section	.text.startup.main,"ax",%progbits
 208              		.align	2
 209              		.p2align 4,,15
 210              		.global	main
 211              		.thumb
 212              		.thumb_func
 213              		.type	main, %function
 214              	main:
 215              	.LFB65:
 216              		.loc 1 70 0
 217              		.cfi_startproc
 218              		@ args = 0, pretend = 0, frame = 0
 219              		@ frame_needed = 0, uses_anonymous_args = 0
 220 0000 10B5     		push	{r4, lr}
 221              	.LCFI3:
 222              		.cfi_def_cfa_offset 8
 223              		.cfi_offset 4, -8
 224              		.cfi_offset 14, -4
 225 0002 82B0     		sub	sp, sp, #8
 226              	.LCFI4:
ARM GAS  /tmp/ccSrQLBK.s 			page 5


 227              		.cfi_def_cfa_offset 16
 228              		.loc 1 71 0
 229 0004 FFF7FEFF 		bl	halInit
 230              	.LVL22:
 231              		.loc 1 72 0
 232 0008 FFF7FEFF 		bl	chSysInit
 233              	.LVL23:
 234              		.loc 1 74 0
 235 000c 40F20000 		movw	r0, #:lower16:SD2
 236 0010 0021     		movs	r1, #0
 237 0012 C0F20000 		movt	r0, #:upper16:SD2
 238 0016 FFF7FEFF 		bl	sdStart
 239              	.LVL24:
 240              		.loc 1 75 0
 241 001a 40F20000 		movw	r0, #:lower16:I2CD2
 242 001e 40F20001 		movw	r1, #:lower16:.LANCHOR0
 243 0022 C0F20000 		movt	r0, #:upper16:I2CD2
 244 0026 C0F20001 		movt	r1, #:upper16:.LANCHOR0
 245 002a FFF7FEFF 		bl	i2cStart
 246              	.LVL25:
 247              		.loc 1 77 0
 248 002e 0024     		movs	r4, #0
 249 0030 40F20003 		movw	r3, #:lower16:heartBeat
 250 0034 40F20000 		movw	r0, #:lower16:.LANCHOR1
 251 0038 D021     		movs	r1, #208
 252 003a 4022     		movs	r2, #64
 253 003c C0F20003 		movt	r3, #:upper16:heartBeat
 254 0040 0094     		str	r4, [sp, #0]
 255 0042 C0F20000 		movt	r0, #:upper16:.LANCHOR1
 256 0046 FFF7FEFF 		bl	chThdCreateStatic
 257              	.LVL26:
 258              		.loc 1 78 0
 259 004a 40F20000 		movw	r0, #:lower16:.LANCHOR2
 260 004e 40F20003 		movw	r3, #:lower16:sensorsRead
 261 0052 0094     		str	r4, [sp, #0]
 262 0054 4FF4D871 		mov	r1, #432
 263 0058 4022     		movs	r2, #64
 264 005a C0F20003 		movt	r3, #:upper16:sensorsRead
 265 005e C0F20000 		movt	r0, #:upper16:.LANCHOR2
 266 0062 FFF7FEFF 		bl	chThdCreateStatic
 267              	.LVL27:
 268              		.loc 1 79 0
 269 0066 2046     		mov	r0, r4
 270 0068 02B0     		add	sp, sp, #8
 271 006a 10BD     		pop	{r4, pc}
 272              		.cfi_endproc
 273              	.LFE65:
 274              		.size	main, .-main
 275 006c AFF30080 		.section	.rodata.i2cCfg,"a",%progbits
 276              		.align	2
 277              		.set	.LANCHOR0,. + 0
 278              		.type	i2cCfg, %object
 279              		.size	i2cCfg, 12
 280              	i2cCfg:
 281 0000 01       		.byte	1
 282 0001 000000   		.space	3
 283 0004 801A0600 		.word	400000
ARM GAS  /tmp/ccSrQLBK.s 			page 6


 284 0008 02       		.byte	2
 285 0009 000000   		.space	3
 286              		.section	.bss.sensorsWrkArea,"aw",%nobits
 287              		.align	3
 288              		.set	.LANCHOR2,. + 0
 289              		.type	sensorsWrkArea, %object
 290              		.size	sensorsWrkArea, 432
 291              	sensorsWrkArea:
 292 0000 00000000 		.space	432
 292      00000000 
 292      00000000 
 292      00000000 
 292      00000000 
 293              		.section	.rodata.str1.4,"aMS",%progbits,1
 294              		.align	2
 295              	.LC0:
 296 0000 436F6E66 		.ascii	"Configuration done\012\015\000"
 296      69677572 
 296      6174696F 
 296      6E20646F 
 296      6E650A0D 
 297 0015 000000   		.space	3
 298              	.LC1:
 299 0018 25662067 		.ascii	"%f gX    %f gY    %f gZ    \000"
 299      58202020 
 299      20256620 
 299      67592020 
 299      20202566 
 300              	.LC2:
 301 0034 25662061 		.ascii	"%f aX    %f aY    %f aZ    \000"
 301      58202020 
 301      20256620 
 301      61592020 
 301      20202566 
 302              	.LC3:
 303 0050 25642054 		.ascii	"%d T\012\015\000"
 303      0A0D00
 304 0057 00       		.space	1
 305              	.LC4:
 306 0058 0A0D4865 		.ascii	"\012\015Hello world!\012\015\000"
 306      6C6C6F20 
 306      776F726C 
 306      64210A0D 
 306      00
 307 0069 000000   		.section	.bss.heartWrkArea,"aw",%nobits
 308              		.align	3
 309              		.set	.LANCHOR1,. + 0
 310              		.type	heartWrkArea, %object
 311              		.size	heartWrkArea, 208
 312              	heartWrkArea:
 313 0000 00000000 		.space	208
 313      00000000 
 313      00000000 
 313      00000000 
 313      00000000 
 314              		.text
 315              	.Letext0:
ARM GAS  /tmp/ccSrQLBK.s 			page 7


 316              		.file 2 "/usr/bin/../lib/gcc/arm-none-eabi/4.7.4/include/stddef.h"
 317              		.file 3 "/usr/bin/../lib/gcc/arm-none-eabi/4.7.4/../../../../arm-none-eabi/include/stdint.h"
 318              		.file 4 "../../os/ports/GCC/ARMCMx/chtypes.h"
 319              		.file 5 "../../os/kernel/include/chlists.h"
 320              		.file 6 "../../os/kernel/include/chthreads.h"
 321              		.file 7 "../../os/ports/GCC/ARMCMx/chcore_v7m.h"
 322              		.file 8 "../../os/kernel/include/chmtx.h"
 323              		.file 9 "../../os/kernel/include/chevents.h"
 324              		.file 10 "../../os/kernel/include/chqueues.h"
 325              		.file 11 "../../os/kernel/include/chstreams.h"
 326              		.file 12 "../../os/hal/platforms/STM32F1xx/stm32f10x.h"
 327              		.file 13 "../../os/hal/platforms/STM32F1xx/stm32_dma.h"
 328              		.file 14 "../../os/hal/platforms/STM32/GPIOv1/pal_lld.h"
 329              		.file 15 "../../os/hal/include/i2c.h"
 330              		.file 16 "../../os/hal/platforms/STM32/I2Cv1/i2c_lld.h"
 331              		.file 17 "../../os/hal/include/serial.h"
 332              		.file 18 "../../os/hal/platforms/STM32/USARTv1/serial_lld.h"
 333              		.file 19 "../../os/ports/common/ARMCMx/CMSIS/include/core_cm3.h"
 334              		.file 20 "../../os/various/IMU01A.h"
 335              		.file 21 "../../os/various/chprintf.h"
 336              		.file 22 "../../os/hal/include/hal.h"
 337              		.file 23 "../../os/kernel/include/chsys.h"
 338              		.section	.debug_info,"",%progbits
 339              	.Ldebug_info0:
 340 0000 FA110000 		.4byte	0x11fa
 341 0004 0200     		.2byte	0x2
 342 0006 00000000 		.4byte	.Ldebug_abbrev0
 343 000a 04       		.byte	0x4
 344 000b 01       		.uleb128 0x1
 345 000c 1F010000 		.4byte	.LASF190
 346 0010 01       		.byte	0x1
 347 0011 4F040000 		.4byte	.LASF191
 348 0015 AB040000 		.4byte	.LASF192
 349 0019 00000000 		.4byte	.Ldebug_ranges0+0
 350 001d 00000000 		.4byte	0
 351 0021 00000000 		.4byte	0
 352 0025 00000000 		.4byte	.Ldebug_line0
 353 0029 02       		.uleb128 0x2
 354 002a 04       		.byte	0x4
 355 002b 05       		.byte	0x5
 356 002c 696E7400 		.ascii	"int\000"
 357 0030 03       		.uleb128 0x3
 358 0031 40000000 		.4byte	.LASF2
 359 0035 02       		.byte	0x2
 360 0036 D5       		.byte	0xd5
 361 0037 3B000000 		.4byte	0x3b
 362 003b 04       		.uleb128 0x4
 363 003c 04       		.byte	0x4
 364 003d 07       		.byte	0x7
 365 003e 59020000 		.4byte	.LASF0
 366 0042 04       		.uleb128 0x4
 367 0043 01       		.byte	0x1
 368 0044 06       		.byte	0x6
 369 0045 E6000000 		.4byte	.LASF1
 370 0049 03       		.uleb128 0x3
 371 004a 45070000 		.4byte	.LASF3
 372 004e 03       		.byte	0x3
ARM GAS  /tmp/ccSrQLBK.s 			page 8


 373 004f 2A       		.byte	0x2a
 374 0050 54000000 		.4byte	0x54
 375 0054 04       		.uleb128 0x4
 376 0055 01       		.byte	0x1
 377 0056 08       		.byte	0x8
 378 0057 7B050000 		.4byte	.LASF4
 379 005b 04       		.uleb128 0x4
 380 005c 02       		.byte	0x2
 381 005d 05       		.byte	0x5
 382 005e 67030000 		.4byte	.LASF5
 383 0062 03       		.uleb128 0x3
 384 0063 66020000 		.4byte	.LASF6
 385 0067 03       		.byte	0x3
 386 0068 36       		.byte	0x36
 387 0069 6D000000 		.4byte	0x6d
 388 006d 04       		.uleb128 0x4
 389 006e 02       		.byte	0x2
 390 006f 07       		.byte	0x7
 391 0070 F2020000 		.4byte	.LASF7
 392 0074 03       		.uleb128 0x3
 393 0075 73050000 		.4byte	.LASF8
 394 0079 03       		.byte	0x3
 395 007a 4F       		.byte	0x4f
 396 007b 7F000000 		.4byte	0x7f
 397 007f 04       		.uleb128 0x4
 398 0080 04       		.byte	0x4
 399 0081 05       		.byte	0x5
 400 0082 7D010000 		.4byte	.LASF9
 401 0086 03       		.uleb128 0x3
 402 0087 68060000 		.4byte	.LASF10
 403 008b 03       		.byte	0x3
 404 008c 50       		.byte	0x50
 405 008d 91000000 		.4byte	0x91
 406 0091 04       		.uleb128 0x4
 407 0092 04       		.byte	0x4
 408 0093 07       		.byte	0x7
 409 0094 9C060000 		.4byte	.LASF11
 410 0098 04       		.uleb128 0x4
 411 0099 08       		.byte	0x8
 412 009a 05       		.byte	0x5
 413 009b D8000000 		.4byte	.LASF12
 414 009f 03       		.uleb128 0x3
 415 00a0 4E000000 		.4byte	.LASF13
 416 00a4 03       		.byte	0x3
 417 00a5 78       		.byte	0x78
 418 00a6 AA000000 		.4byte	0xaa
 419 00aa 04       		.uleb128 0x4
 420 00ab 08       		.byte	0x8
 421 00ac 07       		.byte	0x7
 422 00ad 7C000000 		.4byte	.LASF14
 423 00b1 04       		.uleb128 0x4
 424 00b2 01       		.byte	0x1
 425 00b3 02       		.byte	0x2
 426 00b4 6D050000 		.4byte	.LASF15
 427 00b8 03       		.uleb128 0x3
 428 00b9 47030000 		.4byte	.LASF16
 429 00bd 04       		.byte	0x4
ARM GAS  /tmp/ccSrQLBK.s 			page 9


 430 00be 25       		.byte	0x25
 431 00bf 49000000 		.4byte	0x49
 432 00c3 03       		.uleb128 0x3
 433 00c4 92010000 		.4byte	.LASF17
 434 00c8 04       		.byte	0x4
 435 00c9 26       		.byte	0x26
 436 00ca 49000000 		.4byte	0x49
 437 00ce 03       		.uleb128 0x3
 438 00cf 2D000000 		.4byte	.LASF18
 439 00d3 04       		.byte	0x4
 440 00d4 27       		.byte	0x27
 441 00d5 49000000 		.4byte	0x49
 442 00d9 03       		.uleb128 0x3
 443 00da 15010000 		.4byte	.LASF19
 444 00de 04       		.byte	0x4
 445 00df 28       		.byte	0x28
 446 00e0 49000000 		.4byte	0x49
 447 00e4 03       		.uleb128 0x3
 448 00e5 4C050000 		.4byte	.LASF20
 449 00e9 04       		.byte	0x4
 450 00ea 29       		.byte	0x29
 451 00eb 86000000 		.4byte	0x86
 452 00ef 03       		.uleb128 0x3
 453 00f0 25030000 		.4byte	.LASF21
 454 00f4 04       		.byte	0x4
 455 00f5 2A       		.byte	0x2a
 456 00f6 74000000 		.4byte	0x74
 457 00fa 03       		.uleb128 0x3
 458 00fb 5B030000 		.4byte	.LASF22
 459 00ff 04       		.byte	0x4
 460 0100 2C       		.byte	0x2c
 461 0101 86000000 		.4byte	0x86
 462 0105 03       		.uleb128 0x3
 463 0106 98000000 		.4byte	.LASF23
 464 010a 04       		.byte	0x4
 465 010b 2D       		.byte	0x2d
 466 010c 86000000 		.4byte	0x86
 467 0110 03       		.uleb128 0x3
 468 0111 D6060000 		.4byte	.LASF24
 469 0115 04       		.byte	0x4
 470 0116 2E       		.byte	0x2e
 471 0117 86000000 		.4byte	0x86
 472 011b 03       		.uleb128 0x3
 473 011c 2B020000 		.4byte	.LASF25
 474 0120 05       		.byte	0x5
 475 0121 23       		.byte	0x23
 476 0122 26010000 		.4byte	0x126
 477 0126 05       		.uleb128 0x5
 478 0127 2B020000 		.4byte	.LASF25
 479 012b 4C       		.byte	0x4c
 480 012c 06       		.byte	0x6
 481 012d 57       		.byte	0x57
 482 012e 59020000 		.4byte	0x259
 483 0132 06       		.uleb128 0x6
 484 0133 E8050000 		.4byte	.LASF26
 485 0137 06       		.byte	0x6
 486 0138 58       		.byte	0x58
ARM GAS  /tmp/ccSrQLBK.s 			page 10


 487 0139 7E020000 		.4byte	0x27e
 488 013d 02       		.byte	0x2
 489 013e 23       		.byte	0x23
 490 013f 00       		.uleb128 0
 491 0140 06       		.uleb128 0x6
 492 0141 27050000 		.4byte	.LASF27
 493 0145 06       		.byte	0x6
 494 0146 5A       		.byte	0x5a
 495 0147 7E020000 		.4byte	0x27e
 496 014b 02       		.byte	0x2
 497 014c 23       		.byte	0x23
 498 014d 04       		.uleb128 0x4
 499 014e 06       		.uleb128 0x6
 500 014f C1000000 		.4byte	.LASF28
 501 0153 06       		.byte	0x6
 502 0154 5C       		.byte	0x5c
 503 0155 E4000000 		.4byte	0xe4
 504 0159 02       		.byte	0x2
 505 015a 23       		.byte	0x23
 506 015b 08       		.uleb128 0x8
 507 015c 06       		.uleb128 0x6
 508 015d A2070000 		.4byte	.LASF29
 509 0161 06       		.byte	0x6
 510 0162 5D       		.byte	0x5d
 511 0163 57030000 		.4byte	0x357
 512 0167 02       		.byte	0x2
 513 0168 23       		.byte	0x23
 514 0169 0C       		.uleb128 0xc
 515 016a 06       		.uleb128 0x6
 516 016b CF010000 		.4byte	.LASF30
 517 016f 06       		.byte	0x6
 518 0170 5F       		.byte	0x5f
 519 0171 7E020000 		.4byte	0x27e
 520 0175 02       		.byte	0x2
 521 0176 23       		.byte	0x23
 522 0177 10       		.uleb128 0x10
 523 0178 06       		.uleb128 0x6
 524 0179 10040000 		.4byte	.LASF31
 525 017d 06       		.byte	0x6
 526 017e 60       		.byte	0x60
 527 017f 7E020000 		.4byte	0x27e
 528 0183 02       		.byte	0x2
 529 0184 23       		.byte	0x23
 530 0185 14       		.uleb128 0x14
 531 0186 06       		.uleb128 0x6
 532 0187 13070000 		.4byte	.LASF32
 533 018b 06       		.byte	0x6
 534 018c 67       		.byte	0x67
 535 018d 84040000 		.4byte	0x484
 536 0191 02       		.byte	0x2
 537 0192 23       		.byte	0x23
 538 0193 18       		.uleb128 0x18
 539 0194 06       		.uleb128 0x6
 540 0195 39040000 		.4byte	.LASF33
 541 0199 06       		.byte	0x6
 542 019a 6D       		.byte	0x6d
 543 019b 96040000 		.4byte	0x496
ARM GAS  /tmp/ccSrQLBK.s 			page 11


 544 019f 02       		.byte	0x2
 545 01a0 23       		.byte	0x23
 546 01a1 1C       		.uleb128 0x1c
 547 01a2 06       		.uleb128 0x6
 548 01a3 CF050000 		.4byte	.LASF34
 549 01a7 06       		.byte	0x6
 550 01a8 72       		.byte	0x72
 551 01a9 C3000000 		.4byte	0xc3
 552 01ad 02       		.byte	0x2
 553 01ae 23       		.byte	0x23
 554 01af 20       		.uleb128 0x20
 555 01b0 06       		.uleb128 0x6
 556 01b1 07060000 		.4byte	.LASF35
 557 01b5 06       		.byte	0x6
 558 01b6 76       		.byte	0x76
 559 01b7 B8000000 		.4byte	0xb8
 560 01bb 02       		.byte	0x2
 561 01bc 23       		.byte	0x23
 562 01bd 21       		.uleb128 0x21
 563 01be 06       		.uleb128 0x6
 564 01bf A2010000 		.4byte	.LASF36
 565 01c3 06       		.byte	0x6
 566 01c4 7B       		.byte	0x7b
 567 01c5 CE000000 		.4byte	0xce
 568 01c9 02       		.byte	0x2
 569 01ca 23       		.byte	0x23
 570 01cb 22       		.uleb128 0x22
 571 01cc 06       		.uleb128 0x6
 572 01cd D7050000 		.4byte	.LASF37
 573 01d1 06       		.byte	0x6
 574 01d2 81       		.byte	0x81
 575 01d3 D9000000 		.4byte	0xd9
 576 01d7 02       		.byte	0x2
 577 01d8 23       		.byte	0x23
 578 01d9 23       		.uleb128 0x23
 579 01da 06       		.uleb128 0x6
 580 01db 7F020000 		.4byte	.LASF38
 581 01df 06       		.byte	0x6
 582 01e0 88       		.byte	0x88
 583 01e1 86030000 		.4byte	0x386
 584 01e5 02       		.byte	0x2
 585 01e6 23       		.byte	0x23
 586 01e7 24       		.uleb128 0x24
 587 01e8 07       		.uleb128 0x7
 588 01e9 705F7500 		.ascii	"p_u\000"
 589 01ed 06       		.byte	0x6
 590 01ee AD       		.byte	0xad
 591 01ef 4F040000 		.4byte	0x44f
 592 01f3 02       		.byte	0x2
 593 01f4 23       		.byte	0x23
 594 01f5 28       		.uleb128 0x28
 595 01f6 06       		.uleb128 0x6
 596 01f7 A8070000 		.4byte	.LASF39
 597 01fb 06       		.byte	0x6
 598 01fc B2       		.byte	0xb2
 599 01fd A6020000 		.4byte	0x2a6
 600 0201 02       		.byte	0x2
ARM GAS  /tmp/ccSrQLBK.s 			page 12


 601 0202 23       		.byte	0x23
 602 0203 2C       		.uleb128 0x2c
 603 0204 06       		.uleb128 0x6
 604 0205 A0020000 		.4byte	.LASF40
 605 0209 06       		.byte	0x6
 606 020a B8       		.byte	0xb8
 607 020b 84020000 		.4byte	0x284
 608 020f 02       		.byte	0x2
 609 0210 23       		.byte	0x23
 610 0211 30       		.uleb128 0x30
 611 0212 06       		.uleb128 0x6
 612 0213 77070000 		.4byte	.LASF41
 613 0217 06       		.byte	0x6
 614 0218 BC       		.byte	0xbc
 615 0219 EF000000 		.4byte	0xef
 616 021d 02       		.byte	0x2
 617 021e 23       		.byte	0x23
 618 021f 38       		.uleb128 0x38
 619 0220 06       		.uleb128 0x6
 620 0221 49060000 		.4byte	.LASF42
 621 0225 06       		.byte	0x6
 622 0226 C2       		.byte	0xc2
 623 0227 FA000000 		.4byte	0xfa
 624 022b 02       		.byte	0x2
 625 022c 23       		.byte	0x23
 626 022d 3C       		.uleb128 0x3c
 627 022e 06       		.uleb128 0x6
 628 022f BA050000 		.4byte	.LASF43
 629 0233 06       		.byte	0x6
 630 0234 C9       		.byte	0xc9
 631 0235 9C040000 		.4byte	0x49c
 632 0239 02       		.byte	0x2
 633 023a 23       		.byte	0x23
 634 023b 40       		.uleb128 0x40
 635 023c 06       		.uleb128 0x6
 636 023d E0060000 		.4byte	.LASF44
 637 0241 06       		.byte	0x6
 638 0242 CD       		.byte	0xcd
 639 0243 E4000000 		.4byte	0xe4
 640 0247 02       		.byte	0x2
 641 0248 23       		.byte	0x23
 642 0249 44       		.uleb128 0x44
 643 024a 06       		.uleb128 0x6
 644 024b 05010000 		.4byte	.LASF45
 645 024f 06       		.byte	0x6
 646 0250 D3       		.byte	0xd3
 647 0251 BC020000 		.4byte	0x2bc
 648 0255 02       		.byte	0x2
 649 0256 23       		.byte	0x23
 650 0257 48       		.uleb128 0x48
 651 0258 00       		.byte	0
 652 0259 08       		.uleb128 0x8
 653 025a 08       		.byte	0x8
 654 025b 05       		.byte	0x5
 655 025c 5A       		.byte	0x5a
 656 025d 7E020000 		.4byte	0x27e
 657 0261 06       		.uleb128 0x6
ARM GAS  /tmp/ccSrQLBK.s 			page 13


 658 0262 E8050000 		.4byte	.LASF26
 659 0266 05       		.byte	0x5
 660 0267 5B       		.byte	0x5b
 661 0268 7E020000 		.4byte	0x27e
 662 026c 02       		.byte	0x2
 663 026d 23       		.byte	0x23
 664 026e 00       		.uleb128 0
 665 026f 06       		.uleb128 0x6
 666 0270 27050000 		.4byte	.LASF27
 667 0274 05       		.byte	0x5
 668 0275 5D       		.byte	0x5d
 669 0276 7E020000 		.4byte	0x27e
 670 027a 02       		.byte	0x2
 671 027b 23       		.byte	0x23
 672 027c 04       		.uleb128 0x4
 673 027d 00       		.byte	0
 674 027e 09       		.uleb128 0x9
 675 027f 04       		.byte	0x4
 676 0280 1B010000 		.4byte	0x11b
 677 0284 03       		.uleb128 0x3
 678 0285 22040000 		.4byte	.LASF46
 679 0289 05       		.byte	0x5
 680 028a 5F       		.byte	0x5f
 681 028b 59020000 		.4byte	0x259
 682 028f 08       		.uleb128 0x8
 683 0290 04       		.byte	0x4
 684 0291 05       		.byte	0x5
 685 0292 64       		.byte	0x64
 686 0293 A6020000 		.4byte	0x2a6
 687 0297 06       		.uleb128 0x6
 688 0298 E8050000 		.4byte	.LASF26
 689 029c 05       		.byte	0x5
 690 029d 66       		.byte	0x66
 691 029e 7E020000 		.4byte	0x27e
 692 02a2 02       		.byte	0x2
 693 02a3 23       		.byte	0x23
 694 02a4 00       		.uleb128 0
 695 02a5 00       		.byte	0
 696 02a6 03       		.uleb128 0x3
 697 02a7 4F030000 		.4byte	.LASF47
 698 02ab 05       		.byte	0x5
 699 02ac 69       		.byte	0x69
 700 02ad 8F020000 		.4byte	0x28f
 701 02b1 03       		.uleb128 0x3
 702 02b2 06020000 		.4byte	.LASF48
 703 02b6 07       		.byte	0x7
 704 02b7 DE       		.byte	0xde
 705 02b8 BC020000 		.4byte	0x2bc
 706 02bc 0A       		.uleb128 0xa
 707 02bd 04       		.byte	0x4
 708 02be 03       		.uleb128 0x3
 709 02bf 8E030000 		.4byte	.LASF49
 710 02c3 07       		.byte	0x7
 711 02c4 E4       		.byte	0xe4
 712 02c5 9F000000 		.4byte	0x9f
 713 02c9 0B       		.uleb128 0xb
 714 02ca FD060000 		.4byte	.LASF50
ARM GAS  /tmp/ccSrQLBK.s 			page 14


 715 02ce 24       		.byte	0x24
 716 02cf 07       		.byte	0x7
 717 02d0 0501     		.2byte	0x105
 718 02d2 57030000 		.4byte	0x357
 719 02d6 0C       		.uleb128 0xc
 720 02d7 723400   		.ascii	"r4\000"
 721 02da 07       		.byte	0x7
 722 02db 1801     		.2byte	0x118
 723 02dd B1020000 		.4byte	0x2b1
 724 02e1 02       		.byte	0x2
 725 02e2 23       		.byte	0x23
 726 02e3 00       		.uleb128 0
 727 02e4 0C       		.uleb128 0xc
 728 02e5 723500   		.ascii	"r5\000"
 729 02e8 07       		.byte	0x7
 730 02e9 1901     		.2byte	0x119
 731 02eb B1020000 		.4byte	0x2b1
 732 02ef 02       		.byte	0x2
 733 02f0 23       		.byte	0x23
 734 02f1 04       		.uleb128 0x4
 735 02f2 0C       		.uleb128 0xc
 736 02f3 723600   		.ascii	"r6\000"
 737 02f6 07       		.byte	0x7
 738 02f7 1A01     		.2byte	0x11a
 739 02f9 B1020000 		.4byte	0x2b1
 740 02fd 02       		.byte	0x2
 741 02fe 23       		.byte	0x23
 742 02ff 08       		.uleb128 0x8
 743 0300 0C       		.uleb128 0xc
 744 0301 723700   		.ascii	"r7\000"
 745 0304 07       		.byte	0x7
 746 0305 1B01     		.2byte	0x11b
 747 0307 B1020000 		.4byte	0x2b1
 748 030b 02       		.byte	0x2
 749 030c 23       		.byte	0x23
 750 030d 0C       		.uleb128 0xc
 751 030e 0C       		.uleb128 0xc
 752 030f 723800   		.ascii	"r8\000"
 753 0312 07       		.byte	0x7
 754 0313 1C01     		.2byte	0x11c
 755 0315 B1020000 		.4byte	0x2b1
 756 0319 02       		.byte	0x2
 757 031a 23       		.byte	0x23
 758 031b 10       		.uleb128 0x10
 759 031c 0C       		.uleb128 0xc
 760 031d 723900   		.ascii	"r9\000"
 761 0320 07       		.byte	0x7
 762 0321 1D01     		.2byte	0x11d
 763 0323 B1020000 		.4byte	0x2b1
 764 0327 02       		.byte	0x2
 765 0328 23       		.byte	0x23
 766 0329 14       		.uleb128 0x14
 767 032a 0C       		.uleb128 0xc
 768 032b 72313000 		.ascii	"r10\000"
 769 032f 07       		.byte	0x7
 770 0330 1E01     		.2byte	0x11e
 771 0332 B1020000 		.4byte	0x2b1
ARM GAS  /tmp/ccSrQLBK.s 			page 15


 772 0336 02       		.byte	0x2
 773 0337 23       		.byte	0x23
 774 0338 18       		.uleb128 0x18
 775 0339 0C       		.uleb128 0xc
 776 033a 72313100 		.ascii	"r11\000"
 777 033e 07       		.byte	0x7
 778 033f 1F01     		.2byte	0x11f
 779 0341 B1020000 		.4byte	0x2b1
 780 0345 02       		.byte	0x2
 781 0346 23       		.byte	0x23
 782 0347 1C       		.uleb128 0x1c
 783 0348 0C       		.uleb128 0xc
 784 0349 6C7200   		.ascii	"lr\000"
 785 034c 07       		.byte	0x7
 786 034d 2001     		.2byte	0x120
 787 034f B1020000 		.4byte	0x2b1
 788 0353 02       		.byte	0x2
 789 0354 23       		.byte	0x23
 790 0355 20       		.uleb128 0x20
 791 0356 00       		.byte	0
 792 0357 0B       		.uleb128 0xb
 793 0358 F5060000 		.4byte	.LASF51
 794 035c 04       		.byte	0x4
 795 035d 07       		.byte	0x7
 796 035e 2A01     		.2byte	0x12a
 797 0360 74030000 		.4byte	0x374
 798 0364 0C       		.uleb128 0xc
 799 0365 72313300 		.ascii	"r13\000"
 800 0369 07       		.byte	0x7
 801 036a 2B01     		.2byte	0x12b
 802 036c 74030000 		.4byte	0x374
 803 0370 02       		.byte	0x2
 804 0371 23       		.byte	0x23
 805 0372 00       		.uleb128 0
 806 0373 00       		.byte	0
 807 0374 09       		.uleb128 0x9
 808 0375 04       		.byte	0x4
 809 0376 C9020000 		.4byte	0x2c9
 810 037a 0D       		.uleb128 0xd
 811 037b 86000000 		.4byte	0x86
 812 037f 04       		.uleb128 0x4
 813 0380 04       		.byte	0x4
 814 0381 07       		.byte	0x7
 815 0382 D4030000 		.4byte	.LASF52
 816 0386 0D       		.uleb128 0xd
 817 0387 10010000 		.4byte	0x110
 818 038b 05       		.uleb128 0x5
 819 038c F0030000 		.4byte	.LASF53
 820 0390 10       		.byte	0x10
 821 0391 08       		.byte	0x8
 822 0392 25       		.byte	0x25
 823 0393 C2030000 		.4byte	0x3c2
 824 0397 06       		.uleb128 0x6
 825 0398 0D010000 		.4byte	.LASF54
 826 039c 08       		.byte	0x8
 827 039d 26       		.byte	0x26
 828 039e 84020000 		.4byte	0x284
ARM GAS  /tmp/ccSrQLBK.s 			page 16


 829 03a2 02       		.byte	0x2
 830 03a3 23       		.byte	0x23
 831 03a4 00       		.uleb128 0
 832 03a5 06       		.uleb128 0x6
 833 03a6 9A070000 		.4byte	.LASF55
 834 03aa 08       		.byte	0x8
 835 03ab 28       		.byte	0x28
 836 03ac 7E020000 		.4byte	0x27e
 837 03b0 02       		.byte	0x2
 838 03b1 23       		.byte	0x23
 839 03b2 08       		.uleb128 0x8
 840 03b3 06       		.uleb128 0x6
 841 03b4 CF060000 		.4byte	.LASF56
 842 03b8 08       		.byte	0x8
 843 03b9 2A       		.byte	0x2a
 844 03ba C2030000 		.4byte	0x3c2
 845 03be 02       		.byte	0x2
 846 03bf 23       		.byte	0x23
 847 03c0 0C       		.uleb128 0xc
 848 03c1 00       		.byte	0
 849 03c2 09       		.uleb128 0x9
 850 03c3 04       		.byte	0x4
 851 03c4 8B030000 		.4byte	0x38b
 852 03c8 03       		.uleb128 0x3
 853 03c9 F0030000 		.4byte	.LASF53
 854 03cd 08       		.byte	0x8
 855 03ce 2C       		.byte	0x2c
 856 03cf 8B030000 		.4byte	0x38b
 857 03d3 03       		.uleb128 0x3
 858 03d4 62070000 		.4byte	.LASF57
 859 03d8 09       		.byte	0x9
 860 03d9 25       		.byte	0x25
 861 03da DE030000 		.4byte	0x3de
 862 03de 05       		.uleb128 0x5
 863 03df 62070000 		.4byte	.LASF57
 864 03e3 10       		.byte	0x10
 865 03e4 09       		.byte	0x9
 866 03e5 2A       		.byte	0x2a
 867 03e6 23040000 		.4byte	0x423
 868 03ea 06       		.uleb128 0x6
 869 03eb 0F060000 		.4byte	.LASF58
 870 03ef 09       		.byte	0x9
 871 03f0 2B       		.byte	0x2b
 872 03f1 23040000 		.4byte	0x423
 873 03f5 02       		.byte	0x2
 874 03f6 23       		.byte	0x23
 875 03f7 00       		.uleb128 0
 876 03f8 06       		.uleb128 0x6
 877 03f9 9C050000 		.4byte	.LASF59
 878 03fd 09       		.byte	0x9
 879 03fe 2E       		.byte	0x2e
 880 03ff 7E020000 		.4byte	0x27e
 881 0403 02       		.byte	0x2
 882 0404 23       		.byte	0x23
 883 0405 04       		.uleb128 0x4
 884 0406 06       		.uleb128 0x6
 885 0407 08040000 		.4byte	.LASF60
ARM GAS  /tmp/ccSrQLBK.s 			page 17


 886 040b 09       		.byte	0x9
 887 040c 30       		.byte	0x30
 888 040d FA000000 		.4byte	0xfa
 889 0411 02       		.byte	0x2
 890 0412 23       		.byte	0x23
 891 0413 08       		.uleb128 0x8
 892 0414 06       		.uleb128 0x6
 893 0415 B1050000 		.4byte	.LASF61
 894 0419 09       		.byte	0x9
 895 041a 33       		.byte	0x33
 896 041b 05010000 		.4byte	0x105
 897 041f 02       		.byte	0x2
 898 0420 23       		.byte	0x23
 899 0421 0C       		.uleb128 0xc
 900 0422 00       		.byte	0
 901 0423 09       		.uleb128 0x9
 902 0424 04       		.byte	0x4
 903 0425 D3030000 		.4byte	0x3d3
 904 0429 05       		.uleb128 0x5
 905 042a 32020000 		.4byte	.LASF62
 906 042e 04       		.byte	0x4
 907 042f 09       		.byte	0x9
 908 0430 3A       		.byte	0x3a
 909 0431 44040000 		.4byte	0x444
 910 0435 06       		.uleb128 0x6
 911 0436 1A070000 		.4byte	.LASF63
 912 043a 09       		.byte	0x9
 913 043b 3B       		.byte	0x3b
 914 043c 23040000 		.4byte	0x423
 915 0440 02       		.byte	0x2
 916 0441 23       		.byte	0x23
 917 0442 00       		.uleb128 0
 918 0443 00       		.byte	0
 919 0444 03       		.uleb128 0x3
 920 0445 32020000 		.4byte	.LASF62
 921 0449 09       		.byte	0x9
 922 044a 3E       		.byte	0x3e
 923 044b 29040000 		.4byte	0x429
 924 044f 0E       		.uleb128 0xe
 925 0450 04       		.byte	0x4
 926 0451 06       		.byte	0x6
 927 0452 8F       		.byte	0x8f
 928 0453 84040000 		.4byte	0x484
 929 0457 0F       		.uleb128 0xf
 930 0458 47000000 		.4byte	.LASF64
 931 045c 06       		.byte	0x6
 932 045d 96       		.byte	0x96
 933 045e EF000000 		.4byte	0xef
 934 0462 0F       		.uleb128 0xf
 935 0463 A4000000 		.4byte	.LASF65
 936 0467 06       		.byte	0x6
 937 0468 9D       		.byte	0x9d
 938 0469 EF000000 		.4byte	0xef
 939 046d 0F       		.uleb128 0xf
 940 046e 70070000 		.4byte	.LASF66
 941 0472 06       		.byte	0x6
 942 0473 A4       		.byte	0xa4
ARM GAS  /tmp/ccSrQLBK.s 			page 18


 943 0474 BC020000 		.4byte	0x2bc
 944 0478 0F       		.uleb128 0xf
 945 0479 E1050000 		.4byte	.LASF67
 946 047d 06       		.byte	0x6
 947 047e AB       		.byte	0xab
 948 047f FA000000 		.4byte	0xfa
 949 0483 00       		.byte	0
 950 0484 09       		.uleb128 0x9
 951 0485 04       		.byte	0x4
 952 0486 8A040000 		.4byte	0x48a
 953 048a 10       		.uleb128 0x10
 954 048b 8F040000 		.4byte	0x48f
 955 048f 04       		.uleb128 0x4
 956 0490 01       		.byte	0x1
 957 0491 08       		.byte	0x8
 958 0492 B3060000 		.4byte	.LASF68
 959 0496 09       		.uleb128 0x9
 960 0497 04       		.byte	0x4
 961 0498 BE020000 		.4byte	0x2be
 962 049c 09       		.uleb128 0x9
 963 049d 04       		.byte	0x4
 964 049e C8030000 		.4byte	0x3c8
 965 04a2 03       		.uleb128 0x3
 966 04a3 C7060000 		.4byte	.LASF69
 967 04a7 06       		.byte	0x6
 968 04a8 DE       		.byte	0xde
 969 04a9 AD040000 		.4byte	0x4ad
 970 04ad 09       		.uleb128 0x9
 971 04ae 04       		.byte	0x4
 972 04af B3040000 		.4byte	0x4b3
 973 04b3 11       		.uleb128 0x11
 974 04b4 01       		.byte	0x1
 975 04b5 EF000000 		.4byte	0xef
 976 04b9 C3040000 		.4byte	0x4c3
 977 04bd 12       		.uleb128 0x12
 978 04be BC020000 		.4byte	0x2bc
 979 04c2 00       		.byte	0
 980 04c3 03       		.uleb128 0x3
 981 04c4 81030000 		.4byte	.LASF70
 982 04c8 0A       		.byte	0xa
 983 04c9 30       		.byte	0x30
 984 04ca CE040000 		.4byte	0x4ce
 985 04ce 05       		.uleb128 0x5
 986 04cf 81030000 		.4byte	.LASF70
 987 04d3 24       		.byte	0x24
 988 04d4 0A       		.byte	0xa
 989 04d5 3E       		.byte	0x3e
 990 04d6 4B050000 		.4byte	0x54b
 991 04da 06       		.uleb128 0x6
 992 04db CE000000 		.4byte	.LASF71
 993 04df 0A       		.byte	0xa
 994 04e0 3F       		.byte	0x3f
 995 04e1 84020000 		.4byte	0x284
 996 04e5 02       		.byte	0x2
 997 04e6 23       		.byte	0x23
 998 04e7 00       		.uleb128 0
 999 04e8 06       		.uleb128 0x6
ARM GAS  /tmp/ccSrQLBK.s 			page 19


 1000 04e9 DD030000 		.4byte	.LASF72
 1001 04ed 0A       		.byte	0xa
 1002 04ee 40       		.byte	0x40
 1003 04ef 30000000 		.4byte	0x30
 1004 04f3 02       		.byte	0x2
 1005 04f4 23       		.byte	0x23
 1006 04f5 08       		.uleb128 0x8
 1007 04f6 06       		.uleb128 0x6
 1008 04f7 A9010000 		.4byte	.LASF73
 1009 04fb 0A       		.byte	0xa
 1010 04fc 41       		.byte	0x41
 1011 04fd 6E050000 		.4byte	0x56e
 1012 0501 02       		.byte	0x2
 1013 0502 23       		.byte	0x23
 1014 0503 0C       		.uleb128 0xc
 1015 0504 06       		.uleb128 0x6
 1016 0505 0D070000 		.4byte	.LASF74
 1017 0509 0A       		.byte	0xa
 1018 050a 42       		.byte	0x42
 1019 050b 6E050000 		.4byte	0x56e
 1020 050f 02       		.byte	0x2
 1021 0510 23       		.byte	0x23
 1022 0511 10       		.uleb128 0x10
 1023 0512 06       		.uleb128 0x6
 1024 0513 B2010000 		.4byte	.LASF75
 1025 0517 0A       		.byte	0xa
 1026 0518 44       		.byte	0x44
 1027 0519 6E050000 		.4byte	0x56e
 1028 051d 02       		.byte	0x2
 1029 051e 23       		.byte	0x23
 1030 051f 14       		.uleb128 0x14
 1031 0520 06       		.uleb128 0x6
 1032 0521 54050000 		.4byte	.LASF76
 1033 0525 0A       		.byte	0xa
 1034 0526 45       		.byte	0x45
 1035 0527 6E050000 		.4byte	0x56e
 1036 052b 02       		.byte	0x2
 1037 052c 23       		.byte	0x23
 1038 052d 18       		.uleb128 0x18
 1039 052e 06       		.uleb128 0x6
 1040 052f 2D070000 		.4byte	.LASF77
 1041 0533 0A       		.byte	0xa
 1042 0534 46       		.byte	0x46
 1043 0535 4B050000 		.4byte	0x54b
 1044 0539 02       		.byte	0x2
 1045 053a 23       		.byte	0x23
 1046 053b 1C       		.uleb128 0x1c
 1047 053c 06       		.uleb128 0x6
 1048 053d BA010000 		.4byte	.LASF78
 1049 0541 0A       		.byte	0xa
 1050 0542 47       		.byte	0x47
 1051 0543 BC020000 		.4byte	0x2bc
 1052 0547 02       		.byte	0x2
 1053 0548 23       		.byte	0x23
 1054 0549 20       		.uleb128 0x20
 1055 054a 00       		.byte	0
 1056 054b 03       		.uleb128 0x3
ARM GAS  /tmp/ccSrQLBK.s 			page 20


 1057 054c 77030000 		.4byte	.LASF79
 1058 0550 0A       		.byte	0xa
 1059 0551 33       		.byte	0x33
 1060 0552 56050000 		.4byte	0x556
 1061 0556 09       		.uleb128 0x9
 1062 0557 04       		.byte	0x4
 1063 0558 5C050000 		.4byte	0x55c
 1064 055c 13       		.uleb128 0x13
 1065 055d 01       		.byte	0x1
 1066 055e 68050000 		.4byte	0x568
 1067 0562 12       		.uleb128 0x12
 1068 0563 68050000 		.4byte	0x568
 1069 0567 00       		.byte	0
 1070 0568 09       		.uleb128 0x9
 1071 0569 04       		.byte	0x4
 1072 056a C3040000 		.4byte	0x4c3
 1073 056e 09       		.uleb128 0x9
 1074 056f 04       		.byte	0x4
 1075 0570 49000000 		.4byte	0x49
 1076 0574 03       		.uleb128 0x3
 1077 0575 4D070000 		.4byte	.LASF80
 1078 0579 0A       		.byte	0xa
 1079 057a 7B       		.byte	0x7b
 1080 057b C3040000 		.4byte	0x4c3
 1081 057f 03       		.uleb128 0x3
 1082 0580 57000000 		.4byte	.LASF81
 1083 0584 0A       		.byte	0xa
 1084 0585 EE       		.byte	0xee
 1085 0586 C3040000 		.4byte	0x4c3
 1086 058a 05       		.uleb128 0x5
 1087 058b EF050000 		.4byte	.LASF82
 1088 058f 10       		.byte	0x10
 1089 0590 0B       		.byte	0xb
 1090 0591 41       		.byte	0x41
 1091 0592 CF050000 		.4byte	0x5cf
 1092 0596 06       		.uleb128 0x6
 1093 0597 AB030000 		.4byte	.LASF83
 1094 059b 0B       		.byte	0xb
 1095 059c 42       		.byte	0x42
 1096 059d F4050000 		.4byte	0x5f4
 1097 05a1 02       		.byte	0x2
 1098 05a2 23       		.byte	0x23
 1099 05a3 00       		.uleb128 0
 1100 05a4 06       		.uleb128 0x6
 1101 05a5 AE060000 		.4byte	.LASF84
 1102 05a9 0B       		.byte	0xb
 1103 05aa 42       		.byte	0x42
 1104 05ab 14060000 		.4byte	0x614
 1105 05af 02       		.byte	0x2
 1106 05b0 23       		.byte	0x23
 1107 05b1 04       		.uleb128 0x4
 1108 05b2 07       		.uleb128 0x7
 1109 05b3 70757400 		.ascii	"put\000"
 1110 05b7 0B       		.byte	0xb
 1111 05b8 42       		.byte	0x42
 1112 05b9 2F060000 		.4byte	0x62f
 1113 05bd 02       		.byte	0x2
ARM GAS  /tmp/ccSrQLBK.s 			page 21


 1114 05be 23       		.byte	0x23
 1115 05bf 08       		.uleb128 0x8
 1116 05c0 07       		.uleb128 0x7
 1117 05c1 67657400 		.ascii	"get\000"
 1118 05c5 0B       		.byte	0xb
 1119 05c6 42       		.byte	0x42
 1120 05c7 AD040000 		.4byte	0x4ad
 1121 05cb 02       		.byte	0x2
 1122 05cc 23       		.byte	0x23
 1123 05cd 0C       		.uleb128 0xc
 1124 05ce 00       		.byte	0
 1125 05cf 11       		.uleb128 0x11
 1126 05d0 01       		.byte	0x1
 1127 05d1 30000000 		.4byte	0x30
 1128 05d5 E9050000 		.4byte	0x5e9
 1129 05d9 12       		.uleb128 0x12
 1130 05da BC020000 		.4byte	0x2bc
 1131 05de 12       		.uleb128 0x12
 1132 05df E9050000 		.4byte	0x5e9
 1133 05e3 12       		.uleb128 0x12
 1134 05e4 30000000 		.4byte	0x30
 1135 05e8 00       		.byte	0
 1136 05e9 09       		.uleb128 0x9
 1137 05ea 04       		.byte	0x4
 1138 05eb EF050000 		.4byte	0x5ef
 1139 05ef 10       		.uleb128 0x10
 1140 05f0 49000000 		.4byte	0x49
 1141 05f4 09       		.uleb128 0x9
 1142 05f5 04       		.byte	0x4
 1143 05f6 CF050000 		.4byte	0x5cf
 1144 05fa 11       		.uleb128 0x11
 1145 05fb 01       		.byte	0x1
 1146 05fc 30000000 		.4byte	0x30
 1147 0600 14060000 		.4byte	0x614
 1148 0604 12       		.uleb128 0x12
 1149 0605 BC020000 		.4byte	0x2bc
 1150 0609 12       		.uleb128 0x12
 1151 060a 6E050000 		.4byte	0x56e
 1152 060e 12       		.uleb128 0x12
 1153 060f 30000000 		.4byte	0x30
 1154 0613 00       		.byte	0
 1155 0614 09       		.uleb128 0x9
 1156 0615 04       		.byte	0x4
 1157 0616 FA050000 		.4byte	0x5fa
 1158 061a 11       		.uleb128 0x11
 1159 061b 01       		.byte	0x1
 1160 061c EF000000 		.4byte	0xef
 1161 0620 2F060000 		.4byte	0x62f
 1162 0624 12       		.uleb128 0x12
 1163 0625 BC020000 		.4byte	0x2bc
 1164 0629 12       		.uleb128 0x12
 1165 062a 49000000 		.4byte	0x49
 1166 062e 00       		.byte	0
 1167 062f 09       		.uleb128 0x9
 1168 0630 04       		.byte	0x4
 1169 0631 1A060000 		.4byte	0x61a
 1170 0635 08       		.uleb128 0x8
ARM GAS  /tmp/ccSrQLBK.s 			page 22


 1171 0636 04       		.byte	0x4
 1172 0637 0B       		.byte	0xb
 1173 0638 4A       		.byte	0x4a
 1174 0639 4C060000 		.4byte	0x64c
 1175 063d 07       		.uleb128 0x7
 1176 063e 766D7400 		.ascii	"vmt\000"
 1177 0642 0B       		.byte	0xb
 1178 0643 4C       		.byte	0x4c
 1179 0644 4C060000 		.4byte	0x64c
 1180 0648 02       		.byte	0x2
 1181 0649 23       		.byte	0x23
 1182 064a 00       		.uleb128 0
 1183 064b 00       		.byte	0
 1184 064c 09       		.uleb128 0x9
 1185 064d 04       		.byte	0x4
 1186 064e 52060000 		.4byte	0x652
 1187 0652 10       		.uleb128 0x10
 1188 0653 8A050000 		.4byte	0x58a
 1189 0657 03       		.uleb128 0x3
 1190 0658 3E020000 		.4byte	.LASF85
 1191 065c 0B       		.byte	0xb
 1192 065d 4E       		.byte	0x4e
 1193 065e 35060000 		.4byte	0x635
 1194 0662 0D       		.uleb128 0xd
 1195 0663 62000000 		.4byte	0x62
 1196 0667 0D       		.uleb128 0xd
 1197 0668 74000000 		.4byte	0x74
 1198 066c 14       		.uleb128 0x14
 1199 066d 10       		.byte	0x10
 1200 066e 0C       		.byte	0xc
 1201 066f 2D03     		.2byte	0x32d
 1202 0671 B2060000 		.4byte	0x6b2
 1203 0675 0C       		.uleb128 0xc
 1204 0676 43435200 		.ascii	"CCR\000"
 1205 067a 0C       		.byte	0xc
 1206 067b 2F03     		.2byte	0x32f
 1207 067d 7A030000 		.4byte	0x37a
 1208 0681 02       		.byte	0x2
 1209 0682 23       		.byte	0x23
 1210 0683 00       		.uleb128 0
 1211 0684 15       		.uleb128 0x15
 1212 0685 22070000 		.4byte	.LASF86
 1213 0689 0C       		.byte	0xc
 1214 068a 3003     		.2byte	0x330
 1215 068c 7A030000 		.4byte	0x37a
 1216 0690 02       		.byte	0x2
 1217 0691 23       		.byte	0x23
 1218 0692 04       		.uleb128 0x4
 1219 0693 15       		.uleb128 0x15
 1220 0694 8E020000 		.4byte	.LASF87
 1221 0698 0C       		.byte	0xc
 1222 0699 3103     		.2byte	0x331
 1223 069b 7A030000 		.4byte	0x37a
 1224 069f 02       		.byte	0x2
 1225 06a0 23       		.byte	0x23
 1226 06a1 08       		.uleb128 0x8
 1227 06a2 15       		.uleb128 0x15
ARM GAS  /tmp/ccSrQLBK.s 			page 23


 1228 06a3 28070000 		.4byte	.LASF88
 1229 06a7 0C       		.byte	0xc
 1230 06a8 3203     		.2byte	0x332
 1231 06aa 7A030000 		.4byte	0x37a
 1232 06ae 02       		.byte	0x2
 1233 06af 23       		.byte	0x23
 1234 06b0 0C       		.uleb128 0xc
 1235 06b1 00       		.byte	0
 1236 06b2 16       		.uleb128 0x16
 1237 06b3 83040000 		.4byte	.LASF89
 1238 06b7 0C       		.byte	0xc
 1239 06b8 3303     		.2byte	0x333
 1240 06ba 6C060000 		.4byte	0x66c
 1241 06be 14       		.uleb128 0x14
 1242 06bf 1C       		.byte	0x1c
 1243 06c0 0C       		.byte	0xc
 1244 06c1 F803     		.2byte	0x3f8
 1245 06c3 31070000 		.4byte	0x731
 1246 06c7 0C       		.uleb128 0xc
 1247 06c8 43524C00 		.ascii	"CRL\000"
 1248 06cc 0C       		.byte	0xc
 1249 06cd FA03     		.2byte	0x3fa
 1250 06cf 7A030000 		.4byte	0x37a
 1251 06d3 02       		.byte	0x2
 1252 06d4 23       		.byte	0x23
 1253 06d5 00       		.uleb128 0
 1254 06d6 0C       		.uleb128 0xc
 1255 06d7 43524800 		.ascii	"CRH\000"
 1256 06db 0C       		.byte	0xc
 1257 06dc FB03     		.2byte	0x3fb
 1258 06de 7A030000 		.4byte	0x37a
 1259 06e2 02       		.byte	0x2
 1260 06e3 23       		.byte	0x23
 1261 06e4 04       		.uleb128 0x4
 1262 06e5 0C       		.uleb128 0xc
 1263 06e6 49445200 		.ascii	"IDR\000"
 1264 06ea 0C       		.byte	0xc
 1265 06eb FC03     		.2byte	0x3fc
 1266 06ed 7A030000 		.4byte	0x37a
 1267 06f1 02       		.byte	0x2
 1268 06f2 23       		.byte	0x23
 1269 06f3 08       		.uleb128 0x8
 1270 06f4 0C       		.uleb128 0xc
 1271 06f5 4F445200 		.ascii	"ODR\000"
 1272 06f9 0C       		.byte	0xc
 1273 06fa FD03     		.2byte	0x3fd
 1274 06fc 7A030000 		.4byte	0x37a
 1275 0700 02       		.byte	0x2
 1276 0701 23       		.byte	0x23
 1277 0702 0C       		.uleb128 0xc
 1278 0703 15       		.uleb128 0x15
 1279 0704 F2000000 		.4byte	.LASF90
 1280 0708 0C       		.byte	0xc
 1281 0709 FE03     		.2byte	0x3fe
 1282 070b 7A030000 		.4byte	0x37a
 1283 070f 02       		.byte	0x2
 1284 0710 23       		.byte	0x23
ARM GAS  /tmp/ccSrQLBK.s 			page 24


 1285 0711 10       		.uleb128 0x10
 1286 0712 0C       		.uleb128 0xc
 1287 0713 42525200 		.ascii	"BRR\000"
 1288 0717 0C       		.byte	0xc
 1289 0718 FF03     		.2byte	0x3ff
 1290 071a 7A030000 		.4byte	0x37a
 1291 071e 02       		.byte	0x2
 1292 071f 23       		.byte	0x23
 1293 0720 14       		.uleb128 0x14
 1294 0721 15       		.uleb128 0x15
 1295 0722 39060000 		.4byte	.LASF91
 1296 0726 0C       		.byte	0xc
 1297 0727 0004     		.2byte	0x400
 1298 0729 7A030000 		.4byte	0x37a
 1299 072d 02       		.byte	0x2
 1300 072e 23       		.byte	0x23
 1301 072f 18       		.uleb128 0x18
 1302 0730 00       		.byte	0
 1303 0731 16       		.uleb128 0x16
 1304 0732 E1010000 		.4byte	.LASF92
 1305 0736 0C       		.byte	0xc
 1306 0737 0104     		.2byte	0x401
 1307 0739 BE060000 		.4byte	0x6be
 1308 073d 14       		.uleb128 0x14
 1309 073e 24       		.byte	0x24
 1310 073f 0C       		.byte	0xc
 1311 0740 1304     		.2byte	0x413
 1312 0742 54080000 		.4byte	0x854
 1313 0746 0C       		.uleb128 0xc
 1314 0747 43523100 		.ascii	"CR1\000"
 1315 074b 0C       		.byte	0xc
 1316 074c 1504     		.2byte	0x415
 1317 074e 62060000 		.4byte	0x662
 1318 0752 02       		.byte	0x2
 1319 0753 23       		.byte	0x23
 1320 0754 00       		.uleb128 0
 1321 0755 15       		.uleb128 0x15
 1322 0756 F5040000 		.4byte	.LASF93
 1323 075a 0C       		.byte	0xc
 1324 075b 1604     		.2byte	0x416
 1325 075d 62000000 		.4byte	0x62
 1326 0761 02       		.byte	0x2
 1327 0762 23       		.byte	0x23
 1328 0763 02       		.uleb128 0x2
 1329 0764 0C       		.uleb128 0xc
 1330 0765 43523200 		.ascii	"CR2\000"
 1331 0769 0C       		.byte	0xc
 1332 076a 1704     		.2byte	0x417
 1333 076c 62060000 		.4byte	0x662
 1334 0770 02       		.byte	0x2
 1335 0771 23       		.byte	0x23
 1336 0772 04       		.uleb128 0x4
 1337 0773 15       		.uleb128 0x15
 1338 0774 FF040000 		.4byte	.LASF94
 1339 0778 0C       		.byte	0xc
 1340 0779 1804     		.2byte	0x418
 1341 077b 62000000 		.4byte	0x62
ARM GAS  /tmp/ccSrQLBK.s 			page 25


 1342 077f 02       		.byte	0x2
 1343 0780 23       		.byte	0x23
 1344 0781 06       		.uleb128 0x6
 1345 0782 15       		.uleb128 0x15
 1346 0783 58070000 		.4byte	.LASF95
 1347 0787 0C       		.byte	0xc
 1348 0788 1904     		.2byte	0x419
 1349 078a 62060000 		.4byte	0x662
 1350 078e 02       		.byte	0x2
 1351 078f 23       		.byte	0x23
 1352 0790 08       		.uleb128 0x8
 1353 0791 15       		.uleb128 0x15
 1354 0792 09050000 		.4byte	.LASF96
 1355 0796 0C       		.byte	0xc
 1356 0797 1A04     		.2byte	0x41a
 1357 0799 62000000 		.4byte	0x62
 1358 079d 02       		.byte	0x2
 1359 079e 23       		.byte	0x23
 1360 079f 0A       		.uleb128 0xa
 1361 07a0 15       		.uleb128 0x15
 1362 07a1 5D070000 		.4byte	.LASF97
 1363 07a5 0C       		.byte	0xc
 1364 07a6 1B04     		.2byte	0x41b
 1365 07a8 62060000 		.4byte	0x662
 1366 07ac 02       		.byte	0x2
 1367 07ad 23       		.byte	0x23
 1368 07ae 0C       		.uleb128 0xc
 1369 07af 15       		.uleb128 0x15
 1370 07b0 13050000 		.4byte	.LASF98
 1371 07b4 0C       		.byte	0xc
 1372 07b5 1C04     		.2byte	0x41c
 1373 07b7 62000000 		.4byte	0x62
 1374 07bb 02       		.byte	0x2
 1375 07bc 23       		.byte	0x23
 1376 07bd 0E       		.uleb128 0xe
 1377 07be 0C       		.uleb128 0xc
 1378 07bf 445200   		.ascii	"DR\000"
 1379 07c2 0C       		.byte	0xc
 1380 07c3 1D04     		.2byte	0x41d
 1381 07c5 62060000 		.4byte	0x662
 1382 07c9 02       		.byte	0x2
 1383 07ca 23       		.byte	0x23
 1384 07cb 10       		.uleb128 0x10
 1385 07cc 15       		.uleb128 0x15
 1386 07cd 1D050000 		.4byte	.LASF99
 1387 07d1 0C       		.byte	0xc
 1388 07d2 1E04     		.2byte	0x41e
 1389 07d4 62000000 		.4byte	0x62
 1390 07d8 02       		.byte	0x2
 1391 07d9 23       		.byte	0x23
 1392 07da 12       		.uleb128 0x12
 1393 07db 0C       		.uleb128 0xc
 1394 07dc 53523100 		.ascii	"SR1\000"
 1395 07e0 0C       		.byte	0xc
 1396 07e1 1F04     		.2byte	0x41f
 1397 07e3 62060000 		.4byte	0x662
 1398 07e7 02       		.byte	0x2
ARM GAS  /tmp/ccSrQLBK.s 			page 26


 1399 07e8 23       		.byte	0x23
 1400 07e9 14       		.uleb128 0x14
 1401 07ea 15       		.uleb128 0x15
 1402 07eb 5E060000 		.4byte	.LASF100
 1403 07ef 0C       		.byte	0xc
 1404 07f0 2004     		.2byte	0x420
 1405 07f2 62000000 		.4byte	0x62
 1406 07f6 02       		.byte	0x2
 1407 07f7 23       		.byte	0x23
 1408 07f8 16       		.uleb128 0x16
 1409 07f9 0C       		.uleb128 0xc
 1410 07fa 53523200 		.ascii	"SR2\000"
 1411 07fe 0C       		.byte	0xc
 1412 07ff 2104     		.2byte	0x421
 1413 0801 62060000 		.4byte	0x662
 1414 0805 02       		.byte	0x2
 1415 0806 23       		.byte	0x23
 1416 0807 18       		.uleb128 0x18
 1417 0808 15       		.uleb128 0x15
 1418 0809 2E050000 		.4byte	.LASF101
 1419 080d 0C       		.byte	0xc
 1420 080e 2204     		.2byte	0x422
 1421 0810 62000000 		.4byte	0x62
 1422 0814 02       		.byte	0x2
 1423 0815 23       		.byte	0x23
 1424 0816 1A       		.uleb128 0x1a
 1425 0817 0C       		.uleb128 0xc
 1426 0818 43435200 		.ascii	"CCR\000"
 1427 081c 0C       		.byte	0xc
 1428 081d 2304     		.2byte	0x423
 1429 081f 62060000 		.4byte	0x662
 1430 0823 02       		.byte	0x2
 1431 0824 23       		.byte	0x23
 1432 0825 1C       		.uleb128 0x1c
 1433 0826 15       		.uleb128 0x15
 1434 0827 38050000 		.4byte	.LASF102
 1435 082b 0C       		.byte	0xc
 1436 082c 2404     		.2byte	0x424
 1437 082e 62000000 		.4byte	0x62
 1438 0832 02       		.byte	0x2
 1439 0833 23       		.byte	0x23
 1440 0834 1E       		.uleb128 0x1e
 1441 0835 15       		.uleb128 0x15
 1442 0836 63000000 		.4byte	.LASF103
 1443 083a 0C       		.byte	0xc
 1444 083b 2504     		.2byte	0x425
 1445 083d 62060000 		.4byte	0x662
 1446 0841 02       		.byte	0x2
 1447 0842 23       		.byte	0x23
 1448 0843 20       		.uleb128 0x20
 1449 0844 15       		.uleb128 0x15
 1450 0845 42050000 		.4byte	.LASF104
 1451 0849 0C       		.byte	0xc
 1452 084a 2604     		.2byte	0x426
 1453 084c 62000000 		.4byte	0x62
 1454 0850 02       		.byte	0x2
 1455 0851 23       		.byte	0x23
ARM GAS  /tmp/ccSrQLBK.s 			page 27


 1456 0852 22       		.uleb128 0x22
 1457 0853 00       		.byte	0
 1458 0854 16       		.uleb128 0x16
 1459 0855 7D070000 		.4byte	.LASF105
 1460 0859 0C       		.byte	0xc
 1461 085a 2704     		.2byte	0x427
 1462 085c 3D070000 		.4byte	0x73d
 1463 0860 14       		.uleb128 0x14
 1464 0861 1C       		.byte	0x1c
 1465 0862 0C       		.byte	0xc
 1466 0863 E104     		.2byte	0x4e1
 1467 0865 3A090000 		.4byte	0x93a
 1468 0869 0C       		.uleb128 0xc
 1469 086a 535200   		.ascii	"SR\000"
 1470 086d 0C       		.byte	0xc
 1471 086e E304     		.2byte	0x4e3
 1472 0870 62060000 		.4byte	0x662
 1473 0874 02       		.byte	0x2
 1474 0875 23       		.byte	0x23
 1475 0876 00       		.uleb128 0
 1476 0877 15       		.uleb128 0x15
 1477 0878 F5040000 		.4byte	.LASF93
 1478 087c 0C       		.byte	0xc
 1479 087d E404     		.2byte	0x4e4
 1480 087f 62000000 		.4byte	0x62
 1481 0883 02       		.byte	0x2
 1482 0884 23       		.byte	0x23
 1483 0885 02       		.uleb128 0x2
 1484 0886 0C       		.uleb128 0xc
 1485 0887 445200   		.ascii	"DR\000"
 1486 088a 0C       		.byte	0xc
 1487 088b E504     		.2byte	0x4e5
 1488 088d 62060000 		.4byte	0x662
 1489 0891 02       		.byte	0x2
 1490 0892 23       		.byte	0x23
 1491 0893 04       		.uleb128 0x4
 1492 0894 15       		.uleb128 0x15
 1493 0895 FF040000 		.4byte	.LASF94
 1494 0899 0C       		.byte	0xc
 1495 089a E604     		.2byte	0x4e6
 1496 089c 62000000 		.4byte	0x62
 1497 08a0 02       		.byte	0x2
 1498 08a1 23       		.byte	0x23
 1499 08a2 06       		.uleb128 0x6
 1500 08a3 0C       		.uleb128 0xc
 1501 08a4 42525200 		.ascii	"BRR\000"
 1502 08a8 0C       		.byte	0xc
 1503 08a9 E704     		.2byte	0x4e7
 1504 08ab 62060000 		.4byte	0x662
 1505 08af 02       		.byte	0x2
 1506 08b0 23       		.byte	0x23
 1507 08b1 08       		.uleb128 0x8
 1508 08b2 15       		.uleb128 0x15
 1509 08b3 09050000 		.4byte	.LASF96
 1510 08b7 0C       		.byte	0xc
 1511 08b8 E804     		.2byte	0x4e8
 1512 08ba 62000000 		.4byte	0x62
ARM GAS  /tmp/ccSrQLBK.s 			page 28


 1513 08be 02       		.byte	0x2
 1514 08bf 23       		.byte	0x23
 1515 08c0 0A       		.uleb128 0xa
 1516 08c1 0C       		.uleb128 0xc
 1517 08c2 43523100 		.ascii	"CR1\000"
 1518 08c6 0C       		.byte	0xc
 1519 08c7 E904     		.2byte	0x4e9
 1520 08c9 62060000 		.4byte	0x662
 1521 08cd 02       		.byte	0x2
 1522 08ce 23       		.byte	0x23
 1523 08cf 0C       		.uleb128 0xc
 1524 08d0 15       		.uleb128 0x15
 1525 08d1 13050000 		.4byte	.LASF98
 1526 08d5 0C       		.byte	0xc
 1527 08d6 EA04     		.2byte	0x4ea
 1528 08d8 62000000 		.4byte	0x62
 1529 08dc 02       		.byte	0x2
 1530 08dd 23       		.byte	0x23
 1531 08de 0E       		.uleb128 0xe
 1532 08df 0C       		.uleb128 0xc
 1533 08e0 43523200 		.ascii	"CR2\000"
 1534 08e4 0C       		.byte	0xc
 1535 08e5 EB04     		.2byte	0x4eb
 1536 08e7 62060000 		.4byte	0x662
 1537 08eb 02       		.byte	0x2
 1538 08ec 23       		.byte	0x23
 1539 08ed 10       		.uleb128 0x10
 1540 08ee 15       		.uleb128 0x15
 1541 08ef 1D050000 		.4byte	.LASF99
 1542 08f3 0C       		.byte	0xc
 1543 08f4 EC04     		.2byte	0x4ec
 1544 08f6 62000000 		.4byte	0x62
 1545 08fa 02       		.byte	0x2
 1546 08fb 23       		.byte	0x23
 1547 08fc 12       		.uleb128 0x12
 1548 08fd 0C       		.uleb128 0xc
 1549 08fe 43523300 		.ascii	"CR3\000"
 1550 0902 0C       		.byte	0xc
 1551 0903 ED04     		.2byte	0x4ed
 1552 0905 62060000 		.4byte	0x662
 1553 0909 02       		.byte	0x2
 1554 090a 23       		.byte	0x23
 1555 090b 14       		.uleb128 0x14
 1556 090c 15       		.uleb128 0x15
 1557 090d 5E060000 		.4byte	.LASF100
 1558 0911 0C       		.byte	0xc
 1559 0912 EE04     		.2byte	0x4ee
 1560 0914 62000000 		.4byte	0x62
 1561 0918 02       		.byte	0x2
 1562 0919 23       		.byte	0x23
 1563 091a 16       		.uleb128 0x16
 1564 091b 15       		.uleb128 0x15
 1565 091c 00010000 		.4byte	.LASF106
 1566 0920 0C       		.byte	0xc
 1567 0921 EF04     		.2byte	0x4ef
 1568 0923 62060000 		.4byte	0x662
 1569 0927 02       		.byte	0x2
ARM GAS  /tmp/ccSrQLBK.s 			page 29


 1570 0928 23       		.byte	0x23
 1571 0929 18       		.uleb128 0x18
 1572 092a 15       		.uleb128 0x15
 1573 092b 2E050000 		.4byte	.LASF101
 1574 092f 0C       		.byte	0xc
 1575 0930 F004     		.2byte	0x4f0
 1576 0932 62000000 		.4byte	0x62
 1577 0936 02       		.byte	0x2
 1578 0937 23       		.byte	0x23
 1579 0938 1A       		.uleb128 0x1a
 1580 0939 00       		.byte	0
 1581 093a 16       		.uleb128 0x16
 1582 093b 32030000 		.4byte	.LASF107
 1583 093f 0C       		.byte	0xc
 1584 0940 F104     		.2byte	0x4f1
 1585 0942 60080000 		.4byte	0x860
 1586 0946 08       		.uleb128 0x8
 1587 0947 0C       		.byte	0xc
 1588 0948 0D       		.byte	0xd
 1589 0949 C1       		.byte	0xc1
 1590 094a 95090000 		.4byte	0x995
 1591 094e 06       		.uleb128 0x6
 1592 094f 31060000 		.4byte	.LASF108
 1593 0953 0D       		.byte	0xd
 1594 0954 C2       		.byte	0xc2
 1595 0955 95090000 		.4byte	0x995
 1596 0959 02       		.byte	0x2
 1597 095a 23       		.byte	0x23
 1598 095b 00       		.uleb128 0
 1599 095c 06       		.uleb128 0x6
 1600 095d A6040000 		.4byte	.LASF109
 1601 0961 0D       		.byte	0xd
 1602 0962 C3       		.byte	0xc3
 1603 0963 9B090000 		.4byte	0x99b
 1604 0967 02       		.byte	0x2
 1605 0968 23       		.byte	0x23
 1606 0969 04       		.uleb128 0x4
 1607 096a 06       		.uleb128 0x6
 1608 096b D1020000 		.4byte	.LASF110
 1609 096f 0D       		.byte	0xd
 1610 0970 C4       		.byte	0xc4
 1611 0971 49000000 		.4byte	0x49
 1612 0975 02       		.byte	0x2
 1613 0976 23       		.byte	0x23
 1614 0977 08       		.uleb128 0x8
 1615 0978 06       		.uleb128 0x6
 1616 0979 0F020000 		.4byte	.LASF111
 1617 097d 0D       		.byte	0xd
 1618 097e C6       		.byte	0xc6
 1619 097f 49000000 		.4byte	0x49
 1620 0983 02       		.byte	0x2
 1621 0984 23       		.byte	0x23
 1622 0985 09       		.uleb128 0x9
 1623 0986 06       		.uleb128 0x6
 1624 0987 AD000000 		.4byte	.LASF112
 1625 098b 0D       		.byte	0xd
 1626 098c C7       		.byte	0xc7
ARM GAS  /tmp/ccSrQLBK.s 			page 30


 1627 098d 49000000 		.4byte	0x49
 1628 0991 02       		.byte	0x2
 1629 0992 23       		.byte	0x23
 1630 0993 0A       		.uleb128 0xa
 1631 0994 00       		.byte	0
 1632 0995 09       		.uleb128 0x9
 1633 0996 04       		.byte	0x4
 1634 0997 B2060000 		.4byte	0x6b2
 1635 099b 09       		.uleb128 0x9
 1636 099c 04       		.byte	0x4
 1637 099d 7A030000 		.4byte	0x37a
 1638 09a1 03       		.uleb128 0x3
 1639 09a2 89050000 		.4byte	.LASF113
 1640 09a6 0D       		.byte	0xd
 1641 09a7 C8       		.byte	0xc8
 1642 09a8 46090000 		.4byte	0x946
 1643 09ac 11       		.uleb128 0x11
 1644 09ad 01       		.byte	0x1
 1645 09ae EF000000 		.4byte	0xef
 1646 09b2 C6090000 		.4byte	0x9c6
 1647 09b6 12       		.uleb128 0x12
 1648 09b7 BC020000 		.4byte	0x2bc
 1649 09bb 12       		.uleb128 0x12
 1650 09bc 49000000 		.4byte	0x49
 1651 09c0 12       		.uleb128 0x12
 1652 09c1 10010000 		.4byte	0x110
 1653 09c5 00       		.byte	0
 1654 09c6 09       		.uleb128 0x9
 1655 09c7 04       		.byte	0x4
 1656 09c8 AC090000 		.4byte	0x9ac
 1657 09cc 11       		.uleb128 0x11
 1658 09cd 01       		.byte	0x1
 1659 09ce EF000000 		.4byte	0xef
 1660 09d2 E1090000 		.4byte	0x9e1
 1661 09d6 12       		.uleb128 0x12
 1662 09d7 BC020000 		.4byte	0x2bc
 1663 09db 12       		.uleb128 0x12
 1664 09dc 10010000 		.4byte	0x110
 1665 09e0 00       		.byte	0
 1666 09e1 09       		.uleb128 0x9
 1667 09e2 04       		.byte	0x4
 1668 09e3 CC090000 		.4byte	0x9cc
 1669 09e7 11       		.uleb128 0x11
 1670 09e8 01       		.byte	0x1
 1671 09e9 30000000 		.4byte	0x30
 1672 09ed 060A0000 		.4byte	0xa06
 1673 09f1 12       		.uleb128 0x12
 1674 09f2 BC020000 		.4byte	0x2bc
 1675 09f6 12       		.uleb128 0x12
 1676 09f7 E9050000 		.4byte	0x5e9
 1677 09fb 12       		.uleb128 0x12
 1678 09fc 30000000 		.4byte	0x30
 1679 0a00 12       		.uleb128 0x12
 1680 0a01 10010000 		.4byte	0x110
 1681 0a05 00       		.byte	0
 1682 0a06 09       		.uleb128 0x9
 1683 0a07 04       		.byte	0x4
ARM GAS  /tmp/ccSrQLBK.s 			page 31


 1684 0a08 E7090000 		.4byte	0x9e7
 1685 0a0c 11       		.uleb128 0x11
 1686 0a0d 01       		.byte	0x1
 1687 0a0e 30000000 		.4byte	0x30
 1688 0a12 2B0A0000 		.4byte	0xa2b
 1689 0a16 12       		.uleb128 0x12
 1690 0a17 BC020000 		.4byte	0x2bc
 1691 0a1b 12       		.uleb128 0x12
 1692 0a1c 6E050000 		.4byte	0x56e
 1693 0a20 12       		.uleb128 0x12
 1694 0a21 30000000 		.4byte	0x30
 1695 0a25 12       		.uleb128 0x12
 1696 0a26 10010000 		.4byte	0x110
 1697 0a2a 00       		.byte	0
 1698 0a2b 09       		.uleb128 0x9
 1699 0a2c 04       		.byte	0x4
 1700 0a2d 0C0A0000 		.4byte	0xa0c
 1701 0a31 03       		.uleb128 0x3
 1702 0a32 69000000 		.4byte	.LASF114
 1703 0a36 0E       		.byte	0xe
 1704 0a37 6D       		.byte	0x6d
 1705 0a38 86000000 		.4byte	0x86
 1706 0a3c 17       		.uleb128 0x17
 1707 0a3d 01       		.byte	0x1
 1708 0a3e 0F       		.byte	0xf
 1709 0a3f 53       		.byte	0x53
 1710 0a40 690A0000 		.4byte	0xa69
 1711 0a44 18       		.uleb128 0x18
 1712 0a45 C4050000 		.4byte	.LASF115
 1713 0a49 00       		.sleb128 0
 1714 0a4a 18       		.uleb128 0x18
 1715 0a4b B6030000 		.4byte	.LASF116
 1716 0a4f 01       		.sleb128 1
 1717 0a50 18       		.uleb128 0x18
 1718 0a51 EB060000 		.4byte	.LASF117
 1719 0a55 02       		.sleb128 2
 1720 0a56 18       		.uleb128 0x18
 1721 0a57 C1010000 		.4byte	.LASF118
 1722 0a5b 03       		.sleb128 3
 1723 0a5c 18       		.uleb128 0x18
 1724 0a5d 8E060000 		.4byte	.LASF119
 1725 0a61 04       		.sleb128 4
 1726 0a62 18       		.uleb128 0x18
 1727 0a63 3E060000 		.4byte	.LASF120
 1728 0a67 05       		.sleb128 5
 1729 0a68 00       		.byte	0
 1730 0a69 03       		.uleb128 0x3
 1731 0a6a 35000000 		.4byte	.LASF121
 1732 0a6e 0F       		.byte	0xf
 1733 0a6f 5A       		.byte	0x5a
 1734 0a70 3C0A0000 		.4byte	0xa3c
 1735 0a74 16       		.uleb128 0x16
 1736 0a75 68010000 		.4byte	.LASF122
 1737 0a79 10       		.byte	0x10
 1738 0a7a 3501     		.2byte	0x135
 1739 0a7c 62000000 		.4byte	0x62
 1740 0a80 16       		.uleb128 0x16
ARM GAS  /tmp/ccSrQLBK.s 			page 32


 1741 0a81 5C050000 		.4byte	.LASF123
 1742 0a85 10       		.byte	0x10
 1743 0a86 3A01     		.2byte	0x13a
 1744 0a88 86000000 		.4byte	0x86
 1745 0a8c 19       		.uleb128 0x19
 1746 0a8d 01       		.byte	0x1
 1747 0a8e 10       		.byte	0x10
 1748 0a8f 3F01     		.2byte	0x13f
 1749 0a91 A80A0000 		.4byte	0xaa8
 1750 0a95 18       		.uleb128 0x18
 1751 0a96 44040000 		.4byte	.LASF124
 1752 0a9a 01       		.sleb128 1
 1753 0a9b 18       		.uleb128 0x18
 1754 0a9c DE020000 		.4byte	.LASF125
 1755 0aa0 02       		.sleb128 2
 1756 0aa1 18       		.uleb128 0x18
 1757 0aa2 F4010000 		.4byte	.LASF126
 1758 0aa6 03       		.sleb128 3
 1759 0aa7 00       		.byte	0
 1760 0aa8 16       		.uleb128 0x16
 1761 0aa9 89070000 		.4byte	.LASF127
 1762 0aad 10       		.byte	0x10
 1763 0aae 4301     		.2byte	0x143
 1764 0ab0 8C0A0000 		.4byte	0xa8c
 1765 0ab4 19       		.uleb128 0x19
 1766 0ab5 01       		.byte	0x1
 1767 0ab6 10       		.byte	0x10
 1768 0ab7 4801     		.2byte	0x148
 1769 0ab9 D00A0000 		.4byte	0xad0
 1770 0abd 18       		.uleb128 0x18
 1771 0abe 00000000 		.4byte	.LASF128
 1772 0ac2 01       		.sleb128 1
 1773 0ac3 18       		.uleb128 0x18
 1774 0ac4 1F060000 		.4byte	.LASF129
 1775 0ac8 02       		.sleb128 2
 1776 0ac9 18       		.uleb128 0x18
 1777 0aca 56040000 		.4byte	.LASF130
 1778 0ace 03       		.sleb128 3
 1779 0acf 00       		.byte	0
 1780 0ad0 16       		.uleb128 0x16
 1781 0ad1 1E000000 		.4byte	.LASF131
 1782 0ad5 10       		.byte	0x10
 1783 0ad6 4C01     		.2byte	0x14c
 1784 0ad8 B40A0000 		.4byte	0xab4
 1785 0adc 14       		.uleb128 0x14
 1786 0add 0C       		.byte	0xc
 1787 0ade 10       		.byte	0x10
 1788 0adf 5101     		.2byte	0x151
 1789 0ae1 130B0000 		.4byte	0xb13
 1790 0ae5 15       		.uleb128 0x15
 1791 0ae6 23020000 		.4byte	.LASF132
 1792 0aea 10       		.byte	0x10
 1793 0aeb 5201     		.2byte	0x152
 1794 0aed A80A0000 		.4byte	0xaa8
 1795 0af1 02       		.byte	0x2
 1796 0af2 23       		.byte	0x23
 1797 0af3 00       		.uleb128 0
ARM GAS  /tmp/ccSrQLBK.s 			page 33


 1798 0af4 15       		.uleb128 0x15
 1799 0af5 19030000 		.4byte	.LASF133
 1800 0af9 10       		.byte	0x10
 1801 0afa 5301     		.2byte	0x153
 1802 0afc 86000000 		.4byte	0x86
 1803 0b00 02       		.byte	0x2
 1804 0b01 23       		.byte	0x23
 1805 0b02 04       		.uleb128 0x4
 1806 0b03 15       		.uleb128 0x15
 1807 0b04 FD030000 		.4byte	.LASF134
 1808 0b08 10       		.byte	0x10
 1809 0b09 5601     		.2byte	0x156
 1810 0b0b D00A0000 		.4byte	0xad0
 1811 0b0f 02       		.byte	0x2
 1812 0b10 23       		.byte	0x23
 1813 0b11 08       		.uleb128 0x8
 1814 0b12 00       		.byte	0
 1815 0b13 16       		.uleb128 0x16
 1816 0b14 18040000 		.4byte	.LASF135
 1817 0b18 10       		.byte	0x10
 1818 0b19 5801     		.2byte	0x158
 1819 0b1b DC0A0000 		.4byte	0xadc
 1820 0b1f 16       		.uleb128 0x16
 1821 0b20 0F030000 		.4byte	.LASF136
 1822 0b24 10       		.byte	0x10
 1823 0b25 5D01     		.2byte	0x15d
 1824 0b27 2B0B0000 		.4byte	0xb2b
 1825 0b2b 0B       		.uleb128 0xb
 1826 0b2c 0F030000 		.4byte	.LASF136
 1827 0b30 38       		.byte	0x38
 1828 0b31 10       		.byte	0x10
 1829 0b32 6201     		.2byte	0x162
 1830 0b34 DE0B0000 		.4byte	0xbde
 1831 0b38 15       		.uleb128 0x15
 1832 0b39 72010000 		.4byte	.LASF137
 1833 0b3d 10       		.byte	0x10
 1834 0b3e 6601     		.2byte	0x166
 1835 0b40 690A0000 		.4byte	0xa69
 1836 0b44 02       		.byte	0x2
 1837 0b45 23       		.byte	0x23
 1838 0b46 00       		.uleb128 0
 1839 0b47 15       		.uleb128 0x15
 1840 0b48 B8060000 		.4byte	.LASF138
 1841 0b4c 10       		.byte	0x10
 1842 0b4d 6A01     		.2byte	0x16a
 1843 0b4f DE0B0000 		.4byte	0xbde
 1844 0b53 02       		.byte	0x2
 1845 0b54 23       		.byte	0x23
 1846 0b55 04       		.uleb128 0x4
 1847 0b56 15       		.uleb128 0x15
 1848 0b57 F6030000 		.4byte	.LASF139
 1849 0b5b 10       		.byte	0x10
 1850 0b5c 6E01     		.2byte	0x16e
 1851 0b5e 800A0000 		.4byte	0xa80
 1852 0b62 02       		.byte	0x2
 1853 0b63 23       		.byte	0x23
 1854 0b64 08       		.uleb128 0x8
ARM GAS  /tmp/ccSrQLBK.s 			page 34


 1855 0b65 15       		.uleb128 0x15
 1856 0b66 67050000 		.4byte	.LASF140
 1857 0b6a 10       		.byte	0x10
 1858 0b6b 7401     		.2byte	0x174
 1859 0b6d C8030000 		.4byte	0x3c8
 1860 0b71 02       		.byte	0x2
 1861 0b72 23       		.byte	0x23
 1862 0b73 0C       		.uleb128 0xc
 1863 0b74 15       		.uleb128 0x15
 1864 0b75 9B010000 		.4byte	.LASF141
 1865 0b79 10       		.byte	0x10
 1866 0b7a 8001     		.2byte	0x180
 1867 0b7c 7E020000 		.4byte	0x27e
 1868 0b80 02       		.byte	0x2
 1869 0b81 23       		.byte	0x23
 1870 0b82 1C       		.uleb128 0x1c
 1871 0b83 15       		.uleb128 0x15
 1872 0b84 93000000 		.4byte	.LASF142
 1873 0b88 10       		.byte	0x10
 1874 0b89 8401     		.2byte	0x184
 1875 0b8b 740A0000 		.4byte	0xa74
 1876 0b8f 02       		.byte	0x2
 1877 0b90 23       		.byte	0x23
 1878 0b91 20       		.uleb128 0x20
 1879 0b92 15       		.uleb128 0x15
 1880 0b93 D7010000 		.4byte	.LASF143
 1881 0b97 10       		.byte	0x10
 1882 0b98 8801     		.2byte	0x188
 1883 0b9a 86000000 		.4byte	0x86
 1884 0b9e 02       		.byte	0x2
 1885 0b9f 23       		.byte	0x23
 1886 0ba0 24       		.uleb128 0x24
 1887 0ba1 15       		.uleb128 0x15
 1888 0ba2 2F040000 		.4byte	.LASF144
 1889 0ba6 10       		.byte	0x10
 1890 0ba7 8C01     		.2byte	0x18c
 1891 0ba9 86000000 		.4byte	0x86
 1892 0bad 02       		.byte	0x2
 1893 0bae 23       		.byte	0x23
 1894 0baf 28       		.uleb128 0x28
 1895 0bb0 15       		.uleb128 0x15
 1896 0bb1 76000000 		.4byte	.LASF145
 1897 0bb5 10       		.byte	0x10
 1898 0bb6 9001     		.2byte	0x190
 1899 0bb8 E90B0000 		.4byte	0xbe9
 1900 0bbc 02       		.byte	0x2
 1901 0bbd 23       		.byte	0x23
 1902 0bbe 2C       		.uleb128 0x2c
 1903 0bbf 15       		.uleb128 0x15
 1904 0bc0 EE010000 		.4byte	.LASF146
 1905 0bc4 10       		.byte	0x10
 1906 0bc5 9401     		.2byte	0x194
 1907 0bc7 E90B0000 		.4byte	0xbe9
 1908 0bcb 02       		.byte	0x2
 1909 0bcc 23       		.byte	0x23
 1910 0bcd 30       		.uleb128 0x30
 1911 0bce 0C       		.uleb128 0xc
ARM GAS  /tmp/ccSrQLBK.s 			page 35


 1912 0bcf 69326300 		.ascii	"i2c\000"
 1913 0bd3 10       		.byte	0x10
 1914 0bd4 9801     		.2byte	0x198
 1915 0bd6 F40B0000 		.4byte	0xbf4
 1916 0bda 02       		.byte	0x2
 1917 0bdb 23       		.byte	0x23
 1918 0bdc 34       		.uleb128 0x34
 1919 0bdd 00       		.byte	0
 1920 0bde 09       		.uleb128 0x9
 1921 0bdf 04       		.byte	0x4
 1922 0be0 E40B0000 		.4byte	0xbe4
 1923 0be4 10       		.uleb128 0x10
 1924 0be5 130B0000 		.4byte	0xb13
 1925 0be9 09       		.uleb128 0x9
 1926 0bea 04       		.byte	0x4
 1927 0beb EF0B0000 		.4byte	0xbef
 1928 0bef 10       		.uleb128 0x10
 1929 0bf0 A1090000 		.4byte	0x9a1
 1930 0bf4 09       		.uleb128 0x9
 1931 0bf5 04       		.byte	0x4
 1932 0bf6 54080000 		.4byte	0x854
 1933 0bfa 17       		.uleb128 0x17
 1934 0bfb 01       		.byte	0x1
 1935 0bfc 11       		.byte	0x11
 1936 0bfd 5D       		.byte	0x5d
 1937 0bfe 150C0000 		.4byte	0xc15
 1938 0c02 18       		.uleb128 0x18
 1939 0c03 54060000 		.4byte	.LASF147
 1940 0c07 00       		.sleb128 0
 1941 0c08 18       		.uleb128 0x18
 1942 0c09 17060000 		.4byte	.LASF148
 1943 0c0d 01       		.sleb128 1
 1944 0c0e 18       		.uleb128 0x18
 1945 0c0f 04070000 		.4byte	.LASF149
 1946 0c13 02       		.sleb128 2
 1947 0c14 00       		.byte	0
 1948 0c15 03       		.uleb128 0x3
 1949 0c16 71060000 		.4byte	.LASF150
 1950 0c1a 11       		.byte	0x11
 1951 0c1b 61       		.byte	0x61
 1952 0c1c FA0B0000 		.4byte	0xbfa
 1953 0c20 03       		.uleb128 0x3
 1954 0c21 7B060000 		.4byte	.LASF151
 1955 0c25 11       		.byte	0x11
 1956 0c26 66       		.byte	0x66
 1957 0c27 2B0C0000 		.4byte	0xc2b
 1958 0c2b 05       		.uleb128 0x5
 1959 0c2c 7B060000 		.4byte	.LASF151
 1960 0c30 78       		.byte	0x78
 1961 0c31 11       		.byte	0x11
 1962 0c32 80       		.byte	0x80
 1963 0c33 A60C0000 		.4byte	0xca6
 1964 0c37 07       		.uleb128 0x7
 1965 0c38 766D7400 		.ascii	"vmt\000"
 1966 0c3c 11       		.byte	0x11
 1967 0c3d 82       		.byte	0x82
 1968 0c3e 6F0D0000 		.4byte	0xd6f
ARM GAS  /tmp/ccSrQLBK.s 			page 36


 1969 0c42 02       		.byte	0x2
 1970 0c43 23       		.byte	0x23
 1971 0c44 00       		.uleb128 0
 1972 0c45 06       		.uleb128 0x6
 1973 0c46 D8020000 		.4byte	.LASF152
 1974 0c4a 11       		.byte	0x11
 1975 0c4b 83       		.byte	0x83
 1976 0c4c 44040000 		.4byte	0x444
 1977 0c50 02       		.byte	0x2
 1978 0c51 23       		.byte	0x23
 1979 0c52 04       		.uleb128 0x4
 1980 0c53 06       		.uleb128 0x6
 1981 0c54 72010000 		.4byte	.LASF137
 1982 0c58 11       		.byte	0x11
 1983 0c59 83       		.byte	0x83
 1984 0c5a 150C0000 		.4byte	0xc15
 1985 0c5e 02       		.byte	0x2
 1986 0c5f 23       		.byte	0x23
 1987 0c60 08       		.uleb128 0x8
 1988 0c61 06       		.uleb128 0x6
 1989 0c62 99020000 		.4byte	.LASF153
 1990 0c66 11       		.byte	0x11
 1991 0c67 83       		.byte	0x83
 1992 0c68 74050000 		.4byte	0x574
 1993 0c6c 02       		.byte	0x2
 1994 0c6d 23       		.byte	0x23
 1995 0c6e 0C       		.uleb128 0xc
 1996 0c6f 06       		.uleb128 0x6
 1997 0c70 2B030000 		.4byte	.LASF154
 1998 0c74 11       		.byte	0x11
 1999 0c75 83       		.byte	0x83
 2000 0c76 7F050000 		.4byte	0x57f
 2001 0c7a 02       		.byte	0x2
 2002 0c7b 23       		.byte	0x23
 2003 0c7c 30       		.uleb128 0x30
 2004 0c7d 07       		.uleb128 0x7
 2005 0c7e 696200   		.ascii	"ib\000"
 2006 0c81 11       		.byte	0x11
 2007 0c82 83       		.byte	0x83
 2008 0c83 7A0D0000 		.4byte	0xd7a
 2009 0c87 02       		.byte	0x2
 2010 0c88 23       		.byte	0x23
 2011 0c89 54       		.uleb128 0x54
 2012 0c8a 07       		.uleb128 0x7
 2013 0c8b 6F6200   		.ascii	"ob\000"
 2014 0c8e 11       		.byte	0x11
 2015 0c8f 83       		.byte	0x83
 2016 0c90 7A0D0000 		.4byte	0xd7a
 2017 0c94 02       		.byte	0x2
 2018 0c95 23       		.byte	0x23
 2019 0c96 64       		.uleb128 0x64
 2020 0c97 06       		.uleb128 0x6
 2021 0c98 53020000 		.4byte	.LASF155
 2022 0c9c 11       		.byte	0x11
 2023 0c9d 83       		.byte	0x83
 2024 0c9e 8A0D0000 		.4byte	0xd8a
 2025 0ca2 02       		.byte	0x2
ARM GAS  /tmp/ccSrQLBK.s 			page 37


 2026 0ca3 23       		.byte	0x23
 2027 0ca4 74       		.uleb128 0x74
 2028 0ca5 00       		.byte	0
 2029 0ca6 08       		.uleb128 0x8
 2030 0ca7 0C       		.byte	0xc
 2031 0ca8 12       		.byte	0x12
 2032 0ca9 D7       		.byte	0xd7
 2033 0caa E70C0000 		.4byte	0xce7
 2034 0cae 06       		.uleb128 0x6
 2035 0caf 71030000 		.4byte	.LASF156
 2036 0cb3 12       		.byte	0x12
 2037 0cb4 DB       		.byte	0xdb
 2038 0cb5 86000000 		.4byte	0x86
 2039 0cb9 02       		.byte	0x2
 2040 0cba 23       		.byte	0x23
 2041 0cbb 00       		.uleb128 0
 2042 0cbc 07       		.uleb128 0x7
 2043 0cbd 63723100 		.ascii	"cr1\000"
 2044 0cc1 12       		.byte	0x12
 2045 0cc2 E0       		.byte	0xe0
 2046 0cc3 62000000 		.4byte	0x62
 2047 0cc7 02       		.byte	0x2
 2048 0cc8 23       		.byte	0x23
 2049 0cc9 04       		.uleb128 0x4
 2050 0cca 07       		.uleb128 0x7
 2051 0ccb 63723200 		.ascii	"cr2\000"
 2052 0ccf 12       		.byte	0x12
 2053 0cd0 E4       		.byte	0xe4
 2054 0cd1 62000000 		.4byte	0x62
 2055 0cd5 02       		.byte	0x2
 2056 0cd6 23       		.byte	0x23
 2057 0cd7 06       		.uleb128 0x6
 2058 0cd8 07       		.uleb128 0x7
 2059 0cd9 63723300 		.ascii	"cr3\000"
 2060 0cdd 12       		.byte	0x12
 2061 0cde E8       		.byte	0xe8
 2062 0cdf 62000000 		.4byte	0x62
 2063 0ce3 02       		.byte	0x2
 2064 0ce4 23       		.byte	0x23
 2065 0ce5 08       		.uleb128 0x8
 2066 0ce6 00       		.byte	0
 2067 0ce7 03       		.uleb128 0x3
 2068 0ce8 76040000 		.4byte	.LASF157
 2069 0cec 12       		.byte	0x12
 2070 0ced E9       		.byte	0xe9
 2071 0cee A60C0000 		.4byte	0xca6
 2072 0cf2 05       		.uleb128 0x5
 2073 0cf3 6F020000 		.4byte	.LASF158
 2074 0cf7 20       		.byte	0x20
 2075 0cf8 11       		.byte	0x11
 2076 0cf9 75       		.byte	0x75
 2077 0cfa 6F0D0000 		.4byte	0xd6f
 2078 0cfe 06       		.uleb128 0x6
 2079 0cff AB030000 		.4byte	.LASF83
 2080 0d03 11       		.byte	0x11
 2081 0d04 76       		.byte	0x76
 2082 0d05 F4050000 		.4byte	0x5f4
ARM GAS  /tmp/ccSrQLBK.s 			page 38


 2083 0d09 02       		.byte	0x2
 2084 0d0a 23       		.byte	0x23
 2085 0d0b 00       		.uleb128 0
 2086 0d0c 06       		.uleb128 0x6
 2087 0d0d AE060000 		.4byte	.LASF84
 2088 0d11 11       		.byte	0x11
 2089 0d12 76       		.byte	0x76
 2090 0d13 14060000 		.4byte	0x614
 2091 0d17 02       		.byte	0x2
 2092 0d18 23       		.byte	0x23
 2093 0d19 04       		.uleb128 0x4
 2094 0d1a 07       		.uleb128 0x7
 2095 0d1b 70757400 		.ascii	"put\000"
 2096 0d1f 11       		.byte	0x11
 2097 0d20 76       		.byte	0x76
 2098 0d21 2F060000 		.4byte	0x62f
 2099 0d25 02       		.byte	0x2
 2100 0d26 23       		.byte	0x23
 2101 0d27 08       		.uleb128 0x8
 2102 0d28 07       		.uleb128 0x7
 2103 0d29 67657400 		.ascii	"get\000"
 2104 0d2d 11       		.byte	0x11
 2105 0d2e 76       		.byte	0x76
 2106 0d2f AD040000 		.4byte	0x4ad
 2107 0d33 02       		.byte	0x2
 2108 0d34 23       		.byte	0x23
 2109 0d35 0C       		.uleb128 0xc
 2110 0d36 06       		.uleb128 0x6
 2111 0d37 B1030000 		.4byte	.LASF159
 2112 0d3b 11       		.byte	0x11
 2113 0d3c 76       		.byte	0x76
 2114 0d3d C6090000 		.4byte	0x9c6
 2115 0d41 02       		.byte	0x2
 2116 0d42 23       		.byte	0x23
 2117 0d43 10       		.uleb128 0x10
 2118 0d44 06       		.uleb128 0x6
 2119 0d45 CC020000 		.4byte	.LASF160
 2120 0d49 11       		.byte	0x11
 2121 0d4a 76       		.byte	0x76
 2122 0d4b E1090000 		.4byte	0x9e1
 2123 0d4f 02       		.byte	0x2
 2124 0d50 23       		.byte	0x23
 2125 0d51 14       		.uleb128 0x14
 2126 0d52 06       		.uleb128 0x6
 2127 0d53 40030000 		.4byte	.LASF161
 2128 0d57 11       		.byte	0x11
 2129 0d58 76       		.byte	0x76
 2130 0d59 060A0000 		.4byte	0xa06
 2131 0d5d 02       		.byte	0x2
 2132 0d5e 23       		.byte	0x23
 2133 0d5f 18       		.uleb128 0x18
 2134 0d60 06       		.uleb128 0x6
 2135 0d61 C8000000 		.4byte	.LASF162
 2136 0d65 11       		.byte	0x11
 2137 0d66 76       		.byte	0x76
 2138 0d67 2B0A0000 		.4byte	0xa2b
 2139 0d6b 02       		.byte	0x2
ARM GAS  /tmp/ccSrQLBK.s 			page 39


 2140 0d6c 23       		.byte	0x23
 2141 0d6d 1C       		.uleb128 0x1c
 2142 0d6e 00       		.byte	0
 2143 0d6f 09       		.uleb128 0x9
 2144 0d70 04       		.byte	0x4
 2145 0d71 750D0000 		.4byte	0xd75
 2146 0d75 10       		.uleb128 0x10
 2147 0d76 F20C0000 		.4byte	0xcf2
 2148 0d7a 1A       		.uleb128 0x1a
 2149 0d7b 49000000 		.4byte	0x49
 2150 0d7f 8A0D0000 		.4byte	0xd8a
 2151 0d83 1B       		.uleb128 0x1b
 2152 0d84 7F030000 		.4byte	0x37f
 2153 0d88 0F       		.byte	0xf
 2154 0d89 00       		.byte	0
 2155 0d8a 09       		.uleb128 0x9
 2156 0d8b 04       		.byte	0x4
 2157 0d8c 3A090000 		.4byte	0x93a
 2158 0d90 1C       		.uleb128 0x1c
 2159 0d91 86010000 		.4byte	.LASF171
 2160 0d95 01       		.byte	0x1
 2161 0d96 29       		.byte	0x29
 2162 0d97 01       		.byte	0x1
 2163 0d98 EF000000 		.4byte	0xef
 2164 0d9c 00000000 		.4byte	.LFB64
 2165 0da0 C4000000 		.4byte	.LFE64
 2166 0da4 00000000 		.4byte	.LLST0
 2167 0da8 01       		.byte	0x1
 2168 0da9 050F0000 		.4byte	0xf05
 2169 0dad 1D       		.uleb128 0x1d
 2170 0dae 61726700 		.ascii	"arg\000"
 2171 0db2 01       		.byte	0x1
 2172 0db3 29       		.byte	0x29
 2173 0db4 BC020000 		.4byte	0x2bc
 2174 0db8 2D000000 		.4byte	.LLST1
 2175 0dbc 1E       		.uleb128 0x1e
 2176 0dbd AB020000 		.4byte	.LASF163
 2177 0dc1 01       		.byte	0x1
 2178 0dc2 2B       		.byte	0x2b
 2179 0dc3 050F0000 		.4byte	0xf05
 2180 0dc7 02       		.byte	0x2
 2181 0dc8 91       		.byte	0x91
 2182 0dc9 50       		.sleb128 -48
 2183 0dca 1E       		.uleb128 0x1e
 2184 0dcb 93020000 		.4byte	.LASF164
 2185 0dcf 01       		.byte	0x1
 2186 0dd0 2B       		.byte	0x2b
 2187 0dd1 050F0000 		.4byte	0xf05
 2188 0dd5 02       		.byte	0x2
 2189 0dd6 91       		.byte	0x91
 2190 0dd7 54       		.sleb128 -44
 2191 0dd8 1E       		.uleb128 0x1e
 2192 0dd9 B9020000 		.4byte	.LASF165
 2193 0ddd 01       		.byte	0x1
 2194 0dde 2B       		.byte	0x2b
 2195 0ddf 050F0000 		.4byte	0xf05
 2196 0de3 02       		.byte	0x2
ARM GAS  /tmp/ccSrQLBK.s 			page 40


 2197 0de4 91       		.byte	0x91
 2198 0de5 58       		.sleb128 -40
 2199 0de6 1E       		.uleb128 0x1e
 2200 0de7 BF030000 		.4byte	.LASF166
 2201 0deb 01       		.byte	0x1
 2202 0dec 2C       		.byte	0x2c
 2203 0ded 050F0000 		.4byte	0xf05
 2204 0df1 02       		.byte	0x2
 2205 0df2 91       		.byte	0x91
 2206 0df3 5C       		.sleb128 -36
 2207 0df4 1E       		.uleb128 0x1e
 2208 0df5 C6030000 		.4byte	.LASF167
 2209 0df9 01       		.byte	0x1
 2210 0dfa 2C       		.byte	0x2c
 2211 0dfb 050F0000 		.4byte	0xf05
 2212 0dff 02       		.byte	0x2
 2213 0e00 91       		.byte	0x91
 2214 0e01 60       		.sleb128 -32
 2215 0e02 1E       		.uleb128 0x1e
 2216 0e03 CD030000 		.4byte	.LASF168
 2217 0e07 01       		.byte	0x1
 2218 0e08 2C       		.byte	0x2c
 2219 0e09 050F0000 		.4byte	0xf05
 2220 0e0d 02       		.byte	0x2
 2221 0e0e 91       		.byte	0x91
 2222 0e0f 64       		.sleb128 -28
 2223 0e10 1E       		.uleb128 0x1e
 2224 0e11 78010000 		.4byte	.LASF169
 2225 0e15 01       		.byte	0x1
 2226 0e16 2D       		.byte	0x2d
 2227 0e17 49000000 		.4byte	0x49
 2228 0e1b 02       		.byte	0x2
 2229 0e1c 91       		.byte	0x91
 2230 0e1d 4F       		.sleb128 -49
 2231 0e1e 1F       		.uleb128 0x1f
 2232 0e1f 0C000000 		.4byte	.LVL2
 2233 0e23 9B100000 		.4byte	0x109b
 2234 0e27 320E0000 		.4byte	0xe32
 2235 0e2b 20       		.uleb128 0x20
 2236 0e2c 01       		.byte	0x1
 2237 0e2d 51       		.byte	0x51
 2238 0e2e 02       		.byte	0x2
 2239 0e2f 08       		.byte	0x8
 2240 0e30 68       		.byte	0x68
 2241 0e31 00       		.byte	0
 2242 0e32 1F       		.uleb128 0x1f
 2243 0e33 14000000 		.4byte	.LVL3
 2244 0e37 BA100000 		.4byte	0x10ba
 2245 0e3b 450E0000 		.4byte	0xe45
 2246 0e3f 20       		.uleb128 0x20
 2247 0e40 01       		.byte	0x1
 2248 0e41 51       		.byte	0x51
 2249 0e42 01       		.byte	0x1
 2250 0e43 4C       		.byte	0x4c
 2251 0e44 00       		.byte	0
 2252 0e45 1F       		.uleb128 0x1f
 2253 0e46 1C000000 		.4byte	.LVL4
ARM GAS  /tmp/ccSrQLBK.s 			page 41


 2254 0e4a D3100000 		.4byte	0x10d3
 2255 0e4e 5C0E0000 		.4byte	0xe5c
 2256 0e52 20       		.uleb128 0x20
 2257 0e53 01       		.byte	0x1
 2258 0e54 51       		.byte	0x51
 2259 0e55 05       		.byte	0x5
 2260 0e56 03       		.byte	0x3
 2261 0e57 00000000 		.4byte	.LC0
 2262 0e5b 00       		.byte	0
 2263 0e5c 1F       		.uleb128 0x1f
 2264 0e5d 2E000000 		.4byte	.LVL6
 2265 0e61 F3100000 		.4byte	0x10f3
 2266 0e65 830E0000 		.4byte	0xe83
 2267 0e69 20       		.uleb128 0x20
 2268 0e6a 01       		.byte	0x1
 2269 0e6b 53       		.byte	0x53
 2270 0e6c 02       		.byte	0x2
 2271 0e6d 91       		.byte	0x91
 2272 0e6e 60       		.sleb128 -32
 2273 0e6f 20       		.uleb128 0x20
 2274 0e70 01       		.byte	0x1
 2275 0e71 52       		.byte	0x52
 2276 0e72 02       		.byte	0x2
 2277 0e73 91       		.byte	0x91
 2278 0e74 5C       		.sleb128 -36
 2279 0e75 20       		.uleb128 0x20
 2280 0e76 01       		.byte	0x1
 2281 0e77 51       		.byte	0x51
 2282 0e78 02       		.byte	0x2
 2283 0e79 08       		.byte	0x8
 2284 0e7a 68       		.byte	0x68
 2285 0e7b 20       		.uleb128 0x20
 2286 0e7c 02       		.byte	0x2
 2287 0e7d 7D       		.byte	0x7d
 2288 0e7e 00       		.sleb128 0
 2289 0e7f 02       		.byte	0x2
 2290 0e80 77       		.byte	0x77
 2291 0e81 00       		.sleb128 0
 2292 0e82 00       		.byte	0
 2293 0e83 1F       		.uleb128 0x1f
 2294 0e84 3A000000 		.4byte	.LVL7
 2295 0e88 21110000 		.4byte	0x1121
 2296 0e8c 9D0E0000 		.4byte	0xe9d
 2297 0e90 20       		.uleb128 0x20
 2298 0e91 01       		.byte	0x1
 2299 0e92 52       		.byte	0x52
 2300 0e93 02       		.byte	0x2
 2301 0e94 91       		.byte	0x91
 2302 0e95 4F       		.sleb128 -49
 2303 0e96 20       		.uleb128 0x20
 2304 0e97 01       		.byte	0x1
 2305 0e98 51       		.byte	0x51
 2306 0e99 02       		.byte	0x2
 2307 0e9a 08       		.byte	0x8
 2308 0e9b 68       		.byte	0x68
 2309 0e9c 00       		.byte	0
 2310 0e9d 1F       		.uleb128 0x1f
ARM GAS  /tmp/ccSrQLBK.s 			page 42


 2311 0e9e 48000000 		.4byte	.LVL8
 2312 0ea2 3F110000 		.4byte	0x113f
 2313 0ea6 C30E0000 		.4byte	0xec3
 2314 0eaa 20       		.uleb128 0x20
 2315 0eab 01       		.byte	0x1
 2316 0eac 53       		.byte	0x53
 2317 0ead 02       		.byte	0x2
 2318 0eae 91       		.byte	0x91
 2319 0eaf 54       		.sleb128 -44
 2320 0eb0 20       		.uleb128 0x20
 2321 0eb1 01       		.byte	0x1
 2322 0eb2 52       		.byte	0x52
 2323 0eb3 02       		.byte	0x2
 2324 0eb4 91       		.byte	0x91
 2325 0eb5 50       		.sleb128 -48
 2326 0eb6 20       		.uleb128 0x20
 2327 0eb7 01       		.byte	0x1
 2328 0eb8 51       		.byte	0x51
 2329 0eb9 01       		.byte	0x1
 2330 0eba 4C       		.byte	0x4c
 2331 0ebb 20       		.uleb128 0x20
 2332 0ebc 02       		.byte	0x2
 2333 0ebd 7D       		.byte	0x7d
 2334 0ebe 00       		.sleb128 0
 2335 0ebf 02       		.byte	0x2
 2336 0ec0 76       		.byte	0x76
 2337 0ec1 00       		.sleb128 0
 2338 0ec2 00       		.byte	0
 2339 0ec3 1F       		.uleb128 0x1f
 2340 0ec4 72000000 		.4byte	.LVL12
 2341 0ec8 D3100000 		.4byte	0x10d3
 2342 0ecc DA0E0000 		.4byte	0xeda
 2343 0ed0 20       		.uleb128 0x20
 2344 0ed1 01       		.byte	0x1
 2345 0ed2 51       		.byte	0x51
 2346 0ed3 05       		.byte	0x5
 2347 0ed4 03       		.byte	0x3
 2348 0ed5 18000000 		.4byte	.LC1
 2349 0ed9 00       		.byte	0
 2350 0eda 1F       		.uleb128 0x1f
 2351 0edb 9C000000 		.4byte	.LVL16
 2352 0edf D3100000 		.4byte	0x10d3
 2353 0ee3 F10E0000 		.4byte	0xef1
 2354 0ee7 20       		.uleb128 0x20
 2355 0ee8 01       		.byte	0x1
 2356 0ee9 51       		.byte	0x51
 2357 0eea 05       		.byte	0x5
 2358 0eeb 03       		.byte	0x3
 2359 0eec 34000000 		.4byte	.LC2
 2360 0ef0 00       		.byte	0
 2361 0ef1 21       		.uleb128 0x21
 2362 0ef2 A8000000 		.4byte	.LVL17
 2363 0ef6 D3100000 		.4byte	0x10d3
 2364 0efa 20       		.uleb128 0x20
 2365 0efb 01       		.byte	0x1
 2366 0efc 51       		.byte	0x51
 2367 0efd 05       		.byte	0x5
ARM GAS  /tmp/ccSrQLBK.s 			page 43


 2368 0efe 03       		.byte	0x3
 2369 0eff 50000000 		.4byte	.LC3
 2370 0f03 00       		.byte	0
 2371 0f04 00       		.byte	0
 2372 0f05 04       		.uleb128 0x4
 2373 0f06 04       		.byte	0x4
 2374 0f07 04       		.byte	0x4
 2375 0f08 97040000 		.4byte	.LASF170
 2376 0f0c 22       		.uleb128 0x22
 2377 0f0d 05030000 		.4byte	.LASF172
 2378 0f11 01       		.byte	0x1
 2379 0f12 18       		.byte	0x18
 2380 0f13 01       		.byte	0x1
 2381 0f14 EF000000 		.4byte	0xef
 2382 0f18 00000000 		.4byte	.LFB63
 2383 0f1c 40000000 		.4byte	.LFE63
 2384 0f20 4E000000 		.4byte	.LLST2
 2385 0f24 01       		.byte	0x1
 2386 0f25 600F0000 		.4byte	0xf60
 2387 0f29 1D       		.uleb128 0x1d
 2388 0f2a 61726700 		.ascii	"arg\000"
 2389 0f2e 01       		.byte	0x1
 2390 0f2f 18       		.byte	0x18
 2391 0f30 BC020000 		.4byte	0x2bc
 2392 0f34 6E000000 		.4byte	.LLST3
 2393 0f38 1F       		.uleb128 0x1f
 2394 0f39 0A000000 		.4byte	.LVL20
 2395 0f3d D3100000 		.4byte	0x10d3
 2396 0f41 4F0F0000 		.4byte	0xf4f
 2397 0f45 20       		.uleb128 0x20
 2398 0f46 01       		.byte	0x1
 2399 0f47 51       		.byte	0x51
 2400 0f48 05       		.byte	0x5
 2401 0f49 03       		.byte	0x3
 2402 0f4a 58000000 		.4byte	.LC4
 2403 0f4e 00       		.byte	0
 2404 0f4f 21       		.uleb128 0x21
 2405 0f50 34000000 		.4byte	.LVL21
 2406 0f54 67110000 		.4byte	0x1167
 2407 0f58 20       		.uleb128 0x20
 2408 0f59 01       		.byte	0x1
 2409 0f5a 50       		.byte	0x50
 2410 0f5b 02       		.byte	0x2
 2411 0f5c 08       		.byte	0x8
 2412 0f5d FA       		.byte	0xfa
 2413 0f5e 00       		.byte	0
 2414 0f5f 00       		.byte	0
 2415 0f60 23       		.uleb128 0x23
 2416 0f61 01       		.byte	0x1
 2417 0f62 95070000 		.4byte	.LASF193
 2418 0f66 01       		.byte	0x1
 2419 0f67 45       		.byte	0x45
 2420 0f68 01       		.byte	0x1
 2421 0f69 29000000 		.4byte	0x29
 2422 0f6d 00000000 		.4byte	.LFB65
 2423 0f71 6C000000 		.4byte	.LFE65
 2424 0f75 8F000000 		.4byte	.LLST4
ARM GAS  /tmp/ccSrQLBK.s 			page 44


 2425 0f79 01       		.byte	0x1
 2426 0f7a 1E100000 		.4byte	0x101e
 2427 0f7e 24       		.uleb128 0x24
 2428 0f7f 08000000 		.4byte	.LVL22
 2429 0f83 7C110000 		.4byte	0x117c
 2430 0f87 24       		.uleb128 0x24
 2431 0f88 0C000000 		.4byte	.LVL23
 2432 0f8c 86110000 		.4byte	0x1186
 2433 0f90 1F       		.uleb128 0x1f
 2434 0f91 1A000000 		.4byte	.LVL24
 2435 0f95 90110000 		.4byte	0x1190
 2436 0f99 A30F0000 		.4byte	0xfa3
 2437 0f9d 20       		.uleb128 0x20
 2438 0f9e 01       		.byte	0x1
 2439 0f9f 51       		.byte	0x51
 2440 0fa0 01       		.byte	0x1
 2441 0fa1 30       		.byte	0x30
 2442 0fa2 00       		.byte	0
 2443 0fa3 1F       		.uleb128 0x1f
 2444 0fa4 2E000000 		.4byte	.LVL25
 2445 0fa8 BB110000 		.4byte	0x11bb
 2446 0fac BA0F0000 		.4byte	0xfba
 2447 0fb0 20       		.uleb128 0x20
 2448 0fb1 01       		.byte	0x1
 2449 0fb2 51       		.byte	0x51
 2450 0fb3 05       		.byte	0x5
 2451 0fb4 03       		.byte	0x3
 2452 0fb5 00000000 		.4byte	.LANCHOR0
 2453 0fb9 00       		.byte	0
 2454 0fba 1F       		.uleb128 0x1f
 2455 0fbb 4A000000 		.4byte	.LVL26
 2456 0fbf D4110000 		.4byte	0x11d4
 2457 0fc3 ED0F0000 		.4byte	0xfed
 2458 0fc7 20       		.uleb128 0x20
 2459 0fc8 01       		.byte	0x1
 2460 0fc9 53       		.byte	0x53
 2461 0fca 05       		.byte	0x5
 2462 0fcb 03       		.byte	0x3
 2463 0fcc 00000000 		.4byte	heartBeat
 2464 0fd0 20       		.uleb128 0x20
 2465 0fd1 01       		.byte	0x1
 2466 0fd2 52       		.byte	0x52
 2467 0fd3 02       		.byte	0x2
 2468 0fd4 08       		.byte	0x8
 2469 0fd5 40       		.byte	0x40
 2470 0fd6 20       		.uleb128 0x20
 2471 0fd7 01       		.byte	0x1
 2472 0fd8 51       		.byte	0x51
 2473 0fd9 02       		.byte	0x2
 2474 0fda 08       		.byte	0x8
 2475 0fdb D0       		.byte	0xd0
 2476 0fdc 20       		.uleb128 0x20
 2477 0fdd 01       		.byte	0x1
 2478 0fde 50       		.byte	0x50
 2479 0fdf 05       		.byte	0x5
 2480 0fe0 03       		.byte	0x3
 2481 0fe1 00000000 		.4byte	.LANCHOR1
ARM GAS  /tmp/ccSrQLBK.s 			page 45


 2482 0fe5 20       		.uleb128 0x20
 2483 0fe6 02       		.byte	0x2
 2484 0fe7 7D       		.byte	0x7d
 2485 0fe8 00       		.sleb128 0
 2486 0fe9 02       		.byte	0x2
 2487 0fea 74       		.byte	0x74
 2488 0feb 00       		.sleb128 0
 2489 0fec 00       		.byte	0
 2490 0fed 21       		.uleb128 0x21
 2491 0fee 66000000 		.4byte	.LVL27
 2492 0ff2 D4110000 		.4byte	0x11d4
 2493 0ff6 20       		.uleb128 0x20
 2494 0ff7 01       		.byte	0x1
 2495 0ff8 53       		.byte	0x53
 2496 0ff9 05       		.byte	0x5
 2497 0ffa 03       		.byte	0x3
 2498 0ffb 00000000 		.4byte	sensorsRead
 2499 0fff 20       		.uleb128 0x20
 2500 1000 01       		.byte	0x1
 2501 1001 52       		.byte	0x52
 2502 1002 02       		.byte	0x2
 2503 1003 08       		.byte	0x8
 2504 1004 40       		.byte	0x40
 2505 1005 20       		.uleb128 0x20
 2506 1006 01       		.byte	0x1
 2507 1007 51       		.byte	0x51
 2508 1008 03       		.byte	0x3
 2509 1009 0A       		.byte	0xa
 2510 100a B001     		.2byte	0x1b0
 2511 100c 20       		.uleb128 0x20
 2512 100d 01       		.byte	0x1
 2513 100e 50       		.byte	0x50
 2514 100f 05       		.byte	0x5
 2515 1010 03       		.byte	0x3
 2516 1011 00000000 		.4byte	.LANCHOR2
 2517 1015 20       		.uleb128 0x20
 2518 1016 02       		.byte	0x2
 2519 1017 7D       		.byte	0x7d
 2520 1018 00       		.sleb128 0
 2521 1019 02       		.byte	0x2
 2522 101a 74       		.byte	0x74
 2523 101b 00       		.sleb128 0
 2524 101c 00       		.byte	0
 2525 101d 00       		.byte	0
 2526 101e 1E       		.uleb128 0x1e
 2527 101f 3E070000 		.4byte	.LASF173
 2528 1023 01       		.byte	0x1
 2529 1024 10       		.byte	0x10
 2530 1025 E40B0000 		.4byte	0xbe4
 2531 1029 05       		.byte	0x5
 2532 102a 03       		.byte	0x3
 2533 102b 00000000 		.4byte	i2cCfg
 2534 102f 1A       		.uleb128 0x1a
 2535 1030 BE020000 		.4byte	0x2be
 2536 1034 3F100000 		.4byte	0x103f
 2537 1038 1B       		.uleb128 0x1b
 2538 1039 7F030000 		.4byte	0x37f
ARM GAS  /tmp/ccSrQLBK.s 			page 46


 2539 103d 19       		.byte	0x19
 2540 103e 00       		.byte	0
 2541 103f 1E       		.uleb128 0x1e
 2542 1040 BF020000 		.4byte	.LASF174
 2543 1044 01       		.byte	0x1
 2544 1045 17       		.byte	0x17
 2545 1046 2F100000 		.4byte	0x102f
 2546 104a 05       		.byte	0x5
 2547 104b 03       		.byte	0x3
 2548 104c 00000000 		.4byte	heartWrkArea
 2549 1050 1A       		.uleb128 0x1a
 2550 1051 BE020000 		.4byte	0x2be
 2551 1055 60100000 		.4byte	0x1060
 2552 1059 1B       		.uleb128 0x1b
 2553 105a 7F030000 		.4byte	0x37f
 2554 105e 35       		.byte	0x35
 2555 105f 00       		.byte	0
 2556 1060 1E       		.uleb128 0x1e
 2557 1061 0F000000 		.4byte	.LASF175
 2558 1065 01       		.byte	0x1
 2559 1066 28       		.byte	0x28
 2560 1067 50100000 		.4byte	0x1050
 2561 106b 05       		.byte	0x5
 2562 106c 03       		.byte	0x3
 2563 106d 00000000 		.4byte	sensorsWrkArea
 2564 1071 25       		.uleb128 0x25
 2565 1072 B4000000 		.4byte	.LASF176
 2566 1076 13       		.byte	0x13
 2567 1077 0706     		.2byte	0x607
 2568 1079 67060000 		.4byte	0x667
 2569 107d 01       		.byte	0x1
 2570 107e 01       		.byte	0x1
 2571 107f 25       		.uleb128 0x25
 2572 1080 88060000 		.4byte	.LASF177
 2573 1084 10       		.byte	0x10
 2574 1085 B201     		.2byte	0x1b2
 2575 1087 1F0B0000 		.4byte	0xb1f
 2576 108b 01       		.byte	0x1
 2577 108c 01       		.byte	0x1
 2578 108d 26       		.uleb128 0x26
 2579 108e 53443200 		.ascii	"SD2\000"
 2580 1092 12       		.byte	0x12
 2581 1093 1201     		.2byte	0x112
 2582 1095 200C0000 		.4byte	0xc20
 2583 1099 01       		.byte	0x1
 2584 109a 01       		.byte	0x1
 2585 109b 27       		.uleb128 0x27
 2586 109c 01       		.byte	0x1
 2587 109d 9D040000 		.4byte	.LASF178
 2588 10a1 14       		.byte	0x14
 2589 10a2 19       		.byte	0x19
 2590 10a3 01       		.byte	0x1
 2591 10a4 01       		.byte	0x1
 2592 10a5 B4100000 		.4byte	0x10b4
 2593 10a9 12       		.uleb128 0x12
 2594 10aa B4100000 		.4byte	0x10b4
 2595 10ae 12       		.uleb128 0x12
ARM GAS  /tmp/ccSrQLBK.s 			page 47


 2596 10af 49000000 		.4byte	0x49
 2597 10b3 00       		.byte	0
 2598 10b4 09       		.uleb128 0x9
 2599 10b5 04       		.byte	0x4
 2600 10b6 1F0B0000 		.4byte	0xb1f
 2601 10ba 27       		.uleb128 0x27
 2602 10bb 01       		.byte	0x1
 2603 10bc 86020000 		.4byte	.LASF179
 2604 10c0 14       		.byte	0x14
 2605 10c1 17       		.byte	0x17
 2606 10c2 01       		.byte	0x1
 2607 10c3 01       		.byte	0x1
 2608 10c4 D3100000 		.4byte	0x10d3
 2609 10c8 12       		.uleb128 0x12
 2610 10c9 B4100000 		.4byte	0x10b4
 2611 10cd 12       		.uleb128 0x12
 2612 10ce 49000000 		.4byte	0x49
 2613 10d2 00       		.byte	0
 2614 10d3 27       		.uleb128 0x27
 2615 10d4 01       		.byte	0x1
 2616 10d5 B2070000 		.4byte	.LASF180
 2617 10d9 15       		.byte	0x15
 2618 10da 26       		.byte	0x26
 2619 10db 01       		.byte	0x1
 2620 10dc 01       		.byte	0x1
 2621 10dd ED100000 		.4byte	0x10ed
 2622 10e1 12       		.uleb128 0x12
 2623 10e2 ED100000 		.4byte	0x10ed
 2624 10e6 12       		.uleb128 0x12
 2625 10e7 84040000 		.4byte	0x484
 2626 10eb 28       		.uleb128 0x28
 2627 10ec 00       		.byte	0
 2628 10ed 09       		.uleb128 0x9
 2629 10ee 04       		.byte	0x4
 2630 10ef 57060000 		.4byte	0x657
 2631 10f3 27       		.uleb128 0x27
 2632 10f4 01       		.byte	0x1
 2633 10f5 F7000000 		.4byte	.LASF181
 2634 10f9 14       		.byte	0x14
 2635 10fa 1A       		.byte	0x1a
 2636 10fb 01       		.byte	0x1
 2637 10fc 01       		.byte	0x1
 2638 10fd 1B110000 		.4byte	0x111b
 2639 1101 12       		.uleb128 0x12
 2640 1102 B4100000 		.4byte	0x10b4
 2641 1106 12       		.uleb128 0x12
 2642 1107 49000000 		.4byte	0x49
 2643 110b 12       		.uleb128 0x12
 2644 110c 1B110000 		.4byte	0x111b
 2645 1110 12       		.uleb128 0x12
 2646 1111 1B110000 		.4byte	0x111b
 2647 1115 12       		.uleb128 0x12
 2648 1116 1B110000 		.4byte	0x111b
 2649 111a 00       		.byte	0
 2650 111b 09       		.uleb128 0x9
 2651 111c 04       		.byte	0x4
 2652 111d 050F0000 		.4byte	0xf05
ARM GAS  /tmp/ccSrQLBK.s 			page 48


 2653 1121 27       		.uleb128 0x27
 2654 1122 01       		.byte	0x1
 2655 1123 A8050000 		.4byte	.LASF182
 2656 1127 14       		.byte	0x14
 2657 1128 1B       		.byte	0x1b
 2658 1129 01       		.byte	0x1
 2659 112a 01       		.byte	0x1
 2660 112b 3F110000 		.4byte	0x113f
 2661 112f 12       		.uleb128 0x12
 2662 1130 B4100000 		.4byte	0x10b4
 2663 1134 12       		.uleb128 0x12
 2664 1135 49000000 		.4byte	0x49
 2665 1139 12       		.uleb128 0x12
 2666 113a 6E050000 		.4byte	0x56e
 2667 113e 00       		.byte	0
 2668 113f 27       		.uleb128 0x27
 2669 1140 01       		.byte	0x1
 2670 1141 36070000 		.4byte	.LASF183
 2671 1145 14       		.byte	0x14
 2672 1146 18       		.byte	0x18
 2673 1147 01       		.byte	0x1
 2674 1148 01       		.byte	0x1
 2675 1149 67110000 		.4byte	0x1167
 2676 114d 12       		.uleb128 0x12
 2677 114e B4100000 		.4byte	0x10b4
 2678 1152 12       		.uleb128 0x12
 2679 1153 49000000 		.4byte	0x49
 2680 1157 12       		.uleb128 0x12
 2681 1158 1B110000 		.4byte	0x111b
 2682 115c 12       		.uleb128 0x12
 2683 115d 1B110000 		.4byte	0x111b
 2684 1161 12       		.uleb128 0x12
 2685 1162 1B110000 		.4byte	0x111b
 2686 1166 00       		.byte	0
 2687 1167 29       		.uleb128 0x29
 2688 1168 01       		.byte	0x1
 2689 1169 6B040000 		.4byte	.LASF184
 2690 116d 06       		.byte	0x6
 2691 116e 6E01     		.2byte	0x16e
 2692 1170 01       		.byte	0x1
 2693 1171 01       		.byte	0x1
 2694 1172 7C110000 		.4byte	0x117c
 2695 1176 12       		.uleb128 0x12
 2696 1177 10010000 		.4byte	0x110
 2697 117b 00       		.byte	0
 2698 117c 2A       		.uleb128 0x2a
 2699 117d 01       		.byte	0x1
 2700 117e B1020000 		.4byte	.LASF185
 2701 1182 16       		.byte	0x16
 2702 1183 CA       		.byte	0xca
 2703 1184 01       		.byte	0x1
 2704 1185 01       		.byte	0x1
 2705 1186 2A       		.uleb128 0x2a
 2706 1187 01       		.byte	0x1
 2707 1188 19020000 		.4byte	.LASF186
 2708 118c 17       		.byte	0x17
 2709 118d EF       		.byte	0xef
ARM GAS  /tmp/ccSrQLBK.s 			page 49


 2710 118e 01       		.byte	0x1
 2711 118f 01       		.byte	0x1
 2712 1190 29       		.uleb128 0x29
 2713 1191 01       		.byte	0x1
 2714 1192 BF060000 		.4byte	.LASF187
 2715 1196 11       		.byte	0x11
 2716 1197 3001     		.2byte	0x130
 2717 1199 01       		.byte	0x1
 2718 119a 01       		.byte	0x1
 2719 119b AA110000 		.4byte	0x11aa
 2720 119f 12       		.uleb128 0x12
 2721 11a0 AA110000 		.4byte	0x11aa
 2722 11a4 12       		.uleb128 0x12
 2723 11a5 B0110000 		.4byte	0x11b0
 2724 11a9 00       		.byte	0
 2725 11aa 09       		.uleb128 0x9
 2726 11ab 04       		.byte	0x4
 2727 11ac 200C0000 		.4byte	0xc20
 2728 11b0 09       		.uleb128 0x9
 2729 11b1 04       		.byte	0x4
 2730 11b2 B6110000 		.4byte	0x11b6
 2731 11b6 10       		.uleb128 0x10
 2732 11b7 E70C0000 		.4byte	0xce7
 2733 11bb 27       		.uleb128 0x27
 2734 11bc 01       		.byte	0x1
 2735 11bd E7030000 		.4byte	.LASF188
 2736 11c1 0F       		.byte	0xf
 2737 11c2 7A       		.byte	0x7a
 2738 11c3 01       		.byte	0x1
 2739 11c4 01       		.byte	0x1
 2740 11c5 D4110000 		.4byte	0x11d4
 2741 11c9 12       		.uleb128 0x12
 2742 11ca B4100000 		.4byte	0x10b4
 2743 11ce 12       		.uleb128 0x12
 2744 11cf DE0B0000 		.4byte	0xbde
 2745 11d3 00       		.byte	0
 2746 11d4 2B       		.uleb128 0x2b
 2747 11d5 01       		.byte	0x1
 2748 11d6 99030000 		.4byte	.LASF189
 2749 11da 06       		.byte	0x6
 2750 11db 6901     		.2byte	0x169
 2751 11dd 01       		.byte	0x1
 2752 11de 7E020000 		.4byte	0x27e
 2753 11e2 01       		.byte	0x1
 2754 11e3 12       		.uleb128 0x12
 2755 11e4 BC020000 		.4byte	0x2bc
 2756 11e8 12       		.uleb128 0x12
 2757 11e9 30000000 		.4byte	0x30
 2758 11ed 12       		.uleb128 0x12
 2759 11ee E4000000 		.4byte	0xe4
 2760 11f2 12       		.uleb128 0x12
 2761 11f3 A2040000 		.4byte	0x4a2
 2762 11f7 12       		.uleb128 0x12
 2763 11f8 BC020000 		.4byte	0x2bc
 2764 11fc 00       		.byte	0
 2765 11fd 00       		.byte	0
 2766              		.section	.debug_abbrev,"",%progbits
ARM GAS  /tmp/ccSrQLBK.s 			page 50


 2767              	.Ldebug_abbrev0:
 2768 0000 01       		.uleb128 0x1
 2769 0001 11       		.uleb128 0x11
 2770 0002 01       		.byte	0x1
 2771 0003 25       		.uleb128 0x25
 2772 0004 0E       		.uleb128 0xe
 2773 0005 13       		.uleb128 0x13
 2774 0006 0B       		.uleb128 0xb
 2775 0007 03       		.uleb128 0x3
 2776 0008 0E       		.uleb128 0xe
 2777 0009 1B       		.uleb128 0x1b
 2778 000a 0E       		.uleb128 0xe
 2779 000b 55       		.uleb128 0x55
 2780 000c 06       		.uleb128 0x6
 2781 000d 11       		.uleb128 0x11
 2782 000e 01       		.uleb128 0x1
 2783 000f 52       		.uleb128 0x52
 2784 0010 01       		.uleb128 0x1
 2785 0011 10       		.uleb128 0x10
 2786 0012 06       		.uleb128 0x6
 2787 0013 00       		.byte	0
 2788 0014 00       		.byte	0
 2789 0015 02       		.uleb128 0x2
 2790 0016 24       		.uleb128 0x24
 2791 0017 00       		.byte	0
 2792 0018 0B       		.uleb128 0xb
 2793 0019 0B       		.uleb128 0xb
 2794 001a 3E       		.uleb128 0x3e
 2795 001b 0B       		.uleb128 0xb
 2796 001c 03       		.uleb128 0x3
 2797 001d 08       		.uleb128 0x8
 2798 001e 00       		.byte	0
 2799 001f 00       		.byte	0
 2800 0020 03       		.uleb128 0x3
 2801 0021 16       		.uleb128 0x16
 2802 0022 00       		.byte	0
 2803 0023 03       		.uleb128 0x3
 2804 0024 0E       		.uleb128 0xe
 2805 0025 3A       		.uleb128 0x3a
 2806 0026 0B       		.uleb128 0xb
 2807 0027 3B       		.uleb128 0x3b
 2808 0028 0B       		.uleb128 0xb
 2809 0029 49       		.uleb128 0x49
 2810 002a 13       		.uleb128 0x13
 2811 002b 00       		.byte	0
 2812 002c 00       		.byte	0
 2813 002d 04       		.uleb128 0x4
 2814 002e 24       		.uleb128 0x24
 2815 002f 00       		.byte	0
 2816 0030 0B       		.uleb128 0xb
 2817 0031 0B       		.uleb128 0xb
 2818 0032 3E       		.uleb128 0x3e
 2819 0033 0B       		.uleb128 0xb
 2820 0034 03       		.uleb128 0x3
 2821 0035 0E       		.uleb128 0xe
 2822 0036 00       		.byte	0
 2823 0037 00       		.byte	0
ARM GAS  /tmp/ccSrQLBK.s 			page 51


 2824 0038 05       		.uleb128 0x5
 2825 0039 13       		.uleb128 0x13
 2826 003a 01       		.byte	0x1
 2827 003b 03       		.uleb128 0x3
 2828 003c 0E       		.uleb128 0xe
 2829 003d 0B       		.uleb128 0xb
 2830 003e 0B       		.uleb128 0xb
 2831 003f 3A       		.uleb128 0x3a
 2832 0040 0B       		.uleb128 0xb
 2833 0041 3B       		.uleb128 0x3b
 2834 0042 0B       		.uleb128 0xb
 2835 0043 01       		.uleb128 0x1
 2836 0044 13       		.uleb128 0x13
 2837 0045 00       		.byte	0
 2838 0046 00       		.byte	0
 2839 0047 06       		.uleb128 0x6
 2840 0048 0D       		.uleb128 0xd
 2841 0049 00       		.byte	0
 2842 004a 03       		.uleb128 0x3
 2843 004b 0E       		.uleb128 0xe
 2844 004c 3A       		.uleb128 0x3a
 2845 004d 0B       		.uleb128 0xb
 2846 004e 3B       		.uleb128 0x3b
 2847 004f 0B       		.uleb128 0xb
 2848 0050 49       		.uleb128 0x49
 2849 0051 13       		.uleb128 0x13
 2850 0052 38       		.uleb128 0x38
 2851 0053 0A       		.uleb128 0xa
 2852 0054 00       		.byte	0
 2853 0055 00       		.byte	0
 2854 0056 07       		.uleb128 0x7
 2855 0057 0D       		.uleb128 0xd
 2856 0058 00       		.byte	0
 2857 0059 03       		.uleb128 0x3
 2858 005a 08       		.uleb128 0x8
 2859 005b 3A       		.uleb128 0x3a
 2860 005c 0B       		.uleb128 0xb
 2861 005d 3B       		.uleb128 0x3b
 2862 005e 0B       		.uleb128 0xb
 2863 005f 49       		.uleb128 0x49
 2864 0060 13       		.uleb128 0x13
 2865 0061 38       		.uleb128 0x38
 2866 0062 0A       		.uleb128 0xa
 2867 0063 00       		.byte	0
 2868 0064 00       		.byte	0
 2869 0065 08       		.uleb128 0x8
 2870 0066 13       		.uleb128 0x13
 2871 0067 01       		.byte	0x1
 2872 0068 0B       		.uleb128 0xb
 2873 0069 0B       		.uleb128 0xb
 2874 006a 3A       		.uleb128 0x3a
 2875 006b 0B       		.uleb128 0xb
 2876 006c 3B       		.uleb128 0x3b
 2877 006d 0B       		.uleb128 0xb
 2878 006e 01       		.uleb128 0x1
 2879 006f 13       		.uleb128 0x13
 2880 0070 00       		.byte	0
ARM GAS  /tmp/ccSrQLBK.s 			page 52


 2881 0071 00       		.byte	0
 2882 0072 09       		.uleb128 0x9
 2883 0073 0F       		.uleb128 0xf
 2884 0074 00       		.byte	0
 2885 0075 0B       		.uleb128 0xb
 2886 0076 0B       		.uleb128 0xb
 2887 0077 49       		.uleb128 0x49
 2888 0078 13       		.uleb128 0x13
 2889 0079 00       		.byte	0
 2890 007a 00       		.byte	0
 2891 007b 0A       		.uleb128 0xa
 2892 007c 0F       		.uleb128 0xf
 2893 007d 00       		.byte	0
 2894 007e 0B       		.uleb128 0xb
 2895 007f 0B       		.uleb128 0xb
 2896 0080 00       		.byte	0
 2897 0081 00       		.byte	0
 2898 0082 0B       		.uleb128 0xb
 2899 0083 13       		.uleb128 0x13
 2900 0084 01       		.byte	0x1
 2901 0085 03       		.uleb128 0x3
 2902 0086 0E       		.uleb128 0xe
 2903 0087 0B       		.uleb128 0xb
 2904 0088 0B       		.uleb128 0xb
 2905 0089 3A       		.uleb128 0x3a
 2906 008a 0B       		.uleb128 0xb
 2907 008b 3B       		.uleb128 0x3b
 2908 008c 05       		.uleb128 0x5
 2909 008d 01       		.uleb128 0x1
 2910 008e 13       		.uleb128 0x13
 2911 008f 00       		.byte	0
 2912 0090 00       		.byte	0
 2913 0091 0C       		.uleb128 0xc
 2914 0092 0D       		.uleb128 0xd
 2915 0093 00       		.byte	0
 2916 0094 03       		.uleb128 0x3
 2917 0095 08       		.uleb128 0x8
 2918 0096 3A       		.uleb128 0x3a
 2919 0097 0B       		.uleb128 0xb
 2920 0098 3B       		.uleb128 0x3b
 2921 0099 05       		.uleb128 0x5
 2922 009a 49       		.uleb128 0x49
 2923 009b 13       		.uleb128 0x13
 2924 009c 38       		.uleb128 0x38
 2925 009d 0A       		.uleb128 0xa
 2926 009e 00       		.byte	0
 2927 009f 00       		.byte	0
 2928 00a0 0D       		.uleb128 0xd
 2929 00a1 35       		.uleb128 0x35
 2930 00a2 00       		.byte	0
 2931 00a3 49       		.uleb128 0x49
 2932 00a4 13       		.uleb128 0x13
 2933 00a5 00       		.byte	0
 2934 00a6 00       		.byte	0
 2935 00a7 0E       		.uleb128 0xe
 2936 00a8 17       		.uleb128 0x17
 2937 00a9 01       		.byte	0x1
ARM GAS  /tmp/ccSrQLBK.s 			page 53


 2938 00aa 0B       		.uleb128 0xb
 2939 00ab 0B       		.uleb128 0xb
 2940 00ac 3A       		.uleb128 0x3a
 2941 00ad 0B       		.uleb128 0xb
 2942 00ae 3B       		.uleb128 0x3b
 2943 00af 0B       		.uleb128 0xb
 2944 00b0 01       		.uleb128 0x1
 2945 00b1 13       		.uleb128 0x13
 2946 00b2 00       		.byte	0
 2947 00b3 00       		.byte	0
 2948 00b4 0F       		.uleb128 0xf
 2949 00b5 0D       		.uleb128 0xd
 2950 00b6 00       		.byte	0
 2951 00b7 03       		.uleb128 0x3
 2952 00b8 0E       		.uleb128 0xe
 2953 00b9 3A       		.uleb128 0x3a
 2954 00ba 0B       		.uleb128 0xb
 2955 00bb 3B       		.uleb128 0x3b
 2956 00bc 0B       		.uleb128 0xb
 2957 00bd 49       		.uleb128 0x49
 2958 00be 13       		.uleb128 0x13
 2959 00bf 00       		.byte	0
 2960 00c0 00       		.byte	0
 2961 00c1 10       		.uleb128 0x10
 2962 00c2 26       		.uleb128 0x26
 2963 00c3 00       		.byte	0
 2964 00c4 49       		.uleb128 0x49
 2965 00c5 13       		.uleb128 0x13
 2966 00c6 00       		.byte	0
 2967 00c7 00       		.byte	0
 2968 00c8 11       		.uleb128 0x11
 2969 00c9 15       		.uleb128 0x15
 2970 00ca 01       		.byte	0x1
 2971 00cb 27       		.uleb128 0x27
 2972 00cc 0C       		.uleb128 0xc
 2973 00cd 49       		.uleb128 0x49
 2974 00ce 13       		.uleb128 0x13
 2975 00cf 01       		.uleb128 0x1
 2976 00d0 13       		.uleb128 0x13
 2977 00d1 00       		.byte	0
 2978 00d2 00       		.byte	0
 2979 00d3 12       		.uleb128 0x12
 2980 00d4 05       		.uleb128 0x5
 2981 00d5 00       		.byte	0
 2982 00d6 49       		.uleb128 0x49
 2983 00d7 13       		.uleb128 0x13
 2984 00d8 00       		.byte	0
 2985 00d9 00       		.byte	0
 2986 00da 13       		.uleb128 0x13
 2987 00db 15       		.uleb128 0x15
 2988 00dc 01       		.byte	0x1
 2989 00dd 27       		.uleb128 0x27
 2990 00de 0C       		.uleb128 0xc
 2991 00df 01       		.uleb128 0x1
 2992 00e0 13       		.uleb128 0x13
 2993 00e1 00       		.byte	0
 2994 00e2 00       		.byte	0
ARM GAS  /tmp/ccSrQLBK.s 			page 54


 2995 00e3 14       		.uleb128 0x14
 2996 00e4 13       		.uleb128 0x13
 2997 00e5 01       		.byte	0x1
 2998 00e6 0B       		.uleb128 0xb
 2999 00e7 0B       		.uleb128 0xb
 3000 00e8 3A       		.uleb128 0x3a
 3001 00e9 0B       		.uleb128 0xb
 3002 00ea 3B       		.uleb128 0x3b
 3003 00eb 05       		.uleb128 0x5
 3004 00ec 01       		.uleb128 0x1
 3005 00ed 13       		.uleb128 0x13
 3006 00ee 00       		.byte	0
 3007 00ef 00       		.byte	0
 3008 00f0 15       		.uleb128 0x15
 3009 00f1 0D       		.uleb128 0xd
 3010 00f2 00       		.byte	0
 3011 00f3 03       		.uleb128 0x3
 3012 00f4 0E       		.uleb128 0xe
 3013 00f5 3A       		.uleb128 0x3a
 3014 00f6 0B       		.uleb128 0xb
 3015 00f7 3B       		.uleb128 0x3b
 3016 00f8 05       		.uleb128 0x5
 3017 00f9 49       		.uleb128 0x49
 3018 00fa 13       		.uleb128 0x13
 3019 00fb 38       		.uleb128 0x38
 3020 00fc 0A       		.uleb128 0xa
 3021 00fd 00       		.byte	0
 3022 00fe 00       		.byte	0
 3023 00ff 16       		.uleb128 0x16
 3024 0100 16       		.uleb128 0x16
 3025 0101 00       		.byte	0
 3026 0102 03       		.uleb128 0x3
 3027 0103 0E       		.uleb128 0xe
 3028 0104 3A       		.uleb128 0x3a
 3029 0105 0B       		.uleb128 0xb
 3030 0106 3B       		.uleb128 0x3b
 3031 0107 05       		.uleb128 0x5
 3032 0108 49       		.uleb128 0x49
 3033 0109 13       		.uleb128 0x13
 3034 010a 00       		.byte	0
 3035 010b 00       		.byte	0
 3036 010c 17       		.uleb128 0x17
 3037 010d 04       		.uleb128 0x4
 3038 010e 01       		.byte	0x1
 3039 010f 0B       		.uleb128 0xb
 3040 0110 0B       		.uleb128 0xb
 3041 0111 3A       		.uleb128 0x3a
 3042 0112 0B       		.uleb128 0xb
 3043 0113 3B       		.uleb128 0x3b
 3044 0114 0B       		.uleb128 0xb
 3045 0115 01       		.uleb128 0x1
 3046 0116 13       		.uleb128 0x13
 3047 0117 00       		.byte	0
 3048 0118 00       		.byte	0
 3049 0119 18       		.uleb128 0x18
 3050 011a 28       		.uleb128 0x28
 3051 011b 00       		.byte	0
ARM GAS  /tmp/ccSrQLBK.s 			page 55


 3052 011c 03       		.uleb128 0x3
 3053 011d 0E       		.uleb128 0xe
 3054 011e 1C       		.uleb128 0x1c
 3055 011f 0D       		.uleb128 0xd
 3056 0120 00       		.byte	0
 3057 0121 00       		.byte	0
 3058 0122 19       		.uleb128 0x19
 3059 0123 04       		.uleb128 0x4
 3060 0124 01       		.byte	0x1
 3061 0125 0B       		.uleb128 0xb
 3062 0126 0B       		.uleb128 0xb
 3063 0127 3A       		.uleb128 0x3a
 3064 0128 0B       		.uleb128 0xb
 3065 0129 3B       		.uleb128 0x3b
 3066 012a 05       		.uleb128 0x5
 3067 012b 01       		.uleb128 0x1
 3068 012c 13       		.uleb128 0x13
 3069 012d 00       		.byte	0
 3070 012e 00       		.byte	0
 3071 012f 1A       		.uleb128 0x1a
 3072 0130 01       		.uleb128 0x1
 3073 0131 01       		.byte	0x1
 3074 0132 49       		.uleb128 0x49
 3075 0133 13       		.uleb128 0x13
 3076 0134 01       		.uleb128 0x1
 3077 0135 13       		.uleb128 0x13
 3078 0136 00       		.byte	0
 3079 0137 00       		.byte	0
 3080 0138 1B       		.uleb128 0x1b
 3081 0139 21       		.uleb128 0x21
 3082 013a 00       		.byte	0
 3083 013b 49       		.uleb128 0x49
 3084 013c 13       		.uleb128 0x13
 3085 013d 2F       		.uleb128 0x2f
 3086 013e 0B       		.uleb128 0xb
 3087 013f 00       		.byte	0
 3088 0140 00       		.byte	0
 3089 0141 1C       		.uleb128 0x1c
 3090 0142 2E       		.uleb128 0x2e
 3091 0143 01       		.byte	0x1
 3092 0144 03       		.uleb128 0x3
 3093 0145 0E       		.uleb128 0xe
 3094 0146 3A       		.uleb128 0x3a
 3095 0147 0B       		.uleb128 0xb
 3096 0148 3B       		.uleb128 0x3b
 3097 0149 0B       		.uleb128 0xb
 3098 014a 27       		.uleb128 0x27
 3099 014b 0C       		.uleb128 0xc
 3100 014c 49       		.uleb128 0x49
 3101 014d 13       		.uleb128 0x13
 3102 014e 11       		.uleb128 0x11
 3103 014f 01       		.uleb128 0x1
 3104 0150 12       		.uleb128 0x12
 3105 0151 01       		.uleb128 0x1
 3106 0152 40       		.uleb128 0x40
 3107 0153 06       		.uleb128 0x6
 3108 0154 9642     		.uleb128 0x2116
ARM GAS  /tmp/ccSrQLBK.s 			page 56


 3109 0156 0C       		.uleb128 0xc
 3110 0157 01       		.uleb128 0x1
 3111 0158 13       		.uleb128 0x13
 3112 0159 00       		.byte	0
 3113 015a 00       		.byte	0
 3114 015b 1D       		.uleb128 0x1d
 3115 015c 05       		.uleb128 0x5
 3116 015d 00       		.byte	0
 3117 015e 03       		.uleb128 0x3
 3118 015f 08       		.uleb128 0x8
 3119 0160 3A       		.uleb128 0x3a
 3120 0161 0B       		.uleb128 0xb
 3121 0162 3B       		.uleb128 0x3b
 3122 0163 0B       		.uleb128 0xb
 3123 0164 49       		.uleb128 0x49
 3124 0165 13       		.uleb128 0x13
 3125 0166 02       		.uleb128 0x2
 3126 0167 06       		.uleb128 0x6
 3127 0168 00       		.byte	0
 3128 0169 00       		.byte	0
 3129 016a 1E       		.uleb128 0x1e
 3130 016b 34       		.uleb128 0x34
 3131 016c 00       		.byte	0
 3132 016d 03       		.uleb128 0x3
 3133 016e 0E       		.uleb128 0xe
 3134 016f 3A       		.uleb128 0x3a
 3135 0170 0B       		.uleb128 0xb
 3136 0171 3B       		.uleb128 0x3b
 3137 0172 0B       		.uleb128 0xb
 3138 0173 49       		.uleb128 0x49
 3139 0174 13       		.uleb128 0x13
 3140 0175 02       		.uleb128 0x2
 3141 0176 0A       		.uleb128 0xa
 3142 0177 00       		.byte	0
 3143 0178 00       		.byte	0
 3144 0179 1F       		.uleb128 0x1f
 3145 017a 898201   		.uleb128 0x4109
 3146 017d 01       		.byte	0x1
 3147 017e 11       		.uleb128 0x11
 3148 017f 01       		.uleb128 0x1
 3149 0180 31       		.uleb128 0x31
 3150 0181 13       		.uleb128 0x13
 3151 0182 01       		.uleb128 0x1
 3152 0183 13       		.uleb128 0x13
 3153 0184 00       		.byte	0
 3154 0185 00       		.byte	0
 3155 0186 20       		.uleb128 0x20
 3156 0187 8A8201   		.uleb128 0x410a
 3157 018a 00       		.byte	0
 3158 018b 02       		.uleb128 0x2
 3159 018c 0A       		.uleb128 0xa
 3160 018d 9142     		.uleb128 0x2111
 3161 018f 0A       		.uleb128 0xa
 3162 0190 00       		.byte	0
 3163 0191 00       		.byte	0
 3164 0192 21       		.uleb128 0x21
 3165 0193 898201   		.uleb128 0x4109
ARM GAS  /tmp/ccSrQLBK.s 			page 57


 3166 0196 01       		.byte	0x1
 3167 0197 11       		.uleb128 0x11
 3168 0198 01       		.uleb128 0x1
 3169 0199 31       		.uleb128 0x31
 3170 019a 13       		.uleb128 0x13
 3171 019b 00       		.byte	0
 3172 019c 00       		.byte	0
 3173 019d 22       		.uleb128 0x22
 3174 019e 2E       		.uleb128 0x2e
 3175 019f 01       		.byte	0x1
 3176 01a0 03       		.uleb128 0x3
 3177 01a1 0E       		.uleb128 0xe
 3178 01a2 3A       		.uleb128 0x3a
 3179 01a3 0B       		.uleb128 0xb
 3180 01a4 3B       		.uleb128 0x3b
 3181 01a5 0B       		.uleb128 0xb
 3182 01a6 27       		.uleb128 0x27
 3183 01a7 0C       		.uleb128 0xc
 3184 01a8 49       		.uleb128 0x49
 3185 01a9 13       		.uleb128 0x13
 3186 01aa 11       		.uleb128 0x11
 3187 01ab 01       		.uleb128 0x1
 3188 01ac 12       		.uleb128 0x12
 3189 01ad 01       		.uleb128 0x1
 3190 01ae 40       		.uleb128 0x40
 3191 01af 06       		.uleb128 0x6
 3192 01b0 9742     		.uleb128 0x2117
 3193 01b2 0C       		.uleb128 0xc
 3194 01b3 01       		.uleb128 0x1
 3195 01b4 13       		.uleb128 0x13
 3196 01b5 00       		.byte	0
 3197 01b6 00       		.byte	0
 3198 01b7 23       		.uleb128 0x23
 3199 01b8 2E       		.uleb128 0x2e
 3200 01b9 01       		.byte	0x1
 3201 01ba 3F       		.uleb128 0x3f
 3202 01bb 0C       		.uleb128 0xc
 3203 01bc 03       		.uleb128 0x3
 3204 01bd 0E       		.uleb128 0xe
 3205 01be 3A       		.uleb128 0x3a
 3206 01bf 0B       		.uleb128 0xb
 3207 01c0 3B       		.uleb128 0x3b
 3208 01c1 0B       		.uleb128 0xb
 3209 01c2 27       		.uleb128 0x27
 3210 01c3 0C       		.uleb128 0xc
 3211 01c4 49       		.uleb128 0x49
 3212 01c5 13       		.uleb128 0x13
 3213 01c6 11       		.uleb128 0x11
 3214 01c7 01       		.uleb128 0x1
 3215 01c8 12       		.uleb128 0x12
 3216 01c9 01       		.uleb128 0x1
 3217 01ca 40       		.uleb128 0x40
 3218 01cb 06       		.uleb128 0x6
 3219 01cc 9742     		.uleb128 0x2117
 3220 01ce 0C       		.uleb128 0xc
 3221 01cf 01       		.uleb128 0x1
 3222 01d0 13       		.uleb128 0x13
ARM GAS  /tmp/ccSrQLBK.s 			page 58


 3223 01d1 00       		.byte	0
 3224 01d2 00       		.byte	0
 3225 01d3 24       		.uleb128 0x24
 3226 01d4 898201   		.uleb128 0x4109
 3227 01d7 00       		.byte	0
 3228 01d8 11       		.uleb128 0x11
 3229 01d9 01       		.uleb128 0x1
 3230 01da 31       		.uleb128 0x31
 3231 01db 13       		.uleb128 0x13
 3232 01dc 00       		.byte	0
 3233 01dd 00       		.byte	0
 3234 01de 25       		.uleb128 0x25
 3235 01df 34       		.uleb128 0x34
 3236 01e0 00       		.byte	0
 3237 01e1 03       		.uleb128 0x3
 3238 01e2 0E       		.uleb128 0xe
 3239 01e3 3A       		.uleb128 0x3a
 3240 01e4 0B       		.uleb128 0xb
 3241 01e5 3B       		.uleb128 0x3b
 3242 01e6 05       		.uleb128 0x5
 3243 01e7 49       		.uleb128 0x49
 3244 01e8 13       		.uleb128 0x13
 3245 01e9 3F       		.uleb128 0x3f
 3246 01ea 0C       		.uleb128 0xc
 3247 01eb 3C       		.uleb128 0x3c
 3248 01ec 0C       		.uleb128 0xc
 3249 01ed 00       		.byte	0
 3250 01ee 00       		.byte	0
 3251 01ef 26       		.uleb128 0x26
 3252 01f0 34       		.uleb128 0x34
 3253 01f1 00       		.byte	0
 3254 01f2 03       		.uleb128 0x3
 3255 01f3 08       		.uleb128 0x8
 3256 01f4 3A       		.uleb128 0x3a
 3257 01f5 0B       		.uleb128 0xb
 3258 01f6 3B       		.uleb128 0x3b
 3259 01f7 05       		.uleb128 0x5
 3260 01f8 49       		.uleb128 0x49
 3261 01f9 13       		.uleb128 0x13
 3262 01fa 3F       		.uleb128 0x3f
 3263 01fb 0C       		.uleb128 0xc
 3264 01fc 3C       		.uleb128 0x3c
 3265 01fd 0C       		.uleb128 0xc
 3266 01fe 00       		.byte	0
 3267 01ff 00       		.byte	0
 3268 0200 27       		.uleb128 0x27
 3269 0201 2E       		.uleb128 0x2e
 3270 0202 01       		.byte	0x1
 3271 0203 3F       		.uleb128 0x3f
 3272 0204 0C       		.uleb128 0xc
 3273 0205 03       		.uleb128 0x3
 3274 0206 0E       		.uleb128 0xe
 3275 0207 3A       		.uleb128 0x3a
 3276 0208 0B       		.uleb128 0xb
 3277 0209 3B       		.uleb128 0x3b
 3278 020a 0B       		.uleb128 0xb
 3279 020b 27       		.uleb128 0x27
ARM GAS  /tmp/ccSrQLBK.s 			page 59


 3280 020c 0C       		.uleb128 0xc
 3281 020d 3C       		.uleb128 0x3c
 3282 020e 0C       		.uleb128 0xc
 3283 020f 01       		.uleb128 0x1
 3284 0210 13       		.uleb128 0x13
 3285 0211 00       		.byte	0
 3286 0212 00       		.byte	0
 3287 0213 28       		.uleb128 0x28
 3288 0214 18       		.uleb128 0x18
 3289 0215 00       		.byte	0
 3290 0216 00       		.byte	0
 3291 0217 00       		.byte	0
 3292 0218 29       		.uleb128 0x29
 3293 0219 2E       		.uleb128 0x2e
 3294 021a 01       		.byte	0x1
 3295 021b 3F       		.uleb128 0x3f
 3296 021c 0C       		.uleb128 0xc
 3297 021d 03       		.uleb128 0x3
 3298 021e 0E       		.uleb128 0xe
 3299 021f 3A       		.uleb128 0x3a
 3300 0220 0B       		.uleb128 0xb
 3301 0221 3B       		.uleb128 0x3b
 3302 0222 05       		.uleb128 0x5
 3303 0223 27       		.uleb128 0x27
 3304 0224 0C       		.uleb128 0xc
 3305 0225 3C       		.uleb128 0x3c
 3306 0226 0C       		.uleb128 0xc
 3307 0227 01       		.uleb128 0x1
 3308 0228 13       		.uleb128 0x13
 3309 0229 00       		.byte	0
 3310 022a 00       		.byte	0
 3311 022b 2A       		.uleb128 0x2a
 3312 022c 2E       		.uleb128 0x2e
 3313 022d 00       		.byte	0
 3314 022e 3F       		.uleb128 0x3f
 3315 022f 0C       		.uleb128 0xc
 3316 0230 03       		.uleb128 0x3
 3317 0231 0E       		.uleb128 0xe
 3318 0232 3A       		.uleb128 0x3a
 3319 0233 0B       		.uleb128 0xb
 3320 0234 3B       		.uleb128 0x3b
 3321 0235 0B       		.uleb128 0xb
 3322 0236 27       		.uleb128 0x27
 3323 0237 0C       		.uleb128 0xc
 3324 0238 3C       		.uleb128 0x3c
 3325 0239 0C       		.uleb128 0xc
 3326 023a 00       		.byte	0
 3327 023b 00       		.byte	0
 3328 023c 2B       		.uleb128 0x2b
 3329 023d 2E       		.uleb128 0x2e
 3330 023e 01       		.byte	0x1
 3331 023f 3F       		.uleb128 0x3f
 3332 0240 0C       		.uleb128 0xc
 3333 0241 03       		.uleb128 0x3
 3334 0242 0E       		.uleb128 0xe
 3335 0243 3A       		.uleb128 0x3a
 3336 0244 0B       		.uleb128 0xb
ARM GAS  /tmp/ccSrQLBK.s 			page 60


 3337 0245 3B       		.uleb128 0x3b
 3338 0246 05       		.uleb128 0x5
 3339 0247 27       		.uleb128 0x27
 3340 0248 0C       		.uleb128 0xc
 3341 0249 49       		.uleb128 0x49
 3342 024a 13       		.uleb128 0x13
 3343 024b 3C       		.uleb128 0x3c
 3344 024c 0C       		.uleb128 0xc
 3345 024d 00       		.byte	0
 3346 024e 00       		.byte	0
 3347 024f 00       		.byte	0
 3348              		.section	.debug_loc,"",%progbits
 3349              	.Ldebug_loc0:
 3350              	.LLST0:
 3351 0000 00000000 		.4byte	.LFB64
 3352 0004 02000000 		.4byte	.LCFI0
 3353 0008 0200     		.2byte	0x2
 3354 000a 7D       		.byte	0x7d
 3355 000b 00       		.sleb128 0
 3356 000c 02000000 		.4byte	.LCFI0
 3357 0010 06000000 		.4byte	.LCFI1
 3358 0014 0200     		.2byte	0x2
 3359 0016 7D       		.byte	0x7d
 3360 0017 14       		.sleb128 20
 3361 0018 06000000 		.4byte	.LCFI1
 3362 001c C4000000 		.4byte	.LFE64
 3363 0020 0300     		.2byte	0x3
 3364 0022 7D       		.byte	0x7d
 3365 0023 C800     		.sleb128 72
 3366 0025 00000000 		.4byte	0
 3367 0029 00000000 		.4byte	0
 3368              	.LLST1:
 3369 002d 00000000 		.4byte	.LVL0
 3370 0031 04000000 		.4byte	.LVL1
 3371 0035 0100     		.2byte	0x1
 3372 0037 50       		.byte	0x50
 3373 0038 04000000 		.4byte	.LVL1
 3374 003c C4000000 		.4byte	.LFE64
 3375 0040 0400     		.2byte	0x4
 3376 0042 F3       		.byte	0xf3
 3377 0043 01       		.uleb128 0x1
 3378 0044 50       		.byte	0x50
 3379 0045 9F       		.byte	0x9f
 3380 0046 00000000 		.4byte	0
 3381 004a 00000000 		.4byte	0
 3382              	.LLST2:
 3383 004e 00000000 		.4byte	.LFB63
 3384 0052 02000000 		.4byte	.LCFI2
 3385 0056 0200     		.2byte	0x2
 3386 0058 7D       		.byte	0x7d
 3387 0059 00       		.sleb128 0
 3388 005a 02000000 		.4byte	.LCFI2
 3389 005e 40000000 		.4byte	.LFE63
 3390 0062 0200     		.2byte	0x2
 3391 0064 7D       		.byte	0x7d
 3392 0065 08       		.sleb128 8
 3393 0066 00000000 		.4byte	0
ARM GAS  /tmp/ccSrQLBK.s 			page 61


 3394 006a 00000000 		.4byte	0
 3395              	.LLST3:
 3396 006e 00000000 		.4byte	.LVL18
 3397 0072 04000000 		.4byte	.LVL19
 3398 0076 0100     		.2byte	0x1
 3399 0078 50       		.byte	0x50
 3400 0079 04000000 		.4byte	.LVL19
 3401 007d 40000000 		.4byte	.LFE63
 3402 0081 0400     		.2byte	0x4
 3403 0083 F3       		.byte	0xf3
 3404 0084 01       		.uleb128 0x1
 3405 0085 50       		.byte	0x50
 3406 0086 9F       		.byte	0x9f
 3407 0087 00000000 		.4byte	0
 3408 008b 00000000 		.4byte	0
 3409              	.LLST4:
 3410 008f 00000000 		.4byte	.LFB65
 3411 0093 02000000 		.4byte	.LCFI3
 3412 0097 0200     		.2byte	0x2
 3413 0099 7D       		.byte	0x7d
 3414 009a 00       		.sleb128 0
 3415 009b 02000000 		.4byte	.LCFI3
 3416 009f 04000000 		.4byte	.LCFI4
 3417 00a3 0200     		.2byte	0x2
 3418 00a5 7D       		.byte	0x7d
 3419 00a6 08       		.sleb128 8
 3420 00a7 04000000 		.4byte	.LCFI4
 3421 00ab 6C000000 		.4byte	.LFE65
 3422 00af 0200     		.2byte	0x2
 3423 00b1 7D       		.byte	0x7d
 3424 00b2 10       		.sleb128 16
 3425 00b3 00000000 		.4byte	0
 3426 00b7 00000000 		.4byte	0
 3427              		.section	.debug_aranges,"",%progbits
 3428 0000 2C000000 		.4byte	0x2c
 3429 0004 0200     		.2byte	0x2
 3430 0006 00000000 		.4byte	.Ldebug_info0
 3431 000a 04       		.byte	0x4
 3432 000b 00       		.byte	0
 3433 000c 0000     		.2byte	0
 3434 000e 0000     		.2byte	0
 3435 0010 00000000 		.4byte	.LFB64
 3436 0014 C4000000 		.4byte	.LFE64-.LFB64
 3437 0018 00000000 		.4byte	.LFB63
 3438 001c 40000000 		.4byte	.LFE63-.LFB63
 3439 0020 00000000 		.4byte	.LFB65
 3440 0024 6C000000 		.4byte	.LFE65-.LFB65
 3441 0028 00000000 		.4byte	0
 3442 002c 00000000 		.4byte	0
 3443              		.section	.debug_ranges,"",%progbits
 3444              	.Ldebug_ranges0:
 3445 0000 00000000 		.4byte	.LFB64
 3446 0004 C4000000 		.4byte	.LFE64
 3447 0008 00000000 		.4byte	.LFB63
 3448 000c 40000000 		.4byte	.LFE63
 3449 0010 00000000 		.4byte	.LFB65
 3450 0014 6C000000 		.4byte	.LFE65
ARM GAS  /tmp/ccSrQLBK.s 			page 62


 3451 0018 00000000 		.4byte	0
 3452 001c 00000000 		.4byte	0
 3453              		.section	.debug_line,"",%progbits
 3454              	.Ldebug_line0:
 3455 0000 48030000 		.section	.debug_str,"MS",%progbits,1
 3455      0200C702 
 3455      00000201 
 3455      FB0E0D00 
 3455      01010101 
 3456              	.LASF128:
 3457 0000 5354445F 		.ascii	"STD_DUTY_CYCLE\000"
 3457      44555459 
 3457      5F435943 
 3457      4C4500
 3458              	.LASF175:
 3459 000f 73656E73 		.ascii	"sensorsWrkArea\000"
 3459      6F727357 
 3459      726B4172 
 3459      656100
 3460              	.LASF131:
 3461 001e 69326364 		.ascii	"i2cdutycycle_t\000"
 3461      75747963 
 3461      79636C65 
 3461      5F7400
 3462              	.LASF18:
 3463 002d 74726566 		.ascii	"trefs_t\000"
 3463      735F7400 
 3464              	.LASF121:
 3465 0035 69326373 		.ascii	"i2cstate_t\000"
 3465      74617465 
 3465      5F7400
 3466              	.LASF2:
 3467 0040 73697A65 		.ascii	"size_t\000"
 3467      5F7400
 3468              	.LASF64:
 3469 0047 7264796D 		.ascii	"rdymsg\000"
 3469      736700
 3470              	.LASF13:
 3471 004e 75696E74 		.ascii	"uint64_t\000"
 3471      36345F74 
 3471      00
 3472              	.LASF81:
 3473 0057 4F757470 		.ascii	"OutputQueue\000"
 3473      75745175 
 3473      65756500 
 3474              	.LASF103:
 3475 0063 54524953 		.ascii	"TRISE\000"
 3475      4500
 3476              	.LASF114:
 3477 0069 696F706F 		.ascii	"ioportmask_t\000"
 3477      72746D61 
 3477      736B5F74 
 3477      00
 3478              	.LASF145:
 3479 0076 646D6172 		.ascii	"dmarx\000"
 3479      7800
 3480              	.LASF14:
ARM GAS  /tmp/ccSrQLBK.s 			page 63


 3481 007c 6C6F6E67 		.ascii	"long long unsigned int\000"
 3481      206C6F6E 
 3481      6720756E 
 3481      7369676E 
 3481      65642069 
 3482              	.LASF142:
 3483 0093 61646472 		.ascii	"addr\000"
 3483      00
 3484              	.LASF23:
 3485 0098 666C6167 		.ascii	"flagsmask_t\000"
 3485      736D6173 
 3485      6B5F7400 
 3486              	.LASF65:
 3487 00a4 65786974 		.ascii	"exitcode\000"
 3487      636F6465 
 3487      00
 3488              	.LASF112:
 3489 00ad 76656374 		.ascii	"vector\000"
 3489      6F7200
 3490              	.LASF176:
 3491 00b4 49544D5F 		.ascii	"ITM_RxBuffer\000"
 3491      52784275 
 3491      66666572 
 3491      00
 3492              	.LASF28:
 3493 00c1 705F7072 		.ascii	"p_prio\000"
 3493      696F00
 3494              	.LASF162:
 3495 00c8 72656164 		.ascii	"readt\000"
 3495      7400
 3496              	.LASF71:
 3497 00ce 715F7761 		.ascii	"q_waiting\000"
 3497      6974696E 
 3497      6700
 3498              	.LASF12:
 3499 00d8 6C6F6E67 		.ascii	"long long int\000"
 3499      206C6F6E 
 3499      6720696E 
 3499      7400
 3500              	.LASF1:
 3501 00e6 7369676E 		.ascii	"signed char\000"
 3501      65642063 
 3501      68617200 
 3502              	.LASF90:
 3503 00f2 42535252 		.ascii	"BSRR\000"
 3503      00
 3504              	.LASF181:
 3505 00f7 6779726F 		.ascii	"gyroRead\000"
 3505      52656164 
 3505      00
 3506              	.LASF106:
 3507 0100 47545052 		.ascii	"GTPR\000"
 3507      00
 3508              	.LASF45:
 3509 0105 705F6D70 		.ascii	"p_mpool\000"
 3509      6F6F6C00 
 3510              	.LASF54:
ARM GAS  /tmp/ccSrQLBK.s 			page 64


 3511 010d 6D5F7175 		.ascii	"m_queue\000"
 3511      65756500 
 3512              	.LASF19:
 3513 0115 74736C69 		.ascii	"tslices_t\000"
 3513      6365735F 
 3513      7400
 3514              	.LASF190:
 3515 011f 474E5520 		.ascii	"GNU C 4.7.4 20130913 (release) [ARM/embedded-4_7-br"
 3515      4320342E 
 3515      372E3420 
 3515      32303133 
 3515      30393133 
 3516 0152 616E6368 		.ascii	"anch revision 202601]\000"
 3516      20726576 
 3516      6973696F 
 3516      6E203230 
 3516      32363031 
 3517              	.LASF122:
 3518 0168 69326361 		.ascii	"i2caddr_t\000"
 3518      6464725F 
 3518      7400
 3519              	.LASF137:
 3520 0172 73746174 		.ascii	"state\000"
 3520      6500
 3521              	.LASF169:
 3522 0178 74656D70 		.ascii	"temp\000"
 3522      00
 3523              	.LASF9:
 3524 017d 6C6F6E67 		.ascii	"long int\000"
 3524      20696E74 
 3524      00
 3525              	.LASF171:
 3526 0186 73656E73 		.ascii	"sensorsRead\000"
 3526      6F727352 
 3526      65616400 
 3527              	.LASF17:
 3528 0192 74737461 		.ascii	"tstate_t\000"
 3528      74655F74 
 3528      00
 3529              	.LASF141:
 3530 019b 74687265 		.ascii	"thread\000"
 3530      616400
 3531              	.LASF36:
 3532 01a2 705F7265 		.ascii	"p_refs\000"
 3532      667300
 3533              	.LASF73:
 3534 01a9 715F6275 		.ascii	"q_buffer\000"
 3534      66666572 
 3534      00
 3535              	.LASF75:
 3536 01b2 715F7772 		.ascii	"q_wrptr\000"
 3536      70747200 
 3537              	.LASF78:
 3538 01ba 715F6C69 		.ascii	"q_link\000"
 3538      6E6B00
 3539              	.LASF118:
 3540 01c1 4932435F 		.ascii	"I2C_ACTIVE_TX\000"
ARM GAS  /tmp/ccSrQLBK.s 			page 65


 3540      41435449 
 3540      56455F54 
 3540      5800
 3541              	.LASF30:
 3542 01cf 705F6E65 		.ascii	"p_newer\000"
 3542      77657200 
 3543              	.LASF143:
 3544 01d7 7278646D 		.ascii	"rxdmamode\000"
 3544      616D6F64 
 3544      6500
 3545              	.LASF92:
 3546 01e1 4750494F 		.ascii	"GPIO_TypeDef\000"
 3546      5F547970 
 3546      65446566 
 3546      00
 3547              	.LASF146:
 3548 01ee 646D6174 		.ascii	"dmatx\000"
 3548      7800
 3549              	.LASF126:
 3550 01f4 4F504D4F 		.ascii	"OPMODE_SMBUS_HOST\000"
 3550      44455F53 
 3550      4D425553 
 3550      5F484F53 
 3550      5400
 3551              	.LASF48:
 3552 0206 72656761 		.ascii	"regarm_t\000"
 3552      726D5F74 
 3552      00
 3553              	.LASF111:
 3554 020f 73656C66 		.ascii	"selfindex\000"
 3554      696E6465 
 3554      7800
 3555              	.LASF186:
 3556 0219 63685379 		.ascii	"chSysInit\000"
 3556      73496E69 
 3556      7400
 3557              	.LASF132:
 3558 0223 6F705F6D 		.ascii	"op_mode\000"
 3558      6F646500 
 3559              	.LASF25:
 3560 022b 54687265 		.ascii	"Thread\000"
 3560      616400
 3561              	.LASF62:
 3562 0232 4576656E 		.ascii	"EventSource\000"
 3562      74536F75 
 3562      72636500 
 3563              	.LASF85:
 3564 023e 42617365 		.ascii	"BaseSequentialStream\000"
 3564      53657175 
 3564      656E7469 
 3564      616C5374 
 3564      7265616D 
 3565              	.LASF155:
 3566 0253 75736172 		.ascii	"usart\000"
 3566      7400
 3567              	.LASF0:
 3568 0259 756E7369 		.ascii	"unsigned int\000"
ARM GAS  /tmp/ccSrQLBK.s 			page 66


 3568      676E6564 
 3568      20696E74 
 3568      00
 3569              	.LASF6:
 3570 0266 75696E74 		.ascii	"uint16_t\000"
 3570      31365F74 
 3570      00
 3571              	.LASF158:
 3572 026f 53657269 		.ascii	"SerialDriverVMT\000"
 3572      616C4472 
 3572      69766572 
 3572      564D5400 
 3573              	.LASF38:
 3574 027f 705F7469 		.ascii	"p_time\000"
 3574      6D6500
 3575              	.LASF179:
 3576 0286 61636349 		.ascii	"accInit\000"
 3576      6E697400 
 3577              	.LASF87:
 3578 028e 43504152 		.ascii	"CPAR\000"
 3578      00
 3579              	.LASF164:
 3580 0293 6163635F 		.ascii	"acc_y\000"
 3580      7900
 3581              	.LASF153:
 3582 0299 69717565 		.ascii	"iqueue\000"
 3582      756500
 3583              	.LASF40:
 3584 02a0 705F6D73 		.ascii	"p_msgqueue\000"
 3584      67717565 
 3584      756500
 3585              	.LASF163:
 3586 02ab 6163635F 		.ascii	"acc_x\000"
 3586      7800
 3587              	.LASF185:
 3588 02b1 68616C49 		.ascii	"halInit\000"
 3588      6E697400 
 3589              	.LASF165:
 3590 02b9 6163635F 		.ascii	"acc_z\000"
 3590      7A00
 3591              	.LASF174:
 3592 02bf 68656172 		.ascii	"heartWrkArea\000"
 3592      7457726B 
 3592      41726561 
 3592      00
 3593              	.LASF160:
 3594 02cc 67657474 		.ascii	"gett\000"
 3594      00
 3595              	.LASF110:
 3596 02d1 69736869 		.ascii	"ishift\000"
 3596      667400
 3597              	.LASF152:
 3598 02d8 6576656E 		.ascii	"event\000"
 3598      7400
 3599              	.LASF125:
 3600 02de 4F504D4F 		.ascii	"OPMODE_SMBUS_DEVICE\000"
 3600      44455F53 
ARM GAS  /tmp/ccSrQLBK.s 			page 67


 3600      4D425553 
 3600      5F444556 
 3600      49434500 
 3601              	.LASF7:
 3602 02f2 73686F72 		.ascii	"short unsigned int\000"
 3602      7420756E 
 3602      7369676E 
 3602      65642069 
 3602      6E7400
 3603              	.LASF172:
 3604 0305 68656172 		.ascii	"heartBeat\000"
 3604      74426561 
 3604      7400
 3605              	.LASF136:
 3606 030f 49324344 		.ascii	"I2CDriver\000"
 3606      72697665 
 3606      7200
 3607              	.LASF133:
 3608 0319 636C6F63 		.ascii	"clock_speed\000"
 3608      6B5F7370 
 3608      65656400 
 3609              	.LASF21:
 3610 0325 6D73675F 		.ascii	"msg_t\000"
 3610      7400
 3611              	.LASF154:
 3612 032b 6F717565 		.ascii	"oqueue\000"
 3612      756500
 3613              	.LASF107:
 3614 0332 55534152 		.ascii	"USART_TypeDef\000"
 3614      545F5479 
 3614      70654465 
 3614      6600
 3615              	.LASF161:
 3616 0340 77726974 		.ascii	"writet\000"
 3616      657400
 3617              	.LASF16:
 3618 0347 746D6F64 		.ascii	"tmode_t\000"
 3618      655F7400 
 3619              	.LASF47:
 3620 034f 54687265 		.ascii	"ThreadsList\000"
 3620      6164734C 
 3620      69737400 
 3621              	.LASF22:
 3622 035b 6576656E 		.ascii	"eventmask_t\000"
 3622      746D6173 
 3622      6B5F7400 
 3623              	.LASF5:
 3624 0367 73686F72 		.ascii	"short int\000"
 3624      7420696E 
 3624      7400
 3625              	.LASF156:
 3626 0371 73706565 		.ascii	"speed\000"
 3626      6400
 3627              	.LASF79:
 3628 0377 716E6F74 		.ascii	"qnotify_t\000"
 3628      6966795F 
 3628      7400
ARM GAS  /tmp/ccSrQLBK.s 			page 68


 3629              	.LASF70:
 3630 0381 47656E65 		.ascii	"GenericQueue\000"
 3630      72696351 
 3630      75657565 
 3630      00
 3631              	.LASF49:
 3632 038e 73746B61 		.ascii	"stkalign_t\000"
 3632      6C69676E 
 3632      5F7400
 3633              	.LASF189:
 3634 0399 63685468 		.ascii	"chThdCreateStatic\000"
 3634      64437265 
 3634      61746553 
 3634      74617469 
 3634      6300
 3635              	.LASF83:
 3636 03ab 77726974 		.ascii	"write\000"
 3636      6500
 3637              	.LASF159:
 3638 03b1 70757474 		.ascii	"putt\000"
 3638      00
 3639              	.LASF116:
 3640 03b6 4932435F 		.ascii	"I2C_STOP\000"
 3640      53544F50 
 3640      00
 3641              	.LASF166:
 3642 03bf 6779726F 		.ascii	"gyro_x\000"
 3642      5F7800
 3643              	.LASF167:
 3644 03c6 6779726F 		.ascii	"gyro_y\000"
 3644      5F7900
 3645              	.LASF168:
 3646 03cd 6779726F 		.ascii	"gyro_z\000"
 3646      5F7A00
 3647              	.LASF52:
 3648 03d4 73697A65 		.ascii	"sizetype\000"
 3648      74797065 
 3648      00
 3649              	.LASF72:
 3650 03dd 715F636F 		.ascii	"q_counter\000"
 3650      756E7465 
 3650      7200
 3651              	.LASF188:
 3652 03e7 69326353 		.ascii	"i2cStart\000"
 3652      74617274 
 3652      00
 3653              	.LASF53:
 3654 03f0 4D757465 		.ascii	"Mutex\000"
 3654      7800
 3655              	.LASF139:
 3656 03f6 6572726F 		.ascii	"errors\000"
 3656      727300
 3657              	.LASF134:
 3658 03fd 64757479 		.ascii	"duty_cycle\000"
 3658      5F637963 
 3658      6C6500
 3659              	.LASF60:
ARM GAS  /tmp/ccSrQLBK.s 			page 69


 3660 0408 656C5F6D 		.ascii	"el_mask\000"
 3660      61736B00 
 3661              	.LASF31:
 3662 0410 705F6F6C 		.ascii	"p_older\000"
 3662      64657200 
 3663              	.LASF135:
 3664 0418 49324343 		.ascii	"I2CConfig\000"
 3664      6F6E6669 
 3664      6700
 3665              	.LASF46:
 3666 0422 54687265 		.ascii	"ThreadsQueue\000"
 3666      61647351 
 3666      75657565 
 3666      00
 3667              	.LASF144:
 3668 042f 7478646D 		.ascii	"txdmamode\000"
 3668      616D6F64 
 3668      6500
 3669              	.LASF33:
 3670 0439 705F7374 		.ascii	"p_stklimit\000"
 3670      6B6C696D 
 3670      697400
 3671              	.LASF124:
 3672 0444 4F504D4F 		.ascii	"OPMODE_I2C\000"
 3672      44455F49 
 3672      324300
 3673              	.LASF191:
 3674 044f 6D61696E 		.ascii	"main.c\000"
 3674      2E6300
 3675              	.LASF130:
 3676 0456 46415354 		.ascii	"FAST_DUTY_CYCLE_16_9\000"
 3676      5F445554 
 3676      595F4359 
 3676      434C455F 
 3676      31365F39 
 3677              	.LASF184:
 3678 046b 63685468 		.ascii	"chThdSleep\000"
 3678      64536C65 
 3678      657000
 3679              	.LASF157:
 3680 0476 53657269 		.ascii	"SerialConfig\000"
 3680      616C436F 
 3680      6E666967 
 3680      00
 3681              	.LASF89:
 3682 0483 444D415F 		.ascii	"DMA_Channel_TypeDef\000"
 3682      4368616E 
 3682      6E656C5F 
 3682      54797065 
 3682      44656600 
 3683              	.LASF170:
 3684 0497 666C6F61 		.ascii	"float\000"
 3684      7400
 3685              	.LASF178:
 3686 049d 6779726F 		.ascii	"gyroInit\000"
 3686      496E6974 
 3686      00
ARM GAS  /tmp/ccSrQLBK.s 			page 70


 3687              	.LASF109:
 3688 04a6 69666372 		.ascii	"ifcr\000"
 3688      00
 3689              	.LASF192:
 3690 04ab 2F686F6D 		.ascii	"/home/ondra6ak/Documents/ARM/mlab-ChibiOSRT/demos/S"
 3690      652F6F6E 
 3690      64726136 
 3690      616B2F44 
 3690      6F63756D 
 3691 04de 544D3332 		.ascii	"TM32F107RxT01A--IMU01A\000"
 3691      46313037 
 3691      52785430 
 3691      31412D2D 
 3691      494D5530 
 3692              	.LASF93:
 3693 04f5 52455345 		.ascii	"RESERVED0\000"
 3693      52564544 
 3693      3000
 3694              	.LASF94:
 3695 04ff 52455345 		.ascii	"RESERVED1\000"
 3695      52564544 
 3695      3100
 3696              	.LASF96:
 3697 0509 52455345 		.ascii	"RESERVED2\000"
 3697      52564544 
 3697      3200
 3698              	.LASF98:
 3699 0513 52455345 		.ascii	"RESERVED3\000"
 3699      52564544 
 3699      3300
 3700              	.LASF99:
 3701 051d 52455345 		.ascii	"RESERVED4\000"
 3701      52564544 
 3701      3400
 3702              	.LASF27:
 3703 0527 705F7072 		.ascii	"p_prev\000"
 3703      657600
 3704              	.LASF101:
 3705 052e 52455345 		.ascii	"RESERVED6\000"
 3705      52564544 
 3705      3600
 3706              	.LASF102:
 3707 0538 52455345 		.ascii	"RESERVED7\000"
 3707      52564544 
 3707      3700
 3708              	.LASF104:
 3709 0542 52455345 		.ascii	"RESERVED8\000"
 3709      52564544 
 3709      3800
 3710              	.LASF20:
 3711 054c 74707269 		.ascii	"tprio_t\000"
 3711      6F5F7400 
 3712              	.LASF76:
 3713 0554 715F7264 		.ascii	"q_rdptr\000"
 3713      70747200 
 3714              	.LASF123:
 3715 055c 69326366 		.ascii	"i2cflags_t\000"
ARM GAS  /tmp/ccSrQLBK.s 			page 71


 3715      6C616773 
 3715      5F7400
 3716              	.LASF140:
 3717 0567 6D757465 		.ascii	"mutex\000"
 3717      7800
 3718              	.LASF15:
 3719 056d 5F426F6F 		.ascii	"_Bool\000"
 3719      6C00
 3720              	.LASF8:
 3721 0573 696E7433 		.ascii	"int32_t\000"
 3721      325F7400 
 3722              	.LASF4:
 3723 057b 756E7369 		.ascii	"unsigned char\000"
 3723      676E6564 
 3723      20636861 
 3723      7200
 3724              	.LASF113:
 3725 0589 73746D33 		.ascii	"stm32_dma_stream_t\000"
 3725      325F646D 
 3725      615F7374 
 3725      7265616D 
 3725      5F7400
 3726              	.LASF59:
 3727 059c 656C5F6C 		.ascii	"el_listener\000"
 3727      69737465 
 3727      6E657200 
 3728              	.LASF182:
 3729 05a8 74656D70 		.ascii	"tempRead\000"
 3729      52656164 
 3729      00
 3730              	.LASF61:
 3731 05b1 656C5F66 		.ascii	"el_flags\000"
 3731      6C616773 
 3731      00
 3732              	.LASF43:
 3733 05ba 705F6D74 		.ascii	"p_mtxlist\000"
 3733      786C6973 
 3733      7400
 3734              	.LASF115:
 3735 05c4 4932435F 		.ascii	"I2C_UNINIT\000"
 3735      554E494E 
 3735      495400
 3736              	.LASF34:
 3737 05cf 705F7374 		.ascii	"p_state\000"
 3737      61746500 
 3738              	.LASF37:
 3739 05d7 705F7072 		.ascii	"p_preempt\000"
 3739      65656D70 
 3739      7400
 3740              	.LASF67:
 3741 05e1 65776D61 		.ascii	"ewmask\000"
 3741      736B00
 3742              	.LASF26:
 3743 05e8 705F6E65 		.ascii	"p_next\000"
 3743      787400
 3744              	.LASF82:
 3745 05ef 42617365 		.ascii	"BaseSequentialStreamVMT\000"
ARM GAS  /tmp/ccSrQLBK.s 			page 72


 3745      53657175 
 3745      656E7469 
 3745      616C5374 
 3745      7265616D 
 3746              	.LASF35:
 3747 0607 705F666C 		.ascii	"p_flags\000"
 3747      61677300 
 3748              	.LASF58:
 3749 060f 656C5F6E 		.ascii	"el_next\000"
 3749      65787400 
 3750              	.LASF148:
 3751 0617 53445F53 		.ascii	"SD_STOP\000"
 3751      544F5000 
 3752              	.LASF129:
 3753 061f 46415354 		.ascii	"FAST_DUTY_CYCLE_2\000"
 3753      5F445554 
 3753      595F4359 
 3753      434C455F 
 3753      3200
 3754              	.LASF108:
 3755 0631 6368616E 		.ascii	"channel\000"
 3755      6E656C00 
 3756              	.LASF91:
 3757 0639 4C434B52 		.ascii	"LCKR\000"
 3757      00
 3758              	.LASF120:
 3759 063e 4932435F 		.ascii	"I2C_LOCKED\000"
 3759      4C4F434B 
 3759      454400
 3760              	.LASF42:
 3761 0649 705F6570 		.ascii	"p_epending\000"
 3761      656E6469 
 3761      6E6700
 3762              	.LASF147:
 3763 0654 53445F55 		.ascii	"SD_UNINIT\000"
 3763      4E494E49 
 3763      5400
 3764              	.LASF100:
 3765 065e 52455345 		.ascii	"RESERVED5\000"
 3765      52564544 
 3765      3500
 3766              	.LASF10:
 3767 0668 75696E74 		.ascii	"uint32_t\000"
 3767      33325F74 
 3767      00
 3768              	.LASF150:
 3769 0671 73647374 		.ascii	"sdstate_t\000"
 3769      6174655F 
 3769      7400
 3770              	.LASF151:
 3771 067b 53657269 		.ascii	"SerialDriver\000"
 3771      616C4472 
 3771      69766572 
 3771      00
 3772              	.LASF177:
 3773 0688 49324344 		.ascii	"I2CD2\000"
 3773      3200
ARM GAS  /tmp/ccSrQLBK.s 			page 73


 3774              	.LASF119:
 3775 068e 4932435F 		.ascii	"I2C_ACTIVE_RX\000"
 3775      41435449 
 3775      56455F52 
 3775      5800
 3776              	.LASF11:
 3777 069c 6C6F6E67 		.ascii	"long unsigned int\000"
 3777      20756E73 
 3777      69676E65 
 3777      6420696E 
 3777      7400
 3778              	.LASF84:
 3779 06ae 72656164 		.ascii	"read\000"
 3779      00
 3780              	.LASF68:
 3781 06b3 63686172 		.ascii	"char\000"
 3781      00
 3782              	.LASF138:
 3783 06b8 636F6E66 		.ascii	"config\000"
 3783      696700
 3784              	.LASF187:
 3785 06bf 73645374 		.ascii	"sdStart\000"
 3785      61727400 
 3786              	.LASF69:
 3787 06c7 7466756E 		.ascii	"tfunc_t\000"
 3787      635F7400 
 3788              	.LASF56:
 3789 06cf 6D5F6E65 		.ascii	"m_next\000"
 3789      787400
 3790              	.LASF24:
 3791 06d6 73797374 		.ascii	"systime_t\000"
 3791      696D655F 
 3791      7400
 3792              	.LASF44:
 3793 06e0 705F7265 		.ascii	"p_realprio\000"
 3793      616C7072 
 3793      696F00
 3794              	.LASF117:
 3795 06eb 4932435F 		.ascii	"I2C_READY\000"
 3795      52454144 
 3795      5900
 3796              	.LASF51:
 3797 06f5 636F6E74 		.ascii	"context\000"
 3797      65787400 
 3798              	.LASF50:
 3799 06fd 696E7463 		.ascii	"intctx\000"
 3799      747800
 3800              	.LASF149:
 3801 0704 53445F52 		.ascii	"SD_READY\000"
 3801      45414459 
 3801      00
 3802              	.LASF74:
 3803 070d 715F746F 		.ascii	"q_top\000"
 3803      7000
 3804              	.LASF32:
 3805 0713 705F6E61 		.ascii	"p_name\000"
 3805      6D6500
ARM GAS  /tmp/ccSrQLBK.s 			page 74


 3806              	.LASF63:
 3807 071a 65735F6E 		.ascii	"es_next\000"
 3807      65787400 
 3808              	.LASF86:
 3809 0722 434E4454 		.ascii	"CNDTR\000"
 3809      5200
 3810              	.LASF88:
 3811 0728 434D4152 		.ascii	"CMAR\000"
 3811      00
 3812              	.LASF77:
 3813 072d 715F6E6F 		.ascii	"q_notify\000"
 3813      74696679 
 3813      00
 3814              	.LASF183:
 3815 0736 61636352 		.ascii	"accRead\000"
 3815      65616400 
 3816              	.LASF173:
 3817 073e 69326343 		.ascii	"i2cCfg\000"
 3817      666700
 3818              	.LASF3:
 3819 0745 75696E74 		.ascii	"uint8_t\000"
 3819      385F7400 
 3820              	.LASF80:
 3821 074d 496E7075 		.ascii	"InputQueue\000"
 3821      74517565 
 3821      756500
 3822              	.LASF95:
 3823 0758 4F415231 		.ascii	"OAR1\000"
 3823      00
 3824              	.LASF97:
 3825 075d 4F415232 		.ascii	"OAR2\000"
 3825      00
 3826              	.LASF57:
 3827 0762 4576656E 		.ascii	"EventListener\000"
 3827      744C6973 
 3827      74656E65 
 3827      7200
 3828              	.LASF66:
 3829 0770 77746F62 		.ascii	"wtobjp\000"
 3829      6A7000
 3830              	.LASF41:
 3831 0777 705F6D73 		.ascii	"p_msg\000"
 3831      6700
 3832              	.LASF105:
 3833 077d 4932435F 		.ascii	"I2C_TypeDef\000"
 3833      54797065 
 3833      44656600 
 3834              	.LASF127:
 3835 0789 6932636F 		.ascii	"i2copmode_t\000"
 3835      706D6F64 
 3835      655F7400 
 3836              	.LASF193:
 3837 0795 6D61696E 		.ascii	"main\000"
 3837      00
 3838              	.LASF55:
 3839 079a 6D5F6F77 		.ascii	"m_owner\000"
 3839      6E657200 
ARM GAS  /tmp/ccSrQLBK.s 			page 75


 3840              	.LASF29:
 3841 07a2 705F6374 		.ascii	"p_ctx\000"
 3841      7800
 3842              	.LASF39:
 3843 07a8 705F7761 		.ascii	"p_waiting\000"
 3843      6974696E 
 3843      6700
 3844              	.LASF180:
 3845 07b2 63687072 		.ascii	"chprintf\000"
 3845      696E7466 
 3845      00
 3846              		.ident	"GCC: (GNU Tools for ARM Embedded Processors) 4.7.4 20130913 (release) [ARM/embedded-4_7-br
ARM GAS  /tmp/ccSrQLBK.s 			page 76


DEFINED SYMBOLS
                            *ABS*:00000000 main.c
     /tmp/ccSrQLBK.s:20     .text.sensorsRead:00000000 $t
     /tmp/ccSrQLBK.s:25     .text.sensorsRead:00000000 sensorsRead
     /tmp/ccSrQLBK.s:138    .text.sensorsRead:000000ac $d
     /tmp/ccSrQLBK.s:148    .text.heartBeat:00000000 $t
     /tmp/ccSrQLBK.s:153    .text.heartBeat:00000000 heartBeat
     /tmp/ccSrQLBK.s:202    .text.heartBeat:00000038 $d
     /tmp/ccSrQLBK.s:208    .text.startup.main:00000000 $t
     /tmp/ccSrQLBK.s:214    .text.startup.main:00000000 main
     /tmp/ccSrQLBK.s:277    .rodata.i2cCfg:00000000 .LANCHOR0
     /tmp/ccSrQLBK.s:309    .bss.heartWrkArea:00000000 .LANCHOR1
     /tmp/ccSrQLBK.s:288    .bss.sensorsWrkArea:00000000 .LANCHOR2
     /tmp/ccSrQLBK.s:276    .rodata.i2cCfg:00000000 $d
     /tmp/ccSrQLBK.s:280    .rodata.i2cCfg:00000000 i2cCfg
     /tmp/ccSrQLBK.s:287    .bss.sensorsWrkArea:00000000 $d
     /tmp/ccSrQLBK.s:291    .bss.sensorsWrkArea:00000000 sensorsWrkArea
     /tmp/ccSrQLBK.s:294    .rodata.str1.4:00000000 $d
     /tmp/ccSrQLBK.s:308    .bss.heartWrkArea:00000000 $d
     /tmp/ccSrQLBK.s:312    .bss.heartWrkArea:00000000 heartWrkArea
                     .debug_frame:00000010 $d
     /tmp/ccSrQLBK.s:147    .text.sensorsRead:000000c4 $t

UNDEFINED SYMBOLS
__aeabi_f2d
gyroInit
accInit
chprintf
gyroRead
tempRead
accRead
I2CD2
SD2
chThdSleep
halInit
chSysInit
sdStart
i2cStart
chThdCreateStatic
