ARM GAS  /tmp/ccnq6xNA.s 			page 1


   1              		.syntax unified
   2              		.cpu cortex-m3
   3              		.fpu softvfp
   4              		.eabi_attribute 20, 1
   5              		.eabi_attribute 21, 1
   6              		.eabi_attribute 23, 3
   7              		.eabi_attribute 24, 1
   8              		.eabi_attribute 25, 1
   9              		.eabi_attribute 26, 1
  10              		.eabi_attribute 30, 2
  11              		.eabi_attribute 34, 1
  12              		.eabi_attribute 18, 4
  13              		.thumb
  14              		.file	"MAG01A.c"
  15              		.text
  16              	.Ltext0:
  17              		.cfi_sections	.debug_frame
  18              		.section	.text.magInit,"ax",%progbits
  19              		.align	2
  20              		.p2align 4,,15
  21              		.global	magInit
  22              		.thumb
  23              		.thumb_func
  24              		.type	magInit, %function
  25              	magInit:
  26              	.LFB63:
  27              		.file 1 "MAG01A.c"
  28              		.loc 1 9 0
  29              		.cfi_startproc
  30              		@ args = 0, pretend = 0, frame = 8
  31              		@ frame_needed = 0, uses_anonymous_args = 0
  32              	.LVL0:
  33 0000 F0B5     		push	{r4, r5, r6, r7, lr}
  34              	.LCFI0:
  35              		.cfi_def_cfa_offset 20
  36              		.cfi_offset 4, -20
  37              		.cfi_offset 5, -16
  38              		.cfi_offset 6, -12
  39              		.cfi_offset 7, -8
  40              		.cfi_offset 14, -4
  41              		.loc 1 15 0
  42 0002 F823     		movs	r3, #248
  43              		.loc 1 9 0
  44 0004 87B0     		sub	sp, sp, #28
  45              	.LCFI1:
  46              		.cfi_def_cfa_offset 48
  47              		.loc 1 14 0
  48 0006 0026     		movs	r6, #0
  49              		.loc 1 9 0
  50 0008 0446     		mov	r4, r0
  51 000a 0D46     		mov	r5, r1
  52              		.loc 1 15 0
  53 000c 8DF81130 		strb	r3, [sp, #17]
  54              		.loc 1 14 0
  55 0010 8DF81060 		strb	r6, [sp, #16]
  56              		.loc 1 16 0
  57 0014 FFF7FEFF 		bl	i2cAcquireBus
ARM GAS  /tmp/ccnq6xNA.s 			page 2


  58              	.LVL1:
  59              		.loc 1 17 0
  60 0018 0420     		movs	r0, #4
  61 001a 0290     		str	r0, [sp, #8]
  62 001c 0096     		str	r6, [sp, #0]
  63 001e 0196     		str	r6, [sp, #4]
  64 0020 2046     		mov	r0, r4
  65 0022 2946     		mov	r1, r5
  66 0024 04AA     		add	r2, sp, #16
  67 0026 0223     		movs	r3, #2
  68 0028 FFF7FEFF 		bl	i2cMasterTransmitTimeout
  69              	.LVL2:
  70 002c 0746     		mov	r7, r0
  71              	.LVL3:
  72              		.loc 1 18 0
  73 002e 2046     		mov	r0, r4
  74              	.LVL4:
  75 0030 FFF7FEFF 		bl	i2cReleaseBus
  76              	.LVL5:
  77              		.loc 1 19 0
  78 0034 002F     		cmp	r7, #0
  79 0036 39D1     		bne	.L15
  80              	.L2:
  81              		.loc 1 22 0
  82 0038 0121     		movs	r1, #1
  83              		.loc 1 23 0
  84 003a 2022     		movs	r2, #32
  85              		.loc 1 24 0
  86 003c 2046     		mov	r0, r4
  87              		.loc 1 22 0
  88 003e 8DF81010 		strb	r1, [sp, #16]
  89              		.loc 1 23 0
  90 0042 8DF81120 		strb	r2, [sp, #17]
  91              		.loc 1 25 0
  92 0046 0026     		movs	r6, #0
  93              		.loc 1 24 0
  94 0048 FFF7FEFF 		bl	i2cAcquireBus
  95              	.LVL6:
  96              		.loc 1 25 0
  97 004c 0423     		movs	r3, #4
  98 004e 0293     		str	r3, [sp, #8]
  99 0050 0096     		str	r6, [sp, #0]
 100 0052 0196     		str	r6, [sp, #4]
 101 0054 2046     		mov	r0, r4
 102 0056 2946     		mov	r1, r5
 103 0058 04AA     		add	r2, sp, #16
 104 005a 0223     		movs	r3, #2
 105 005c FFF7FEFF 		bl	i2cMasterTransmitTimeout
 106              	.LVL7:
 107 0060 0746     		mov	r7, r0
 108              	.LVL8:
 109              		.loc 1 26 0
 110 0062 2046     		mov	r0, r4
 111              	.LVL9:
 112 0064 FFF7FEFF 		bl	i2cReleaseBus
 113              	.LVL10:
 114              		.loc 1 27 0
ARM GAS  /tmp/ccnq6xNA.s 			page 3


 115 0068 E7B9     		cbnz	r7, .L16
 116              	.L3:
 117              		.loc 1 32 0
 118 006a 0026     		movs	r6, #0
 119              		.loc 1 31 0
 120 006c 0227     		movs	r7, #2
 121              	.LVL11:
 122              		.loc 1 33 0
 123 006e 2046     		mov	r0, r4
 124              		.loc 1 31 0
 125 0070 8DF81070 		strb	r7, [sp, #16]
 126              		.loc 1 32 0
 127 0074 8DF81160 		strb	r6, [sp, #17]
 128              		.loc 1 33 0
 129 0078 FFF7FEFF 		bl	i2cAcquireBus
 130              	.LVL12:
 131              		.loc 1 34 0
 132 007c 0420     		movs	r0, #4
 133 007e 0290     		str	r0, [sp, #8]
 134 0080 2946     		mov	r1, r5
 135 0082 0096     		str	r6, [sp, #0]
 136 0084 0196     		str	r6, [sp, #4]
 137 0086 2046     		mov	r0, r4
 138 0088 04AA     		add	r2, sp, #16
 139 008a 3B46     		mov	r3, r7
 140 008c FFF7FEFF 		bl	i2cMasterTransmitTimeout
 141              	.LVL13:
 142 0090 0546     		mov	r5, r0
 143              	.LVL14:
 144              		.loc 1 35 0
 145 0092 2046     		mov	r0, r4
 146              	.LVL15:
 147 0094 FFF7FEFF 		bl	i2cReleaseBus
 148              	.LVL16:
 149              		.loc 1 36 0
 150 0098 15B1     		cbz	r5, .L1
 151              	.LBB2:
 152              		.loc 1 36 0 is_stmt 0 discriminator 1
 153 009a 2046     		mov	r0, r4
 154 009c FFF7FEFF 		bl	i2cGetErr
 155              	.LVL17:
 156              	.L1:
 157              	.LBE2:
 158              		.loc 1 38 0 is_stmt 1
 159 00a0 07B0     		add	sp, sp, #28
 160 00a2 F0BD     		pop	{r4, r5, r6, r7, pc}
 161              	.LVL18:
 162              	.L16:
 163              	.LBB3:
 164              		.loc 1 27 0 discriminator 1
 165 00a4 2046     		mov	r0, r4
 166 00a6 FFF7FEFF 		bl	i2cGetErr
 167              	.LVL19:
 168 00aa DEE7     		b	.L3
 169              	.L15:
 170              	.LBE3:
 171              	.LBB4:
ARM GAS  /tmp/ccnq6xNA.s 			page 4


 172              		.loc 1 19 0 discriminator 1
 173 00ac 2046     		mov	r0, r4
 174 00ae FFF7FEFF 		bl	i2cGetErr
 175              	.LVL20:
 176 00b2 C1E7     		b	.L2
 177              	.LBE4:
 178              		.cfi_endproc
 179              	.LFE63:
 180              		.size	magInit, .-magInit
 181 00b4 AFF30080 		.section	.text.magRead,"ax",%progbits
 181      AFF30080 
 181      AFF30080 
 182              		.align	2
 183              		.p2align 4,,15
 184              		.global	magRead
 185              		.thumb
 186              		.thumb_func
 187              		.type	magRead, %function
 188              	magRead:
 189              	.LFB64:
 190              		.loc 1 42 0
 191              		.cfi_startproc
 192              		@ args = 4, pretend = 0, frame = 16
 193              		@ frame_needed = 0, uses_anonymous_args = 0
 194              	.LVL21:
 195 0000 2DE9F041 		push	{r4, r5, r6, r7, r8, lr}
 196              	.LCFI2:
 197              		.cfi_def_cfa_offset 24
 198              		.cfi_offset 4, -24
 199              		.cfi_offset 5, -20
 200              		.cfi_offset 6, -16
 201              		.cfi_offset 7, -12
 202              		.cfi_offset 8, -8
 203              		.cfi_offset 14, -4
 204 0004 88B0     		sub	sp, sp, #32
 205              	.LCFI3:
 206              		.cfi_def_cfa_offset 56
 207              		.loc 1 47 0
 208 0006 08AC     		add	r4, sp, #32
 209              		.loc 1 42 0
 210 0008 1E46     		mov	r6, r3
 211              		.loc 1 47 0
 212 000a 0323     		movs	r3, #3
 213              	.LVL22:
 214              		.loc 1 42 0
 215 000c 0546     		mov	r5, r0
 216              		.loc 1 47 0
 217 000e 04F8083D 		strb	r3, [r4, #-8]!
 218              		.loc 1 42 0
 219 0012 8846     		mov	r8, r1
 220 0014 1746     		mov	r7, r2
 221              		.loc 1 48 0
 222 0016 FFF7FEFF 		bl	i2cAcquireBus
 223              	.LVL23:
 224              		.loc 1 49 0
 225 001a 04A8     		add	r0, sp, #16
 226 001c 0621     		movs	r1, #6
ARM GAS  /tmp/ccnq6xNA.s 			page 5


 227 001e 0422     		movs	r2, #4
 228 0020 0090     		str	r0, [sp, #0]
 229 0022 0191     		str	r1, [sp, #4]
 230 0024 0292     		str	r2, [sp, #8]
 231 0026 2846     		mov	r0, r5
 232 0028 2246     		mov	r2, r4
 233 002a 4146     		mov	r1, r8
 234 002c 0123     		movs	r3, #1
 235 002e FFF7FEFF 		bl	i2cMasterTransmitTimeout
 236              	.LVL24:
 237 0032 0446     		mov	r4, r0
 238              	.LVL25:
 239              		.loc 1 50 0
 240 0034 2846     		mov	r0, r5
 241              	.LVL26:
 242 0036 FFF7FEFF 		bl	i2cReleaseBus
 243              	.LVL27:
 244              		.loc 1 51 0
 245 003a 14B1     		cbz	r4, .L18
 246              	.LBB5:
 247              		.loc 1 51 0 is_stmt 0 discriminator 1
 248 003c 2846     		mov	r0, r5
 249 003e FFF7FEFF 		bl	i2cGetErr
 250              	.LVL28:
 251              	.L18:
 252              	.LBE5:
 253              		.loc 1 56 0 is_stmt 1
 254 0042 9DF81520 		ldrb	r2, [sp, #21]	@ zero_extendqisi2
 255 0046 9DF81400 		ldrb	r0, [sp, #20]	@ zero_extendqisi2
 256              		.loc 1 54 0
 257 004a 9DF81050 		ldrb	r5, [sp, #16]	@ zero_extendqisi2
 258              	.LVL29:
 259 004e 9DF81110 		ldrb	r1, [sp, #17]	@ zero_extendqisi2
 260              		.loc 1 55 0
 261 0052 9DF81240 		ldrb	r4, [sp, #18]	@ zero_extendqisi2
 262              	.LVL30:
 263 0056 9DF81330 		ldrb	r3, [sp, #19]	@ zero_extendqisi2
 264              		.loc 1 56 0
 265 005a 42EA0020 		orr	r0, r2, r0, lsl #8
 266 005e 0E9A     		ldr	r2, [sp, #56]
 267              		.loc 1 54 0
 268 0060 41EA0521 		orr	r1, r1, r5, lsl #8
 269              		.loc 1 55 0
 270 0064 43EA0423 		orr	r3, r3, r4, lsl #8
 271              		.loc 1 54 0
 272 0068 3980     		strh	r1, [r7, #0]	@ movhi
 273              		.loc 1 55 0
 274 006a 3380     		strh	r3, [r6, #0]	@ movhi
 275              		.loc 1 56 0
 276 006c 1080     		strh	r0, [r2, #0]	@ movhi
 277              		.loc 1 57 0
 278 006e 08B0     		add	sp, sp, #32
 279 0070 BDE8F081 		pop	{r4, r5, r6, r7, r8, pc}
 280              		.cfi_endproc
 281              	.LFE64:
 282              		.size	magRead, .-magRead
 283 0074 AFF30080 		.text
ARM GAS  /tmp/ccnq6xNA.s 			page 6


 283      AFF30080 
 283      AFF30080 
 284              	.Letext0:
 285              		.file 2 "/usr/bin/../lib/gcc/arm-none-eabi/4.7.4/include/stddef.h"
 286              		.file 3 "/usr/bin/../lib/gcc/arm-none-eabi/4.7.4/../../../../arm-none-eabi/include/stdint.h"
 287              		.file 4 "../../os/ports/GCC/ARMCMx/chtypes.h"
 288              		.file 5 "../../os/kernel/include/chlists.h"
 289              		.file 6 "../../os/kernel/include/chthreads.h"
 290              		.file 7 "../../os/ports/GCC/ARMCMx/chcore_v7m.h"
 291              		.file 8 "../../os/kernel/include/chmtx.h"
 292              		.file 9 "../../os/hal/platforms/STM32F1xx/stm32f10x.h"
 293              		.file 10 "../../os/hal/platforms/STM32F1xx/stm32_dma.h"
 294              		.file 11 "../../os/hal/include/i2c.h"
 295              		.file 12 "../../os/hal/platforms/STM32/I2Cv1/i2c_lld.h"
 296              		.file 13 "../../os/ports/common/ARMCMx/CMSIS/include/core_cm3.h"