ARM GAS  /tmp/ccnq6xNA.s 			page 1


   1              		.syntax unified
   2              		.cpu cortex-m3
   3              		.fpu softvfp
   4              		.eabi_attribute 20, 1
   5              		.eabi_attribute 21, 1
   6              		.eabi_attribute 23, 3
   7              		.eabi_attribute 24, 1
   8              		.eabi_attribute 25, 1
   9              		.eabi_attribute 26, 1
  10              		.eabi_attribute 30, 2
  11              		.eabi_attribute 34, 1
  12              		.eabi_attribute 18, 4
  13              		.thumb
  14              		.file	"MAG01A.c"
  15              		.text
  16              	.Ltext0:
  17              		.cfi_sections	.debug_frame
  18              		.section	.text.magInit,"ax",%progbits
  19              		.align	2
  20              		.p2align 4,,15
  21              		.global	magInit
  22              		.thumb
  23              		.thumb_func
  24              		.type	magInit, %function
  25              	magInit:
  26              	.LFB63:
  27              		.file 1 "MAG01A.c"
  28              		.loc 1 9 0
  29              		.cfi_startproc
  30              		@ args = 0, pretend = 0, frame = 8
  31              		@ frame_needed = 0, uses_anonymous_args = 0
  32              	.LVL0:
  33 0000 F0B5     		push	{r4, r5, r6, r7, lr}
  34              	.LCFI0:
  35              		.cfi_def_cfa_offset 20
  36              		.cfi_offset 4, -20
  37              		.cfi_offset 5, -16
  38              		.cfi_offset 6, -12
  39              		.cfi_offset 7, -8
  40              		.cfi_offset 14, -4
  41              		.loc 1 15 0
  42 0002 F823     		movs	r3, #248
  43              		.loc 1 9 0
  44 0004 87B0     		sub	sp, sp, #28
  45              	.LCFI1:
  46              		.cfi_def_cfa_offset 48
  47              		.loc 1 14 0
  48 0006 0026     		movs	r6, #0
  49              		.loc 1 9 0
  50 0008 0446     		mov	r4, r0
  51 000a 0D46     		mov	r5, r1
  52              		.loc 1 15 0
  53 000c 8DF81130 		strb	r3, [sp, #17]
  54              		.loc 1 14 0
  55 0010 8DF81060 		strb	r6, [sp, #16]
  56              		.loc 1 16 0
  57 0014 FFF7FEFF 		bl	i2cAcquireBus
ARM GAS  /tmp/ccnq6xNA.s 			page 2


  58              	.LVL1:
  59              		.loc 1 17 0
  60 0018 0420     		movs	r0, #4
  61 001a 0290     		str	r0, [sp, #8]
  62 001c 0096     		str	r6, [sp, #0]
  63 001e 0196     		str	r6, [sp, #4]
  64 0020 2046     		mov	r0, r4
  65 0022 2946     		mov	r1, r5
  66 0024 04AA     		add	r2, sp, #16
  67 0026 0223     		movs	r3, #2
  68 0028 FFF7FEFF 		bl	i2cMasterTransmitTimeout
  69              	.LVL2:
  70 002c 0746     		mov	r7, r0
  71              	.LVL3:
  72              		.loc 1 18 0
  73 002e 2046     		mov	r0, r4
  74              	.LVL4:
  75 0030 FFF7FEFF 		bl	i2cReleaseBus
  76              	.LVL5:
  77              		.loc 1 19 0
  78 0034 002F     		cmp	r7, #0
  79 0036 39D1     		bne	.L15
  80              	.L2:
  81              		.loc 1 22 0
  82 0038 0121     		movs	r1, #1
  83              		.loc 1 23 0
  84 003a 2022     		movs	r2, #32
  85              		.loc 1 24 0
  86 003c 2046     		mov	r0, r4
  87              		.loc 1 22 0
  88 003e 8DF81010 		strb	r1, [sp, #16]
  89              		.loc 1 23 0
  90 0042 8DF81120 		strb	r2, [sp, #17]
  91              		.loc 1 25 0
  92 0046 0026     		movs	r6, #0
  93              		.loc 1 24 0
  94 0048 FFF7FEFF 		bl	i2cAcquireBus
  95              	.LVL6:
  96              		.loc 1 25 0
  97 004c 0423     		movs	r3, #4
  98 004e 0293     		str	r3, [sp, #8]
  99 0050 0096     		str	r6, [sp, #0]
 100 0052 0196     		str	r6, [sp, #4]
 101 0054 2046     		mov	r0, r4
 102 0056 2946     		mov	r1, r5
 103 0058 04AA     		add	r2, sp, #16
 104 005a 0223     		movs	r3, #2
 105 005c FFF7FEFF 		bl	i2cMasterTransmitTimeout
 106              	.LVL7:
 107 0060 0746     		mov	r7, r0
 108              	.LVL8:
 109              		.loc 1 26 0
 110 0062 2046     		mov	r0, r4
 111              	.LVL9:
 112 0064 FFF7FEFF 		bl	i2cReleaseBus
 113              	.LVL10:
 114              		.loc 1 27 0
ARM GAS  /tmp/ccnq6xNA.s 			page 3


 115 0068 E7B9     		cbnz	r7, .L16
 116              	.L3:
 117              		.loc 1 32 0
 118 006a 0026     		movs	r6, #0
 119              		.loc 1 31 0
 120 006c 0227     		movs	r7, #2
 121              	.LVL11:
 122              		.loc 1 33 0
 123 006e 2046     		mov	r0, r4
 124              		.loc 1 31 0
 125 0070 8DF81070 		strb	r7, [sp, #16]
 126              		.loc 1 32 0
 127 0074 8DF81160 		strb	r6, [sp, #17]
 128              		.loc 1 33 0
 129 0078 FFF7FEFF 		bl	i2cAcquireBus
 130              	.LVL12:
 131              		.loc 1 34 0
 132 007c 0420     		movs	r0, #4
 133 007e 0290     		str	r0, [sp, #8]
 134 0080 2946     		mov	r1, r5
 135 0082 0096     		str	r6, [sp, #0]
 136 0084 0196     		str	r6, [sp, #4]
 137 0086 2046     		mov	r0, r4
 138 0088 04AA     		add	r2, sp, #16
 139 008a 3B46     		mov	r3, r7
 140 008c FFF7FEFF 		bl	i2cMasterTransmitTimeout
 141              	.LVL13:
 142 0090 0546     		mov	r5, r0
 143              	.LVL14:
 144              		.loc 1 35 0
 145 0092 2046     		mov	r0, r4
 146              	.LVL15:
 147 0094 FFF7FEFF 		bl	i2cReleaseBus
 148              	.LVL16:
 149              		.loc 1 36 0
 150 0098 15B1     		cbz	r5, .L1
 151              	.LBB2:
 152              		.loc 1 36 0 is_stmt 0 discriminator 1
 153 009a 2046     		mov	r0, r4
 154 009c FFF7FEFF 		bl	i2cGetErr
 155              	.LVL17:
 156              	.L1:
 157              	.LBE2:
 158              		.loc 1 38 0 is_stmt 1
 159 00a0 07B0     		add	sp, sp, #28
 160 00a2 F0BD     		pop	{r4, r5, r6, r7, pc}
 161              	.LVL18:
 162              	.L16:
 163              	.LBB3:
 164              		.loc 1 27 0 discriminator 1
 165 00a4 2046     		mov	r0, r4
 166 00a6 FFF7FEFF 		bl	i2cGetErr
 167              	.LVL19:
 168 00aa DEE7     		b	.L3
 169              	.L15:
 170              	.LBE3:
 171              	.LBB4:
ARM GAS  /tmp/ccnq6xNA.s 			page 4


 172              		.loc 1 19 0 discriminator 1
 173 00ac 2046     		mov	r0, r4
 174 00ae FFF7FEFF 		bl	i2cGetErr
 175              	.LVL20:
 176 00b2 C1E7     		b	.L2
 177              	.LBE4:
 178              		.cfi_endproc
 179              	.LFE63:
 180              		.size	magInit, .-magInit
 181 00b4 AFF30080 		.section	.text.magRead,"ax",%progbits
 181      AFF30080 
 181      AFF30080 
 182              		.align	2
 183              		.p2align 4,,15
 184              		.global	magRead
 185              		.thumb
 186              		.thumb_func
 187              		.type	magRead, %function
 188              	magRead:
 189              	.LFB64:
 190              		.loc 1 42 0
 191              		.cfi_startproc
 192              		@ args = 4, pretend = 0, frame = 16
 193              		@ frame_needed = 0, uses_anonymous_args = 0
 194              	.LVL21:
 195 0000 2DE9F041 		push	{r4, r5, r6, r7, r8, lr}
 196              	.LCFI2:
 197              		.cfi_def_cfa_offset 24
 198              		.cfi_offset 4, -24
 199              		.cfi_offset 5, -20
 200              		.cfi_offset 6, -16
 201              		.cfi_offset 7, -12
 202              		.cfi_offset 8, -8
 203              		.cfi_offset 14, -4
 204 0004 88B0     		sub	sp, sp, #32
 205              	.LCFI3:
 206              		.cfi_def_cfa_offset 56
 207              		.loc 1 47 0
 208 0006 08AC     		add	r4, sp, #32
 209              		.loc 1 42 0
 210 0008 1E46     		mov	r6, r3
 211              		.loc 1 47 0
 212 000a 0323     		movs	r3, #3
 213              	.LVL22:
 214              		.loc 1 42 0
 215 000c 0546     		mov	r5, r0
 216              		.loc 1 47 0
 217 000e 04F8083D 		strb	r3, [r4, #-8]!
 218              		.loc 1 42 0
 219 0012 8846     		mov	r8, r1
 220 0014 1746     		mov	r7, r2
 221              		.loc 1 48 0
 222 0016 FFF7FEFF 		bl	i2cAcquireBus
 223              	.LVL23:
 224              		.loc 1 49 0
 225 001a 04A8     		add	r0, sp, #16
 226 001c 0621     		movs	r1, #6
ARM GAS  /tmp/ccnq6xNA.s 			page 5


 227 001e 0422     		movs	r2, #4
 228 0020 0090     		str	r0, [sp, #0]
 229 0022 0191     		str	r1, [sp, #4]
 230 0024 0292     		str	r2, [sp, #8]
 231 0026 2846     		mov	r0, r5
 232 0028 2246     		mov	r2, r4
 233 002a 4146     		mov	r1, r8
 234 002c 0123     		movs	r3, #1
 235 002e FFF7FEFF 		bl	i2cMasterTransmitTimeout
 236              	.LVL24:
 237 0032 0446     		mov	r4, r0
 238              	.LVL25:
 239              		.loc 1 50 0
 240 0034 2846     		mov	r0, r5
 241              	.LVL26:
 242 0036 FFF7FEFF 		bl	i2cReleaseBus
 243              	.LVL27:
 244              		.loc 1 51 0
 245 003a 14B1     		cbz	r4, .L18
 246              	.LBB5:
 247              		.loc 1 51 0 is_stmt 0 discriminator 1
 248 003c 2846     		mov	r0, r5
 249 003e FFF7FEFF 		bl	i2cGetErr
 250              	.LVL28:
 251              	.L18:
 252              	.LBE5:
 253              		.loc 1 56 0 is_stmt 1
 254 0042 9DF81520 		ldrb	r2, [sp, #21]	@ zero_extendqisi2
 255 0046 9DF81400 		ldrb	r0, [sp, #20]	@ zero_extendqisi2
 256              		.loc 1 54 0
 257 004a 9DF81050 		ldrb	r5, [sp, #16]	@ zero_extendqisi2
 258              	.LVL29:
 259 004e 9DF81110 		ldrb	r1, [sp, #17]	@ zero_extendqisi2
 260              		.loc 1 55 0
 261 0052 9DF81240 		ldrb	r4, [sp, #18]	@ zero_extendqisi2
 262              	.LVL30:
 263 0056 9DF81330 		ldrb	r3, [sp, #19]	@ zero_extendqisi2
 264              		.loc 1 56 0
 265 005a 42EA0020 		orr	r0, r2, r0, lsl #8
 266 005e 0E9A     		ldr	r2, [sp, #56]
 267              		.loc 1 54 0
 268 0060 41EA0521 		orr	r1, r1, r5, lsl #8
 269              		.loc 1 55 0
 270 0064 43EA0423 		orr	r3, r3, r4, lsl #8
 271              		.loc 1 54 0
 272 0068 3980     		strh	r1, [r7, #0]	@ movhi
 273              		.loc 1 55 0
 274 006a 3380     		strh	r3, [r6, #0]	@ movhi
 275              		.loc 1 56 0
 276 006c 1080     		strh	r0, [r2, #0]	@ movhi
 277              		.loc 1 57 0
 278 006e 08B0     		add	sp, sp, #32
 279 0070 BDE8F081 		pop	{r4, r5, r6, r7, r8, pc}
 280              		.cfi_endproc
 281              	.LFE64:
 282              		.size	magRead, .-magRead
 283 0074 AFF30080 		.text
ARM GAS  /tmp/ccnq6xNA.s 			page 6


 283      AFF30080 
 283      AFF30080 
 284              	.Letext0:
 285              		.file 2 "/usr/bin/../lib/gcc/arm-none-eabi/4.7.4/include/stddef.h"
 286              		.file 3 "/usr/bin/../lib/gcc/arm-none-eabi/4.7.4/../../../../arm-none-eabi/include/stdint.h"
 287              		.file 4 "../../os/ports/GCC/ARMCMx/chtypes.h"
 288              		.file 5 "../../os/kernel/include/chlists.h"
 289              		.file 6 "../../os/kernel/include/chthreads.h"
 290              		.file 7 "../../os/ports/GCC/ARMCMx/chcore_v7m.h"
 291              		.file 8 "../../os/kernel/include/chmtx.h"
 292              		.file 9 "../../os/hal/platforms/STM32F1xx/stm32f10x.h"
 293              		.file 10 "../../os/hal/platforms/STM32F1xx/stm32_dma.h"
 294              		.file 11 "../../os/hal/include/i2c.h"
 295              		.file 12 "../../os/hal/platforms/STM32/I2Cv1/i2c_lld.h"
 296              		.file 13 "../../os/ports/common/ARMCMx/CMSIS/include/core_cm3.h"
 297              		.section	.debug_info,"",%progbits
 298              	.Ldebug_info0:
 299 0000 A40B0000 		.4byte	0xba4
 300 0004 0200     		.2byte	0x2
 301 0006 00000000 		.4byte	.Ldebug_abbrev0
 302 000a 04       		.byte	0x4
 303 000b 01       		.uleb128 0x1
 304 000c 98020000 		.4byte	.LASF127
 305 0010 01       		.byte	0x1
 306 0011 66040000 		.4byte	.LASF128
 307 0015 5C020000 		.4byte	.LASF129
 308 0019 00000000 		.4byte	.Ldebug_ranges0+0
 309 001d 00000000 		.4byte	0
 310 0021 00000000 		.4byte	0
 311 0025 00000000 		.4byte	.Ldebug_line0
 312 0029 02       		.uleb128 0x2
 313 002a 04       		.byte	0x4
 314 002b 05       		.byte	0x5
 315 002c 696E7400 		.ascii	"int\000"
 316 0030 03       		.uleb128 0x3
 317 0031 2F000000 		.4byte	.LASF2
 318 0035 02       		.byte	0x2
 319 0036 D5       		.byte	0xd5
 320 0037 3B000000 		.4byte	0x3b
 321 003b 04       		.uleb128 0x4
 322 003c 04       		.byte	0x4
 323 003d 07       		.byte	0x7
 324 003e B2010000 		.4byte	.LASF0
 325 0042 04       		.uleb128 0x4
 326 0043 01       		.byte	0x1
 327 0044 06       		.byte	0x6
 328 0045 D3000000 		.4byte	.LASF1
 329 0049 03       		.uleb128 0x3
 330 004a 1B050000 		.4byte	.LASF3
 331 004e 03       		.byte	0x3
 332 004f 2A       		.byte	0x2a
 333 0050 54000000 		.4byte	0x54
 334 0054 04       		.uleb128 0x4
 335 0055 01       		.byte	0x1
 336 0056 08       		.byte	0x8
 337 0057 E9030000 		.4byte	.LASF4
 338 005b 03       		.uleb128 0x3
ARM GAS  /tmp/ccnq6xNA.s 			page 7


 339 005c BD000000 		.4byte	.LASF5
 340 0060 03       		.byte	0x3
 341 0061 35       		.byte	0x35
 342 0062 66000000 		.4byte	0x66
 343 0066 04       		.uleb128 0x4
 344 0067 02       		.byte	0x2
 345 0068 05       		.byte	0x5
 346 0069 40010000 		.4byte	.LASF6
 347 006d 03       		.uleb128 0x3
 348 006e BF010000 		.4byte	.LASF7
 349 0072 03       		.byte	0x3
 350 0073 36       		.byte	0x36
 351 0074 78000000 		.4byte	0x78
 352 0078 04       		.uleb128 0x4
 353 0079 02       		.byte	0x2
 354 007a 07       		.byte	0x7
 355 007b 0F020000 		.4byte	.LASF8
 356 007f 03       		.uleb128 0x3
 357 0080 E1030000 		.4byte	.LASF9
 358 0084 03       		.byte	0x3
 359 0085 4F       		.byte	0x4f
 360 0086 8A000000 		.4byte	0x8a
 361 008a 04       		.uleb128 0x4
 362 008b 04       		.byte	0x4
 363 008c 05       		.byte	0x5
 364 008d 20010000 		.4byte	.LASF10
 365 0091 03       		.uleb128 0x3
 366 0092 89040000 		.4byte	.LASF11
 367 0096 03       		.byte	0x3
 368 0097 50       		.byte	0x50
 369 0098 9C000000 		.4byte	0x9c
 370 009c 04       		.uleb128 0x4
 371 009d 04       		.byte	0x4
 372 009e 07       		.byte	0x7
 373 009f A7040000 		.4byte	.LASF12
 374 00a3 04       		.uleb128 0x4
 375 00a4 08       		.byte	0x8
 376 00a5 05       		.byte	0x5
 377 00a6 C5000000 		.4byte	.LASF13
 378 00aa 03       		.uleb128 0x3
 379 00ab 3D000000 		.4byte	.LASF14
 380 00af 03       		.byte	0x3
 381 00b0 78       		.byte	0x78
 382 00b1 B5000000 		.4byte	0xb5
 383 00b5 04       		.uleb128 0x4
 384 00b6 08       		.byte	0x8
 385 00b7 07       		.byte	0x7
 386 00b8 4C000000 		.4byte	.LASF15
 387 00bc 04       		.uleb128 0x4
 388 00bd 01       		.byte	0x1
 389 00be 02       		.byte	0x2
 390 00bf DB030000 		.4byte	.LASF16
 391 00c3 03       		.uleb128 0x3
 392 00c4 32020000 		.4byte	.LASF17
 393 00c8 04       		.byte	0x4
 394 00c9 2C       		.byte	0x2c
 395 00ca 49000000 		.4byte	0x49
ARM GAS  /tmp/ccnq6xNA.s 			page 8


 396 00ce 03       		.uleb128 0x3
 397 00cf 29010000 		.4byte	.LASF18
 398 00d3 04       		.byte	0x4
 399 00d4 2D       		.byte	0x2d
 400 00d5 49000000 		.4byte	0x49
 401 00d9 03       		.uleb128 0x3
 402 00da 55030000 		.4byte	.LASF19
 403 00de 04       		.byte	0x4
 404 00df 2E       		.byte	0x2e
 405 00e0 49000000 		.4byte	0x49
 406 00e4 03       		.uleb128 0x3
 407 00e5 FB000000 		.4byte	.LASF20
 408 00e9 04       		.byte	0x4
 409 00ea 2F       		.byte	0x2f
 410 00eb 49000000 		.4byte	0x49
 411 00ef 03       		.uleb128 0x3
 412 00f0 B4030000 		.4byte	.LASF21
 413 00f4 04       		.byte	0x4
 414 00f5 30       		.byte	0x30
 415 00f6 91000000 		.4byte	0x91
 416 00fa 03       		.uleb128 0x3
 417 00fb 2C020000 		.4byte	.LASF22
 418 00ff 04       		.byte	0x4
 419 0100 31       		.byte	0x31
 420 0101 7F000000 		.4byte	0x7f
 421 0105 03       		.uleb128 0x3
 422 0106 50020000 		.4byte	.LASF23
 423 010a 04       		.byte	0x4
 424 010b 33       		.byte	0x33
 425 010c 91000000 		.4byte	0x91
 426 0110 03       		.uleb128 0x3
 427 0111 D4040000 		.4byte	.LASF24
 428 0115 04       		.byte	0x4
 429 0116 35       		.byte	0x35
 430 0117 91000000 		.4byte	0x91
 431 011b 03       		.uleb128 0x3
 432 011c A0010000 		.4byte	.LASF25
 433 0120 05       		.byte	0x5
 434 0121 2A       		.byte	0x2a
 435 0122 26010000 		.4byte	0x126
 436 0126 05       		.uleb128 0x5
 437 0127 A0010000 		.4byte	.LASF25
 438 012b 4C       		.byte	0x4c
 439 012c 06       		.byte	0x6
 440 012d 5E       		.byte	0x5e
 441 012e 59020000 		.4byte	0x259
 442 0132 06       		.uleb128 0x6
 443 0133 32040000 		.4byte	.LASF26
 444 0137 06       		.byte	0x6
 445 0138 5F       		.byte	0x5f
 446 0139 7E020000 		.4byte	0x27e
 447 013d 02       		.byte	0x2
 448 013e 23       		.byte	0x23
 449 013f 00       		.uleb128 0
 450 0140 06       		.uleb128 0x6
 451 0141 8F030000 		.4byte	.LASF27
 452 0145 06       		.byte	0x6
ARM GAS  /tmp/ccnq6xNA.s 			page 9


 453 0146 61       		.byte	0x61
 454 0147 7E020000 		.4byte	0x27e
 455 014b 02       		.byte	0x2
 456 014c 23       		.byte	0x23
 457 014d 04       		.uleb128 0x4
 458 014e 06       		.uleb128 0x6
 459 014f 9D000000 		.4byte	.LASF28
 460 0153 06       		.byte	0x6
 461 0154 63       		.byte	0x63
 462 0155 EF000000 		.4byte	0xef
 463 0159 02       		.byte	0x2
 464 015a 23       		.byte	0x23
 465 015b 08       		.uleb128 0x8
 466 015c 06       		.uleb128 0x6
 467 015d 6F050000 		.4byte	.LASF29
 468 0161 06       		.byte	0x6
 469 0162 64       		.byte	0x64
 470 0163 57030000 		.4byte	0x357
 471 0167 02       		.byte	0x2
 472 0168 23       		.byte	0x23
 473 0169 0C       		.uleb128 0xc
 474 016a 06       		.uleb128 0x6
 475 016b 5B010000 		.4byte	.LASF30
 476 016f 06       		.byte	0x6
 477 0170 66       		.byte	0x66
 478 0171 7E020000 		.4byte	0x27e
 479 0175 02       		.byte	0x2
 480 0176 23       		.byte	0x23
 481 0177 10       		.uleb128 0x10
 482 0178 06       		.uleb128 0x6
 483 0179 16030000 		.4byte	.LASF31
 484 017d 06       		.byte	0x6
 485 017e 67       		.byte	0x67
 486 017f 7E020000 		.4byte	0x27e
 487 0183 02       		.byte	0x2
 488 0184 23       		.byte	0x23
 489 0185 14       		.uleb128 0x14
 490 0186 06       		.uleb128 0x6
 491 0187 34050000 		.4byte	.LASF32
 492 018b 06       		.byte	0x6
 493 018c 6E       		.byte	0x6e
 494 018d 08040000 		.4byte	0x408
 495 0191 02       		.byte	0x2
 496 0192 23       		.byte	0x23
 497 0193 18       		.uleb128 0x18
 498 0194 06       		.uleb128 0x6
 499 0195 A7010000 		.4byte	.LASF33
 500 0199 06       		.byte	0x6
 501 019a 74       		.byte	0x74
 502 019b 1A040000 		.4byte	0x41a
 503 019f 02       		.byte	0x2
 504 01a0 23       		.byte	0x23
 505 01a1 1C       		.uleb128 0x1c
 506 01a2 06       		.uleb128 0x6
 507 01a3 0A040000 		.4byte	.LASF34
 508 01a7 06       		.byte	0x6
 509 01a8 79       		.byte	0x79
ARM GAS  /tmp/ccnq6xNA.s 			page 10


 510 01a9 CE000000 		.4byte	0xce
 511 01ad 02       		.byte	0x2
 512 01ae 23       		.byte	0x23
 513 01af 20       		.uleb128 0x20
 514 01b0 06       		.uleb128 0x6
 515 01b1 39040000 		.4byte	.LASF35
 516 01b5 06       		.byte	0x6
 517 01b6 7D       		.byte	0x7d
 518 01b7 C3000000 		.4byte	0xc3
 519 01bb 02       		.byte	0x2
 520 01bc 23       		.byte	0x23
 521 01bd 21       		.uleb128 0x21
 522 01be 06       		.uleb128 0x6
 523 01bf 39010000 		.4byte	.LASF36
 524 01c3 06       		.byte	0x6
 525 01c4 82       		.byte	0x82
 526 01c5 D9000000 		.4byte	0xd9
 527 01c9 02       		.byte	0x2
 528 01ca 23       		.byte	0x23
 529 01cb 22       		.uleb128 0x22
 530 01cc 06       		.uleb128 0x6
 531 01cd 21040000 		.4byte	.LASF37
 532 01d1 06       		.byte	0x6
 533 01d2 88       		.byte	0x88
 534 01d3 E4000000 		.4byte	0xe4
 535 01d7 02       		.byte	0x2
 536 01d8 23       		.byte	0x23
 537 01d9 23       		.uleb128 0x23
 538 01da 06       		.uleb128 0x6
 539 01db 54010000 		.4byte	.LASF38
 540 01df 06       		.byte	0x6
 541 01e0 8F       		.byte	0x8f
 542 01e1 86030000 		.4byte	0x386
 543 01e5 02       		.byte	0x2
 544 01e6 23       		.byte	0x23
 545 01e7 24       		.uleb128 0x24
 546 01e8 07       		.uleb128 0x7
 547 01e9 705F7500 		.ascii	"p_u\000"
 548 01ed 06       		.byte	0x6
 549 01ee B4       		.byte	0xb4
 550 01ef D3030000 		.4byte	0x3d3
 551 01f3 02       		.byte	0x2
 552 01f4 23       		.byte	0x23
 553 01f5 28       		.uleb128 0x28
 554 01f6 06       		.uleb128 0x6
 555 01f7 75050000 		.4byte	.LASF39
 556 01fb 06       		.byte	0x6
 557 01fc B9       		.byte	0xb9
 558 01fd A6020000 		.4byte	0x2a6
 559 0201 02       		.byte	0x2
 560 0202 23       		.byte	0x23
 561 0203 2C       		.uleb128 0x2c
 562 0204 06       		.uleb128 0x6
 563 0205 D5010000 		.4byte	.LASF40
 564 0209 06       		.byte	0x6
 565 020a BF       		.byte	0xbf
 566 020b 84020000 		.4byte	0x284
ARM GAS  /tmp/ccnq6xNA.s 			page 11


 567 020f 02       		.byte	0x2
 568 0210 23       		.byte	0x23
 569 0211 30       		.uleb128 0x30
 570 0212 06       		.uleb128 0x6
 571 0213 42050000 		.4byte	.LASF41
 572 0217 06       		.byte	0x6
 573 0218 C3       		.byte	0xc3
 574 0219 FA000000 		.4byte	0xfa
 575 021d 02       		.byte	0x2
 576 021e 23       		.byte	0x23
 577 021f 38       		.uleb128 0x38
 578 0220 06       		.uleb128 0x6
 579 0221 6F040000 		.4byte	.LASF42
 580 0225 06       		.byte	0x6
 581 0226 C9       		.byte	0xc9
 582 0227 05010000 		.4byte	0x105
 583 022b 02       		.byte	0x2
 584 022c 23       		.byte	0x23
 585 022d 3C       		.uleb128 0x3c
 586 022e 06       		.uleb128 0x6
 587 022f 46020000 		.4byte	.LASF43
 588 0233 06       		.byte	0x6
 589 0234 D0       		.byte	0xd0
 590 0235 20040000 		.4byte	0x420
 591 0239 02       		.byte	0x2
 592 023a 23       		.byte	0x23
 593 023b 40       		.uleb128 0x40
 594 023c 06       		.uleb128 0x6
 595 023d DE040000 		.4byte	.LASF44
 596 0241 06       		.byte	0x6
 597 0242 D4       		.byte	0xd4
 598 0243 EF000000 		.4byte	0xef
 599 0247 02       		.byte	0x2
 600 0248 23       		.byte	0x23
 601 0249 44       		.uleb128 0x44
 602 024a 06       		.uleb128 0x6
 603 024b EB000000 		.4byte	.LASF45
 604 024f 06       		.byte	0x6
 605 0250 DA       		.byte	0xda
 606 0251 BC020000 		.4byte	0x2bc
 607 0255 02       		.byte	0x2
 608 0256 23       		.byte	0x23
 609 0257 48       		.uleb128 0x48
 610 0258 00       		.byte	0
 611 0259 08       		.uleb128 0x8
 612 025a 08       		.byte	0x8
 613 025b 05       		.byte	0x5
 614 025c 61       		.byte	0x61
 615 025d 7E020000 		.4byte	0x27e
 616 0261 06       		.uleb128 0x6
 617 0262 32040000 		.4byte	.LASF26
 618 0266 05       		.byte	0x5
 619 0267 62       		.byte	0x62
 620 0268 7E020000 		.4byte	0x27e
 621 026c 02       		.byte	0x2
 622 026d 23       		.byte	0x23
 623 026e 00       		.uleb128 0
ARM GAS  /tmp/ccnq6xNA.s 			page 12


 624 026f 06       		.uleb128 0x6
 625 0270 8F030000 		.4byte	.LASF27
 626 0274 05       		.byte	0x5
 627 0275 64       		.byte	0x64
 628 0276 7E020000 		.4byte	0x27e
 629 027a 02       		.byte	0x2
 630 027b 23       		.byte	0x23
 631 027c 04       		.uleb128 0x4
 632 027d 00       		.byte	0
 633 027e 09       		.uleb128 0x9
 634 027f 04       		.byte	0x4
 635 0280 1B010000 		.4byte	0x11b
 636 0284 03       		.uleb128 0x3
 637 0285 1E030000 		.4byte	.LASF46
 638 0289 05       		.byte	0x5
 639 028a 66       		.byte	0x66
 640 028b 59020000 		.4byte	0x259
 641 028f 08       		.uleb128 0x8
 642 0290 04       		.byte	0x4
 643 0291 05       		.byte	0x5
 644 0292 6B       		.byte	0x6b
 645 0293 A6020000 		.4byte	0x2a6
 646 0297 06       		.uleb128 0x6
 647 0298 32040000 		.4byte	.LASF26
 648 029c 05       		.byte	0x5
 649 029d 6D       		.byte	0x6d
 650 029e 7E020000 		.4byte	0x27e
 651 02a2 02       		.byte	0x2
 652 02a3 23       		.byte	0x23
 653 02a4 00       		.uleb128 0
 654 02a5 00       		.byte	0
 655 02a6 03       		.uleb128 0x3
 656 02a7 3A020000 		.4byte	.LASF47
 657 02ab 05       		.byte	0x5
 658 02ac 70       		.byte	0x70
 659 02ad 8F020000 		.4byte	0x28f
 660 02b1 03       		.uleb128 0x3
 661 02b2 85010000 		.4byte	.LASF48
 662 02b6 07       		.byte	0x7
 663 02b7 E5       		.byte	0xe5
 664 02b8 BC020000 		.4byte	0x2bc
 665 02bc 0A       		.uleb128 0xa
 666 02bd 04       		.byte	0x4
 667 02be 03       		.uleb128 0x3
 668 02bf E1020000 		.4byte	.LASF49
 669 02c3 07       		.byte	0x7
 670 02c4 EB       		.byte	0xeb
 671 02c5 AA000000 		.4byte	0xaa
 672 02c9 0B       		.uleb128 0xb
 673 02ca FB040000 		.4byte	.LASF50
 674 02ce 24       		.byte	0x24
 675 02cf 07       		.byte	0x7
 676 02d0 0C01     		.2byte	0x10c
 677 02d2 57030000 		.4byte	0x357
 678 02d6 0C       		.uleb128 0xc
 679 02d7 723400   		.ascii	"r4\000"
 680 02da 07       		.byte	0x7
ARM GAS  /tmp/ccnq6xNA.s 			page 13


 681 02db 1F01     		.2byte	0x11f
 682 02dd B1020000 		.4byte	0x2b1
 683 02e1 02       		.byte	0x2
 684 02e2 23       		.byte	0x23
 685 02e3 00       		.uleb128 0
 686 02e4 0C       		.uleb128 0xc
 687 02e5 723500   		.ascii	"r5\000"
 688 02e8 07       		.byte	0x7
 689 02e9 2001     		.2byte	0x120
 690 02eb B1020000 		.4byte	0x2b1
 691 02ef 02       		.byte	0x2
 692 02f0 23       		.byte	0x23
 693 02f1 04       		.uleb128 0x4
 694 02f2 0C       		.uleb128 0xc
 695 02f3 723600   		.ascii	"r6\000"
 696 02f6 07       		.byte	0x7
 697 02f7 2101     		.2byte	0x121
 698 02f9 B1020000 		.4byte	0x2b1
 699 02fd 02       		.byte	0x2
 700 02fe 23       		.byte	0x23
 701 02ff 08       		.uleb128 0x8
 702 0300 0C       		.uleb128 0xc
 703 0301 723700   		.ascii	"r7\000"
 704 0304 07       		.byte	0x7
 705 0305 2201     		.2byte	0x122
 706 0307 B1020000 		.4byte	0x2b1
 707 030b 02       		.byte	0x2
 708 030c 23       		.byte	0x23
 709 030d 0C       		.uleb128 0xc
 710 030e 0C       		.uleb128 0xc
 711 030f 723800   		.ascii	"r8\000"
 712 0312 07       		.byte	0x7
 713 0313 2301     		.2byte	0x123
 714 0315 B1020000 		.4byte	0x2b1
 715 0319 02       		.byte	0x2
 716 031a 23       		.byte	0x23
 717 031b 10       		.uleb128 0x10
 718 031c 0C       		.uleb128 0xc
 719 031d 723900   		.ascii	"r9\000"
 720 0320 07       		.byte	0x7
 721 0321 2401     		.2byte	0x124
 722 0323 B1020000 		.4byte	0x2b1
 723 0327 02       		.byte	0x2
 724 0328 23       		.byte	0x23
 725 0329 14       		.uleb128 0x14
 726 032a 0C       		.uleb128 0xc
 727 032b 72313000 		.ascii	"r10\000"
 728 032f 07       		.byte	0x7
 729 0330 2501     		.2byte	0x125
 730 0332 B1020000 		.4byte	0x2b1
 731 0336 02       		.byte	0x2
 732 0337 23       		.byte	0x23
 733 0338 18       		.uleb128 0x18
 734 0339 0C       		.uleb128 0xc
 735 033a 72313100 		.ascii	"r11\000"
 736 033e 07       		.byte	0x7
 737 033f 2601     		.2byte	0x126
ARM GAS  /tmp/ccnq6xNA.s 			page 14


 738 0341 B1020000 		.4byte	0x2b1
 739 0345 02       		.byte	0x2
 740 0346 23       		.byte	0x23
 741 0347 1C       		.uleb128 0x1c
 742 0348 0C       		.uleb128 0xc
 743 0349 6C7200   		.ascii	"lr\000"
 744 034c 07       		.byte	0x7
 745 034d 2701     		.2byte	0x127
 746 034f B1020000 		.4byte	0x2b1
 747 0353 02       		.byte	0x2
 748 0354 23       		.byte	0x23
 749 0355 20       		.uleb128 0x20
 750 0356 00       		.byte	0
 751 0357 0B       		.uleb128 0xb
 752 0358 F3040000 		.4byte	.LASF51
 753 035c 04       		.byte	0x4
 754 035d 07       		.byte	0x7
 755 035e 3101     		.2byte	0x131
 756 0360 74030000 		.4byte	0x374
 757 0364 0C       		.uleb128 0xc
 758 0365 72313300 		.ascii	"r13\000"
 759 0369 07       		.byte	0x7
 760 036a 3201     		.2byte	0x132
 761 036c 74030000 		.4byte	0x374
 762 0370 02       		.byte	0x2
 763 0371 23       		.byte	0x23
 764 0372 00       		.uleb128 0
 765 0373 00       		.byte	0
 766 0374 09       		.uleb128 0x9
 767 0375 04       		.byte	0x4
 768 0376 C9020000 		.4byte	0x2c9
 769 037a 0D       		.uleb128 0xd
 770 037b 91000000 		.4byte	0x91
 771 037f 04       		.uleb128 0x4
 772 0380 04       		.byte	0x4
 773 0381 07       		.byte	0x7
 774 0382 F5020000 		.4byte	.LASF52
 775 0386 0D       		.uleb128 0xd
 776 0387 10010000 		.4byte	0x110
 777 038b 05       		.uleb128 0x5
 778 038c FE020000 		.4byte	.LASF53
 779 0390 10       		.byte	0x10
 780 0391 08       		.byte	0x8
 781 0392 2C       		.byte	0x2c
 782 0393 C2030000 		.4byte	0x3c2
 783 0397 06       		.uleb128 0x6
 784 0398 F3000000 		.4byte	.LASF54
 785 039c 08       		.byte	0x8
 786 039d 2D       		.byte	0x2d
 787 039e 84020000 		.4byte	0x284
 788 03a2 02       		.byte	0x2
 789 03a3 23       		.byte	0x23
 790 03a4 00       		.uleb128 0
 791 03a5 06       		.uleb128 0x6
 792 03a6 67050000 		.4byte	.LASF55
 793 03aa 08       		.byte	0x8
 794 03ab 2F       		.byte	0x2f
ARM GAS  /tmp/ccnq6xNA.s 			page 15


 795 03ac 7E020000 		.4byte	0x27e
 796 03b0 02       		.byte	0x2
 797 03b1 23       		.byte	0x23
 798 03b2 08       		.uleb128 0x8
 799 03b3 06       		.uleb128 0x6
 800 03b4 CD040000 		.4byte	.LASF56
 801 03b8 08       		.byte	0x8
 802 03b9 31       		.byte	0x31
 803 03ba C2030000 		.4byte	0x3c2
 804 03be 02       		.byte	0x2
 805 03bf 23       		.byte	0x23
 806 03c0 0C       		.uleb128 0xc
 807 03c1 00       		.byte	0
 808 03c2 09       		.uleb128 0x9
 809 03c3 04       		.byte	0x4
 810 03c4 8B030000 		.4byte	0x38b
 811 03c8 03       		.uleb128 0x3
 812 03c9 FE020000 		.4byte	.LASF53
 813 03cd 08       		.byte	0x8
 814 03ce 33       		.byte	0x33
 815 03cf 8B030000 		.4byte	0x38b
 816 03d3 0E       		.uleb128 0xe
 817 03d4 04       		.byte	0x4
 818 03d5 06       		.byte	0x6
 819 03d6 96       		.byte	0x96
 820 03d7 08040000 		.4byte	0x408
 821 03db 0F       		.uleb128 0xf
 822 03dc 36000000 		.4byte	.LASF57
 823 03e0 06       		.byte	0x6
 824 03e1 9D       		.byte	0x9d
 825 03e2 FA000000 		.4byte	0xfa
 826 03e6 0F       		.uleb128 0xf
 827 03e7 72000000 		.4byte	.LASF58
 828 03eb 06       		.byte	0x6
 829 03ec A4       		.byte	0xa4
 830 03ed FA000000 		.4byte	0xfa
 831 03f1 0F       		.uleb128 0xf
 832 03f2 2D050000 		.4byte	.LASF59
 833 03f6 06       		.byte	0x6
 834 03f7 AB       		.byte	0xab
 835 03f8 BC020000 		.4byte	0x2bc
 836 03fc 0F       		.uleb128 0xf
 837 03fd 2B040000 		.4byte	.LASF60
 838 0401 06       		.byte	0x6
 839 0402 B2       		.byte	0xb2
 840 0403 05010000 		.4byte	0x105
 841 0407 00       		.byte	0
 842 0408 09       		.uleb128 0x9
 843 0409 04       		.byte	0x4
 844 040a 0E040000 		.4byte	0x40e
 845 040e 10       		.uleb128 0x10
 846 040f 13040000 		.4byte	0x413
 847 0413 04       		.uleb128 0x4
 848 0414 01       		.byte	0x1
 849 0415 08       		.byte	0x8
 850 0416 B9040000 		.4byte	.LASF61
 851 041a 09       		.uleb128 0x9
ARM GAS  /tmp/ccnq6xNA.s 			page 16


 852 041b 04       		.byte	0x4
 853 041c BE020000 		.4byte	0x2be
 854 0420 09       		.uleb128 0x9
 855 0421 04       		.byte	0x4
 856 0422 C8030000 		.4byte	0x3c8
 857 0426 09       		.uleb128 0x9
 858 0427 04       		.byte	0x4
 859 0428 49000000 		.4byte	0x49
 860 042c 09       		.uleb128 0x9
 861 042d 04       		.byte	0x4
 862 042e 32040000 		.4byte	0x432
 863 0432 10       		.uleb128 0x10
 864 0433 49000000 		.4byte	0x49
 865 0437 0D       		.uleb128 0xd
 866 0438 6D000000 		.4byte	0x6d
 867 043c 0D       		.uleb128 0xd
 868 043d 7F000000 		.4byte	0x7f
 869 0441 11       		.uleb128 0x11
 870 0442 10       		.byte	0x10
 871 0443 09       		.byte	0x9
 872 0444 2D03     		.2byte	0x32d
 873 0446 87040000 		.4byte	0x487
 874 044a 0C       		.uleb128 0xc
 875 044b 43435200 		.ascii	"CCR\000"
 876 044f 09       		.byte	0x9
 877 0450 2F03     		.2byte	0x32f
 878 0452 7A030000 		.4byte	0x37a
 879 0456 02       		.byte	0x2
 880 0457 23       		.byte	0x23
 881 0458 00       		.uleb128 0
 882 0459 12       		.uleb128 0x12
 883 045a 10050000 		.4byte	.LASF62
 884 045e 09       		.byte	0x9
 885 045f 3003     		.2byte	0x330
 886 0461 7A030000 		.4byte	0x37a
 887 0465 02       		.byte	0x2
 888 0466 23       		.byte	0x23
 889 0467 04       		.uleb128 0x4
 890 0468 12       		.uleb128 0x12
 891 0469 D0010000 		.4byte	.LASF63
 892 046d 09       		.byte	0x9
 893 046e 3103     		.2byte	0x331
 894 0470 7A030000 		.4byte	0x37a
 895 0474 02       		.byte	0x2
 896 0475 23       		.byte	0x23
 897 0476 08       		.uleb128 0x8
 898 0477 12       		.uleb128 0x12
 899 0478 16050000 		.4byte	.LASF64
 900 047c 09       		.byte	0x9
 901 047d 3203     		.2byte	0x332
 902 047f 7A030000 		.4byte	0x37a
 903 0483 02       		.byte	0x2
 904 0484 23       		.byte	0x23
 905 0485 0C       		.uleb128 0xc
 906 0486 00       		.byte	0
 907 0487 13       		.uleb128 0x13
 908 0488 E0010000 		.4byte	.LASF65
ARM GAS  /tmp/ccnq6xNA.s 			page 17


 909 048c 09       		.byte	0x9
 910 048d 3303     		.2byte	0x333
 911 048f 41040000 		.4byte	0x441
 912 0493 11       		.uleb128 0x11
 913 0494 24       		.byte	0x24
 914 0495 09       		.byte	0x9
 915 0496 1304     		.2byte	0x413
 916 0498 AA050000 		.4byte	0x5aa
 917 049c 0C       		.uleb128 0xc
 918 049d 43523100 		.ascii	"CR1\000"
 919 04a1 09       		.byte	0x9
 920 04a2 1504     		.2byte	0x415
 921 04a4 37040000 		.4byte	0x437
 922 04a8 02       		.byte	0x2
 923 04a9 23       		.byte	0x23
 924 04aa 00       		.uleb128 0
 925 04ab 12       		.uleb128 0x12
 926 04ac 5D030000 		.4byte	.LASF66
 927 04b0 09       		.byte	0x9
 928 04b1 1604     		.2byte	0x416
 929 04b3 6D000000 		.4byte	0x6d
 930 04b7 02       		.byte	0x2
 931 04b8 23       		.byte	0x23
 932 04b9 02       		.uleb128 0x2
 933 04ba 0C       		.uleb128 0xc
 934 04bb 43523200 		.ascii	"CR2\000"
 935 04bf 09       		.byte	0x9
 936 04c0 1704     		.2byte	0x417
 937 04c2 37040000 		.4byte	0x437
 938 04c6 02       		.byte	0x2
 939 04c7 23       		.byte	0x23
 940 04c8 04       		.uleb128 0x4
 941 04c9 12       		.uleb128 0x12
 942 04ca 67030000 		.4byte	.LASF67
 943 04ce 09       		.byte	0x9
 944 04cf 1804     		.2byte	0x418
 945 04d1 6D000000 		.4byte	0x6d
 946 04d5 02       		.byte	0x2
 947 04d6 23       		.byte	0x23
 948 04d7 06       		.uleb128 0x6
 949 04d8 12       		.uleb128 0x12
 950 04d9 23050000 		.4byte	.LASF68
 951 04dd 09       		.byte	0x9
 952 04de 1904     		.2byte	0x419
 953 04e0 37040000 		.4byte	0x437
 954 04e4 02       		.byte	0x2
 955 04e5 23       		.byte	0x23
 956 04e6 08       		.uleb128 0x8
 957 04e7 12       		.uleb128 0x12
 958 04e8 71030000 		.4byte	.LASF69
 959 04ec 09       		.byte	0x9
 960 04ed 1A04     		.2byte	0x41a
 961 04ef 6D000000 		.4byte	0x6d
 962 04f3 02       		.byte	0x2
 963 04f4 23       		.byte	0x23
 964 04f5 0A       		.uleb128 0xa
 965 04f6 12       		.uleb128 0x12
ARM GAS  /tmp/ccnq6xNA.s 			page 18


 966 04f7 28050000 		.4byte	.LASF70
 967 04fb 09       		.byte	0x9
 968 04fc 1B04     		.2byte	0x41b
 969 04fe 37040000 		.4byte	0x437
 970 0502 02       		.byte	0x2
 971 0503 23       		.byte	0x23
 972 0504 0C       		.uleb128 0xc
 973 0505 12       		.uleb128 0x12
 974 0506 7B030000 		.4byte	.LASF71
 975 050a 09       		.byte	0x9
 976 050b 1C04     		.2byte	0x41c
 977 050d 6D000000 		.4byte	0x6d
 978 0511 02       		.byte	0x2
 979 0512 23       		.byte	0x23
 980 0513 0E       		.uleb128 0xe
 981 0514 0C       		.uleb128 0xc
 982 0515 445200   		.ascii	"DR\000"
 983 0518 09       		.byte	0x9
 984 0519 1D04     		.2byte	0x41d
 985 051b 37040000 		.4byte	0x437
 986 051f 02       		.byte	0x2
 987 0520 23       		.byte	0x23
 988 0521 10       		.uleb128 0x10
 989 0522 12       		.uleb128 0x12
 990 0523 85030000 		.4byte	.LASF72
 991 0527 09       		.byte	0x9
 992 0528 1E04     		.2byte	0x41e
 993 052a 6D000000 		.4byte	0x6d
 994 052e 02       		.byte	0x2
 995 052f 23       		.byte	0x23
 996 0530 12       		.uleb128 0x12
 997 0531 0C       		.uleb128 0xc
 998 0532 53523100 		.ascii	"SR1\000"
 999 0536 09       		.byte	0x9
 1000 0537 1F04     		.2byte	0x41f
 1001 0539 37040000 		.4byte	0x437
 1002 053d 02       		.byte	0x2
 1003 053e 23       		.byte	0x23
 1004 053f 14       		.uleb128 0x14
 1005 0540 12       		.uleb128 0x12
 1006 0541 7F040000 		.4byte	.LASF73
 1007 0545 09       		.byte	0x9
 1008 0546 2004     		.2byte	0x420
 1009 0548 6D000000 		.4byte	0x6d
 1010 054c 02       		.byte	0x2
 1011 054d 23       		.byte	0x23
 1012 054e 16       		.uleb128 0x16
 1013 054f 0C       		.uleb128 0xc
 1014 0550 53523200 		.ascii	"SR2\000"
 1015 0554 09       		.byte	0x9
 1016 0555 2104     		.2byte	0x421
 1017 0557 37040000 		.4byte	0x437
 1018 055b 02       		.byte	0x2
 1019 055c 23       		.byte	0x23
 1020 055d 18       		.uleb128 0x18
 1021 055e 12       		.uleb128 0x12
 1022 055f 96030000 		.4byte	.LASF74
ARM GAS  /tmp/ccnq6xNA.s 			page 19


 1023 0563 09       		.byte	0x9
 1024 0564 2204     		.2byte	0x422
 1025 0566 6D000000 		.4byte	0x6d
 1026 056a 02       		.byte	0x2
 1027 056b 23       		.byte	0x23
 1028 056c 1A       		.uleb128 0x1a
 1029 056d 0C       		.uleb128 0xc
 1030 056e 43435200 		.ascii	"CCR\000"
 1031 0572 09       		.byte	0x9
 1032 0573 2304     		.2byte	0x423
 1033 0575 37040000 		.4byte	0x437
 1034 0579 02       		.byte	0x2
 1035 057a 23       		.byte	0x23
 1036 057b 1C       		.uleb128 0x1c
 1037 057c 12       		.uleb128 0x12
 1038 057d A0030000 		.4byte	.LASF75
 1039 0581 09       		.byte	0x9
 1040 0582 2404     		.2byte	0x424
 1041 0584 6D000000 		.4byte	0x6d
 1042 0588 02       		.byte	0x2
 1043 0589 23       		.byte	0x23
 1044 058a 1E       		.uleb128 0x1e
 1045 058b 12       		.uleb128 0x12
 1046 058c 46000000 		.4byte	.LASF76
 1047 0590 09       		.byte	0x9
 1048 0591 2504     		.2byte	0x425
 1049 0593 37040000 		.4byte	0x437
 1050 0597 02       		.byte	0x2
 1051 0598 23       		.byte	0x23
 1052 0599 20       		.uleb128 0x20
 1053 059a 12       		.uleb128 0x12
 1054 059b AA030000 		.4byte	.LASF77
 1055 059f 09       		.byte	0x9
 1056 05a0 2604     		.2byte	0x426
 1057 05a2 6D000000 		.4byte	0x6d
 1058 05a6 02       		.byte	0x2
 1059 05a7 23       		.byte	0x23
 1060 05a8 22       		.uleb128 0x22
 1061 05a9 00       		.byte	0
 1062 05aa 13       		.uleb128 0x13
 1063 05ab 48050000 		.4byte	.LASF78
 1064 05af 09       		.byte	0x9
 1065 05b0 2704     		.2byte	0x427
 1066 05b2 93040000 		.4byte	0x493
 1067 05b6 08       		.uleb128 0x8
 1068 05b7 0C       		.byte	0xc
 1069 05b8 0A       		.byte	0xa
 1070 05b9 C1       		.byte	0xc1
 1071 05ba 05060000 		.4byte	0x605
 1072 05be 06       		.uleb128 0x6
 1073 05bf 53040000 		.4byte	.LASF79
 1074 05c3 0A       		.byte	0xa
 1075 05c4 C2       		.byte	0xc2
 1076 05c5 05060000 		.4byte	0x605
 1077 05c9 02       		.byte	0x2
 1078 05ca 23       		.byte	0x23
 1079 05cb 00       		.uleb128 0
ARM GAS  /tmp/ccnq6xNA.s 			page 20


 1080 05cc 06       		.uleb128 0x6
 1081 05cd 7A040000 		.4byte	.LASF80
 1082 05d1 0A       		.byte	0xa
 1083 05d2 C3       		.byte	0xc3
 1084 05d3 0B060000 		.4byte	0x60b
 1085 05d7 02       		.byte	0x2
 1086 05d8 23       		.byte	0x23
 1087 05d9 04       		.uleb128 0x4
 1088 05da 06       		.uleb128 0x6
 1089 05db F4010000 		.4byte	.LASF81
 1090 05df 0A       		.byte	0xa
 1091 05e0 C4       		.byte	0xc4
 1092 05e1 49000000 		.4byte	0x49
 1093 05e5 02       		.byte	0x2
 1094 05e6 23       		.byte	0x23
 1095 05e7 08       		.uleb128 0x8
 1096 05e8 06       		.uleb128 0x6
 1097 05e9 8E010000 		.4byte	.LASF82
 1098 05ed 0A       		.byte	0xa
 1099 05ee C6       		.byte	0xc6
 1100 05ef 49000000 		.4byte	0x49
 1101 05f3 02       		.byte	0x2
 1102 05f4 23       		.byte	0x23
 1103 05f5 09       		.uleb128 0x9
 1104 05f6 06       		.uleb128 0x6
 1105 05f7 7B000000 		.4byte	.LASF83
 1106 05fb 0A       		.byte	0xa
 1107 05fc C7       		.byte	0xc7
 1108 05fd 49000000 		.4byte	0x49
 1109 0601 02       		.byte	0x2
 1110 0602 23       		.byte	0x23
 1111 0603 0A       		.uleb128 0xa
 1112 0604 00       		.byte	0
 1113 0605 09       		.uleb128 0x9
 1114 0606 04       		.byte	0x4
 1115 0607 87040000 		.4byte	0x487
 1116 060b 09       		.uleb128 0x9
 1117 060c 04       		.byte	0x4
 1118 060d 7A030000 		.4byte	0x37a
 1119 0611 03       		.uleb128 0x3
 1120 0612 F7030000 		.4byte	.LASF84
 1121 0616 0A       		.byte	0xa
 1122 0617 C8       		.byte	0xc8
 1123 0618 B6050000 		.4byte	0x5b6
 1124 061c 14       		.uleb128 0x14
 1125 061d 01       		.byte	0x1
 1126 061e 0B       		.byte	0xb
 1127 061f 5A       		.byte	0x5a
 1128 0620 49060000 		.4byte	0x649
 1129 0624 15       		.uleb128 0x15
 1130 0625 05010000 		.4byte	.LASF85
 1131 0629 00       		.sleb128 0
 1132 062a 15       		.uleb128 0x15
 1133 062b EC020000 		.4byte	.LASF86
 1134 062f 01       		.sleb128 1
 1135 0630 15       		.uleb128 0x15
 1136 0631 E9040000 		.4byte	.LASF87
ARM GAS  /tmp/ccnq6xNA.s 			page 21


 1137 0635 02       		.sleb128 2
 1138 0636 15       		.uleb128 0x15
 1139 0637 BC030000 		.4byte	.LASF88
 1140 063b 03       		.sleb128 3
 1141 063c 15       		.uleb128 0x15
 1142 063d 99040000 		.4byte	.LASF89
 1143 0641 04       		.sleb128 4
 1144 0642 15       		.uleb128 0x15
 1145 0643 5B040000 		.4byte	.LASF90
 1146 0647 05       		.sleb128 5
 1147 0648 00       		.byte	0
 1148 0649 03       		.uleb128 0x3
 1149 064a 24000000 		.4byte	.LASF91
 1150 064e 0B       		.byte	0xb
 1151 064f 61       		.byte	0x61
 1152 0650 1C060000 		.4byte	0x61c
 1153 0654 13       		.uleb128 0x13
 1154 0655 10010000 		.4byte	.LASF92
 1155 0659 0C       		.byte	0xc
 1156 065a 3501     		.2byte	0x135
 1157 065c 6D000000 		.4byte	0x6d
 1158 0660 13       		.uleb128 0x13
 1159 0661 CA030000 		.4byte	.LASF93
 1160 0665 0C       		.byte	0xc
 1161 0666 3A01     		.2byte	0x13a
 1162 0668 91000000 		.4byte	0x91
 1163 066c 16       		.uleb128 0x16
 1164 066d 01       		.byte	0x1
 1165 066e 0C       		.byte	0xc
 1166 066f 3F01     		.2byte	0x13f
 1167 0671 88060000 		.4byte	0x688
 1168 0675 15       		.uleb128 0x15
 1169 0676 35030000 		.4byte	.LASF94
 1170 067a 01       		.sleb128 1
 1171 067b 15       		.uleb128 0x15
 1172 067c FB010000 		.4byte	.LASF95
 1173 0680 02       		.sleb128 2
 1174 0681 15       		.uleb128 0x15
 1175 0682 73010000 		.4byte	.LASF96
 1176 0686 03       		.sleb128 3
 1177 0687 00       		.byte	0
 1178 0688 13       		.uleb128 0x13
 1179 0689 54050000 		.4byte	.LASF97
 1180 068d 0C       		.byte	0xc
 1181 068e 4301     		.2byte	0x143
 1182 0690 6C060000 		.4byte	0x66c
 1183 0694 16       		.uleb128 0x16
 1184 0695 01       		.byte	0x1
 1185 0696 0C       		.byte	0xc
 1186 0697 4801     		.2byte	0x148
 1187 0699 B0060000 		.4byte	0x6b0
 1188 069d 15       		.uleb128 0x15
 1189 069e 00000000 		.4byte	.LASF98
 1190 06a2 01       		.sleb128 1
 1191 06a3 15       		.uleb128 0x15
 1192 06a4 41040000 		.4byte	.LASF99
 1193 06a8 02       		.sleb128 2
ARM GAS  /tmp/ccnq6xNA.s 			page 22


 1194 06a9 15       		.uleb128 0x15
 1195 06aa 40030000 		.4byte	.LASF100
 1196 06ae 03       		.sleb128 3
 1197 06af 00       		.byte	0
 1198 06b0 13       		.uleb128 0x13
 1199 06b1 15000000 		.4byte	.LASF101
 1200 06b5 0C       		.byte	0xc
 1201 06b6 4C01     		.2byte	0x14c
 1202 06b8 94060000 		.4byte	0x694
 1203 06bc 11       		.uleb128 0x11
 1204 06bd 0C       		.byte	0xc
 1205 06be 0C       		.byte	0xc
 1206 06bf 5101     		.2byte	0x151
 1207 06c1 F3060000 		.4byte	0x6f3
 1208 06c5 12       		.uleb128 0x12
 1209 06c6 98010000 		.4byte	.LASF102
 1210 06ca 0C       		.byte	0xc
 1211 06cb 5201     		.2byte	0x152
 1212 06cd 88060000 		.4byte	0x688
 1213 06d1 02       		.byte	0x2
 1214 06d2 23       		.byte	0x23
 1215 06d3 00       		.uleb128 0
 1216 06d4 12       		.uleb128 0x12
 1217 06d5 DF000000 		.4byte	.LASF103
 1218 06d9 0C       		.byte	0xc
 1219 06da 5301     		.2byte	0x153
 1220 06dc 91000000 		.4byte	0x91
 1221 06e0 02       		.byte	0x2
 1222 06e1 23       		.byte	0x23
 1223 06e2 04       		.uleb128 0x4
 1224 06e3 12       		.uleb128 0x12
 1225 06e4 0B030000 		.4byte	.LASF104
 1226 06e8 0C       		.byte	0xc
 1227 06e9 5601     		.2byte	0x156
 1228 06eb B0060000 		.4byte	0x6b0
 1229 06ef 02       		.byte	0x2
 1230 06f0 23       		.byte	0x23
 1231 06f1 08       		.uleb128 0x8
 1232 06f2 00       		.byte	0
 1233 06f3 13       		.uleb128 0x13
 1234 06f4 4A010000 		.4byte	.LASF105
 1235 06f8 0C       		.byte	0xc
 1236 06f9 5801     		.2byte	0x158
 1237 06fb BC060000 		.4byte	0x6bc
 1238 06ff 13       		.uleb128 0x13
 1239 0700 22020000 		.4byte	.LASF106
 1240 0704 0C       		.byte	0xc
 1241 0705 5D01     		.2byte	0x15d
 1242 0707 0B070000 		.4byte	0x70b
 1243 070b 0B       		.uleb128 0xb
 1244 070c 22020000 		.4byte	.LASF106
 1245 0710 38       		.byte	0x38
 1246 0711 0C       		.byte	0xc
 1247 0712 6201     		.2byte	0x162
 1248 0714 BE070000 		.4byte	0x7be
 1249 0718 12       		.uleb128 0x12
 1250 0719 1A010000 		.4byte	.LASF107
ARM GAS  /tmp/ccnq6xNA.s 			page 23


 1251 071d 0C       		.byte	0xc
 1252 071e 6601     		.2byte	0x166
 1253 0720 49060000 		.4byte	0x649
 1254 0724 02       		.byte	0x2
 1255 0725 23       		.byte	0x23
 1256 0726 00       		.uleb128 0
 1257 0727 12       		.uleb128 0x12
 1258 0728 BE040000 		.4byte	.LASF108
 1259 072c 0C       		.byte	0xc
 1260 072d 6A01     		.2byte	0x16a
 1261 072f BE070000 		.4byte	0x7be
 1262 0733 02       		.byte	0x2
 1263 0734 23       		.byte	0x23
 1264 0735 04       		.uleb128 0x4
 1265 0736 12       		.uleb128 0x12
 1266 0737 04030000 		.4byte	.LASF109
 1267 073b 0C       		.byte	0xc
 1268 073c 6E01     		.2byte	0x16e
 1269 073e 60060000 		.4byte	0x660
 1270 0742 02       		.byte	0x2
 1271 0743 23       		.byte	0x23
 1272 0744 08       		.uleb128 0x8
 1273 0745 12       		.uleb128 0x12
 1274 0746 D5030000 		.4byte	.LASF110
 1275 074a 0C       		.byte	0xc
 1276 074b 7401     		.2byte	0x174
 1277 074d C8030000 		.4byte	0x3c8
 1278 0751 02       		.byte	0x2
 1279 0752 23       		.byte	0x23
 1280 0753 0C       		.uleb128 0xc
 1281 0754 12       		.uleb128 0x12
 1282 0755 32010000 		.4byte	.LASF111
 1283 0759 0C       		.byte	0xc
 1284 075a 8001     		.2byte	0x180
 1285 075c 7E020000 		.4byte	0x27e
 1286 0760 02       		.byte	0x2
 1287 0761 23       		.byte	0x23
 1288 0762 1C       		.uleb128 0x1c
 1289 0763 12       		.uleb128 0x12
 1290 0764 63000000 		.4byte	.LASF112
 1291 0768 0C       		.byte	0xc
 1292 0769 8401     		.2byte	0x184
 1293 076b 54060000 		.4byte	0x654
 1294 076f 02       		.byte	0x2
 1295 0770 23       		.byte	0x23
 1296 0771 20       		.uleb128 0x20
 1297 0772 12       		.uleb128 0x12
 1298 0773 63010000 		.4byte	.LASF113
 1299 0777 0C       		.byte	0xc
 1300 0778 8801     		.2byte	0x188
 1301 077a 91000000 		.4byte	0x91
 1302 077e 02       		.byte	0x2
 1303 077f 23       		.byte	0x23
 1304 0780 24       		.uleb128 0x24
 1305 0781 12       		.uleb128 0x12
 1306 0782 2B030000 		.4byte	.LASF114
 1307 0786 0C       		.byte	0xc
ARM GAS  /tmp/ccnq6xNA.s 			page 24


 1308 0787 8C01     		.2byte	0x18c
 1309 0789 91000000 		.4byte	0x91
 1310 078d 02       		.byte	0x2
 1311 078e 23       		.byte	0x23
 1312 078f 28       		.uleb128 0x28
 1313 0790 12       		.uleb128 0x12
 1314 0791 0F000000 		.4byte	.LASF115
 1315 0795 0C       		.byte	0xc
 1316 0796 9001     		.2byte	0x190
 1317 0798 C9070000 		.4byte	0x7c9
 1318 079c 02       		.byte	0x2
 1319 079d 23       		.byte	0x23
 1320 079e 2C       		.uleb128 0x2c
 1321 079f 12       		.uleb128 0x12
 1322 07a0 6D010000 		.4byte	.LASF116
 1323 07a4 0C       		.byte	0xc
 1324 07a5 9401     		.2byte	0x194
 1325 07a7 C9070000 		.4byte	0x7c9
 1326 07ab 02       		.byte	0x2
 1327 07ac 23       		.byte	0x23
 1328 07ad 30       		.uleb128 0x30
 1329 07ae 0C       		.uleb128 0xc
 1330 07af 69326300 		.ascii	"i2c\000"
 1331 07b3 0C       		.byte	0xc
 1332 07b4 9801     		.2byte	0x198
 1333 07b6 D4070000 		.4byte	0x7d4
 1334 07ba 02       		.byte	0x2
 1335 07bb 23       		.byte	0x23
 1336 07bc 34       		.uleb128 0x34
 1337 07bd 00       		.byte	0
 1338 07be 09       		.uleb128 0x9
 1339 07bf 04       		.byte	0x4
 1340 07c0 C4070000 		.4byte	0x7c4
 1341 07c4 10       		.uleb128 0x10
 1342 07c5 F3060000 		.4byte	0x6f3
 1343 07c9 09       		.uleb128 0x9
 1344 07ca 04       		.byte	0x4
 1345 07cb CF070000 		.4byte	0x7cf
 1346 07cf 10       		.uleb128 0x10
 1347 07d0 11060000 		.4byte	0x611
 1348 07d4 09       		.uleb128 0x9
 1349 07d5 04       		.byte	0x4
 1350 07d6 AA050000 		.4byte	0x5aa
 1351 07da 17       		.uleb128 0x17
 1352 07db 01       		.byte	0x1
 1353 07dc C5040000 		.4byte	.LASF120
 1354 07e0 01       		.byte	0x1
 1355 07e1 08       		.byte	0x8
 1356 07e2 01       		.byte	0x1
 1357 07e3 00000000 		.4byte	.LFB63
 1358 07e7 B4000000 		.4byte	.LFE63
 1359 07eb 00000000 		.4byte	.LLST0
 1360 07ef 01       		.byte	0x1
 1361 07f0 E3090000 		.4byte	0x9e3
 1362 07f4 18       		.uleb128 0x18
 1363 07f5 3B050000 		.4byte	.LASF117
 1364 07f9 01       		.byte	0x1
ARM GAS  /tmp/ccnq6xNA.s 			page 25


 1365 07fa 08       		.byte	0x8
 1366 07fb E3090000 		.4byte	0x9e3
 1367 07ff 2C000000 		.4byte	.LLST1
 1368 0803 18       		.uleb128 0x18
 1369 0804 63000000 		.4byte	.LASF112
 1370 0808 01       		.byte	0x1
 1371 0809 08       		.byte	0x8
 1372 080a 49000000 		.4byte	0x49
 1373 080e 4A000000 		.4byte	.LLST2
 1374 0812 19       		.uleb128 0x19
 1375 0813 60050000 		.4byte	.LASF118
 1376 0817 01       		.byte	0x1
 1377 0818 0A       		.byte	0xa
 1378 0819 E9090000 		.4byte	0x9e9
 1379 081d 02       		.byte	0x2
 1380 081e 91       		.byte	0x91
 1381 081f 60       		.sleb128 -32
 1382 0820 1A       		.uleb128 0x1a
 1383 0821 6D736700 		.ascii	"msg\000"
 1384 0825 01       		.byte	0x1
 1385 0826 0B       		.byte	0xb
 1386 0827 FA000000 		.4byte	0xfa
 1387 082b 6B000000 		.4byte	.LLST3
 1388 082f 1B       		.uleb128 0x1b
 1389 0830 9A000000 		.4byte	.LBB2
 1390 0834 A0000000 		.4byte	.LBE2
 1391 0838 60080000 		.4byte	0x860
 1392 083c 1C       		.uleb128 0x1c
 1393 083d 01       		.byte	0x1
 1394 083e 68000000 		.4byte	.LASF119
 1395 0842 01       		.byte	0x1
 1396 0843 13       		.byte	0x13
 1397 0844 29000000 		.4byte	0x29
 1398 0848 01       		.byte	0x1
 1399 0849 4F080000 		.4byte	0x84f
 1400 084d 1D       		.uleb128 0x1d
 1401 084e 00       		.byte	0
 1402 084f 1E       		.uleb128 0x1e
 1403 0850 A0000000 		.4byte	.LVL17
 1404 0854 3A0B0000 		.4byte	0xb3a
 1405 0858 1F       		.uleb128 0x1f
 1406 0859 01       		.byte	0x1
 1407 085a 50       		.byte	0x50
 1408 085b 02       		.byte	0x2
 1409 085c 74       		.byte	0x74
 1410 085d 00       		.sleb128 0
 1411 085e 00       		.byte	0
 1412 085f 00       		.byte	0
 1413 0860 1B       		.uleb128 0x1b
 1414 0861 A4000000 		.4byte	.LBB3
 1415 0865 AC000000 		.4byte	.LBE3
 1416 0869 91080000 		.4byte	0x891
 1417 086d 1C       		.uleb128 0x1c
 1418 086e 01       		.byte	0x1
 1419 086f 68000000 		.4byte	.LASF119
 1420 0873 01       		.byte	0x1
 1421 0874 13       		.byte	0x13
ARM GAS  /tmp/ccnq6xNA.s 			page 26


 1422 0875 29000000 		.4byte	0x29
 1423 0879 01       		.byte	0x1
 1424 087a 80080000 		.4byte	0x880
 1425 087e 1D       		.uleb128 0x1d
 1426 087f 00       		.byte	0
 1427 0880 1E       		.uleb128 0x1e
 1428 0881 AA000000 		.4byte	.LVL19
 1429 0885 3A0B0000 		.4byte	0xb3a
 1430 0889 1F       		.uleb128 0x1f
 1431 088a 01       		.byte	0x1
 1432 088b 50       		.byte	0x50
 1433 088c 02       		.byte	0x2
 1434 088d 74       		.byte	0x74
 1435 088e 00       		.sleb128 0
 1436 088f 00       		.byte	0
 1437 0890 00       		.byte	0
 1438 0891 1B       		.uleb128 0x1b
 1439 0892 AC000000 		.4byte	.LBB4
 1440 0896 B4000000 		.4byte	.LBE4
 1441 089a C2080000 		.4byte	0x8c2
 1442 089e 1C       		.uleb128 0x1c
 1443 089f 01       		.byte	0x1
 1444 08a0 68000000 		.4byte	.LASF119
 1445 08a4 01       		.byte	0x1
 1446 08a5 13       		.byte	0x13
 1447 08a6 29000000 		.4byte	0x29
 1448 08aa 01       		.byte	0x1
 1449 08ab B1080000 		.4byte	0x8b1
 1450 08af 1D       		.uleb128 0x1d
 1451 08b0 00       		.byte	0
 1452 08b1 1E       		.uleb128 0x1e
 1453 08b2 B2000000 		.4byte	.LVL20
 1454 08b6 3A0B0000 		.4byte	0xb3a
 1455 08ba 1F       		.uleb128 0x1f
 1456 08bb 01       		.byte	0x1
 1457 08bc 50       		.byte	0x50
 1458 08bd 02       		.byte	0x2
 1459 08be 74       		.byte	0x74
 1460 08bf 00       		.sleb128 0
 1461 08c0 00       		.byte	0
 1462 08c1 00       		.byte	0
 1463 08c2 20       		.uleb128 0x20
 1464 08c3 18000000 		.4byte	.LVL1
 1465 08c7 4D0B0000 		.4byte	0xb4d
 1466 08cb D6080000 		.4byte	0x8d6
 1467 08cf 1F       		.uleb128 0x1f
 1468 08d0 01       		.byte	0x1
 1469 08d1 50       		.byte	0x50
 1470 08d2 02       		.byte	0x2
 1471 08d3 74       		.byte	0x74
 1472 08d4 00       		.sleb128 0
 1473 08d5 00       		.byte	0
 1474 08d6 20       		.uleb128 0x20
 1475 08d7 2C000000 		.4byte	.LVL2
 1476 08db 610B0000 		.4byte	0xb61
 1477 08df 0F090000 		.4byte	0x90f
 1478 08e3 1F       		.uleb128 0x1f
ARM GAS  /tmp/ccnq6xNA.s 			page 27


 1479 08e4 01       		.byte	0x1
 1480 08e5 53       		.byte	0x53
 1481 08e6 01       		.byte	0x1
 1482 08e7 32       		.byte	0x32
 1483 08e8 1F       		.uleb128 0x1f
 1484 08e9 01       		.byte	0x1
 1485 08ea 52       		.byte	0x52
 1486 08eb 02       		.byte	0x2
 1487 08ec 91       		.byte	0x91
 1488 08ed 60       		.sleb128 -32
 1489 08ee 1F       		.uleb128 0x1f
 1490 08ef 01       		.byte	0x1
 1491 08f0 51       		.byte	0x51
 1492 08f1 02       		.byte	0x2
 1493 08f2 75       		.byte	0x75
 1494 08f3 00       		.sleb128 0
 1495 08f4 1F       		.uleb128 0x1f
 1496 08f5 01       		.byte	0x1
 1497 08f6 50       		.byte	0x50
 1498 08f7 02       		.byte	0x2
 1499 08f8 74       		.byte	0x74
 1500 08f9 00       		.sleb128 0
 1501 08fa 1F       		.uleb128 0x1f
 1502 08fb 02       		.byte	0x2
 1503 08fc 7D       		.byte	0x7d
 1504 08fd 08       		.sleb128 8
 1505 08fe 01       		.byte	0x1
 1506 08ff 34       		.byte	0x34
 1507 0900 1F       		.uleb128 0x1f
 1508 0901 02       		.byte	0x2
 1509 0902 7D       		.byte	0x7d
 1510 0903 04       		.sleb128 4
 1511 0904 02       		.byte	0x2
 1512 0905 76       		.byte	0x76
 1513 0906 00       		.sleb128 0
 1514 0907 1F       		.uleb128 0x1f
 1515 0908 02       		.byte	0x2
 1516 0909 7D       		.byte	0x7d
 1517 090a 00       		.sleb128 0
 1518 090b 02       		.byte	0x2
 1519 090c 76       		.byte	0x76
 1520 090d 00       		.sleb128 0
 1521 090e 00       		.byte	0
 1522 090f 20       		.uleb128 0x20
 1523 0910 34000000 		.4byte	.LVL5
 1524 0914 970B0000 		.4byte	0xb97
 1525 0918 23090000 		.4byte	0x923
 1526 091c 1F       		.uleb128 0x1f
 1527 091d 01       		.byte	0x1
 1528 091e 50       		.byte	0x50
 1529 091f 02       		.byte	0x2
 1530 0920 74       		.byte	0x74
 1531 0921 00       		.sleb128 0
 1532 0922 00       		.byte	0
 1533 0923 20       		.uleb128 0x20
 1534 0924 4C000000 		.4byte	.LVL6
 1535 0928 4D0B0000 		.4byte	0xb4d
ARM GAS  /tmp/ccnq6xNA.s 			page 28


 1536 092c 37090000 		.4byte	0x937
 1537 0930 1F       		.uleb128 0x1f
 1538 0931 01       		.byte	0x1
 1539 0932 50       		.byte	0x50
 1540 0933 02       		.byte	0x2
 1541 0934 74       		.byte	0x74
 1542 0935 00       		.sleb128 0
 1543 0936 00       		.byte	0
 1544 0937 20       		.uleb128 0x20
 1545 0938 60000000 		.4byte	.LVL7
 1546 093c 610B0000 		.4byte	0xb61
 1547 0940 70090000 		.4byte	0x970
 1548 0944 1F       		.uleb128 0x1f
 1549 0945 01       		.byte	0x1
 1550 0946 53       		.byte	0x53
 1551 0947 01       		.byte	0x1
 1552 0948 32       		.byte	0x32
 1553 0949 1F       		.uleb128 0x1f
 1554 094a 01       		.byte	0x1
 1555 094b 52       		.byte	0x52
 1556 094c 02       		.byte	0x2
 1557 094d 91       		.byte	0x91
 1558 094e 60       		.sleb128 -32
 1559 094f 1F       		.uleb128 0x1f
 1560 0950 01       		.byte	0x1
 1561 0951 51       		.byte	0x51
 1562 0952 02       		.byte	0x2
 1563 0953 75       		.byte	0x75
 1564 0954 00       		.sleb128 0
 1565 0955 1F       		.uleb128 0x1f
 1566 0956 01       		.byte	0x1
 1567 0957 50       		.byte	0x50
 1568 0958 02       		.byte	0x2
 1569 0959 74       		.byte	0x74
 1570 095a 00       		.sleb128 0
 1571 095b 1F       		.uleb128 0x1f
 1572 095c 02       		.byte	0x2
 1573 095d 7D       		.byte	0x7d
 1574 095e 08       		.sleb128 8
 1575 095f 01       		.byte	0x1
 1576 0960 34       		.byte	0x34
 1577 0961 1F       		.uleb128 0x1f
 1578 0962 02       		.byte	0x2
 1579 0963 7D       		.byte	0x7d
 1580 0964 04       		.sleb128 4
 1581 0965 02       		.byte	0x2
 1582 0966 76       		.byte	0x76
 1583 0967 00       		.sleb128 0
 1584 0968 1F       		.uleb128 0x1f
 1585 0969 02       		.byte	0x2
 1586 096a 7D       		.byte	0x7d
 1587 096b 00       		.sleb128 0
 1588 096c 02       		.byte	0x2
 1589 096d 76       		.byte	0x76
 1590 096e 00       		.sleb128 0
 1591 096f 00       		.byte	0
 1592 0970 20       		.uleb128 0x20
ARM GAS  /tmp/ccnq6xNA.s 			page 29


 1593 0971 68000000 		.4byte	.LVL10
 1594 0975 970B0000 		.4byte	0xb97
 1595 0979 84090000 		.4byte	0x984
 1596 097d 1F       		.uleb128 0x1f
 1597 097e 01       		.byte	0x1
 1598 097f 50       		.byte	0x50
 1599 0980 02       		.byte	0x2
 1600 0981 74       		.byte	0x74
 1601 0982 00       		.sleb128 0
 1602 0983 00       		.byte	0
 1603 0984 20       		.uleb128 0x20
 1604 0985 7C000000 		.4byte	.LVL12
 1605 0989 4D0B0000 		.4byte	0xb4d
 1606 098d 98090000 		.4byte	0x998
 1607 0991 1F       		.uleb128 0x1f
 1608 0992 01       		.byte	0x1
 1609 0993 50       		.byte	0x50
 1610 0994 02       		.byte	0x2
 1611 0995 74       		.byte	0x74
 1612 0996 00       		.sleb128 0
 1613 0997 00       		.byte	0
 1614 0998 20       		.uleb128 0x20
 1615 0999 90000000 		.4byte	.LVL13
 1616 099d 610B0000 		.4byte	0xb61
 1617 09a1 D2090000 		.4byte	0x9d2
 1618 09a5 1F       		.uleb128 0x1f
 1619 09a6 01       		.byte	0x1
 1620 09a7 53       		.byte	0x53
 1621 09a8 02       		.byte	0x2
 1622 09a9 77       		.byte	0x77
 1623 09aa 00       		.sleb128 0
 1624 09ab 1F       		.uleb128 0x1f
 1625 09ac 01       		.byte	0x1
 1626 09ad 52       		.byte	0x52
 1627 09ae 02       		.byte	0x2
 1628 09af 91       		.byte	0x91
 1629 09b0 60       		.sleb128 -32
 1630 09b1 1F       		.uleb128 0x1f
 1631 09b2 01       		.byte	0x1
 1632 09b3 51       		.byte	0x51
 1633 09b4 02       		.byte	0x2
 1634 09b5 75       		.byte	0x75
 1635 09b6 00       		.sleb128 0
 1636 09b7 1F       		.uleb128 0x1f
 1637 09b8 01       		.byte	0x1
 1638 09b9 50       		.byte	0x50
 1639 09ba 02       		.byte	0x2
 1640 09bb 74       		.byte	0x74
 1641 09bc 00       		.sleb128 0
 1642 09bd 1F       		.uleb128 0x1f
 1643 09be 02       		.byte	0x2
 1644 09bf 7D       		.byte	0x7d
 1645 09c0 08       		.sleb128 8
 1646 09c1 01       		.byte	0x1
 1647 09c2 34       		.byte	0x34
 1648 09c3 1F       		.uleb128 0x1f
 1649 09c4 02       		.byte	0x2
ARM GAS  /tmp/ccnq6xNA.s 			page 30


 1650 09c5 7D       		.byte	0x7d
 1651 09c6 04       		.sleb128 4
 1652 09c7 02       		.byte	0x2
 1653 09c8 76       		.byte	0x76
 1654 09c9 00       		.sleb128 0
 1655 09ca 1F       		.uleb128 0x1f
 1656 09cb 02       		.byte	0x2
 1657 09cc 7D       		.byte	0x7d
 1658 09cd 00       		.sleb128 0
 1659 09ce 02       		.byte	0x2
 1660 09cf 76       		.byte	0x76
 1661 09d0 00       		.sleb128 0
 1662 09d1 00       		.byte	0
 1663 09d2 1E       		.uleb128 0x1e
 1664 09d3 98000000 		.4byte	.LVL16
 1665 09d7 970B0000 		.4byte	0xb97
 1666 09db 1F       		.uleb128 0x1f
 1667 09dc 01       		.byte	0x1
 1668 09dd 50       		.byte	0x50
 1669 09de 02       		.byte	0x2
 1670 09df 74       		.byte	0x74
 1671 09e0 00       		.sleb128 0
 1672 09e1 00       		.byte	0
 1673 09e2 00       		.byte	0
 1674 09e3 09       		.uleb128 0x9
 1675 09e4 04       		.byte	0x4
 1676 09e5 FF060000 		.4byte	0x6ff
 1677 09e9 21       		.uleb128 0x21
 1678 09ea 49000000 		.4byte	0x49
 1679 09ee F9090000 		.4byte	0x9f9
 1680 09f2 22       		.uleb128 0x22
 1681 09f3 7F030000 		.4byte	0x37f
 1682 09f7 07       		.byte	0x7
 1683 09f8 00       		.byte	0
 1684 09f9 17       		.uleb128 0x17
 1685 09fa 01       		.byte	0x1
 1686 09fb C8010000 		.4byte	.LASF121
 1687 09ff 01       		.byte	0x1
 1688 0a00 29       		.byte	0x29
 1689 0a01 01       		.byte	0x1
 1690 0a02 00000000 		.4byte	.LFB64
 1691 0a06 74000000 		.4byte	.LFE64
 1692 0a0a C0000000 		.4byte	.LLST4
 1693 0a0e 01       		.byte	0x1
 1694 0a0f 160B0000 		.4byte	0xb16
 1695 0a13 18       		.uleb128 0x18
 1696 0a14 3B050000 		.4byte	.LASF117
 1697 0a18 01       		.byte	0x1
 1698 0a19 29       		.byte	0x29
 1699 0a1a E3090000 		.4byte	0x9e3
 1700 0a1e EC000000 		.4byte	.LLST5
 1701 0a22 18       		.uleb128 0x18
 1702 0a23 63000000 		.4byte	.LASF112
 1703 0a27 01       		.byte	0x1
 1704 0a28 29       		.byte	0x29
 1705 0a29 49000000 		.4byte	0x49
 1706 0a2d 18010000 		.4byte	.LLST6
ARM GAS  /tmp/ccnq6xNA.s 			page 31


 1707 0a31 18       		.uleb128 0x18
 1708 0a32 12040000 		.4byte	.LASF122
 1709 0a36 01       		.byte	0x1
 1710 0a37 29       		.byte	0x29
 1711 0a38 160B0000 		.4byte	0xb16
 1712 0a3c 39010000 		.4byte	.LLST7
 1713 0a40 18       		.uleb128 0x18
 1714 0a41 17040000 		.4byte	.LASF123
 1715 0a45 01       		.byte	0x1
 1716 0a46 29       		.byte	0x29
 1717 0a47 160B0000 		.4byte	0xb16
 1718 0a4b 57010000 		.4byte	.LLST8
 1719 0a4f 23       		.uleb128 0x23
 1720 0a50 1C040000 		.4byte	.LASF124
 1721 0a54 01       		.byte	0x1
 1722 0a55 29       		.byte	0x29
 1723 0a56 160B0000 		.4byte	0xb16
 1724 0a5a 02       		.byte	0x2
 1725 0a5b 91       		.byte	0x91
 1726 0a5c 00       		.sleb128 0
 1727 0a5d 19       		.uleb128 0x19
 1728 0a5e 60050000 		.4byte	.LASF118
 1729 0a62 01       		.byte	0x1
 1730 0a63 2B       		.byte	0x2b
 1731 0a64 E9090000 		.4byte	0x9e9
 1732 0a68 02       		.byte	0x2
 1733 0a69 91       		.byte	0x91
 1734 0a6a 60       		.sleb128 -32
 1735 0a6b 19       		.uleb128 0x19
 1736 0a6c 92040000 		.4byte	.LASF125
 1737 0a70 01       		.byte	0x1
 1738 0a71 2C       		.byte	0x2c
 1739 0a72 1C0B0000 		.4byte	0xb1c
 1740 0a76 02       		.byte	0x2
 1741 0a77 91       		.byte	0x91
 1742 0a78 58       		.sleb128 -40
 1743 0a79 1A       		.uleb128 0x1a
 1744 0a7a 6D736700 		.ascii	"msg\000"
 1745 0a7e 01       		.byte	0x1
 1746 0a7f 2D       		.byte	0x2d
 1747 0a80 FA000000 		.4byte	0xfa
 1748 0a84 75010000 		.4byte	.LLST9
 1749 0a88 1B       		.uleb128 0x1b
 1750 0a89 3C000000 		.4byte	.LBB5
 1751 0a8d 42000000 		.4byte	.LBE5
 1752 0a91 B90A0000 		.4byte	0xab9
 1753 0a95 1C       		.uleb128 0x1c
 1754 0a96 01       		.byte	0x1
 1755 0a97 68000000 		.4byte	.LASF119
 1756 0a9b 01       		.byte	0x1
 1757 0a9c 13       		.byte	0x13
 1758 0a9d 29000000 		.4byte	0x29
 1759 0aa1 01       		.byte	0x1
 1760 0aa2 A80A0000 		.4byte	0xaa8
 1761 0aa6 1D       		.uleb128 0x1d
 1762 0aa7 00       		.byte	0
 1763 0aa8 1E       		.uleb128 0x1e
ARM GAS  /tmp/ccnq6xNA.s 			page 32


 1764 0aa9 42000000 		.4byte	.LVL28
 1765 0aad 3A0B0000 		.4byte	0xb3a
 1766 0ab1 1F       		.uleb128 0x1f
 1767 0ab2 01       		.byte	0x1
 1768 0ab3 50       		.byte	0x50
 1769 0ab4 02       		.byte	0x2
 1770 0ab5 75       		.byte	0x75
 1771 0ab6 00       		.sleb128 0
 1772 0ab7 00       		.byte	0
 1773 0ab8 00       		.byte	0
 1774 0ab9 20       		.uleb128 0x20
 1775 0aba 1A000000 		.4byte	.LVL23
 1776 0abe 4D0B0000 		.4byte	0xb4d
 1777 0ac2 CD0A0000 		.4byte	0xacd
 1778 0ac6 1F       		.uleb128 0x1f
 1779 0ac7 01       		.byte	0x1
 1780 0ac8 50       		.byte	0x50
 1781 0ac9 02       		.byte	0x2
 1782 0aca 75       		.byte	0x75
 1783 0acb 00       		.sleb128 0
 1784 0acc 00       		.byte	0
 1785 0acd 20       		.uleb128 0x20
 1786 0ace 32000000 		.4byte	.LVL24
 1787 0ad2 610B0000 		.4byte	0xb61
 1788 0ad6 050B0000 		.4byte	0xb05
 1789 0ada 1F       		.uleb128 0x1f
 1790 0adb 01       		.byte	0x1
 1791 0adc 53       		.byte	0x53
 1792 0add 01       		.byte	0x1
 1793 0ade 31       		.byte	0x31
 1794 0adf 1F       		.uleb128 0x1f
 1795 0ae0 01       		.byte	0x1
 1796 0ae1 52       		.byte	0x52
 1797 0ae2 02       		.byte	0x2
 1798 0ae3 74       		.byte	0x74
 1799 0ae4 00       		.sleb128 0
 1800 0ae5 1F       		.uleb128 0x1f
 1801 0ae6 01       		.byte	0x1
 1802 0ae7 51       		.byte	0x51
 1803 0ae8 02       		.byte	0x2
 1804 0ae9 78       		.byte	0x78
 1805 0aea 00       		.sleb128 0
 1806 0aeb 1F       		.uleb128 0x1f
 1807 0aec 01       		.byte	0x1
 1808 0aed 50       		.byte	0x50
 1809 0aee 02       		.byte	0x2
 1810 0aef 75       		.byte	0x75
 1811 0af0 00       		.sleb128 0
 1812 0af1 1F       		.uleb128 0x1f
 1813 0af2 02       		.byte	0x2
 1814 0af3 7D       		.byte	0x7d
 1815 0af4 08       		.sleb128 8
 1816 0af5 01       		.byte	0x1
 1817 0af6 34       		.byte	0x34
 1818 0af7 1F       		.uleb128 0x1f
 1819 0af8 02       		.byte	0x2
 1820 0af9 7D       		.byte	0x7d
ARM GAS  /tmp/ccnq6xNA.s 			page 33


 1821 0afa 04       		.sleb128 4
 1822 0afb 01       		.byte	0x1
 1823 0afc 36       		.byte	0x36
 1824 0afd 1F       		.uleb128 0x1f
 1825 0afe 02       		.byte	0x2
 1826 0aff 7D       		.byte	0x7d
 1827 0b00 00       		.sleb128 0
 1828 0b01 02       		.byte	0x2
 1829 0b02 91       		.byte	0x91
 1830 0b03 58       		.sleb128 -40
 1831 0b04 00       		.byte	0
 1832 0b05 1E       		.uleb128 0x1e
 1833 0b06 3A000000 		.4byte	.LVL27
 1834 0b0a 970B0000 		.4byte	0xb97
 1835 0b0e 1F       		.uleb128 0x1f
 1836 0b0f 01       		.byte	0x1
 1837 0b10 50       		.byte	0x50
 1838 0b11 02       		.byte	0x2
 1839 0b12 75       		.byte	0x75
 1840 0b13 00       		.sleb128 0
 1841 0b14 00       		.byte	0
 1842 0b15 00       		.byte	0
 1843 0b16 09       		.uleb128 0x9
 1844 0b17 04       		.byte	0x4
 1845 0b18 5B000000 		.4byte	0x5b
 1846 0b1c 21       		.uleb128 0x21
 1847 0b1d 49000000 		.4byte	0x49
 1848 0b21 2C0B0000 		.4byte	0xb2c
 1849 0b25 22       		.uleb128 0x22
 1850 0b26 7F030000 		.4byte	0x37f
 1851 0b2a 05       		.byte	0x5
 1852 0b2b 00       		.byte	0
 1853 0b2c 24       		.uleb128 0x24
 1854 0b2d 90000000 		.4byte	.LASF130
 1855 0b31 0D       		.byte	0xd
 1856 0b32 0706     		.2byte	0x607
 1857 0b34 3C040000 		.4byte	0x43c
 1858 0b38 01       		.byte	0x1
 1859 0b39 01       		.byte	0x1
 1860 0b3a 1C       		.uleb128 0x1c
 1861 0b3b 01       		.byte	0x1
 1862 0b3c 68000000 		.4byte	.LASF119
 1863 0b40 01       		.byte	0x1
 1864 0b41 13       		.byte	0x13
 1865 0b42 29000000 		.4byte	0x29
 1866 0b46 01       		.byte	0x1
 1867 0b47 4D0B0000 		.4byte	0xb4d
 1868 0b4b 1D       		.uleb128 0x1d
 1869 0b4c 00       		.byte	0
 1870 0b4d 25       		.uleb128 0x25
 1871 0b4e 01       		.byte	0x1
 1872 0b4f 02050000 		.4byte	.LASF126
 1873 0b53 0B       		.byte	0xb
 1874 0b54 8E       		.byte	0x8e
 1875 0b55 01       		.byte	0x1
 1876 0b56 01       		.byte	0x1
 1877 0b57 610B0000 		.4byte	0xb61
ARM GAS  /tmp/ccnq6xNA.s 			page 34


 1878 0b5b 26       		.uleb128 0x26
 1879 0b5c E3090000 		.4byte	0x9e3
 1880 0b60 00       		.byte	0
 1881 0b61 27       		.uleb128 0x27
 1882 0b62 01       		.byte	0x1
 1883 0b63 A4000000 		.4byte	.LASF131
 1884 0b67 0B       		.byte	0xb
 1885 0b68 84       		.byte	0x84
 1886 0b69 01       		.byte	0x1
 1887 0b6a FA000000 		.4byte	0xfa
 1888 0b6e 01       		.byte	0x1
 1889 0b6f 970B0000 		.4byte	0xb97
 1890 0b73 26       		.uleb128 0x26
 1891 0b74 E3090000 		.4byte	0x9e3
 1892 0b78 26       		.uleb128 0x26
 1893 0b79 54060000 		.4byte	0x654
 1894 0b7d 26       		.uleb128 0x26
 1895 0b7e 2C040000 		.4byte	0x42c
 1896 0b82 26       		.uleb128 0x26
 1897 0b83 30000000 		.4byte	0x30
 1898 0b87 26       		.uleb128 0x26
 1899 0b88 26040000 		.4byte	0x426
 1900 0b8c 26       		.uleb128 0x26
 1901 0b8d 30000000 		.4byte	0x30
 1902 0b91 26       		.uleb128 0x26
 1903 0b92 10010000 		.4byte	0x110
 1904 0b96 00       		.byte	0
 1905 0b97 28       		.uleb128 0x28
 1906 0b98 01       		.byte	0x1
 1907 0b99 82000000 		.4byte	.LASF132
 1908 0b9d 0B       		.byte	0xb
 1909 0b9e 8F       		.byte	0x8f
 1910 0b9f 01       		.byte	0x1
 1911 0ba0 01       		.byte	0x1
 1912 0ba1 26       		.uleb128 0x26
 1913 0ba2 E3090000 		.4byte	0x9e3
 1914 0ba6 00       		.byte	0
 1915 0ba7 00       		.byte	0
 1916              		.section	.debug_abbrev,"",%progbits
 1917              	.Ldebug_abbrev0:
 1918 0000 01       		.uleb128 0x1
 1919 0001 11       		.uleb128 0x11
 1920 0002 01       		.byte	0x1
 1921 0003 25       		.uleb128 0x25
 1922 0004 0E       		.uleb128 0xe
 1923 0005 13       		.uleb128 0x13
 1924 0006 0B       		.uleb128 0xb
 1925 0007 03       		.uleb128 0x3
 1926 0008 0E       		.uleb128 0xe
 1927 0009 1B       		.uleb128 0x1b
 1928 000a 0E       		.uleb128 0xe
 1929 000b 55       		.uleb128 0x55
 1930 000c 06       		.uleb128 0x6
 1931 000d 11       		.uleb128 0x11
 1932 000e 01       		.uleb128 0x1
 1933 000f 52       		.uleb128 0x52
 1934 0010 01       		.uleb128 0x1
ARM GAS  /tmp/ccnq6xNA.s 			page 35


 1935 0011 10       		.uleb128 0x10
 1936 0012 06       		.uleb128 0x6
 1937 0013 00       		.byte	0
 1938 0014 00       		.byte	0
 1939 0015 02       		.uleb128 0x2
 1940 0016 24       		.uleb128 0x24
 1941 0017 00       		.byte	0
 1942 0018 0B       		.uleb128 0xb
 1943 0019 0B       		.uleb128 0xb
 1944 001a 3E       		.uleb128 0x3e
 1945 001b 0B       		.uleb128 0xb
 1946 001c 03       		.uleb128 0x3
 1947 001d 08       		.uleb128 0x8
 1948 001e 00       		.byte	0
 1949 001f 00       		.byte	0
 1950 0020 03       		.uleb128 0x3
 1951 0021 16       		.uleb128 0x16
 1952 0022 00       		.byte	0
 1953 0023 03       		.uleb128 0x3
 1954 0024 0E       		.uleb128 0xe
 1955 0025 3A       		.uleb128 0x3a
 1956 0026 0B       		.uleb128 0xb
 1957 0027 3B       		.uleb128 0x3b
 1958 0028 0B       		.uleb128 0xb
 1959 0029 49       		.uleb128 0x49
 1960 002a 13       		.uleb128 0x13
 1961 002b 00       		.byte	0
 1962 002c 00       		.byte	0
 1963 002d 04       		.uleb128 0x4
 1964 002e 24       		.uleb128 0x24
 1965 002f 00       		.byte	0
 1966 0030 0B       		.uleb128 0xb
 1967 0031 0B       		.uleb128 0xb
 1968 0032 3E       		.uleb128 0x3e
 1969 0033 0B       		.uleb128 0xb
 1970 0034 03       		.uleb128 0x3
 1971 0035 0E       		.uleb128 0xe
 1972 0036 00       		.byte	0
 1973 0037 00       		.byte	0
 1974 0038 05       		.uleb128 0x5
 1975 0039 13       		.uleb128 0x13
 1976 003a 01       		.byte	0x1
 1977 003b 03       		.uleb128 0x3
 1978 003c 0E       		.uleb128 0xe
 1979 003d 0B       		.uleb128 0xb
 1980 003e 0B       		.uleb128 0xb
 1981 003f 3A       		.uleb128 0x3a
 1982 0040 0B       		.uleb128 0xb
 1983 0041 3B       		.uleb128 0x3b
 1984 0042 0B       		.uleb128 0xb
 1985 0043 01       		.uleb128 0x1
 1986 0044 13       		.uleb128 0x13
 1987 0045 00       		.byte	0
 1988 0046 00       		.byte	0
 1989 0047 06       		.uleb128 0x6
 1990 0048 0D       		.uleb128 0xd
 1991 0049 00       		.byte	0
ARM GAS  /tmp/ccnq6xNA.s 			page 36


 1992 004a 03       		.uleb128 0x3
 1993 004b 0E       		.uleb128 0xe
 1994 004c 3A       		.uleb128 0x3a
 1995 004d 0B       		.uleb128 0xb
 1996 004e 3B       		.uleb128 0x3b
 1997 004f 0B       		.uleb128 0xb
 1998 0050 49       		.uleb128 0x49
 1999 0051 13       		.uleb128 0x13
 2000 0052 38       		.uleb128 0x38
 2001 0053 0A       		.uleb128 0xa
 2002 0054 00       		.byte	0
 2003 0055 00       		.byte	0
 2004 0056 07       		.uleb128 0x7
 2005 0057 0D       		.uleb128 0xd
 2006 0058 00       		.byte	0
 2007 0059 03       		.uleb128 0x3
 2008 005a 08       		.uleb128 0x8
 2009 005b 3A       		.uleb128 0x3a
 2010 005c 0B       		.uleb128 0xb
 2011 005d 3B       		.uleb128 0x3b
 2012 005e 0B       		.uleb128 0xb
 2013 005f 49       		.uleb128 0x49
 2014 0060 13       		.uleb128 0x13
 2015 0061 38       		.uleb128 0x38
 2016 0062 0A       		.uleb128 0xa
 2017 0063 00       		.byte	0
 2018 0064 00       		.byte	0
 2019 0065 08       		.uleb128 0x8
 2020 0066 13       		.uleb128 0x13
 2021 0067 01       		.byte	0x1
 2022 0068 0B       		.uleb128 0xb
 2023 0069 0B       		.uleb128 0xb
 2024 006a 3A       		.uleb128 0x3a
 2025 006b 0B       		.uleb128 0xb
 2026 006c 3B       		.uleb128 0x3b
 2027 006d 0B       		.uleb128 0xb
 2028 006e 01       		.uleb128 0x1
 2029 006f 13       		.uleb128 0x13
 2030 0070 00       		.byte	0
 2031 0071 00       		.byte	0
 2032 0072 09       		.uleb128 0x9
 2033 0073 0F       		.uleb128 0xf
 2034 0074 00       		.byte	0
 2035 0075 0B       		.uleb128 0xb
 2036 0076 0B       		.uleb128 0xb
 2037 0077 49       		.uleb128 0x49
 2038 0078 13       		.uleb128 0x13
 2039 0079 00       		.byte	0
 2040 007a 00       		.byte	0
 2041 007b 0A       		.uleb128 0xa
 2042 007c 0F       		.uleb128 0xf
 2043 007d 00       		.byte	0
 2044 007e 0B       		.uleb128 0xb
 2045 007f 0B       		.uleb128 0xb
 2046 0080 00       		.byte	0
 2047 0081 00       		.byte	0
 2048 0082 0B       		.uleb128 0xb
ARM GAS  /tmp/ccnq6xNA.s 			page 37


 2049 0083 13       		.uleb128 0x13
 2050 0084 01       		.byte	0x1
 2051 0085 03       		.uleb128 0x3
 2052 0086 0E       		.uleb128 0xe
 2053 0087 0B       		.uleb128 0xb
 2054 0088 0B       		.uleb128 0xb
 2055 0089 3A       		.uleb128 0x3a
 2056 008a 0B       		.uleb128 0xb
 2057 008b 3B       		.uleb128 0x3b
 2058 008c 05       		.uleb128 0x5
 2059 008d 01       		.uleb128 0x1
 2060 008e 13       		.uleb128 0x13
 2061 008f 00       		.byte	0
 2062 0090 00       		.byte	0
 2063 0091 0C       		.uleb128 0xc
 2064 0092 0D       		.uleb128 0xd
 2065 0093 00       		.byte	0
 2066 0094 03       		.uleb128 0x3
 2067 0095 08       		.uleb128 0x8
 2068 0096 3A       		.uleb128 0x3a
 2069 0097 0B       		.uleb128 0xb
 2070 0098 3B       		.uleb128 0x3b
 2071 0099 05       		.uleb128 0x5
 2072 009a 49       		.uleb128 0x49
 2073 009b 13       		.uleb128 0x13
 2074 009c 38       		.uleb128 0x38
 2075 009d 0A       		.uleb128 0xa
 2076 009e 00       		.byte	0
 2077 009f 00       		.byte	0
 2078 00a0 0D       		.uleb128 0xd
 2079 00a1 35       		.uleb128 0x35
 2080 00a2 00       		.byte	0
 2081 00a3 49       		.uleb128 0x49
 2082 00a4 13       		.uleb128 0x13
 2083 00a5 00       		.byte	0
 2084 00a6 00       		.byte	0
 2085 00a7 0E       		.uleb128 0xe
 2086 00a8 17       		.uleb128 0x17
 2087 00a9 01       		.byte	0x1
 2088 00aa 0B       		.uleb128 0xb
 2089 00ab 0B       		.uleb128 0xb
 2090 00ac 3A       		.uleb128 0x3a
 2091 00ad 0B       		.uleb128 0xb
 2092 00ae 3B       		.uleb128 0x3b
 2093 00af 0B       		.uleb128 0xb
 2094 00b0 01       		.uleb128 0x1
 2095 00b1 13       		.uleb128 0x13
 2096 00b2 00       		.byte	0
 2097 00b3 00       		.byte	0
 2098 00b4 0F       		.uleb128 0xf
 2099 00b5 0D       		.uleb128 0xd
 2100 00b6 00       		.byte	0
 2101 00b7 03       		.uleb128 0x3
 2102 00b8 0E       		.uleb128 0xe
 2103 00b9 3A       		.uleb128 0x3a
 2104 00ba 0B       		.uleb128 0xb
 2105 00bb 3B       		.uleb128 0x3b
ARM GAS  /tmp/ccnq6xNA.s 			page 38


 2106 00bc 0B       		.uleb128 0xb
 2107 00bd 49       		.uleb128 0x49
 2108 00be 13       		.uleb128 0x13
 2109 00bf 00       		.byte	0
 2110 00c0 00       		.byte	0
 2111 00c1 10       		.uleb128 0x10
 2112 00c2 26       		.uleb128 0x26
 2113 00c3 00       		.byte	0
 2114 00c4 49       		.uleb128 0x49
 2115 00c5 13       		.uleb128 0x13
 2116 00c6 00       		.byte	0
 2117 00c7 00       		.byte	0
 2118 00c8 11       		.uleb128 0x11
 2119 00c9 13       		.uleb128 0x13
 2120 00ca 01       		.byte	0x1
 2121 00cb 0B       		.uleb128 0xb
 2122 00cc 0B       		.uleb128 0xb
 2123 00cd 3A       		.uleb128 0x3a
 2124 00ce 0B       		.uleb128 0xb
 2125 00cf 3B       		.uleb128 0x3b
 2126 00d0 05       		.uleb128 0x5
 2127 00d1 01       		.uleb128 0x1
 2128 00d2 13       		.uleb128 0x13
 2129 00d3 00       		.byte	0
 2130 00d4 00       		.byte	0
 2131 00d5 12       		.uleb128 0x12
 2132 00d6 0D       		.uleb128 0xd
 2133 00d7 00       		.byte	0
 2134 00d8 03       		.uleb128 0x3
 2135 00d9 0E       		.uleb128 0xe
 2136 00da 3A       		.uleb128 0x3a
 2137 00db 0B       		.uleb128 0xb
 2138 00dc 3B       		.uleb128 0x3b
 2139 00dd 05       		.uleb128 0x5
 2140 00de 49       		.uleb128 0x49
 2141 00df 13       		.uleb128 0x13
 2142 00e0 38       		.uleb128 0x38
 2143 00e1 0A       		.uleb128 0xa
 2144 00e2 00       		.byte	0
 2145 00e3 00       		.byte	0
 2146 00e4 13       		.uleb128 0x13
 2147 00e5 16       		.uleb128 0x16
 2148 00e6 00       		.byte	0
 2149 00e7 03       		.uleb128 0x3
 2150 00e8 0E       		.uleb128 0xe
 2151 00e9 3A       		.uleb128 0x3a
 2152 00ea 0B       		.uleb128 0xb
 2153 00eb 3B       		.uleb128 0x3b
 2154 00ec 05       		.uleb128 0x5
 2155 00ed 49       		.uleb128 0x49
 2156 00ee 13       		.uleb128 0x13
 2157 00ef 00       		.byte	0
 2158 00f0 00       		.byte	0
 2159 00f1 14       		.uleb128 0x14
 2160 00f2 04       		.uleb128 0x4
 2161 00f3 01       		.byte	0x1
 2162 00f4 0B       		.uleb128 0xb
ARM GAS  /tmp/ccnq6xNA.s 			page 39


 2163 00f5 0B       		.uleb128 0xb
 2164 00f6 3A       		.uleb128 0x3a
 2165 00f7 0B       		.uleb128 0xb
 2166 00f8 3B       		.uleb128 0x3b
 2167 00f9 0B       		.uleb128 0xb
 2168 00fa 01       		.uleb128 0x1
 2169 00fb 13       		.uleb128 0x13
 2170 00fc 00       		.byte	0
 2171 00fd 00       		.byte	0
 2172 00fe 15       		.uleb128 0x15
 2173 00ff 28       		.uleb128 0x28
 2174 0100 00       		.byte	0
 2175 0101 03       		.uleb128 0x3
 2176 0102 0E       		.uleb128 0xe
 2177 0103 1C       		.uleb128 0x1c
 2178 0104 0D       		.uleb128 0xd
 2179 0105 00       		.byte	0
 2180 0106 00       		.byte	0
 2181 0107 16       		.uleb128 0x16
 2182 0108 04       		.uleb128 0x4
 2183 0109 01       		.byte	0x1
 2184 010a 0B       		.uleb128 0xb
 2185 010b 0B       		.uleb128 0xb
 2186 010c 3A       		.uleb128 0x3a
 2187 010d 0B       		.uleb128 0xb
 2188 010e 3B       		.uleb128 0x3b
 2189 010f 05       		.uleb128 0x5
 2190 0110 01       		.uleb128 0x1
 2191 0111 13       		.uleb128 0x13
 2192 0112 00       		.byte	0
 2193 0113 00       		.byte	0
 2194 0114 17       		.uleb128 0x17
 2195 0115 2E       		.uleb128 0x2e
 2196 0116 01       		.byte	0x1
 2197 0117 3F       		.uleb128 0x3f
 2198 0118 0C       		.uleb128 0xc
 2199 0119 03       		.uleb128 0x3
 2200 011a 0E       		.uleb128 0xe
 2201 011b 3A       		.uleb128 0x3a
 2202 011c 0B       		.uleb128 0xb
 2203 011d 3B       		.uleb128 0x3b
 2204 011e 0B       		.uleb128 0xb
 2205 011f 27       		.uleb128 0x27
 2206 0120 0C       		.uleb128 0xc
 2207 0121 11       		.uleb128 0x11
 2208 0122 01       		.uleb128 0x1
 2209 0123 12       		.uleb128 0x12
 2210 0124 01       		.uleb128 0x1
 2211 0125 40       		.uleb128 0x40
 2212 0126 06       		.uleb128 0x6
 2213 0127 9742     		.uleb128 0x2117
 2214 0129 0C       		.uleb128 0xc
 2215 012a 01       		.uleb128 0x1
 2216 012b 13       		.uleb128 0x13
 2217 012c 00       		.byte	0
 2218 012d 00       		.byte	0
 2219 012e 18       		.uleb128 0x18
ARM GAS  /tmp/ccnq6xNA.s 			page 40


 2220 012f 05       		.uleb128 0x5
 2221 0130 00       		.byte	0
 2222 0131 03       		.uleb128 0x3
 2223 0132 0E       		.uleb128 0xe
 2224 0133 3A       		.uleb128 0x3a
 2225 0134 0B       		.uleb128 0xb
 2226 0135 3B       		.uleb128 0x3b
 2227 0136 0B       		.uleb128 0xb
 2228 0137 49       		.uleb128 0x49
 2229 0138 13       		.uleb128 0x13
 2230 0139 02       		.uleb128 0x2
 2231 013a 06       		.uleb128 0x6
 2232 013b 00       		.byte	0
 2233 013c 00       		.byte	0
 2234 013d 19       		.uleb128 0x19
 2235 013e 34       		.uleb128 0x34
 2236 013f 00       		.byte	0
 2237 0140 03       		.uleb128 0x3
 2238 0141 0E       		.uleb128 0xe
 2239 0142 3A       		.uleb128 0x3a
 2240 0143 0B       		.uleb128 0xb
 2241 0144 3B       		.uleb128 0x3b
 2242 0145 0B       		.uleb128 0xb
 2243 0146 49       		.uleb128 0x49
 2244 0147 13       		.uleb128 0x13
 2245 0148 02       		.uleb128 0x2
 2246 0149 0A       		.uleb128 0xa
 2247 014a 00       		.byte	0
 2248 014b 00       		.byte	0
 2249 014c 1A       		.uleb128 0x1a
 2250 014d 34       		.uleb128 0x34
 2251 014e 00       		.byte	0
 2252 014f 03       		.uleb128 0x3
 2253 0150 08       		.uleb128 0x8
 2254 0151 3A       		.uleb128 0x3a
 2255 0152 0B       		.uleb128 0xb
 2256 0153 3B       		.uleb128 0x3b
 2257 0154 0B       		.uleb128 0xb
 2258 0155 49       		.uleb128 0x49
 2259 0156 13       		.uleb128 0x13
 2260 0157 02       		.uleb128 0x2
 2261 0158 06       		.uleb128 0x6
 2262 0159 00       		.byte	0
 2263 015a 00       		.byte	0
 2264 015b 1B       		.uleb128 0x1b
 2265 015c 0B       		.uleb128 0xb
 2266 015d 01       		.byte	0x1
 2267 015e 11       		.uleb128 0x11
 2268 015f 01       		.uleb128 0x1
 2269 0160 12       		.uleb128 0x12
 2270 0161 01       		.uleb128 0x1
 2271 0162 01       		.uleb128 0x1
 2272 0163 13       		.uleb128 0x13
 2273 0164 00       		.byte	0
 2274 0165 00       		.byte	0
 2275 0166 1C       		.uleb128 0x1c
 2276 0167 2E       		.uleb128 0x2e
ARM GAS  /tmp/ccnq6xNA.s 			page 41


 2277 0168 01       		.byte	0x1
 2278 0169 3F       		.uleb128 0x3f
 2279 016a 0C       		.uleb128 0xc
 2280 016b 03       		.uleb128 0x3
 2281 016c 0E       		.uleb128 0xe
 2282 016d 3A       		.uleb128 0x3a
 2283 016e 0B       		.uleb128 0xb
 2284 016f 3B       		.uleb128 0x3b
 2285 0170 0B       		.uleb128 0xb
 2286 0171 49       		.uleb128 0x49
 2287 0172 13       		.uleb128 0x13
 2288 0173 3C       		.uleb128 0x3c
 2289 0174 0C       		.uleb128 0xc
 2290 0175 01       		.uleb128 0x1
 2291 0176 13       		.uleb128 0x13
 2292 0177 00       		.byte	0
 2293 0178 00       		.byte	0
 2294 0179 1D       		.uleb128 0x1d
 2295 017a 18       		.uleb128 0x18
 2296 017b 00       		.byte	0
 2297 017c 00       		.byte	0
 2298 017d 00       		.byte	0
 2299 017e 1E       		.uleb128 0x1e
 2300 017f 898201   		.uleb128 0x4109
 2301 0182 01       		.byte	0x1
 2302 0183 11       		.uleb128 0x11
 2303 0184 01       		.uleb128 0x1
 2304 0185 31       		.uleb128 0x31
 2305 0186 13       		.uleb128 0x13
 2306 0187 00       		.byte	0
 2307 0188 00       		.byte	0
 2308 0189 1F       		.uleb128 0x1f
 2309 018a 8A8201   		.uleb128 0x410a
 2310 018d 00       		.byte	0
 2311 018e 02       		.uleb128 0x2
 2312 018f 0A       		.uleb128 0xa
 2313 0190 9142     		.uleb128 0x2111
 2314 0192 0A       		.uleb128 0xa
 2315 0193 00       		.byte	0
 2316 0194 00       		.byte	0
 2317 0195 20       		.uleb128 0x20
 2318 0196 898201   		.uleb128 0x4109
 2319 0199 01       		.byte	0x1
 2320 019a 11       		.uleb128 0x11
 2321 019b 01       		.uleb128 0x1
 2322 019c 31       		.uleb128 0x31
 2323 019d 13       		.uleb128 0x13
 2324 019e 01       		.uleb128 0x1
 2325 019f 13       		.uleb128 0x13
 2326 01a0 00       		.byte	0
 2327 01a1 00       		.byte	0
 2328 01a2 21       		.uleb128 0x21
 2329 01a3 01       		.uleb128 0x1
 2330 01a4 01       		.byte	0x1
 2331 01a5 49       		.uleb128 0x49
 2332 01a6 13       		.uleb128 0x13
 2333 01a7 01       		.uleb128 0x1
ARM GAS  /tmp/ccnq6xNA.s 			page 42


 2334 01a8 13       		.uleb128 0x13
 2335 01a9 00       		.byte	0
 2336 01aa 00       		.byte	0
 2337 01ab 22       		.uleb128 0x22
 2338 01ac 21       		.uleb128 0x21
 2339 01ad 00       		.byte	0
 2340 01ae 49       		.uleb128 0x49
 2341 01af 13       		.uleb128 0x13
 2342 01b0 2F       		.uleb128 0x2f
 2343 01b1 0B       		.uleb128 0xb
 2344 01b2 00       		.byte	0
 2345 01b3 00       		.byte	0
 2346 01b4 23       		.uleb128 0x23
 2347 01b5 05       		.uleb128 0x5
 2348 01b6 00       		.byte	0
 2349 01b7 03       		.uleb128 0x3
 2350 01b8 0E       		.uleb128 0xe
 2351 01b9 3A       		.uleb128 0x3a
 2352 01ba 0B       		.uleb128 0xb
 2353 01bb 3B       		.uleb128 0x3b
 2354 01bc 0B       		.uleb128 0xb
 2355 01bd 49       		.uleb128 0x49
 2356 01be 13       		.uleb128 0x13
 2357 01bf 02       		.uleb128 0x2
 2358 01c0 0A       		.uleb128 0xa
 2359 01c1 00       		.byte	0
 2360 01c2 00       		.byte	0
 2361 01c3 24       		.uleb128 0x24
 2362 01c4 34       		.uleb128 0x34
 2363 01c5 00       		.byte	0
 2364 01c6 03       		.uleb128 0x3
 2365 01c7 0E       		.uleb128 0xe
 2366 01c8 3A       		.uleb128 0x3a
 2367 01c9 0B       		.uleb128 0xb
 2368 01ca 3B       		.uleb128 0x3b
 2369 01cb 05       		.uleb128 0x5
 2370 01cc 49       		.uleb128 0x49
 2371 01cd 13       		.uleb128 0x13
 2372 01ce 3F       		.uleb128 0x3f
 2373 01cf 0C       		.uleb128 0xc
 2374 01d0 3C       		.uleb128 0x3c
 2375 01d1 0C       		.uleb128 0xc
 2376 01d2 00       		.byte	0
 2377 01d3 00       		.byte	0
 2378 01d4 25       		.uleb128 0x25
 2379 01d5 2E       		.uleb128 0x2e
 2380 01d6 01       		.byte	0x1
 2381 01d7 3F       		.uleb128 0x3f
 2382 01d8 0C       		.uleb128 0xc
 2383 01d9 03       		.uleb128 0x3
 2384 01da 0E       		.uleb128 0xe
 2385 01db 3A       		.uleb128 0x3a
 2386 01dc 0B       		.uleb128 0xb
 2387 01dd 3B       		.uleb128 0x3b
 2388 01de 0B       		.uleb128 0xb
 2389 01df 27       		.uleb128 0x27
 2390 01e0 0C       		.uleb128 0xc
ARM GAS  /tmp/ccnq6xNA.s 			page 43


 2391 01e1 3C       		.uleb128 0x3c
 2392 01e2 0C       		.uleb128 0xc
 2393 01e3 01       		.uleb128 0x1
 2394 01e4 13       		.uleb128 0x13
 2395 01e5 00       		.byte	0
 2396 01e6 00       		.byte	0
 2397 01e7 26       		.uleb128 0x26
 2398 01e8 05       		.uleb128 0x5
 2399 01e9 00       		.byte	0
 2400 01ea 49       		.uleb128 0x49
 2401 01eb 13       		.uleb128 0x13
 2402 01ec 00       		.byte	0
 2403 01ed 00       		.byte	0
 2404 01ee 27       		.uleb128 0x27
 2405 01ef 2E       		.uleb128 0x2e
 2406 01f0 01       		.byte	0x1
 2407 01f1 3F       		.uleb128 0x3f
 2408 01f2 0C       		.uleb128 0xc
 2409 01f3 03       		.uleb128 0x3
 2410 01f4 0E       		.uleb128 0xe
 2411 01f5 3A       		.uleb128 0x3a
 2412 01f6 0B       		.uleb128 0xb
 2413 01f7 3B       		.uleb128 0x3b
 2414 01f8 0B       		.uleb128 0xb
 2415 01f9 27       		.uleb128 0x27
 2416 01fa 0C       		.uleb128 0xc
 2417 01fb 49       		.uleb128 0x49
 2418 01fc 13       		.uleb128 0x13
 2419 01fd 3C       		.uleb128 0x3c
 2420 01fe 0C       		.uleb128 0xc
 2421 01ff 01       		.uleb128 0x1
 2422 0200 13       		.uleb128 0x13
 2423 0201 00       		.byte	0
 2424 0202 00       		.byte	0
 2425 0203 28       		.uleb128 0x28
 2426 0204 2E       		.uleb128 0x2e
 2427 0205 01       		.byte	0x1
 2428 0206 3F       		.uleb128 0x3f
 2429 0207 0C       		.uleb128 0xc
 2430 0208 03       		.uleb128 0x3
 2431 0209 0E       		.uleb128 0xe
 2432 020a 3A       		.uleb128 0x3a
 2433 020b 0B       		.uleb128 0xb
 2434 020c 3B       		.uleb128 0x3b
 2435 020d 0B       		.uleb128 0xb
 2436 020e 27       		.uleb128 0x27
 2437 020f 0C       		.uleb128 0xc
 2438 0210 3C       		.uleb128 0x3c
 2439 0211 0C       		.uleb128 0xc
 2440 0212 00       		.byte	0
 2441 0213 00       		.byte	0
 2442 0214 00       		.byte	0
 2443              		.section	.debug_loc,"",%progbits
 2444              	.Ldebug_loc0:
 2445              	.LLST0:
 2446 0000 00000000 		.4byte	.LFB63
 2447 0004 02000000 		.4byte	.LCFI0
ARM GAS  /tmp/ccnq6xNA.s 			page 44


 2448 0008 0200     		.2byte	0x2
 2449 000a 7D       		.byte	0x7d
 2450 000b 00       		.sleb128 0
 2451 000c 02000000 		.4byte	.LCFI0
 2452 0010 06000000 		.4byte	.LCFI1
 2453 0014 0200     		.2byte	0x2
 2454 0016 7D       		.byte	0x7d
 2455 0017 14       		.sleb128 20
 2456 0018 06000000 		.4byte	.LCFI1
 2457 001c B4000000 		.4byte	.LFE63
 2458 0020 0200     		.2byte	0x2
 2459 0022 7D       		.byte	0x7d
 2460 0023 30       		.sleb128 48
 2461 0024 00000000 		.4byte	0
 2462 0028 00000000 		.4byte	0
 2463              	.LLST1:
 2464 002c 00000000 		.4byte	.LVL0
 2465 0030 17000000 		.4byte	.LVL1-1
 2466 0034 0100     		.2byte	0x1
 2467 0036 50       		.byte	0x50
 2468 0037 17000000 		.4byte	.LVL1-1
 2469 003b B4000000 		.4byte	.LFE63
 2470 003f 0100     		.2byte	0x1
 2471 0041 54       		.byte	0x54
 2472 0042 00000000 		.4byte	0
 2473 0046 00000000 		.4byte	0
 2474              	.LLST2:
 2475 004a 00000000 		.4byte	.LVL0
 2476 004e 17000000 		.4byte	.LVL1-1
 2477 0052 0100     		.2byte	0x1
 2478 0054 51       		.byte	0x51
 2479 0055 17000000 		.4byte	.LVL1-1
 2480 0059 B4000000 		.4byte	.LFE63
 2481 005d 0400     		.2byte	0x4
 2482 005f F3       		.byte	0xf3
 2483 0060 01       		.uleb128 0x1
 2484 0061 51       		.byte	0x51
 2485 0062 9F       		.byte	0x9f
 2486 0063 00000000 		.4byte	0
 2487 0067 00000000 		.4byte	0
 2488              	.LLST3:
 2489 006b 2E000000 		.4byte	.LVL3
 2490 006f 30000000 		.4byte	.LVL4
 2491 0073 0100     		.2byte	0x1
 2492 0075 50       		.byte	0x50
 2493 0076 30000000 		.4byte	.LVL4
 2494 007a 62000000 		.4byte	.LVL8
 2495 007e 0100     		.2byte	0x1
 2496 0080 57       		.byte	0x57
 2497 0081 62000000 		.4byte	.LVL8
 2498 0085 64000000 		.4byte	.LVL9
 2499 0089 0100     		.2byte	0x1
 2500 008b 50       		.byte	0x50
 2501 008c 64000000 		.4byte	.LVL9
 2502 0090 6E000000 		.4byte	.LVL11
 2503 0094 0100     		.2byte	0x1
 2504 0096 57       		.byte	0x57
ARM GAS  /tmp/ccnq6xNA.s 			page 45


 2505 0097 92000000 		.4byte	.LVL14
 2506 009b 94000000 		.4byte	.LVL15
 2507 009f 0100     		.2byte	0x1
 2508 00a1 50       		.byte	0x50
 2509 00a2 94000000 		.4byte	.LVL15
 2510 00a6 A4000000 		.4byte	.LVL18
 2511 00aa 0100     		.2byte	0x1
 2512 00ac 55       		.byte	0x55
 2513 00ad A4000000 		.4byte	.LVL18
 2514 00b1 B4000000 		.4byte	.LFE63
 2515 00b5 0100     		.2byte	0x1
 2516 00b7 57       		.byte	0x57
 2517 00b8 00000000 		.4byte	0
 2518 00bc 00000000 		.4byte	0
 2519              	.LLST4:
 2520 00c0 00000000 		.4byte	.LFB64
 2521 00c4 04000000 		.4byte	.LCFI2
 2522 00c8 0200     		.2byte	0x2
 2523 00ca 7D       		.byte	0x7d
 2524 00cb 00       		.sleb128 0
 2525 00cc 04000000 		.4byte	.LCFI2
 2526 00d0 06000000 		.4byte	.LCFI3
 2527 00d4 0200     		.2byte	0x2
 2528 00d6 7D       		.byte	0x7d
 2529 00d7 18       		.sleb128 24
 2530 00d8 06000000 		.4byte	.LCFI3
 2531 00dc 74000000 		.4byte	.LFE64
 2532 00e0 0200     		.2byte	0x2
 2533 00e2 7D       		.byte	0x7d
 2534 00e3 38       		.sleb128 56
 2535 00e4 00000000 		.4byte	0
 2536 00e8 00000000 		.4byte	0
 2537              	.LLST5:
 2538 00ec 00000000 		.4byte	.LVL21
 2539 00f0 19000000 		.4byte	.LVL23-1
 2540 00f4 0100     		.2byte	0x1
 2541 00f6 50       		.byte	0x50
 2542 00f7 19000000 		.4byte	.LVL23-1
 2543 00fb 4E000000 		.4byte	.LVL29
 2544 00ff 0100     		.2byte	0x1
 2545 0101 55       		.byte	0x55
 2546 0102 4E000000 		.4byte	.LVL29
 2547 0106 74000000 		.4byte	.LFE64
 2548 010a 0400     		.2byte	0x4
 2549 010c F3       		.byte	0xf3
 2550 010d 01       		.uleb128 0x1
 2551 010e 50       		.byte	0x50
 2552 010f 9F       		.byte	0x9f
 2553 0110 00000000 		.4byte	0
 2554 0114 00000000 		.4byte	0
 2555              	.LLST6:
 2556 0118 00000000 		.4byte	.LVL21
 2557 011c 19000000 		.4byte	.LVL23-1
 2558 0120 0100     		.2byte	0x1
 2559 0122 51       		.byte	0x51
 2560 0123 19000000 		.4byte	.LVL23-1
 2561 0127 74000000 		.4byte	.LFE64
ARM GAS  /tmp/ccnq6xNA.s 			page 46


 2562 012b 0400     		.2byte	0x4
 2563 012d F3       		.byte	0xf3
 2564 012e 01       		.uleb128 0x1
 2565 012f 51       		.byte	0x51
 2566 0130 9F       		.byte	0x9f
 2567 0131 00000000 		.4byte	0
 2568 0135 00000000 		.4byte	0
 2569              	.LLST7:
 2570 0139 00000000 		.4byte	.LVL21
 2571 013d 19000000 		.4byte	.LVL23-1
 2572 0141 0100     		.2byte	0x1
 2573 0143 52       		.byte	0x52
 2574 0144 19000000 		.4byte	.LVL23-1
 2575 0148 74000000 		.4byte	.LFE64
 2576 014c 0100     		.2byte	0x1
 2577 014e 57       		.byte	0x57
 2578 014f 00000000 		.4byte	0
 2579 0153 00000000 		.4byte	0
 2580              	.LLST8:
 2581 0157 00000000 		.4byte	.LVL21
 2582 015b 0C000000 		.4byte	.LVL22
 2583 015f 0100     		.2byte	0x1
 2584 0161 53       		.byte	0x53
 2585 0162 0C000000 		.4byte	.LVL22
 2586 0166 74000000 		.4byte	.LFE64
 2587 016a 0100     		.2byte	0x1
 2588 016c 56       		.byte	0x56
 2589 016d 00000000 		.4byte	0
 2590 0171 00000000 		.4byte	0
 2591              	.LLST9:
 2592 0175 34000000 		.4byte	.LVL25
 2593 0179 36000000 		.4byte	.LVL26
 2594 017d 0100     		.2byte	0x1
 2595 017f 50       		.byte	0x50
 2596 0180 36000000 		.4byte	.LVL26
 2597 0184 56000000 		.4byte	.LVL30
 2598 0188 0100     		.2byte	0x1
 2599 018a 54       		.byte	0x54
 2600 018b 00000000 		.4byte	0
 2601 018f 00000000 		.4byte	0
 2602              		.section	.debug_aranges,"",%progbits
 2603 0000 24000000 		.4byte	0x24
 2604 0004 0200     		.2byte	0x2
 2605 0006 00000000 		.4byte	.Ldebug_info0
 2606 000a 04       		.byte	0x4
 2607 000b 00       		.byte	0
 2608 000c 0000     		.2byte	0
 2609 000e 0000     		.2byte	0
 2610 0010 00000000 		.4byte	.LFB63
 2611 0014 B4000000 		.4byte	.LFE63-.LFB63
 2612 0018 00000000 		.4byte	.LFB64
 2613 001c 74000000 		.4byte	.LFE64-.LFB64
 2614 0020 00000000 		.4byte	0
 2615 0024 00000000 		.4byte	0
 2616              		.section	.debug_ranges,"",%progbits
 2617              	.Ldebug_ranges0:
 2618 0000 00000000 		.4byte	.LFB63
ARM GAS  /tmp/ccnq6xNA.s 			page 47


 2619 0004 B4000000 		.4byte	.LFE63
 2620 0008 00000000 		.4byte	.LFB64
 2621 000c 74000000 		.4byte	.LFE64
 2622 0010 00000000 		.4byte	0
 2623 0014 00000000 		.4byte	0
 2624              		.section	.debug_line,"",%progbits
 2625              	.Ldebug_line0:
 2626 0000 5F020000 		.section	.debug_str,"MS",%progbits,1
 2626      0200ED01 
 2626      00000201 
 2626      FB0E0D00 
 2626      01010101 
 2627              	.LASF98:
 2628 0000 5354445F 		.ascii	"STD_DUTY_CYCLE\000"
 2628      44555459 
 2628      5F435943 
 2628      4C4500
 2629              	.LASF115:
 2630 000f 646D6172 		.ascii	"dmarx\000"
 2630      7800
 2631              	.LASF101:
 2632 0015 69326364 		.ascii	"i2cdutycycle_t\000"
 2632      75747963 
 2632      79636C65 
 2632      5F7400
 2633              	.LASF91:
 2634 0024 69326373 		.ascii	"i2cstate_t\000"
 2634      74617465 
 2634      5F7400
 2635              	.LASF2:
 2636 002f 73697A65 		.ascii	"size_t\000"
 2636      5F7400
 2637              	.LASF57:
 2638 0036 7264796D 		.ascii	"rdymsg\000"
 2638      736700
 2639              	.LASF14:
 2640 003d 75696E74 		.ascii	"uint64_t\000"
 2640      36345F74 
 2640      00
 2641              	.LASF76:
 2642 0046 54524953 		.ascii	"TRISE\000"
 2642      4500
 2643              	.LASF15:
 2644 004c 6C6F6E67 		.ascii	"long long unsigned int\000"
 2644      206C6F6E 
 2644      6720756E 
 2644      7369676E 
 2644      65642069 
 2645              	.LASF112:
 2646 0063 61646472 		.ascii	"addr\000"
 2646      00
 2647              	.LASF119:
 2648 0068 69326347 		.ascii	"i2cGetErr\000"
 2648      65744572 
 2648      7200
 2649              	.LASF58:
 2650 0072 65786974 		.ascii	"exitcode\000"
ARM GAS  /tmp/ccnq6xNA.s 			page 48


 2650      636F6465 
 2650      00
 2651              	.LASF83:
 2652 007b 76656374 		.ascii	"vector\000"
 2652      6F7200
 2653              	.LASF132:
 2654 0082 69326352 		.ascii	"i2cReleaseBus\000"
 2654      656C6561 
 2654      73654275 
 2654      7300
 2655              	.LASF130:
 2656 0090 49544D5F 		.ascii	"ITM_RxBuffer\000"
 2656      52784275 
 2656      66666572 
 2656      00
 2657              	.LASF28:
 2658 009d 705F7072 		.ascii	"p_prio\000"
 2658      696F00
 2659              	.LASF131:
 2660 00a4 6932634D 		.ascii	"i2cMasterTransmitTimeout\000"
 2660      61737465 
 2660      72547261 
 2660      6E736D69 
 2660      7454696D 
 2661              	.LASF5:
 2662 00bd 696E7431 		.ascii	"int16_t\000"
 2662      365F7400 
 2663              	.LASF13:
 2664 00c5 6C6F6E67 		.ascii	"long long int\000"
 2664      206C6F6E 
 2664      6720696E 
 2664      7400
 2665              	.LASF1:
 2666 00d3 7369676E 		.ascii	"signed char\000"
 2666      65642063 
 2666      68617200 
 2667              	.LASF103:
 2668 00df 636C6F63 		.ascii	"clock_speed\000"
 2668      6B5F7370 
 2668      65656400 
 2669              	.LASF45:
 2670 00eb 705F6D70 		.ascii	"p_mpool\000"
 2670      6F6F6C00 
 2671              	.LASF54:
 2672 00f3 6D5F7175 		.ascii	"m_queue\000"
 2672      65756500 
 2673              	.LASF20:
 2674 00fb 74736C69 		.ascii	"tslices_t\000"
 2674      6365735F 
 2674      7400
 2675              	.LASF85:
 2676 0105 4932435F 		.ascii	"I2C_UNINIT\000"
 2676      554E494E 
 2676      495400
 2677              	.LASF92:
 2678 0110 69326361 		.ascii	"i2caddr_t\000"
 2678      6464725F 
ARM GAS  /tmp/ccnq6xNA.s 			page 49


 2678      7400
 2679              	.LASF107:
 2680 011a 73746174 		.ascii	"state\000"
 2680      6500
 2681              	.LASF10:
 2682 0120 6C6F6E67 		.ascii	"long int\000"
 2682      20696E74 
 2682      00
 2683              	.LASF18:
 2684 0129 74737461 		.ascii	"tstate_t\000"
 2684      74655F74 
 2684      00
 2685              	.LASF111:
 2686 0132 74687265 		.ascii	"thread\000"
 2686      616400
 2687              	.LASF36:
 2688 0139 705F7265 		.ascii	"p_refs\000"
 2688      667300
 2689              	.LASF6:
 2690 0140 73686F72 		.ascii	"short int\000"
 2690      7420696E 
 2690      7400
 2691              	.LASF105:
 2692 014a 49324343 		.ascii	"I2CConfig\000"
 2692      6F6E6669 
 2692      6700
 2693              	.LASF38:
 2694 0154 705F7469 		.ascii	"p_time\000"
 2694      6D6500
 2695              	.LASF30:
 2696 015b 705F6E65 		.ascii	"p_newer\000"
 2696      77657200 
 2697              	.LASF113:
 2698 0163 7278646D 		.ascii	"rxdmamode\000"
 2698      616D6F64 
 2698      6500
 2699              	.LASF116:
 2700 016d 646D6174 		.ascii	"dmatx\000"
 2700      7800
 2701              	.LASF96:
 2702 0173 4F504D4F 		.ascii	"OPMODE_SMBUS_HOST\000"
 2702      44455F53 
 2702      4D425553 
 2702      5F484F53 
 2702      5400
 2703              	.LASF48:
 2704 0185 72656761 		.ascii	"regarm_t\000"
 2704      726D5F74 
 2704      00
 2705              	.LASF82:
 2706 018e 73656C66 		.ascii	"selfindex\000"
 2706      696E6465 
 2706      7800
 2707              	.LASF102:
 2708 0198 6F705F6D 		.ascii	"op_mode\000"
 2708      6F646500 
 2709              	.LASF25:
ARM GAS  /tmp/ccnq6xNA.s 			page 50


 2710 01a0 54687265 		.ascii	"Thread\000"
 2710      616400
 2711              	.LASF33:
 2712 01a7 705F7374 		.ascii	"p_stklimit\000"
 2712      6B6C696D 
 2712      697400
 2713              	.LASF0:
 2714 01b2 756E7369 		.ascii	"unsigned int\000"
 2714      676E6564 
 2714      20696E74 
 2714      00
 2715              	.LASF7:
 2716 01bf 75696E74 		.ascii	"uint16_t\000"
 2716      31365F74 
 2716      00
 2717              	.LASF121:
 2718 01c8 6D616752 		.ascii	"magRead\000"
 2718      65616400 
 2719              	.LASF63:
 2720 01d0 43504152 		.ascii	"CPAR\000"
 2720      00
 2721              	.LASF40:
 2722 01d5 705F6D73 		.ascii	"p_msgqueue\000"
 2722      67717565 
 2722      756500
 2723              	.LASF65:
 2724 01e0 444D415F 		.ascii	"DMA_Channel_TypeDef\000"
 2724      4368616E 
 2724      6E656C5F 
 2724      54797065 
 2724      44656600 
 2725              	.LASF81:
 2726 01f4 69736869 		.ascii	"ishift\000"
 2726      667400
 2727              	.LASF95:
 2728 01fb 4F504D4F 		.ascii	"OPMODE_SMBUS_DEVICE\000"
 2728      44455F53 
 2728      4D425553 
 2728      5F444556 
 2728      49434500 
 2729              	.LASF8:
 2730 020f 73686F72 		.ascii	"short unsigned int\000"
 2730      7420756E 
 2730      7369676E 
 2730      65642069 
 2730      6E7400
 2731              	.LASF106:
 2732 0222 49324344 		.ascii	"I2CDriver\000"
 2732      72697665 
 2732      7200
 2733              	.LASF22:
 2734 022c 6D73675F 		.ascii	"msg_t\000"
 2734      7400
 2735              	.LASF17:
 2736 0232 746D6F64 		.ascii	"tmode_t\000"
 2736      655F7400 
 2737              	.LASF47:
ARM GAS  /tmp/ccnq6xNA.s 			page 51


 2738 023a 54687265 		.ascii	"ThreadsList\000"
 2738      6164734C 
 2738      69737400 
 2739              	.LASF43:
 2740 0246 705F6D74 		.ascii	"p_mtxlist\000"
 2740      786C6973 
 2740      7400
 2741              	.LASF23:
 2742 0250 6576656E 		.ascii	"eventmask_t\000"
 2742      746D6173 
 2742      6B5F7400 
 2743              	.LASF129:
 2744 025c 2F686F6D 		.ascii	"/home/ondra6ak/Documents/ARM/ChibiOS_2.6.0/demos/an"
 2744      652F6F6E 
 2744      64726136 
 2744      616B2F44 
 2744      6F63756D 
 2745 028f 676C654D 		.ascii	"gleMeter\000"
 2745      65746572 
 2745      00
 2746              	.LASF127:
 2747 0298 474E5520 		.ascii	"GNU C 4.7.4 20130613 (release) [ARM/embedded-4_7-br"
 2747      4320342E 
 2747      372E3420 
 2747      32303133 
 2747      30363133 
 2748 02cb 616E6368 		.ascii	"anch revision 200083]\000"
 2748      20726576 
 2748      6973696F 
 2748      6E203230 
 2748      30303833 
 2749              	.LASF49:
 2750 02e1 73746B61 		.ascii	"stkalign_t\000"
 2750      6C69676E 
 2750      5F7400
 2751              	.LASF86:
 2752 02ec 4932435F 		.ascii	"I2C_STOP\000"
 2752      53544F50 
 2752      00
 2753              	.LASF52:
 2754 02f5 73697A65 		.ascii	"sizetype\000"
 2754      74797065 
 2754      00
 2755              	.LASF53:
 2756 02fe 4D757465 		.ascii	"Mutex\000"
 2756      7800
 2757              	.LASF109:
 2758 0304 6572726F 		.ascii	"errors\000"
 2758      727300
 2759              	.LASF104:
 2760 030b 64757479 		.ascii	"duty_cycle\000"
 2760      5F637963 
 2760      6C6500
 2761              	.LASF31:
 2762 0316 705F6F6C 		.ascii	"p_older\000"
 2762      64657200 
 2763              	.LASF46:
ARM GAS  /tmp/ccnq6xNA.s 			page 52


 2764 031e 54687265 		.ascii	"ThreadsQueue\000"
 2764      61647351 
 2764      75657565 
 2764      00
 2765              	.LASF114:
 2766 032b 7478646D 		.ascii	"txdmamode\000"
 2766      616D6F64 
 2766      6500
 2767              	.LASF94:
 2768 0335 4F504D4F 		.ascii	"OPMODE_I2C\000"
 2768      44455F49 
 2768      324300
 2769              	.LASF100:
 2770 0340 46415354 		.ascii	"FAST_DUTY_CYCLE_16_9\000"
 2770      5F445554 
 2770      595F4359 
 2770      434C455F 
 2770      31365F39 
 2771              	.LASF19:
 2772 0355 74726566 		.ascii	"trefs_t\000"
 2772      735F7400 
 2773              	.LASF66:
 2774 035d 52455345 		.ascii	"RESERVED0\000"
 2774      52564544 
 2774      3000
 2775              	.LASF67:
 2776 0367 52455345 		.ascii	"RESERVED1\000"
 2776      52564544 
 2776      3100
 2777              	.LASF69:
 2778 0371 52455345 		.ascii	"RESERVED2\000"
 2778      52564544 
 2778      3200
 2779              	.LASF71:
 2780 037b 52455345 		.ascii	"RESERVED3\000"
 2780      52564544 
 2780      3300
 2781              	.LASF72:
 2782 0385 52455345 		.ascii	"RESERVED4\000"
 2782      52564544 
 2782      3400
 2783              	.LASF27:
 2784 038f 705F7072 		.ascii	"p_prev\000"
 2784      657600
 2785              	.LASF74:
 2786 0396 52455345 		.ascii	"RESERVED6\000"
 2786      52564544 
 2786      3600
 2787              	.LASF75:
 2788 03a0 52455345 		.ascii	"RESERVED7\000"
 2788      52564544 
 2788      3700
 2789              	.LASF77:
 2790 03aa 52455345 		.ascii	"RESERVED8\000"
 2790      52564544 
 2790      3800
 2791              	.LASF21:
ARM GAS  /tmp/ccnq6xNA.s 			page 53


 2792 03b4 74707269 		.ascii	"tprio_t\000"
 2792      6F5F7400 
 2793              	.LASF88:
 2794 03bc 4932435F 		.ascii	"I2C_ACTIVE_TX\000"
 2794      41435449 
 2794      56455F54 
 2794      5800
 2795              	.LASF93:
 2796 03ca 69326366 		.ascii	"i2cflags_t\000"
 2796      6C616773 
 2796      5F7400
 2797              	.LASF110:
 2798 03d5 6D757465 		.ascii	"mutex\000"
 2798      7800
 2799              	.LASF16:
 2800 03db 5F426F6F 		.ascii	"_Bool\000"
 2800      6C00
 2801              	.LASF9:
 2802 03e1 696E7433 		.ascii	"int32_t\000"
 2802      325F7400 
 2803              	.LASF4:
 2804 03e9 756E7369 		.ascii	"unsigned char\000"
 2804      676E6564 
 2804      20636861 
 2804      7200
 2805              	.LASF84:
 2806 03f7 73746D33 		.ascii	"stm32_dma_stream_t\000"
 2806      325F646D 
 2806      615F7374 
 2806      7265616D 
 2806      5F7400
 2807              	.LASF34:
 2808 040a 705F7374 		.ascii	"p_state\000"
 2808      61746500 
 2809              	.LASF122:
 2810 0412 6D616758 		.ascii	"magX\000"
 2810      00
 2811              	.LASF123:
 2812 0417 6D616759 		.ascii	"magY\000"
 2812      00
 2813              	.LASF124:
 2814 041c 6D61675A 		.ascii	"magZ\000"
 2814      00
 2815              	.LASF37:
 2816 0421 705F7072 		.ascii	"p_preempt\000"
 2816      65656D70 
 2816      7400
 2817              	.LASF60:
 2818 042b 65776D61 		.ascii	"ewmask\000"
 2818      736B00
 2819              	.LASF26:
 2820 0432 705F6E65 		.ascii	"p_next\000"
 2820      787400
 2821              	.LASF35:
 2822 0439 705F666C 		.ascii	"p_flags\000"
 2822      61677300 
 2823              	.LASF99:
ARM GAS  /tmp/ccnq6xNA.s 			page 54


 2824 0441 46415354 		.ascii	"FAST_DUTY_CYCLE_2\000"
 2824      5F445554 
 2824      595F4359 
 2824      434C455F 
 2824      3200
 2825              	.LASF79:
 2826 0453 6368616E 		.ascii	"channel\000"
 2826      6E656C00 
 2827              	.LASF90:
 2828 045b 4932435F 		.ascii	"I2C_LOCKED\000"
 2828      4C4F434B 
 2828      454400
 2829              	.LASF128:
 2830 0466 4D414730 		.ascii	"MAG01A.c\000"
 2830      31412E63 
 2830      00
 2831              	.LASF42:
 2832 046f 705F6570 		.ascii	"p_epending\000"
 2832      656E6469 
 2832      6E6700
 2833              	.LASF80:
 2834 047a 69666372 		.ascii	"ifcr\000"
 2834      00
 2835              	.LASF73:
 2836 047f 52455345 		.ascii	"RESERVED5\000"
 2836      52564544 
 2836      3500
 2837              	.LASF11:
 2838 0489 75696E74 		.ascii	"uint32_t\000"
 2838      33325F74 
 2838      00
 2839              	.LASF125:
 2840 0492 72784461 		.ascii	"rxData\000"
 2840      746100
 2841              	.LASF89:
 2842 0499 4932435F 		.ascii	"I2C_ACTIVE_RX\000"
 2842      41435449 
 2842      56455F52 
 2842      5800
 2843              	.LASF12:
 2844 04a7 6C6F6E67 		.ascii	"long unsigned int\000"
 2844      20756E73 
 2844      69676E65 
 2844      6420696E 
 2844      7400
 2845              	.LASF61:
 2846 04b9 63686172 		.ascii	"char\000"
 2846      00
 2847              	.LASF108:
 2848 04be 636F6E66 		.ascii	"config\000"
 2848      696700
 2849              	.LASF120:
 2850 04c5 6D616749 		.ascii	"magInit\000"
 2850      6E697400 
 2851              	.LASF56:
 2852 04cd 6D5F6E65 		.ascii	"m_next\000"
 2852      787400
ARM GAS  /tmp/ccnq6xNA.s 			page 55


 2853              	.LASF24:
 2854 04d4 73797374 		.ascii	"systime_t\000"
 2854      696D655F 
 2854      7400
 2855              	.LASF44:
 2856 04de 705F7265 		.ascii	"p_realprio\000"
 2856      616C7072 
 2856      696F00
 2857              	.LASF87:
 2858 04e9 4932435F 		.ascii	"I2C_READY\000"
 2858      52454144 
 2858      5900
 2859              	.LASF51:
 2860 04f3 636F6E74 		.ascii	"context\000"
 2860      65787400 
 2861              	.LASF50:
 2862 04fb 696E7463 		.ascii	"intctx\000"
 2862      747800
 2863              	.LASF126:
 2864 0502 69326341 		.ascii	"i2cAcquireBus\000"
 2864      63717569 
 2864      72654275 
 2864      7300
 2865              	.LASF62:
 2866 0510 434E4454 		.ascii	"CNDTR\000"
 2866      5200
 2867              	.LASF64:
 2868 0516 434D4152 		.ascii	"CMAR\000"
 2868      00
 2869              	.LASF3:
 2870 051b 75696E74 		.ascii	"uint8_t\000"
 2870      385F7400 
 2871              	.LASF68:
 2872 0523 4F415231 		.ascii	"OAR1\000"
 2872      00
 2873              	.LASF70:
 2874 0528 4F415232 		.ascii	"OAR2\000"
 2874      00
 2875              	.LASF59:
 2876 052d 77746F62 		.ascii	"wtobjp\000"
 2876      6A7000
 2877              	.LASF32:
 2878 0534 705F6E61 		.ascii	"p_name\000"
 2878      6D6500
 2879              	.LASF117:
 2880 053b 69326344 		.ascii	"i2cDrv\000"
 2880      727600
 2881              	.LASF41:
 2882 0542 705F6D73 		.ascii	"p_msg\000"
 2882      6700
 2883              	.LASF78:
 2884 0548 4932435F 		.ascii	"I2C_TypeDef\000"
 2884      54797065 
 2884      44656600 
 2885              	.LASF97:
 2886 0554 6932636F 		.ascii	"i2copmode_t\000"
 2886      706D6F64 
ARM GAS  /tmp/ccnq6xNA.s 			page 56


 2886      655F7400 
 2887              	.LASF118:
 2888 0560 74784461 		.ascii	"txData\000"
 2888      746100
 2889              	.LASF55:
 2890 0567 6D5F6F77 		.ascii	"m_owner\000"
 2890      6E657200 
 2891              	.LASF29:
 2892 056f 705F6374 		.ascii	"p_ctx\000"
 2892      7800
 2893              	.LASF39:
 2894 0575 705F7761 		.ascii	"p_waiting\000"
 2894      6974696E 
 2894      6700
 2895              		.ident	"GCC: (GNU Tools for ARM Embedded Processors) 4.7.4 20130613 (release) [ARM/embedded-4_7-br
ARM GAS  /tmp/ccnq6xNA.s 			page 57


DEFINED SYMBOLS
                            *ABS*:00000000 MAG01A.c
     /tmp/ccnq6xNA.s:19     .text.magInit:00000000 $t
     /tmp/ccnq6xNA.s:25     .text.magInit:00000000 magInit
     /tmp/ccnq6xNA.s:182    .text.magRead:00000000 $t
     /tmp/ccnq6xNA.s:188    .text.magRead:00000000 magRead
                     .debug_frame:00000010 $d

UNDEFINED SYMBOLS
i2cAcquireBus
i2cMasterTransmitTimeout
i2cReleaseBus
i2cGetErr
