ARM GAS  /tmp/ccvBUZgL.s 			page 1


   1              		.syntax unified
   2              		.cpu cortex-m3
   3              		.fpu softvfp
   4              		.eabi_attribute 20, 1
   5              		.eabi_attribute 21, 1
   6              		.eabi_attribute 23, 3
   7              		.eabi_attribute 24, 1
   8              		.eabi_attribute 25, 1
   9              		.eabi_attribute 26, 1
  10              		.eabi_attribute 30, 2
  11              		.eabi_attribute 34, 1
  12              		.eabi_attribute 18, 4
  13              		.thumb
  14              		.file	"main.c"
  15              		.text
  16              	.Ltext0:
  17              		.cfi_sections	.debug_frame
  18              		.section	.text.sensorsRead,"ax",%progbits
  19              		.align	2
  20              		.p2align 4,,15
  21              		.thumb
  22              		.thumb_func
  23              		.type	sensorsRead, %function
  24              	sensorsRead:
  25              	.LFB64:
  26              		.file 1 "main.c"
  27              		.loc 1 40 0
  28              		.cfi_startproc
  29              		@ args = 0, pretend = 0, frame = 16
  30              		@ frame_needed = 0, uses_anonymous_args = 0
  31              	.LVL0:
  32 0000 30B5     		push	{r4, r5, lr}
  33              	.LCFI0:
  34              		.cfi_def_cfa_offset 12
  35              		.cfi_offset 4, -12
  36              		.cfi_offset 5, -8
  37              		.cfi_offset 14, -4
  38              		.loc 1 44 0
  39 0002 1E21     		movs	r1, #30
  40              		.loc 1 40 0
  41 0004 87B0     		sub	sp, sp, #28
  42              	.LCFI1:
  43              		.cfi_def_cfa_offset 40
  44              		.loc 1 44 0
  45 0006 2348     		ldr	r0, .L4
  46              	.LVL1:
  47 0008 FFF7FEFF 		bl	magInit
  48              	.LVL2:
  49              		.loc 1 45 0
  50 000c 2148     		ldr	r0, .L4
  51 000e 1C21     		movs	r1, #28
  52 0010 FFF7FEFF 		bl	accInit
  53              	.LVL3:
  54 0014 04AD     		add	r5, sp, #16
  55 0016 0DF11604 		add	r4, sp, #22
  56              	.LVL4:
  57              	.L2:
ARM GAS  /tmp/ccvBUZgL.s 			page 2


  58              	.LBB2:
  59              		.loc 1 48 0 discriminator 1
  60 001a 03AA     		add	r2, sp, #12
  61 001c 0DF10E03 		add	r3, sp, #14
  62 0020 1E21     		movs	r1, #30
  63 0022 0095     		str	r5, [sp, #0]
  64 0024 1B48     		ldr	r0, .L4
  65 0026 FFF7FEFF 		bl	magRead
  66              	.LVL5:
  67              		.loc 1 49 0 discriminator 1
  68 002a 05AB     		add	r3, sp, #20
  69 002c 0DF11202 		add	r2, sp, #18
  70 0030 1C21     		movs	r1, #28
  71 0032 0094     		str	r4, [sp, #0]
  72 0034 1748     		ldr	r0, .L4
  73 0036 FFF7FEFF 		bl	accRead
  74              	.LVL6:
  75              		.loc 1 51 0 discriminator 1
  76 003a BDF90C20 		ldrsh	r2, [sp, #12]
  77 003e 1648     		ldr	r0, .L4+4
  78 0040 1649     		ldr	r1, .L4+8
  79 0042 FFF7FEFF 		bl	chprintf
  80              	.LVL7:
  81              		.loc 1 52 0 discriminator 1
  82 0046 BDF90E20 		ldrsh	r2, [sp, #14]
  83 004a 1348     		ldr	r0, .L4+4
  84 004c 1449     		ldr	r1, .L4+12
  85 004e FFF7FEFF 		bl	chprintf
  86              	.LVL8:
  87              		.loc 1 53 0 discriminator 1
  88 0052 BDF91020 		ldrsh	r2, [sp, #16]
  89 0056 1048     		ldr	r0, .L4+4
  90 0058 1249     		ldr	r1, .L4+16
  91 005a FFF7FEFF 		bl	chprintf
  92              	.LVL9:
  93              		.loc 1 54 0 discriminator 1
  94 005e BDF91220 		ldrsh	r2, [sp, #18]
  95 0062 0D48     		ldr	r0, .L4+4
  96 0064 1049     		ldr	r1, .L4+20
  97 0066 FFF7FEFF 		bl	chprintf
  98              	.LVL10:
  99              		.loc 1 55 0 discriminator 1
 100 006a BDF91420 		ldrsh	r2, [sp, #20]
 101 006e 0A48     		ldr	r0, .L4+4
 102 0070 0E49     		ldr	r1, .L4+24
 103 0072 FFF7FEFF 		bl	chprintf
 104              	.LVL11:
 105              		.loc 1 56 0 discriminator 1
 106 0076 BDF91620 		ldrsh	r2, [sp, #22]
 107 007a 0748     		ldr	r0, .L4+4
 108 007c 0C49     		ldr	r1, .L4+28
 109 007e FFF7FEFF 		bl	chprintf
 110              	.LVL12:
 111              		.loc 1 57 0 discriminator 1
 112 0082 0548     		ldr	r0, .L4+4
 113 0084 0B49     		ldr	r1, .L4+32
 114 0086 FFF7FEFF 		bl	chprintf
ARM GAS  /tmp/ccvBUZgL.s 			page 3


 115              	.LVL13:
 116              		.loc 1 58 0 discriminator 1
 117 008a 0520     		movs	r0, #5
 118 008c FFF7FEFF 		bl	chThdSleep
 119              	.LVL14:
 120 0090 C3E7     		b	.L2
 121              	.L5:
 122 0092 00BF     		.align	2
 123              	.L4:
 124 0094 00000000 		.word	I2CD2
 125 0098 00000000 		.word	SD2
 126 009c 00000000 		.word	.LC0
 127 00a0 10000000 		.word	.LC1
 128 00a4 20000000 		.word	.LC2
 129 00a8 30000000 		.word	.LC3
 130 00ac 40000000 		.word	.LC4
 131 00b0 50000000 		.word	.LC5
 132 00b4 60000000 		.word	.LC6
 133              	.LBE2:
 134              		.cfi_endproc
 135              	.LFE64:
 136              		.size	sensorsRead, .-sensorsRead
 137 00b8 AFF30080 		.section	.text.heartBeat,"ax",%progbits
 137      AFF30080 
 138              		.align	2
 139              		.p2align 4,,15
 140              		.thumb
 141              		.thumb_func
 142              		.type	heartBeat, %function
 143              	heartBeat:
 144              	.LFB63:
 145              		.loc 1 23 0
 146              		.cfi_startproc
 147              		@ args = 0, pretend = 0, frame = 0
 148              		@ frame_needed = 0, uses_anonymous_args = 0
 149              	.LVL15:
 150 0000 F8B5     		push	{r3, r4, r5, r6, r7, lr}
 151              	.LCFI2:
 152              		.cfi_def_cfa_offset 24
 153              		.cfi_offset 3, -24
 154              		.cfi_offset 4, -20
 155              		.cfi_offset 5, -16
 156              		.cfi_offset 6, -12
 157              		.cfi_offset 7, -8
 158              		.cfi_offset 14, -4
 159              		.loc 1 24 0
 160 0002 0B48     		ldr	r0, .L8
 161              	.LVL16:
 162 0004 0B49     		ldr	r1, .L8+4
 163 0006 FFF7FEFF 		bl	chprintf
 164              	.LVL17:
 165              		.loc 1 28 0
 166 000a 4FF44064 		mov	r4, #3072
 167 000e 4FF48076 		mov	r6, #256
 168 0012 C4F20104 		movt	r4, 16385
 169 0016 3746     		mov	r7, r6
 170              		.loc 1 29 0
ARM GAS  /tmp/ccvBUZgL.s 			page 4


 171 0018 8025     		movs	r5, #128
 172              	.L7:
 173              		.loc 1 28 0 discriminator 1
 174 001a 2761     		str	r7, [r4, #16]
 175              		.loc 1 30 0 discriminator 1
 176 001c FA20     		movs	r0, #250
 177              		.loc 1 29 0 discriminator 1
 178 001e 6561     		str	r5, [r4, #20]
 179              		.loc 1 30 0 discriminator 1
 180 0020 FFF7FEFF 		bl	chThdSleep
 181              	.LVL18:
 182              		.loc 1 31 0 discriminator 1
 183 0024 6661     		str	r6, [r4, #20]
 184              		.loc 1 33 0 discriminator 1
 185 0026 FA20     		movs	r0, #250
 186              		.loc 1 32 0 discriminator 1
 187 0028 2561     		str	r5, [r4, #16]
 188              		.loc 1 33 0 discriminator 1
 189 002a FFF7FEFF 		bl	chThdSleep
 190              	.LVL19:
 191 002e F4E7     		b	.L7
 192              	.L9:
 193              		.align	2
 194              	.L8:
 195 0030 00000000 		.word	SD2
 196 0034 64000000 		.word	.LC7
 197              		.cfi_endproc
 198              	.LFE63:
 199              		.size	heartBeat, .-heartBeat
 200 0038 AFF30080 		.section	.text.startup.main,"ax",%progbits
 200      AFF30080 
 201              		.align	2
 202              		.p2align 4,,15
 203              		.global	main
 204              		.thumb
 205              		.thumb_func
 206              		.type	main, %function
 207              	main:
 208              	.LFB65:
 209              		.loc 1 64 0
 210              		.cfi_startproc
 211              		@ args = 0, pretend = 0, frame = 0
 212              		@ frame_needed = 0, uses_anonymous_args = 0
 213 0000 10B5     		push	{r4, lr}
 214              	.LCFI3:
 215              		.cfi_def_cfa_offset 8
 216              		.cfi_offset 4, -8
 217              		.cfi_offset 14, -4
 218 0002 82B0     		sub	sp, sp, #8
 219              	.LCFI4:
 220              		.cfi_def_cfa_offset 16
 221              		.loc 1 65 0
 222 0004 FFF7FEFF 		bl	halInit
 223              	.LVL20:
 224              		.loc 1 66 0
 225 0008 FFF7FEFF 		bl	chSysInit
 226              	.LVL21:
ARM GAS  /tmp/ccvBUZgL.s 			page 5


 227              		.loc 1 68 0
 228 000c 40F20000 		movw	r0, #:lower16:SD2
 229 0010 0021     		movs	r1, #0
 230 0012 C0F20000 		movt	r0, #:upper16:SD2
 231 0016 FFF7FEFF 		bl	sdStart
 232              	.LVL22:
 233              		.loc 1 69 0
 234 001a 40F20000 		movw	r0, #:lower16:I2CD2
 235 001e 40F20001 		movw	r1, #:lower16:.LANCHOR0
 236 0022 C0F20000 		movt	r0, #:upper16:I2CD2
 237 0026 C0F20001 		movt	r1, #:upper16:.LANCHOR0
 238 002a FFF7FEFF 		bl	i2cStart
 239              	.LVL23:
 240              		.loc 1 72 0
 241 002e 0024     		movs	r4, #0
 242 0030 40F20003 		movw	r3, #:lower16:heartBeat
 243 0034 40F20000 		movw	r0, #:lower16:.LANCHOR1
 244 0038 D021     		movs	r1, #208
 245 003a 4022     		movs	r2, #64
 246 003c C0F20003 		movt	r3, #:upper16:heartBeat
 247 0040 0094     		str	r4, [sp, #0]
 248 0042 C0F20000 		movt	r0, #:upper16:.LANCHOR1
 249 0046 FFF7FEFF 		bl	chThdCreateStatic
 250              	.LVL24:
 251              		.loc 1 73 0
 252 004a 40F20000 		movw	r0, #:lower16:.LANCHOR2
 253 004e 40F20003 		movw	r3, #:lower16:sensorsRead
 254 0052 0094     		str	r4, [sp, #0]
 255 0054 4FF4D871 		mov	r1, #432
 256 0058 4022     		movs	r2, #64
 257 005a C0F20003 		movt	r3, #:upper16:sensorsRead
 258 005e C0F20000 		movt	r0, #:upper16:.LANCHOR2
 259 0062 FFF7FEFF 		bl	chThdCreateStatic
 260              	.LVL25:
 261              		.loc 1 74 0
 262 0066 2046     		mov	r0, r4
 263 0068 02B0     		add	sp, sp, #8
 264 006a 10BD     		pop	{r4, pc}
 265              		.cfi_endproc
 266              	.LFE65:
 267              		.size	main, .-main
 268 006c AFF30080 		.section	.rodata.i2cCfg,"a",%progbits
 269              		.align	2
 270              		.set	.LANCHOR0,. + 0
 271              		.type	i2cCfg, %object
 272              		.size	i2cCfg, 12
 273              	i2cCfg:
 274 0000 01       		.byte	1
 275 0001 000000   		.space	3
 276 0004 801A0600 		.word	400000
 277 0008 02       		.byte	2
 278 0009 000000   		.space	3
 279              		.section	.bss.sensorsReadWrkArea,"aw",%nobits
 280              		.align	3
 281              		.set	.LANCHOR2,. + 0
 282              		.type	sensorsReadWrkArea, %object
 283              		.size	sensorsReadWrkArea, 432
ARM GAS  /tmp/ccvBUZgL.s 			page 6


 284              	sensorsReadWrkArea:
 285 0000 00000000 		.space	432
 285      00000000 
 285      00000000 
 285      00000000 
 285      00000000 
 286              		.section	.rodata.str1.4,"aMS",%progbits,1
 287              		.align	2
 288              	.LC0:
 289 0000 2564206D 		.ascii	"%d magX     \000"
 289      61675820 
 289      20202020 
 289      00
 290 000d 000000   		.space	3
 291              	.LC1:
 292 0010 2564206D 		.ascii	"%d magY     \000"
 292      61675920 
 292      20202020 
 292      00
 293 001d 000000   		.space	3
 294              	.LC2:
 295 0020 2564206D 		.ascii	"%d magZ     \000"
 295      61675A20 
 295      20202020 
 295      00
 296 002d 000000   		.space	3
 297              	.LC3:
 298 0030 25642061 		.ascii	"%d accX     \000"
 298      63635820 
 298      20202020 
 298      00
 299 003d 000000   		.space	3
 300              	.LC4:
 301 0040 25642061 		.ascii	"%d accY     \000"
 301      63635920 
 301      20202020 
 301      00
 302 004d 000000   		.space	3
 303              	.LC5:
 304 0050 25642061 		.ascii	"%d accZ     \000"
 304      63635A20 
 304      20202020 
 304      00
 305 005d 000000   		.space	3
 306              	.LC6:
 307 0060 0A0D00   		.ascii	"\012\015\000"
 308 0063 00       		.space	1
 309              	.LC7:
 310 0064 48656C6C 		.ascii	"Hello world!\012\015\000"
 310      6F20776F 
 310      726C6421 
 310      0A0D00
 311 0073 00       		.section	.bss.heartWrkArea,"aw",%nobits
 312              		.align	3
 313              		.set	.LANCHOR1,. + 0
 314              		.type	heartWrkArea, %object
 315              		.size	heartWrkArea, 208
ARM GAS  /tmp/ccvBUZgL.s 			page 7


 316              	heartWrkArea:
 317 0000 00000000 		.space	208
 317      00000000 
 317      00000000 
 317      00000000 
 317      00000000 
 318              		.text
 319              	.Letext0:
 320              		.file 2 "/usr/bin/../lib/gcc/arm-none-eabi/4.7.4/include/stddef.h"
 321              		.file 3 "/usr/bin/../lib/gcc/arm-none-eabi/4.7.4/../../../../arm-none-eabi/include/stdint.h"
 322              		.file 4 "../../os/ports/GCC/ARMCMx/chtypes.h"
 323              		.file 5 "../../os/kernel/include/chlists.h"
 324              		.file 6 "../../os/kernel/include/chthreads.h"
 325              		.file 7 "../../os/ports/GCC/ARMCMx/chcore_v7m.h"
 326              		.file 8 "../../os/kernel/include/chmtx.h"
 327              		.file 9 "../../os/kernel/include/chevents.h"
 328              		.file 10 "../../os/kernel/include/chqueues.h"
 329              		.file 11 "../../os/kernel/include/chstreams.h"
 330              		.file 12 "../../os/hal/platforms/STM32F1xx/stm32f10x.h"
 331              		.file 13 "../../os/hal/platforms/STM32F1xx/stm32_dma.h"
 332              		.file 14 "../../os/hal/include/io_channel.h"
 333              		.file 15 "../../os/hal/platforms/STM32/GPIOv1/pal_lld.h"
 334              		.file 16 "../../os/hal/include/i2c.h"
 335              		.file 17 "../../os/hal/platforms/STM32/I2Cv1/i2c_lld.h"
 336              		.file 18 "../../os/hal/include/serial.h"
 337              		.file 19 "../../os/hal/platforms/STM32/USARTv1/serial_lld.h"
 338              		.file 20 "../../os/ports/common/ARMCMx/CMSIS/include/core_cm3.h"
 339              		.file 21 "../../os/various/chprintf.h"
 340              		.file 22 "../../os/hal/include/hal.h"
 341              		.file 23 "../../os/kernel/include/chsys.h"