ARM GAS  /tmp/ccLML1F6.s 			page 1


   1              		.syntax unified
   2              		.cpu cortex-m3
   3              		.fpu softvfp
   4              		.eabi_attribute 20, 1
   5              		.eabi_attribute 21, 1
   6              		.eabi_attribute 23, 3
   7              		.eabi_attribute 24, 1
   8              		.eabi_attribute 25, 1
   9              		.eabi_attribute 26, 1
  10              		.eabi_attribute 30, 2
  11              		.eabi_attribute 34, 1
  12              		.eabi_attribute 18, 4
  13              		.thumb
  14              		.file	"shell.c"
  15              		.text
  16              	.Ltext0:
  17              		.cfi_sections	.debug_frame
  18              		.section	.text._strtok.constprop.2,"ax",%progbits
  19              		.align	2
  20              		.p2align 4,,15
  21              		.thumb
  22              		.thumb_func
  23              		.type	_strtok.constprop.2, %function
  24              	_strtok.constprop.2:
  25              	.LFB76:
  26              		.file 1 "../../os/various/shell.c"
  27              		.loc 1 37 0
  28              		.cfi_startproc
  29              		@ args = 0, pretend = 0, frame = 0
  30              		@ frame_needed = 0, uses_anonymous_args = 0
  31              	.LVL0:
  32 0000 38B5     		push	{r3, r4, r5, lr}
  33              	.LCFI0:
  34              		.cfi_def_cfa_offset 16
  35              		.cfi_offset 3, -16
  36              		.cfi_offset 4, -12
  37              		.cfi_offset 5, -8
  38              		.cfi_offset 14, -4
  39              		.loc 1 39 0
  40 0002 0446     		mov	r4, r0
  41              		.loc 1 37 0
  42 0004 0D46     		mov	r5, r1
  43              		.loc 1 39 0
  44 0006 98B1     		cbz	r0, .L2
  45              		.loc 1 40 0
  46 0008 2860     		str	r0, [r5, #0]
  47              	.LVL1:
  48              	.L3:
  49              		.loc 1 46 0
  50 000a 0C49     		ldr	r1, .L14
  51              	.LVL2:
  52 000c 2046     		mov	r0, r4
  53              	.LVL3:
  54 000e FFF7FEFF 		bl	strspn
  55              	.LVL4:
  56 0012 2418     		adds	r4, r4, r0
  57              	.LVL5:
ARM GAS  /tmp/ccLML1F6.s 			page 2


  58              		.loc 1 47 0
  59 0014 2046     		mov	r0, r4
  60 0016 0949     		ldr	r1, .L14
  61 0018 FFF7FEFF 		bl	strpbrk
  62              	.LVL6:
  63 001c 2860     		str	r0, [r5, #0]
  64              		.loc 1 48 0
  65 001e 18B1     		cbz	r0, .L5
  66              		.loc 1 49 0
  67 0020 0023     		movs	r3, #0
  68 0022 00F8013B 		strb	r3, [r0], #1
  69 0026 2860     		str	r0, [r5, #0]
  70              	.L5:
  71              		.loc 1 51 0
  72 0028 2078     		ldrb	r0, [r4, #0]	@ zero_extendqisi2
  73 002a 20B1     		cbz	r0, .L6
  74              		.loc 1 52 0
  75 002c 2046     		mov	r0, r4
  76 002e 38BD     		pop	{r3, r4, r5, pc}
  77              	.LVL7:
  78              	.L2:
  79              		.loc 1 41 0
  80 0030 0C68     		ldr	r4, [r1, #0]
  81              	.LVL8:
  82              		.loc 1 43 0
  83 0032 002C     		cmp	r4, #0
  84 0034 E9D1     		bne	.L3
  85              	.LVL9:
  86              	.L6:
  87              		.loc 1 44 0
  88 0036 0024     		movs	r4, #0
  89              	.LVL10:
  90              		.loc 1 52 0
  91 0038 2046     		mov	r0, r4
  92 003a 38BD     		pop	{r3, r4, r5, pc}
  93              	.L15:
  94              		.align	2
  95              	.L14:
  96 003c 00000000 		.word	.LC0
  97              		.cfi_endproc
  98              	.LFE76:
  99              		.size	_strtok.constprop.2, .-_strtok.constprop.2
 100              		.section	.text.cmd_systime,"ax",%progbits
 101              		.align	2
 102              		.p2align 4,,15
 103              		.thumb
 104              		.thumb_func
 105              		.type	cmd_systime, %function
 106              	cmd_systime:
 107              	.LFB67:
 108              		.loc 1 99 0
 109              		.cfi_startproc
 110              		@ args = 0, pretend = 0, frame = 0
 111              		@ frame_needed = 0, uses_anonymous_args = 0
 112              		@ link register save eliminated.
 113              	.LVL11:
 114              		.loc 1 102 0
ARM GAS  /tmp/ccLML1F6.s 			page 3


 115 0000 0029     		cmp	r1, #0
 116 0002 03DD     		ble	.L17
 117              	.LVL12:
 118              	.LBB6:
 119              	.LBB7:
 120              		.loc 1 56 0
 121 0004 0449     		ldr	r1, .L18
 122              	.LVL13:
 123 0006 054A     		ldr	r2, .L18+4
 124              	.LVL14:
 125              	.LBE7:
 126              	.LBE6:
 127              		.loc 1 107 0
 128              	.LBB9:
 129              	.LBB8:
 130              		.loc 1 56 0
 131 0008 FFF7FEBF 		b	chprintf
 132              	.LVL15:
 133              	.L17:
 134              	.LBE8:
 135              	.LBE9:
 136              	.LBB10:
 137              	.LBB11:
 138              		.loc 1 106 0
 139 000c 044B     		ldr	r3, .L18+8
 140 000e 0549     		ldr	r1, .L18+12
 141              	.LVL16:
 142 0010 DA68     		ldr	r2, [r3, #12]
 143              	.LVL17:
 144              	.LBE11:
 145              	.LBE10:
 146              		.loc 1 107 0
 147              	.LBB13:
 148              	.LBB12:
 149              		.loc 1 106 0
 150 0012 FFF7FEBF 		b	chprintf
 151              	.LVL18:
 152              	.L19:
 153 0016 00BF     		.align	2
 154              	.L18:
 155 0018 04000000 		.word	.LC1
 156 001c 10000000 		.word	.LC2
 157 0020 00000000 		.word	vtlist
 158 0024 18000000 		.word	.LC3
 159              	.LBE12:
 160              	.LBE13:
 161              		.cfi_endproc
 162              	.LFE67:
 163              		.size	cmd_systime, .-cmd_systime
 164 0028 AFF30080 		.section	.text.cmd_info,"ax",%progbits
 164      AFF30080 
 165              		.align	2
 166              		.p2align 4,,15
 167              		.thumb
 168              		.thumb_func
 169              		.type	cmd_info, %function
 170              	cmd_info:
ARM GAS  /tmp/ccLML1F6.s 			page 4


 171              	.LFB66:
 172              		.loc 1 67 0
 173              		.cfi_startproc
 174              		@ args = 0, pretend = 0, frame = 0
 175              		@ frame_needed = 0, uses_anonymous_args = 0
 176              	.LVL19:
 177 0000 10B5     		push	{r4, lr}
 178              	.LCFI1:
 179              		.cfi_def_cfa_offset 8
 180              		.cfi_offset 4, -8
 181              		.cfi_offset 14, -4
 182              		.loc 1 70 0
 183 0002 0029     		cmp	r1, #0
 184              		.loc 1 67 0
 185 0004 82B0     		sub	sp, sp, #8
 186              	.LCFI2:
 187              		.cfi_def_cfa_offset 16
 188              		.loc 1 67 0
 189 0006 0446     		mov	r4, r0
 190              		.loc 1 70 0
 191 0008 06DD     		ble	.L21
 192              	.LVL20:
 193              	.LBB18:
 194              	.LBB19:
 195              		.loc 1 56 0
 196 000a 1949     		ldr	r1, .L22
 197              	.LVL21:
 198 000c 194A     		ldr	r2, .L22+4
 199              	.LVL22:
 200              	.LBE19:
 201              	.LBE18:
 202              		.loc 1 97 0
 203 000e 02B0     		add	sp, sp, #8
 204 0010 BDE81040 		pop	{r4, lr}
 205              	.LBB21:
 206              	.LBB20:
 207              		.loc 1 56 0
 208 0014 FFF7FEBF 		b	chprintf
 209              	.LVL23:
 210              	.L21:
 211              	.LBE20:
 212              	.LBE21:
 213              	.LBB22:
 214              	.LBB23:
 215              		.loc 1 75 0
 216 0018 1749     		ldr	r1, .L22+8
 217              	.LVL24:
 218 001a 184A     		ldr	r2, .L22+12
 219              	.LVL25:
 220 001c FFF7FEFF 		bl	chprintf
 221              	.LVL26:
 222              		.loc 1 77 0
 223 0020 2046     		mov	r0, r4
 224 0022 1749     		ldr	r1, .L22+16
 225 0024 174A     		ldr	r2, .L22+20
 226 0026 FFF7FEFF 		bl	chprintf
 227              	.LVL27:
ARM GAS  /tmp/ccLML1F6.s 			page 5


 228              		.loc 1 79 0
 229 002a 2046     		mov	r0, r4
 230 002c 1649     		ldr	r1, .L22+24
 231 002e 174A     		ldr	r2, .L22+28
 232 0030 FFF7FEFF 		bl	chprintf
 233              	.LVL28:
 234              		.loc 1 81 0
 235 0034 2046     		mov	r0, r4
 236 0036 1649     		ldr	r1, .L22+32
 237 0038 164A     		ldr	r2, .L22+36
 238 003a FFF7FEFF 		bl	chprintf
 239              	.LVL29:
 240              		.loc 1 84 0
 241 003e 2046     		mov	r0, r4
 242 0040 1549     		ldr	r1, .L22+40
 243 0042 164A     		ldr	r2, .L22+44
 244 0044 FFF7FEFF 		bl	chprintf
 245              	.LVL30:
 246              		.loc 1 87 0
 247 0048 2046     		mov	r0, r4
 248 004a 1549     		ldr	r1, .L22+48
 249 004c 154A     		ldr	r2, .L22+52
 250 004e FFF7FEFF 		bl	chprintf
 251              	.LVL31:
 252              		.loc 1 90 0
 253 0052 2046     		mov	r0, r4
 254 0054 1449     		ldr	r1, .L22+56
 255 0056 154A     		ldr	r2, .L22+60
 256 0058 FFF7FEFF 		bl	chprintf
 257              	.LVL32:
 258              		.loc 1 94 0
 259 005c 144B     		ldr	r3, .L22+64
 260 005e 2046     		mov	r0, r4
 261 0060 0093     		str	r3, [sp, #0]
 262 0062 1449     		ldr	r1, .L22+68
 263 0064 144A     		ldr	r2, .L22+72
 264 0066 154B     		ldr	r3, .L22+76
 265 0068 FFF7FEFF 		bl	chprintf
 266              	.LVL33:
 267              	.LBE23:
 268              	.LBE22:
 269              		.loc 1 97 0
 270 006c 02B0     		add	sp, sp, #8
 271 006e 10BD     		pop	{r4, pc}
 272              	.L23:
 273              		.align	2
 274              	.L22:
 275 0070 04000000 		.word	.LC1
 276 0074 20000000 		.word	.LC4
 277 0078 28000000 		.word	.LC5
 278 007c 3C000000 		.word	.LC6
 279 0080 44000000 		.word	.LC7
 280 0084 58000000 		.word	.LC8
 281 0088 A0000000 		.word	.LC9
 282 008c B4000000 		.word	.LC10
 283 0090 BC000000 		.word	.LC11
 284 0094 D0000000 		.word	.LC12
ARM GAS  /tmp/ccLML1F6.s 			page 6


 285 0098 DC000000 		.word	.LC13
 286 009c F0000000 		.word	.LC14
 287 00a0 08010000 		.word	.LC15
 288 00a4 1C010000 		.word	.LC16
 289 00a8 38010000 		.word	.LC17
 290 00ac 4C010000 		.word	.LC18
 291 00b0 8C010000 		.word	.LC22
 292 00b4 64010000 		.word	.LC19
 293 00b8 7C010000 		.word	.LC20
 294 00bc 88010000 		.word	.LC21
 295              		.cfi_endproc
 296              	.LFE66:
 297              		.size	cmd_info, .-cmd_info
 298              		.section	.text.shellInit,"ax",%progbits
 299              		.align	2
 300              		.p2align 4,,15
 301              		.global	shellInit
 302              		.thumb
 303              		.thumb_func
 304              		.type	shellInit, %function
 305              	shellInit:
 306              	.LFB70:
 307              		.loc 1 204 0
 308              		.cfi_startproc
 309              		@ args = 0, pretend = 0, frame = 0
 310              		@ frame_needed = 0, uses_anonymous_args = 0
 311              		@ link register save eliminated.
 312              		.loc 1 206 0
 313 0000 40F20003 		movw	r3, #:lower16:.LANCHOR0
 314 0004 C0F20003 		movt	r3, #:upper16:.LANCHOR0
 315 0008 1B60     		str	r3, [r3, #0]
 316 000a 7047     		bx	lr
 317              		.cfi_endproc
 318              	.LFE70:
 319              		.size	shellInit, .-shellInit
 320 000c AFF30080 		.section	.text.shellCreate,"ax",%progbits
 321              		.align	2
 322              		.p2align 4,,15
 323              		.global	shellCreate
 324              		.thumb
 325              		.thumb_func
 326              		.type	shellCreate, %function
 327              	shellCreate:
 328              	.LFB71:
 329              		.loc 1 220 0
 330              		.cfi_startproc
 331              		@ args = 0, pretend = 0, frame = 0
 332              		@ frame_needed = 0, uses_anonymous_args = 0
 333              	.LVL34:
 334 0000 00B5     		push	{lr}
 335              	.LCFI3:
 336              		.cfi_def_cfa_offset 4
 337              		.cfi_offset 14, -4
 338              		.loc 1 222 0
 339 0002 40F20003 		movw	r3, #:lower16:shell_thread
 340              		.loc 1 220 0
 341 0006 83B0     		sub	sp, sp, #12
ARM GAS  /tmp/ccLML1F6.s 			page 7


 342              	.LCFI4:
 343              		.cfi_def_cfa_offset 16
 344              		.loc 1 222 0
 345 0008 0090     		str	r0, [sp, #0]
 346 000a C0F20003 		movt	r3, #:upper16:shell_thread
 347 000e 0020     		movs	r0, #0
 348              	.LVL35:
 349 0010 FFF7FEFF 		bl	chThdCreateFromHeap
 350              	.LVL36:
 351              		.loc 1 223 0
 352 0014 03B0     		add	sp, sp, #12
 353 0016 00BD     		pop	{pc}
 354              		.cfi_endproc
 355              	.LFE71:
 356              		.size	shellCreate, .-shellCreate
 357 0018 AFF30080 		.section	.text.shellCreateStatic,"ax",%progbits
 357      AFF30080 
 358              		.align	2
 359              		.p2align 4,,15
 360              		.global	shellCreateStatic
 361              		.thumb
 362              		.thumb_func
 363              		.type	shellCreateStatic, %function
 364              	shellCreateStatic:
 365              	.LFB72:
 366              		.loc 1 236 0
 367              		.cfi_startproc
 368              		@ args = 0, pretend = 0, frame = 0
 369              		@ frame_needed = 0, uses_anonymous_args = 0
 370              	.LVL37:
 371 0000 00B5     		push	{lr}
 372              	.LCFI5:
 373              		.cfi_def_cfa_offset 4
 374              		.cfi_offset 14, -4
 375 0002 83B0     		sub	sp, sp, #12
 376              	.LCFI6:
 377              		.cfi_def_cfa_offset 16
 378              		.loc 1 238 0
 379 0004 0090     		str	r0, [sp, #0]
 380 0006 0846     		mov	r0, r1
 381              	.LVL38:
 382 0008 1146     		mov	r1, r2
 383              	.LVL39:
 384 000a 1A46     		mov	r2, r3
 385              	.LVL40:
 386 000c 40F20003 		movw	r3, #:lower16:shell_thread
 387              	.LVL41:
 388 0010 C0F20003 		movt	r3, #:upper16:shell_thread
 389 0014 FFF7FEFF 		bl	chThdCreateStatic
 390              	.LVL42:
 391              		.loc 1 239 0
 392 0018 03B0     		add	sp, sp, #12
 393 001a 00BD     		pop	{pc}
 394              		.cfi_endproc
 395              	.LFE72:
 396              		.size	shellCreateStatic, .-shellCreateStatic
 397 001c AFF30080 		.section	.text.shellGetLine,"ax",%progbits
ARM GAS  /tmp/ccLML1F6.s 			page 8


 398              		.align	2
 399              		.p2align 4,,15
 400              		.global	shellGetLine
 401              		.thumb
 402              		.thumb_func
 403              		.type	shellGetLine, %function
 404              	shellGetLine:
 405              	.LFB73:
 406              		.loc 1 251 0
 407              		.cfi_startproc
 408              		@ args = 0, pretend = 0, frame = 8
 409              		@ frame_needed = 0, uses_anonymous_args = 0
 410              	.LVL43:
 411 0000 F0B5     		push	{r4, r5, r6, r7, lr}
 412              	.LCFI7:
 413              		.cfi_def_cfa_offset 20
 414              		.cfi_offset 4, -20
 415              		.cfi_offset 5, -16
 416              		.cfi_offset 6, -12
 417              		.cfi_offset 7, -8
 418              		.cfi_offset 14, -4
 419              	.LBB24:
 420              		.loc 1 279 0
 421 0002 013A     		subs	r2, r2, #1
 422              	.LVL44:
 423              	.LBE24:
 424              		.loc 1 251 0
 425 0004 83B0     		sub	sp, sp, #12
 426              	.LCFI8:
 427              		.cfi_def_cfa_offset 32
 428              		.loc 1 251 0
 429 0006 0E46     		mov	r6, r1
 430              	.LVL45:
 431 0008 0446     		mov	r4, r0
 432              		.loc 1 252 0
 433 000a 0D46     		mov	r5, r1
 434              	.LBB25:
 435              		.loc 1 279 0
 436 000c 8F18     		adds	r7, r1, r2
 437              	.LVL46:
 438              	.L39:
 439              		.loc 1 257 0
 440 000e 2368     		ldr	r3, [r4, #0]
 441 0010 0122     		movs	r2, #1
 442 0012 0DF10701 		add	r1, sp, #7
 443 0016 5B68     		ldr	r3, [r3, #4]
 444 0018 2046     		mov	r0, r4
 445 001a 9847     		blx	r3
 446              	.LVL47:
 447 001c 38B3     		cbz	r0, .L36
 448              		.loc 1 259 0
 449 001e 9DF80710 		ldrb	r1, [sp, #7]	@ zero_extendqisi2
 450 0022 0429     		cmp	r1, #4
 451 0024 26D0     		beq	.L40
 452              		.loc 1 263 0
 453 0026 0829     		cmp	r1, #8
 454 0028 0ED0     		beq	.L41
ARM GAS  /tmp/ccLML1F6.s 			page 9


 455              		.loc 1 272 0
 456 002a 0D29     		cmp	r1, #13
 457 002c 28D0     		beq	.L42
 458              		.loc 1 277 0
 459 002e 1F29     		cmp	r1, #31
 460 0030 EDD9     		bls	.L39
 461              		.loc 1 279 0
 462 0032 BD42     		cmp	r5, r7
 463 0034 EBD2     		bcs	.L39
 464              		.loc 1 280 0
 465 0036 2268     		ldr	r2, [r4, #0]
 466 0038 2046     		mov	r0, r4
 467 003a 9368     		ldr	r3, [r2, #8]
 468 003c 9847     		blx	r3
 469              	.LVL48:
 470              		.loc 1 281 0
 471 003e 9DF80700 		ldrb	r0, [sp, #7]	@ zero_extendqisi2
 472              	.LVL49:
 473 0042 05F8010B 		strb	r0, [r5], #1
 474              	.LVL50:
 475 0046 E2E7     		b	.L39
 476              	.LVL51:
 477              	.L41:
 478              		.loc 1 264 0
 479 0048 B542     		cmp	r5, r6
 480 004a E0D0     		beq	.L39
 481              		.loc 1 265 0
 482 004c 2268     		ldr	r2, [r4, #0]
 483 004e 2046     		mov	r0, r4
 484 0050 9368     		ldr	r3, [r2, #8]
 485 0052 9847     		blx	r3
 486              	.LVL52:
 487              		.loc 1 266 0
 488 0054 2068     		ldr	r0, [r4, #0]
 489 0056 2021     		movs	r1, #32
 490 0058 8268     		ldr	r2, [r0, #8]
 491 005a 2046     		mov	r0, r4
 492 005c 9047     		blx	r2
 493              	.LVL53:
 494              		.loc 1 267 0
 495 005e 2168     		ldr	r1, [r4, #0]
 496 0060 2046     		mov	r0, r4
 497 0062 8B68     		ldr	r3, [r1, #8]
 498 0064 9DF80710 		ldrb	r1, [sp, #7]	@ zero_extendqisi2
 499 0068 9847     		blx	r3
 500              	.LVL54:
 501              		.loc 1 268 0
 502 006a 013D     		subs	r5, r5, #1
 503              	.LVL55:
 504 006c CFE7     		b	.L39
 505              	.L36:
 506              		.loc 1 258 0
 507 006e 0120     		movs	r0, #1
 508              	.L29:
 509              	.LBE25:
 510              		.loc 1 284 0
 511 0070 03B0     		add	sp, sp, #12
ARM GAS  /tmp/ccLML1F6.s 			page 10


 512 0072 F0BD     		pop	{r4, r5, r6, r7, pc}
 513              	.L40:
 514              	.LBB26:
 515              		.loc 1 260 0
 516 0074 2046     		mov	r0, r4
 517 0076 0649     		ldr	r1, .L43
 518 0078 FFF7FEFF 		bl	chprintf
 519              	.LVL56:
 520              		.loc 1 261 0
 521 007c 0120     		movs	r0, #1
 522 007e F7E7     		b	.L29
 523              	.L42:
 524              		.loc 1 273 0
 525 0080 2046     		mov	r0, r4
 526 0082 0449     		ldr	r1, .L43+4
 527 0084 FFF7FEFF 		bl	chprintf
 528              	.LVL57:
 529              		.loc 1 274 0
 530 0088 0020     		movs	r0, #0
 531 008a 2870     		strb	r0, [r5, #0]
 532 008c F0E7     		b	.L29
 533              	.L44:
 534 008e 00BF     		.align	2
 535              	.L43:
 536 0090 98010000 		.word	.LC23
 537 0094 9C010000 		.word	.LC24
 538              	.LBE26:
 539              		.cfi_endproc
 540              	.LFE73:
 541              		.size	shellGetLine, .-shellGetLine
 542 0098 AFF30080 		.section	.text.shell_thread,"ax",%progbits
 542      AFF30080 
 543              		.align	2
 544              		.p2align 4,,15
 545              		.thumb
 546              		.thumb_func
 547              		.type	shell_thread, %function
 548              	shell_thread:
 549              	.LFB69:
 550              		.loc 1 139 0
 551              		.cfi_startproc
 552              		@ args = 0, pretend = 0, frame = 88
 553              		@ frame_needed = 0, uses_anonymous_args = 0
 554              	.LVL58:
 555 0000 2DE9F043 		push	{r4, r5, r6, r7, r8, r9, lr}
 556              	.LCFI9:
 557              		.cfi_def_cfa_offset 28
 558              		.cfi_offset 4, -28
 559              		.cfi_offset 5, -24
 560              		.cfi_offset 6, -20
 561              		.cfi_offset 7, -16
 562              		.cfi_offset 8, -12
 563              		.cfi_offset 9, -8
 564              		.cfi_offset 14, -4
 565              		.loc 1 147 0
 566 0004 6B4B     		ldr	r3, .L99
 567              		.loc 1 142 0
ARM GAS  /tmp/ccLML1F6.s 			page 11


 568 0006 0568     		ldr	r5, [r0, #0]
 569              	.LVL59:
 570              		.loc 1 147 0
 571 0008 9969     		ldr	r1, [r3, #24]
 572 000a 6B4A     		ldr	r2, .L99+4
 573              		.loc 1 143 0
 574 000c 4768     		ldr	r7, [r0, #4]
 575              	.LVL60:
 576              		.loc 1 139 0
 577 000e 97B0     		sub	sp, sp, #92
 578              	.LCFI10:
 579              		.cfi_def_cfa_offset 120
 580              		.loc 1 147 0
 581 0010 8A61     		str	r2, [r1, #24]
 582              		.loc 1 148 0
 583 0012 2846     		mov	r0, r5
 584              	.LVL61:
 585 0014 6949     		ldr	r1, .L99+8
 586 0016 FFF7FEFF 		bl	chprintf
 587              	.LVL62:
 588              	.LBB40:
 589              	.LBB41:
 590              		.loc 1 61 0
 591 001a DFF8C481 		ldr	r8, .L99+44
 592              	.L94:
 593              	.LBE41:
 594              	.LBE40:
 595              		.loc 1 150 0
 596 001e 2846     		mov	r0, r5
 597 0020 6749     		ldr	r1, .L99+12
 598 0022 FFF7FEFF 		bl	chprintf
 599              	.LVL63:
 600              		.loc 1 151 0
 601 0026 2846     		mov	r0, r5
 602 0028 06A9     		add	r1, sp, #24
 603 002a 4022     		movs	r2, #64
 604 002c FFF7FEFF 		bl	shellGetLine
 605              	.LVL64:
 606 0030 0446     		mov	r4, r0
 607 0032 0028     		cmp	r0, #0
 608 0034 30D1     		bne	.L97
 609              		.loc 1 155 0
 610 0036 6946     		mov	r1, sp
 611 0038 06A8     		add	r0, sp, #24
 612 003a FFF7FEFF 		bl	_strtok.constprop.2
 613              	.LVL65:
 614              		.loc 1 158 0
 615 003e 6946     		mov	r1, sp
 616              		.loc 1 155 0
 617 0040 0646     		mov	r6, r0
 618              	.LVL66:
 619              		.loc 1 158 0
 620 0042 2046     		mov	r0, r4
 621              	.LVL67:
 622 0044 FFF7FEFF 		bl	_strtok.constprop.2
 623              	.LVL68:
 624 0048 0346     		mov	r3, r0
ARM GAS  /tmp/ccLML1F6.s 			page 12


 625 004a 0028     		cmp	r0, #0
 626 004c 38D0     		beq	.L68
 627 004e 2046     		mov	r0, r4
 628              	.LVL69:
 629 0050 6946     		mov	r1, sp
 630              		.loc 1 164 0
 631 0052 0193     		str	r3, [sp, #4]
 632              	.LVL70:
 633              		.loc 1 158 0
 634 0054 FFF7FEFF 		bl	_strtok.constprop.2
 635              	.LVL71:
 636 0058 0246     		mov	r2, r0
 637 005a 0028     		cmp	r0, #0
 638 005c 52D0     		beq	.L69
 639 005e 2046     		mov	r0, r4
 640              	.LVL72:
 641 0060 6946     		mov	r1, sp
 642              		.loc 1 164 0
 643 0062 0292     		str	r2, [sp, #8]
 644              	.LVL73:
 645              		.loc 1 158 0
 646 0064 FFF7FEFF 		bl	_strtok.constprop.2
 647              	.LVL74:
 648 0068 0346     		mov	r3, r0
 649 006a 0028     		cmp	r0, #0
 650 006c 4CD0     		beq	.L70
 651 006e 2046     		mov	r0, r4
 652              	.LVL75:
 653 0070 6946     		mov	r1, sp
 654              		.loc 1 164 0
 655 0072 0393     		str	r3, [sp, #12]
 656              	.LVL76:
 657              		.loc 1 158 0
 658 0074 FFF7FEFF 		bl	_strtok.constprop.2
 659              	.LVL77:
 660 0078 0246     		mov	r2, r0
 661 007a 0028     		cmp	r0, #0
 662 007c 46D0     		beq	.L71
 663 007e 2046     		mov	r0, r4
 664              	.LVL78:
 665 0080 6946     		mov	r1, sp
 666              		.loc 1 164 0
 667 0082 0492     		str	r2, [sp, #16]
 668              	.LVL79:
 669              		.loc 1 158 0
 670 0084 FFF7FEFF 		bl	_strtok.constprop.2
 671              	.LVL80:
 672 0088 0028     		cmp	r0, #0
 673 008a 41D0     		beq	.L72
 674              		.loc 1 160 0
 675 008c 2846     		mov	r0, r5
 676              	.LVL81:
 677 008e 4D49     		ldr	r1, .L99+16
 678 0090 FFF7FEFF 		bl	chprintf
 679              	.LVL82:
 680              		.loc 1 166 0
 681 0094 0594     		str	r4, [sp, #20]
ARM GAS  /tmp/ccLML1F6.s 			page 13


 682 0096 C2E7     		b	.L94
 683              	.LVL83:
 684              	.L97:
 685              		.loc 1 152 0
 686 0098 2846     		mov	r0, r5
 687 009a 4B49     		ldr	r1, .L99+20
 688 009c FFF7FEFF 		bl	chprintf
 689              	.LVL84:
 690              	.L48:
 691              	.LBB43:
 692              		.loc 1 195 0
 693 00a0 2023     		movs	r3, #32
 694              	.LVL85:
 695              	@ 195 "../../os/various/shell.c" 1
 696 00a2 83F31188 		msr     BASEPRI, r3
 697              	@ 0 "" 2
 698              	.LVL86:
 699              		.thumb
 700              	.LBE43:
 701 00a6 FFF7FEFF 		bl	dbg_check_lock
 702              	.LVL87:
 703              		.loc 1 196 0
 704 00aa 0021     		movs	r1, #0
 705 00ac 4748     		ldr	r0, .L99+24
 706 00ae FFF7FEFF 		bl	chEvtBroadcastFlagsI
 707              	.LVL88:
 708              		.loc 1 197 0
 709 00b2 0020     		movs	r0, #0
 710 00b4 FFF7FEFF 		bl	chThdExitS
 711              	.LVL89:
 712              		.loc 1 199 0
 713 00b8 0020     		movs	r0, #0
 714 00ba 17B0     		add	sp, sp, #92
 715 00bc BDE8F083 		pop	{r4, r5, r6, r7, r8, r9, pc}
 716              	.LVL90:
 717              	.L68:
 718              		.loc 1 157 0
 719 00c0 0446     		mov	r4, r0
 720              	.LVL91:
 721              	.L49:
 722              		.loc 1 166 0
 723 00c2 16A8     		add	r0, sp, #88
 724              	.LVL92:
 725 00c4 00EB8401 		add	r1, r0, r4, lsl #2
 726 00c8 0023     		movs	r3, #0
 727 00ca 41F8543C 		str	r3, [r1, #-84]
 728              		.loc 1 167 0
 729 00ce 002E     		cmp	r6, #0
 730 00d0 A5D0     		beq	.L94
 731              		.loc 1 168 0
 732 00d2 3046     		mov	r0, r6
 733 00d4 3E49     		ldr	r1, .L99+28
 734 00d6 FFF7FEFF 		bl	strcasecmp
 735              	.LVL93:
 736 00da 38B9     		cbnz	r0, .L51
 737              		.loc 1 169 0
 738 00dc 002C     		cmp	r4, #0
ARM GAS  /tmp/ccLML1F6.s 			page 14


 739 00de DFD0     		beq	.L48
 740              	.LVL94:
 741              	.LBB44:
 742              	.LBB45:
 743              		.loc 1 56 0
 744 00e0 2846     		mov	r0, r5
 745 00e2 3C49     		ldr	r1, .L99+32
 746 00e4 3A4A     		ldr	r2, .L99+28
 747 00e6 FFF7FEFF 		bl	chprintf
 748              	.LVL95:
 749              	.LBE45:
 750              	.LBE44:
 751              		.loc 1 171 0
 752 00ea 98E7     		b	.L94
 753              	.LVL96:
 754              	.L51:
 755              		.loc 1 175 0
 756 00ec 3046     		mov	r0, r6
 757 00ee 3A49     		ldr	r1, .L99+36
 758 00f0 FFF7FEFF 		bl	strcasecmp
 759              	.LVL97:
 760 00f4 70B9     		cbnz	r0, .L98
 761              	.LBB46:
 762              	.LBB47:
 763              		.loc 1 56 0
 764 00f6 2846     		mov	r0, r5
 765              	.LBE47:
 766              	.LBE46:
 767              		.loc 1 176 0
 768 00f8 1CB3     		cbz	r4, .L56
 769              	.LVL98:
 770              	.LBB49:
 771              	.LBB48:
 772              		.loc 1 56 0
 773 00fa 3649     		ldr	r1, .L99+32
 774 00fc 364A     		ldr	r2, .L99+36
 775 00fe FFF7FEFF 		bl	chprintf
 776              	.LVL99:
 777              	.LBE48:
 778              	.LBE49:
 779              		.loc 1 178 0
 780 0102 8CE7     		b	.L94
 781              	.LVL100:
 782              	.L69:
 783              		.loc 1 164 0
 784 0104 0124     		movs	r4, #1
 785 0106 DCE7     		b	.L49
 786              	.LVL101:
 787              	.L70:
 788 0108 0224     		movs	r4, #2
 789 010a DAE7     		b	.L49
 790              	.LVL102:
 791              	.L71:
 792 010c 0324     		movs	r4, #3
 793 010e D8E7     		b	.L49
 794              	.LVL103:
 795              	.L72:
ARM GAS  /tmp/ccLML1F6.s 			page 15


 796              		.loc 1 158 0
 797 0110 0424     		movs	r4, #4
 798 0112 D6E7     		b	.L49
 799              	.LVL104:
 800              	.L98:
 801              	.LBB50:
 802              	.LBB51:
 803              		.loc 1 121 0
 804 0114 D8F80000 		ldr	r0, [r8, #0]
 805 0118 0028     		cmp	r0, #0
 806 011a 32D0     		beq	.L55
 807 011c DFF8C090 		ldr	r9, .L99+44
 808 0120 03E0     		b	.L64
 809              	.LVL105:
 810              	.L63:
 811 0122 59F8080F 		ldr	r0, [r9, #8]!
 812              	.LVL106:
 813 0126 0028     		cmp	r0, #0
 814 0128 2BD0     		beq	.L55
 815              	.LVL107:
 816              	.L64:
 817              		.loc 1 122 0
 818 012a 3146     		mov	r1, r6
 819 012c FFF7FEFF 		bl	strcasecmp
 820              	.LVL108:
 821 0130 0028     		cmp	r0, #0
 822 0132 F6D1     		bne	.L63
 823              	.LVL109:
 824              	.L96:
 825              	.LBE51:
 826              	.LBE50:
 827              	.LBB52:
 828              	.LBB53:
 829              		.loc 1 123 0
 830 0134 D9F80430 		ldr	r3, [r9, #4]
 831 0138 2846     		mov	r0, r5
 832 013a 2146     		mov	r1, r4
 833 013c 01AA     		add	r2, sp, #4
 834 013e 9847     		blx	r3
 835              	.LVL110:
 836 0140 6DE7     		b	.L94
 837              	.LVL111:
 838              	.L56:
 839              	.LBE53:
 840              	.LBE52:
 841              		.loc 1 180 0
 842 0142 2649     		ldr	r1, .L99+40
 843 0144 FFF7FEFF 		bl	chprintf
 844              	.LVL112:
 845              	.LBB55:
 846              	.LBB42:
 847              		.loc 1 61 0
 848 0148 D8F80020 		ldr	r2, [r8, #0]
 849 014c 42B1     		cbz	r2, .L61
 850 014e 244C     		ldr	r4, .L99+44
 851              	.LVL113:
 852              	.L60:
ARM GAS  /tmp/ccLML1F6.s 			page 16


 853              		.loc 1 62 0
 854 0150 2846     		mov	r0, r5
 855 0152 2449     		ldr	r1, .L99+48
 856 0154 FFF7FEFF 		bl	chprintf
 857              	.LVL114:
 858              		.loc 1 61 0
 859 0158 54F8082F 		ldr	r2, [r4, #8]!
 860 015c 002A     		cmp	r2, #0
 861 015e F7D1     		bne	.L60
 862              	.L61:
 863              	.LBE42:
 864              	.LBE55:
 865              		.loc 1 182 0
 866 0160 57B1     		cbz	r7, .L59
 867              	.LVL115:
 868              	.LBB56:
 869              	.LBB57:
 870              		.loc 1 61 0
 871 0162 3A68     		ldr	r2, [r7, #0]
 872 0164 42B1     		cbz	r2, .L59
 873 0166 3C46     		mov	r4, r7
 874              	.LVL116:
 875              	.L62:
 876              		.loc 1 62 0
 877 0168 2846     		mov	r0, r5
 878 016a 1E49     		ldr	r1, .L99+48
 879 016c FFF7FEFF 		bl	chprintf
 880              	.LVL117:
 881              		.loc 1 61 0
 882 0170 54F8082F 		ldr	r2, [r4, #8]!
 883 0174 002A     		cmp	r2, #0
 884 0176 F7D1     		bne	.L62
 885              	.L59:
 886              	.LBE57:
 887              	.LBE56:
 888              		.loc 1 184 0
 889 0178 2846     		mov	r0, r5
 890 017a 1B49     		ldr	r1, .L99+52
 891 017c FFF7FEFF 		bl	chprintf
 892              	.LVL118:
 893 0180 4DE7     		b	.L94
 894              	.LVL119:
 895              	.L55:
 896              		.loc 1 186 0
 897 0182 67B1     		cbz	r7, .L67
 898              	.LVL120:
 899              	.LBB58:
 900              	.LBB54:
 901              		.loc 1 121 0
 902 0184 3868     		ldr	r0, [r7, #0]
 903 0186 50B1     		cbz	r0, .L67
 904 0188 B946     		mov	r9, r7
 905 018a 02E0     		b	.L66
 906              	.LVL121:
 907              	.L65:
 908 018c 59F8080F 		ldr	r0, [r9, #8]!
 909              	.LVL122:
ARM GAS  /tmp/ccLML1F6.s 			page 17


 910 0190 28B1     		cbz	r0, .L67
 911              	.LVL123:
 912              	.L66:
 913              		.loc 1 122 0
 914 0192 3146     		mov	r1, r6
 915 0194 FFF7FEFF 		bl	strcasecmp
 916              	.LVL124:
 917 0198 0028     		cmp	r0, #0
 918 019a F7D1     		bne	.L65
 919 019c CAE7     		b	.L96
 920              	.LVL125:
 921              	.L67:
 922              	.LBE54:
 923              	.LBE58:
 924              		.loc 1 188 0
 925 019e 2846     		mov	r0, r5
 926 01a0 1249     		ldr	r1, .L99+56
 927 01a2 3246     		mov	r2, r6
 928 01a4 FFF7FEFF 		bl	chprintf
 929              	.LVL126:
 930              		.loc 1 189 0
 931 01a8 2846     		mov	r0, r5
 932 01aa 1149     		ldr	r1, .L99+60
 933 01ac FFF7FEFF 		bl	chprintf
 934              	.LVL127:
 935 01b0 35E7     		b	.L94
 936              	.L100:
 937 01b2 00BF     		.align	2
 938              	.L99:
 939 01b4 00000000 		.word	rlist
 940 01b8 A0010000 		.word	.LC25
 941 01bc A8010000 		.word	.LC26
 942 01c0 C0010000 		.word	.LC27
 943 01c4 D4010000 		.word	.LC29
 944 01c8 C8010000 		.word	.LC28
 945 01cc 00000000 		.word	.LANCHOR0
 946 01d0 EC010000 		.word	.LC30
 947 01d4 04000000 		.word	.LC1
 948 01d8 F4010000 		.word	.LC31
 949 01dc FC010000 		.word	.LC32
 950 01e0 00000000 		.word	.LANCHOR1
 951 01e4 14020000 		.word	.LC33
 952 01e8 9C010000 		.word	.LC24
 953 01ec 18020000 		.word	.LC34
 954 01f0 1C020000 		.word	.LC35
 955              		.cfi_endproc
 956              	.LFE69:
 957              		.size	shell_thread, .-shell_thread
 958              		.global	shell_terminated
 959 01f4 AFF30080 		.section	.data.local_commands,"aw",%progbits
 959      AFF30080 
 959      AFF30080 
 960              		.align	2
 961              		.set	.LANCHOR1,. + 0
 962              		.type	local_commands, %object
 963              		.size	local_commands, 24
 964              	local_commands:
ARM GAS  /tmp/ccLML1F6.s 			page 18


 965 0000 20000000 		.word	.LC4
 966 0004 00000000 		.word	cmd_info
 967 0008 10000000 		.word	.LC2
 968 000c 00000000 		.word	cmd_systime
 969 0010 00000000 		.word	0
 970 0014 00000000 		.word	0
 971              		.section	.rodata.str1.4,"aMS",%progbits,1
 972              		.align	2
 973              	.LC0:
 974 0000 200900   		.ascii	" \011\000"
 975 0003 00       		.space	1
 976              	.LC1:
 977 0004 55736167 		.ascii	"Usage: %s\015\012\000"
 977      653A2025 
 977      730D0A00 
 978              	.LC2:
 979 0010 73797374 		.ascii	"systime\000"
 979      696D6500 
 980              	.LC3:
 981 0018 256C750D 		.ascii	"%lu\015\012\000"
 981      0A00
 982 001e 0000     		.space	2
 983              	.LC4:
 984 0020 696E666F 		.ascii	"info\000"
 984      00
 985 0025 000000   		.space	3
 986              	.LC5:
 987 0028 4B65726E 		.ascii	"Kernel:       %s\015\012\000"
 987      656C3A20 
 987      20202020 
 987      20202573 
 987      0D0A00
 988 003b 00       		.space	1
 989              	.LC6:
 990 003c 322E362E 		.ascii	"2.6.0\000"
 990      3000
 991 0042 0000     		.space	2
 992              	.LC7:
 993 0044 436F6D70 		.ascii	"Compiler:     %s\015\012\000"
 993      696C6572 
 993      3A202020 
 993      20202573 
 993      0D0A00
 994 0057 00       		.space	1
 995              	.LC8:
 996 0058 47434320 		.ascii	"GCC 4.7.4 20130613 (release) [ARM/embedded-4_7-bran"
 996      342E372E 
 996      34203230 
 996      31333036 
 996      31332028 
 997 008b 63682072 		.ascii	"ch revision 200083]\000"
 997      65766973 
 997      696F6E20 
 997      32303030 
 997      38335D00 
 998 009f 00       		.space	1
 999              	.LC9:
ARM GAS  /tmp/ccLML1F6.s 			page 19


 1000 00a0 41726368 		.ascii	"Architecture: %s\015\012\000"
 1000      69746563 
 1000      74757265 
 1000      3A202573 
 1000      0D0A00
 1001 00b3 00       		.space	1
 1002              	.LC10:
 1003 00b4 41524D76 		.ascii	"ARMv7-M\000"
 1003      372D4D00 
 1004              	.LC11:
 1005 00bc 436F7265 		.ascii	"Core Variant: %s\015\012\000"
 1005      20566172 
 1005      69616E74 
 1005      3A202573 
 1005      0D0A00
 1006 00cf 00       		.space	1
 1007              	.LC12:
 1008 00d0 436F7274 		.ascii	"Cortex-M3\000"
 1008      65782D4D 
 1008      3300
 1009 00da 0000     		.space	2
 1010              	.LC13:
 1011 00dc 506F7274 		.ascii	"Port Info:    %s\015\012\000"
 1011      20496E66 
 1011      6F3A2020 
 1011      20202573 
 1011      0D0A00
 1012 00ef 00       		.space	1
 1013              	.LC14:
 1014 00f0 41647661 		.ascii	"Advanced kernel mode\000"
 1014      6E636564 
 1014      206B6572 
 1014      6E656C20 
 1014      6D6F6465 
 1015 0105 000000   		.space	3
 1016              	.LC15:
 1017 0108 506C6174 		.ascii	"Platform:     %s\015\012\000"
 1017      666F726D 
 1017      3A202020 
 1017      20202573 
 1017      0D0A00
 1018 011b 00       		.space	1
 1019              	.LC16:
 1020 011c 53544D33 		.ascii	"STM32F10x Connectivity Line\000"
 1020      32463130 
 1020      7820436F 
 1020      6E6E6563 
 1020      74697669 
 1021              	.LC17:
 1022 0138 426F6172 		.ascii	"Board:        %s\015\012\000"
 1022      643A2020 
 1022      20202020 
 1022      20202573 
 1022      0D0A00
 1023 014b 00       		.space	1
 1024              	.LC18:
 1025 014c 4D4C4142 		.ascii	"MLAB STM32F107RxT01A\000"
ARM GAS  /tmp/ccLML1F6.s 			page 20


 1025      2053544D 
 1025      33324631 
 1025      30375278 
 1025      54303141 
 1026 0161 000000   		.space	3
 1027              	.LC19:
 1028 0164 4275696C 		.ascii	"Build time:   %s%s%s\015\012\000"
 1028      64207469 
 1028      6D653A20 
 1028      20202573 
 1028      25732573 
 1029 017b 00       		.space	1
 1030              	.LC20:
 1031 017c 41756720 		.ascii	"Aug 17 2013\000"
 1031      31372032 
 1031      30313300 
 1032              	.LC21:
 1033 0188 202D2000 		.ascii	" - \000"
 1034              	.LC22:
 1035 018c 31313A35 		.ascii	"11:53:45\000"
 1035      333A3435 
 1035      00
 1036 0195 000000   		.space	3
 1037              	.LC23:
 1038 0198 5E4400   		.ascii	"^D\000"
 1039 019b 00       		.space	1
 1040              	.LC24:
 1041 019c 0D0A00   		.ascii	"\015\012\000"
 1042 019f 00       		.space	1
 1043              	.LC25:
 1044 01a0 7368656C 		.ascii	"shell\000"
 1044      6C00
 1045 01a6 0000     		.space	2
 1046              	.LC26:
 1047 01a8 0D0A4368 		.ascii	"\015\012ChibiOS/RT Shell\015\012\000"
 1047      6962694F 
 1047      532F5254 
 1047      20536865 
 1047      6C6C0D0A 
 1048 01bd 000000   		.space	3
 1049              	.LC27:
 1050 01c0 63683E20 		.ascii	"ch> \000"
 1050      00
 1051 01c5 000000   		.space	3
 1052              	.LC28:
 1053 01c8 0D0A6C6F 		.ascii	"\015\012logout\000"
 1053      676F7574 
 1053      00
 1054 01d1 000000   		.space	3
 1055              	.LC29:
 1056 01d4 746F6F20 		.ascii	"too many arguments\015\012\000"
 1056      6D616E79 
 1056      20617267 
 1056      756D656E 
 1056      74730D0A 
 1057 01e9 000000   		.space	3
 1058              	.LC30:
ARM GAS  /tmp/ccLML1F6.s 			page 21


 1059 01ec 65786974 		.ascii	"exit\000"
 1059      00
 1060 01f1 000000   		.space	3
 1061              	.LC31:
 1062 01f4 68656C70 		.ascii	"help\000"
 1062      00
 1063 01f9 000000   		.space	3
 1064              	.LC32:
 1065 01fc 436F6D6D 		.ascii	"Commands: help exit \000"
 1065      616E6473 
 1065      3A206865 
 1065      6C702065 
 1065      78697420 
 1066 0211 000000   		.space	3
 1067              	.LC33:
 1068 0214 25732000 		.ascii	"%s \000"
 1069              	.LC34:
 1070 0218 257300   		.ascii	"%s\000"
 1071 021b 00       		.space	1
 1072              	.LC35:
 1073 021c 203F0D0A 		.ascii	" ?\015\012\000"
 1073      00
 1074 0221 000000   		.section	.bss.shell_terminated,"aw",%nobits
 1075              		.align	2
 1076              		.set	.LANCHOR0,. + 0
 1077              		.type	shell_terminated, %object
 1078              		.size	shell_terminated, 4
 1079              	shell_terminated:
 1080 0000 00000000 		.space	4
 1081              		.text
 1082              	.Letext0:
 1083              		.file 2 "/usr/bin/../lib/gcc/arm-none-eabi/4.7.4/include/stddef.h"
 1084              		.file 3 "/usr/bin/../lib/gcc/arm-none-eabi/4.7.4/../../../../arm-none-eabi/include/stdint.h"
 1085              		.file 4 "../../os/ports/GCC/ARMCMx/chtypes.h"
 1086              		.file 5 "../../os/kernel/include/chlists.h"
 1087              		.file 6 "../../os/kernel/include/chthreads.h"
 1088              		.file 7 "../../os/ports/GCC/ARMCMx/chcore_v7m.h"
 1089              		.file 8 "../../os/kernel/include/chvt.h"
 1090              		.file 9 "../../os/kernel/include/chschd.h"
 1091              		.file 10 "../../os/kernel/include/chmtx.h"
 1092              		.file 11 "../../os/kernel/include/chevents.h"
 1093              		.file 12 "../../os/kernel/include/chmemcore.h"
 1094              		.file 13 "../../os/kernel/include/chheap.h"
 1095              		.file 14 "../../os/kernel/include/chstreams.h"
 1096              		.file 15 "../../os/various/shell.h"
 1097              		.file 16 "../../os/ports/common/ARMCMx/CMSIS/include/core_cm3.h"
 1098              		.file 17 "/usr/bin/../lib/gcc/arm-none-eabi/4.7.4/../../../../arm-none-eabi/include/string.h"
 1099              		.file 18 "../../os/kernel/include/chdynamic.h"
 1100              		.file 19 "../../os/various/chprintf.h"
 1101              		.file 20 "../../os/kernel/include/chdebug.h"