ARM GAS  /tmp/ccryjq53.s 			page 1


   1              		.syntax unified
   2              		.cpu cortex-m3
   3              		.fpu softvfp
   4              		.eabi_attribute 20, 1
   5              		.eabi_attribute 21, 1
   6              		.eabi_attribute 23, 3
   7              		.eabi_attribute 24, 1
   8              		.eabi_attribute 25, 1
   9              		.eabi_attribute 26, 1
  10              		.eabi_attribute 30, 2
  11              		.eabi_attribute 34, 1
  12              		.eabi_attribute 18, 4
  13              		.thumb
  14              		.file	"main.c"
  15              		.text
  16              	.Ltext0:
  17              		.cfi_sections	.debug_frame
  18              		.section	.text.heartBeat,"ax",%progbits
  19              		.align	2
  20              		.p2align 4,,15
  21              		.thumb
  22              		.thumb_func
  23              		.type	heartBeat, %function
  24              	heartBeat:
  25              	.LFB63:
  26              		.file 1 "main.c"
  27              		.loc 1 22 0
  28              		.cfi_startproc
  29              		@ args = 0, pretend = 0, frame = 0
  30              		@ frame_needed = 0, uses_anonymous_args = 0
  31              	.LVL0:
  32 0000 10B5     		push	{r4, lr}
  33              	.LCFI0:
  34              		.cfi_def_cfa_offset 8
  35              		.cfi_offset 4, -8
  36              		.cfi_offset 14, -4
  37              		.loc 1 23 0
  38 0002 0D48     		ldr	r0, .L4
  39              	.LVL1:
  40 0004 0D49     		ldr	r1, .L4+4
  41 0006 FFF7FEFF 		bl	chprintf
  42              	.LVL2:
  43              		.loc 1 25 0
  44 000a 4FF44063 		mov	r3, #3072
  45 000e C4F20103 		movt	r3, 16385
  46 0012 4FF48072 		mov	r2, #256
  47              		.loc 1 26 0
  48 0016 8020     		movs	r0, #128
  49              		.loc 1 25 0
  50 0018 1A61     		str	r2, [r3, #16]
  51              		.loc 1 30 0
  52 001a 1C46     		mov	r4, r3
  53              		.loc 1 26 0
  54 001c 5861     		str	r0, [r3, #20]
  55              	.L2:
  56              		.loc 1 30 0 discriminator 1
  57 001e E168     		ldr	r1, [r4, #12]
ARM GAS  /tmp/ccryjq53.s 			page 2


  58              		.loc 1 32 0 discriminator 1
  59 0020 FA20     		movs	r0, #250
  60              		.loc 1 30 0 discriminator 1
  61 0022 81F48073 		eor	r3, r1, #256
  62 0026 E360     		str	r3, [r4, #12]
  63              		.loc 1 31 0 discriminator 1
  64 0028 E268     		ldr	r2, [r4, #12]
  65 002a 82F08001 		eor	r1, r2, #128
  66 002e E160     		str	r1, [r4, #12]
  67              		.loc 1 32 0 discriminator 1
  68 0030 FFF7FEFF 		bl	chThdSleep
  69              	.LVL3:
  70 0034 F3E7     		b	.L2
  71              	.L5:
  72 0036 00BF     		.align	2
  73              	.L4:
  74 0038 00000000 		.word	SD2
  75 003c 00000000 		.word	.LC0
  76              		.cfi_endproc
  77              	.LFE63:
  78              		.size	heartBeat, .-heartBeat
  79              		.global	__aeabi_f2d
  80              		.section	.text.magDemo,"ax",%progbits
  81              		.align	2
  82              		.p2align 4,,15
  83              		.thumb
  84              		.thumb_func
  85              		.type	magDemo, %function
  86              	magDemo:
  87              	.LFB64:
  88              		.loc 1 39 0
  89              		.cfi_startproc
  90              		@ args = 0, pretend = 0, frame = 16
  91              		@ frame_needed = 0, uses_anonymous_args = 0
  92              	.LVL4:
  93 0000 70B5     		push	{r4, r5, r6, lr}
  94              	.LCFI1:
  95              		.cfi_def_cfa_offset 16
  96              		.cfi_offset 4, -16
  97              		.cfi_offset 5, -12
  98              		.cfi_offset 6, -8
  99              		.cfi_offset 14, -4
 100              		.loc 1 43 0
 101 0002 1348     		ldr	r0, .L8
 102              	.LVL5:
 103              		.loc 1 39 0
 104 0004 88B0     		sub	sp, sp, #32
 105              	.LCFI2:
 106              		.cfi_def_cfa_offset 48
 107              		.loc 1 43 0
 108 0006 1E21     		movs	r1, #30
 109 0008 FFF7FEFF 		bl	magInit
 110              	.LVL6:
 111              		.loc 1 44 0
 112 000c 1148     		ldr	r0, .L8+4
 113 000e 1249     		ldr	r1, .L8+8
 114 0010 FFF7FEFF 		bl	chprintf
ARM GAS  /tmp/ccryjq53.s 			page 3


 115              	.LVL7:
 116 0014 07AE     		add	r6, sp, #28
 117              	.LVL8:
 118              	.L7:
 119              		.loc 1 49 0 discriminator 1
 120 0016 05AA     		add	r2, sp, #20
 121 0018 06AB     		add	r3, sp, #24
 122 001a 1E21     		movs	r1, #30
 123 001c 0096     		str	r6, [sp, #0]
 124 001e 0C48     		ldr	r0, .L8
 125 0020 FFF7FEFF 		bl	magRead
 126              	.LVL9:
 127              		.loc 1 50 0 discriminator 1
 128 0024 0598     		ldr	r0, [sp, #20]	@ float
 129 0026 FFF7FEFF 		bl	__aeabi_f2d
 130              	.LVL10:
 131 002a 0446     		mov	r4, r0
 132 002c 0698     		ldr	r0, [sp, #24]	@ float
 133 002e 0D46     		mov	r5, r1
 134 0030 FFF7FEFF 		bl	__aeabi_f2d
 135              	.LVL11:
 136 0034 CDE90001 		strd	r0, [sp]
 137 0038 0798     		ldr	r0, [sp, #28]	@ float
 138 003a FFF7FEFF 		bl	__aeabi_f2d
 139              	.LVL12:
 140 003e 2246     		mov	r2, r4
 141 0040 CDE90201 		strd	r0, [sp, #8]
 142 0044 2B46     		mov	r3, r5
 143 0046 0348     		ldr	r0, .L8+4
 144 0048 0449     		ldr	r1, .L8+12
 145 004a FFF7FEFF 		bl	chprintf
 146              	.LVL13:
 147 004e E2E7     		b	.L7
 148              	.L9:
 149              		.align	2
 150              	.L8:
 151 0050 00000000 		.word	I2CD2
 152 0054 00000000 		.word	SD2
 153 0058 14000000 		.word	.LC1
 154 005c 2C000000 		.word	.LC2
 155              		.cfi_endproc
 156              	.LFE64:
 157              		.size	magDemo, .-magDemo
 158              		.section	.text.startup.main,"ax",%progbits
 159              		.align	2
 160              		.p2align 4,,15
 161              		.global	main
 162              		.thumb
 163              		.thumb_func
 164              		.type	main, %function
 165              	main:
 166              	.LFB65:
 167              		.loc 1 56 0
 168              		.cfi_startproc
 169              		@ args = 0, pretend = 0, frame = 0
 170              		@ frame_needed = 0, uses_anonymous_args = 0
 171 0000 10B5     		push	{r4, lr}
ARM GAS  /tmp/ccryjq53.s 			page 4


 172              	.LCFI3:
 173              		.cfi_def_cfa_offset 8
 174              		.cfi_offset 4, -8
 175              		.cfi_offset 14, -4
 176              		.loc 1 60 0
 177 0002 4FF44064 		mov	r4, #3072
 178              		.loc 1 56 0
 179 0006 82B0     		sub	sp, sp, #8
 180              	.LCFI4:
 181              		.cfi_def_cfa_offset 16
 182              		.loc 1 60 0
 183 0008 C4F20104 		movt	r4, 16385
 184              		.loc 1 57 0
 185 000c FFF7FEFF 		bl	halInit
 186              	.LVL14:
 187              		.loc 1 58 0
 188 0010 FFF7FEFF 		bl	chSysInit
 189              	.LVL15:
 190              		.loc 1 60 0
 191 0014 1122     		movs	r2, #17
 192 0016 2046     		mov	r0, r4
 193 0018 4FF48061 		mov	r1, #1024
 194 001c FFF7FEFF 		bl	_pal_lld_setgroupmode
 195              	.LVL16:
 196              		.loc 1 61 0
 197 0020 1122     		movs	r2, #17
 198 0022 2046     		mov	r0, r4
 199 0024 4FF40061 		mov	r1, #2048
 200 0028 FFF7FEFF 		bl	_pal_lld_setgroupmode
 201              	.LVL17:
 202              		.loc 1 62 0
 203 002c 6420     		movs	r0, #100
 204 002e FFF7FEFF 		bl	chThdSleep
 205              	.LVL18:
 206              		.loc 1 64 0
 207 0032 40F20000 		movw	r0, #:lower16:SD2
 208 0036 0021     		movs	r1, #0
 209 0038 C0F20000 		movt	r0, #:upper16:SD2
 210 003c FFF7FEFF 		bl	sdStart
 211              	.LVL19:
 212              		.loc 1 65 0
 213 0040 40F20000 		movw	r0, #:lower16:I2CD2
 214 0044 40F20001 		movw	r1, #:lower16:.LANCHOR0
 215 0048 C0F20000 		movt	r0, #:upper16:I2CD2
 216 004c C0F20001 		movt	r1, #:upper16:.LANCHOR0
 217 0050 FFF7FEFF 		bl	i2cStart
 218              	.LVL20:
 219              		.loc 1 68 0
 220 0054 0024     		movs	r4, #0
 221 0056 40F20003 		movw	r3, #:lower16:heartBeat
 222 005a 40F20000 		movw	r0, #:lower16:.LANCHOR1
 223 005e F021     		movs	r1, #240
 224 0060 4022     		movs	r2, #64
 225 0062 C0F20003 		movt	r3, #:upper16:heartBeat
 226 0066 0094     		str	r4, [sp, #0]
 227 0068 C0F20000 		movt	r0, #:upper16:.LANCHOR1
 228 006c FFF7FEFF 		bl	chThdCreateStatic
ARM GAS  /tmp/ccryjq53.s 			page 5


 229              	.LVL21:
 230              		.loc 1 69 0
 231 0070 40F20000 		movw	r0, #:lower16:.LANCHOR2
 232 0074 40F20003 		movw	r3, #:lower16:magDemo
 233 0078 0094     		str	r4, [sp, #0]
 234 007a 4FF42C71 		mov	r1, #688
 235 007e 4022     		movs	r2, #64
 236 0080 C0F20003 		movt	r3, #:upper16:magDemo
 237 0084 C0F20000 		movt	r0, #:upper16:.LANCHOR2
 238 0088 FFF7FEFF 		bl	chThdCreateStatic
 239              	.LVL22:
 240              		.loc 1 70 0
 241 008c 2046     		mov	r0, r4
 242 008e 02B0     		add	sp, sp, #8
 243 0090 10BD     		pop	{r4, pc}
 244              		.cfi_endproc
 245              	.LFE65:
 246              		.size	main, .-main
 247 0092 00BFAFF3 		.section	.rodata.i2cCfg,"a",%progbits
 247      0080AFF3 
 247      0080AFF3 
 247      0080
 248              		.align	2
 249              		.set	.LANCHOR0,. + 0
 250              		.type	i2cCfg, %object
 251              		.size	i2cCfg, 12
 252              	i2cCfg:
 253 0000 01       		.byte	1
 254 0001 000000   		.space	3
 255 0004 801A0600 		.word	400000
 256 0008 02       		.byte	2
 257 0009 000000   		.space	3
 258              		.section	.bss.magDemoWrkArea,"aw",%nobits
 259              		.align	3
 260              		.set	.LANCHOR2,. + 0
 261              		.type	magDemoWrkArea, %object
 262              		.size	magDemoWrkArea, 688
 263              	magDemoWrkArea:
 264 0000 00000000 		.space	688
 264      00000000 
 264      00000000 
 264      00000000 
 264      00000000 
 265              		.section	.rodata.str1.4,"aMS",%progbits,1
 266              		.align	2
 267              	.LC0:
 268 0000 0A0D4865 		.ascii	"\012\015Hello world!\012\015\000"
 268      6C6C6F20 
 268      776F726C 
 268      64210A0D 
 268      00
 269 0011 000000   		.space	3
 270              	.LC1:
 271 0014 436F6E66 		.ascii	"Configuration done\012\015\000"
 271      69677572 
 271      6174696F 
 271      6E20646F 
ARM GAS  /tmp/ccryjq53.s 			page 6


 271      6E650A0D 
 272 0029 000000   		.space	3
 273              	.LC2:
 274 002c 25662058 		.ascii	"%f X     %f Y     %f Z\012\015\000"
 274      20202020 
 274      20256620 
 274      59202020 
 274      20202566 
 275 0045 000000   		.section	.bss.heartWrkArea,"aw",%nobits
 276              		.align	3
 277              		.set	.LANCHOR1,. + 0
 278              		.type	heartWrkArea, %object
 279              		.size	heartWrkArea, 240
 280              	heartWrkArea:
 281 0000 00000000 		.space	240
 281      00000000 
 281      00000000 
 281      00000000 
 281      00000000 
 282              		.text
 283              	.Letext0:
 284              		.file 2 "/usr/bin/../lib/gcc/arm-none-eabi/4.7.4/include/stddef.h"
 285              		.file 3 "/usr/bin/../lib/gcc/arm-none-eabi/4.7.4/../../../../arm-none-eabi/include/stdint.h"
 286              		.file 4 "../../os/ports/GCC/ARMCMx/chtypes.h"
 287              		.file 5 "../../os/kernel/include/chlists.h"
 288              		.file 6 "../../os/kernel/include/chthreads.h"
 289              		.file 7 "../../os/ports/GCC/ARMCMx/chcore_v7m.h"
 290              		.file 8 "../../os/kernel/include/chmtx.h"
 291              		.file 9 "../../os/kernel/include/chevents.h"
 292              		.file 10 "../../os/kernel/include/chqueues.h"
 293              		.file 11 "../../os/kernel/include/chstreams.h"
 294              		.file 12 "../../os/hal/platforms/STM32F1xx/stm32f10x.h"
 295              		.file 13 "../../os/hal/platforms/STM32F1xx/stm32_dma.h"
 296              		.file 14 "../../os/hal/platforms/STM32/GPIOv1/pal_lld.h"
 297              		.file 15 "../../os/hal/include/i2c.h"
 298              		.file 16 "../../os/hal/platforms/STM32/I2Cv1/i2c_lld.h"
 299              		.file 17 "../../os/hal/include/serial.h"
 300              		.file 18 "../../os/hal/platforms/STM32/USARTv1/serial_lld.h"
 301              		.file 19 "../../os/ports/common/ARMCMx/CMSIS/include/core_cm3.h"
 302              		.file 20 "../../os/various/chprintf.h"
 303              		.file 21 "../../os/various/MAG01A.h"
 304              		.file 22 "../../os/hal/include/hal.h"
 305              		.file 23 "../../os/kernel/include/chsys.h"