ARM GAS  /tmp/ccvSpbeX.s 			page 1


   1              		.syntax unified
   2              		.cpu cortex-m3
   3              		.fpu softvfp
   4              		.eabi_attribute 20, 1
   5              		.eabi_attribute 21, 1
   6              		.eabi_attribute 23, 3
   7              		.eabi_attribute 24, 1
   8              		.eabi_attribute 25, 1
   9              		.eabi_attribute 26, 1
  10              		.eabi_attribute 30, 2
  11              		.eabi_attribute 34, 1
  12              		.eabi_attribute 18, 4
  13              		.thumb
  14              		.file	"pal_lld.c"
  15              		.text
  16              	.Ltext0:
  17              		.cfi_sections	.debug_frame
  18              		.section	.text._pal_lld_init,"ax",%progbits
  19              		.align	2
  20              		.p2align 4,,15
  21              		.global	_pal_lld_init
  22              		.thumb
  23              		.thumb_func
  24              		.type	_pal_lld_init, %function
  25              	_pal_lld_init:
  26              	.LFB63:
  27              		.file 1 "../../os/hal/platforms/STM32/GPIOv1/pal_lld.c"
  28              		.loc 1 77 0
  29              		.cfi_startproc
  30              		@ args = 0, pretend = 0, frame = 0
  31              		@ frame_needed = 0, uses_anonymous_args = 0
  32              		@ link register save eliminated.
  33              	.LVL0:
  34              		.loc 1 82 0
  35 0000 4FF48053 		mov	r3, #4096
  36 0004 C4F20203 		movt	r3, 16386
  37 0008 9A69     		ldr	r2, [r3, #24]
  38              		.loc 1 77 0
  39 000a 10B4     		push	{r4}
  40              	.LCFI0:
  41              		.cfi_def_cfa_offset 4
  42              		.cfi_offset 4, -4
  43              		.loc 1 82 0
  44 000c 42F07D01 		orr	r1, r2, #125
  45 0010 9961     		str	r1, [r3, #24]
  46              		.loc 1 87 0
  47 0012 0468     		ldr	r4, [r0, #0]
  48 0014 4FF40062 		mov	r2, #2048
  49 0018 C4F20102 		movt	r2, 16385
  50 001c D460     		str	r4, [r2, #12]
  51              		.loc 1 88 0
  52 001e 8168     		ldr	r1, [r0, #8]
  53              		.loc 1 90 0
  54 0020 4FF44063 		mov	r3, #3072
  55              		.loc 1 88 0
  56 0024 5160     		str	r1, [r2, #4]
  57              		.loc 1 89 0
ARM GAS  /tmp/ccvSpbeX.s 			page 2


  58 0026 4468     		ldr	r4, [r0, #4]
  59              		.loc 1 90 0
  60 0028 C4F20103 		movt	r3, 16385
  61              		.loc 1 89 0
  62 002c 1460     		str	r4, [r2, #0]
  63              		.loc 1 90 0
  64 002e C268     		ldr	r2, [r0, #12]
  65              		.loc 1 93 0
  66 0030 4FF48051 		mov	r1, #4096
  67              		.loc 1 90 0
  68 0034 DA60     		str	r2, [r3, #12]
  69              		.loc 1 91 0
  70 0036 4469     		ldr	r4, [r0, #20]
  71              		.loc 1 93 0
  72 0038 C4F20101 		movt	r1, 16385
  73              		.loc 1 91 0
  74 003c 5C60     		str	r4, [r3, #4]
  75              		.loc 1 92 0
  76 003e 0469     		ldr	r4, [r0, #16]
  77              		.loc 1 96 0
  78 0040 4FF4A052 		mov	r2, #5120
  79              		.loc 1 92 0
  80 0044 1C60     		str	r4, [r3, #0]
  81              		.loc 1 93 0
  82 0046 8369     		ldr	r3, [r0, #24]
  83              		.loc 1 96 0
  84 0048 C4F20102 		movt	r2, 16385
  85              		.loc 1 93 0
  86 004c CB60     		str	r3, [r1, #12]
  87              		.loc 1 94 0
  88 004e 046A     		ldr	r4, [r0, #32]
  89              		.loc 1 100 0
  90 0050 4FF4C053 		mov	r3, #6144
  91              		.loc 1 94 0
  92 0054 4C60     		str	r4, [r1, #4]
  93              		.loc 1 95 0
  94 0056 C469     		ldr	r4, [r0, #28]
  95              		.loc 1 100 0
  96 0058 C4F20103 		movt	r3, 16385
  97              		.loc 1 95 0
  98 005c 0C60     		str	r4, [r1, #0]
  99              		.loc 1 96 0
 100 005e 416A     		ldr	r1, [r0, #36]
 101 0060 D160     		str	r1, [r2, #12]
 102              		.loc 1 97 0
 103 0062 C16A     		ldr	r1, [r0, #44]
 104 0064 5160     		str	r1, [r2, #4]
 105              		.loc 1 98 0
 106 0066 816A     		ldr	r1, [r0, #40]
 107 0068 1160     		str	r1, [r2, #0]
 108              		.loc 1 100 0
 109 006a 026B     		ldr	r2, [r0, #48]
 110 006c DA60     		str	r2, [r3, #12]
 111              		.loc 1 101 0
 112 006e 816B     		ldr	r1, [r0, #56]
 113 0070 5960     		str	r1, [r3, #4]
 114              		.loc 1 102 0
ARM GAS  /tmp/ccvSpbeX.s 			page 3


 115 0072 406B     		ldr	r0, [r0, #52]
 116              	.LVL1:
 117 0074 1860     		str	r0, [r3, #0]
 118              		.loc 1 114 0
 119 0076 10BC     		pop	{r4}
 120 0078 7047     		bx	lr
 121              		.cfi_endproc
 122              	.LFE63:
 123              		.size	_pal_lld_init, .-_pal_lld_init
 124 007a 00BFAFF3 		.section	.text._pal_lld_setgroupmode,"ax",%progbits
 124      0080
 125              		.align	2
 126              		.p2align 4,,15
 127              		.global	_pal_lld_setgroupmode
 128              		.thumb
 129              		.thumb_func
 130              		.type	_pal_lld_setgroupmode, %function
 131              	_pal_lld_setgroupmode:
 132              	.LFB64:
 133              		.loc 1 133 0
 134              		.cfi_startproc
 135              		@ args = 0, pretend = 0, frame = 0
 136              		@ frame_needed = 0, uses_anonymous_args = 0
 137              		@ link register save eliminated.
 138              	.LVL2:
 139              		.loc 1 157 0
 140 0000 032A     		cmp	r2, #3
 141              		.loc 1 133 0
 142 0002 F0B4     		push	{r4, r5, r6, r7}
 143              	.LCFI1:
 144              		.cfi_def_cfa_offset 16
 145              		.cfi_offset 4, -16
 146              		.cfi_offset 5, -12
 147              		.cfi_offset 6, -8
 148              		.cfi_offset 7, -4
 149              		.loc 1 157 0
 150 0004 00F09980 		beq	.L38
 151              		.loc 1 159 0
 152 0008 042A     		cmp	r2, #4
 153              		.loc 1 160 0
 154 000a 08BF     		it	eq
 155 000c 4161     		streq	r1, [r0, #20]
 156              	.L4:
 157              		.loc 1 161 0
 158 000e 4C4B     		ldr	r3, .L39
 159              		.loc 1 168 0
 160 0010 01F08004 		and	r4, r1, #128
 161              		.loc 1 161 0
 162 0014 9B5C     		ldrb	r3, [r3, r2]	@ zero_extendqisi2
 163              	.LVL3:
 164              		.loc 1 168 0
 165 0016 002C     		cmp	r4, #0
 166              		.loc 1 172 0
 167 0018 01F40042 		and	r2, r1, #32768
 168              	.LVL4:
 169              		.loc 1 166 0
 170 001c 14BF     		ite	ne
ARM GAS  /tmp/ccvSpbeX.s 			page 4


 171 001e 1F46     		movne	r7, r3
 172 0020 0027     		moveq	r7, #0
 173 0022 14BF     		ite	ne
 174 0024 0026     		movne	r6, #0
 175 0026 0F26     		moveq	r6, #15
 176              	.LVL5:
 177              		.loc 1 172 0
 178 0028 002A     		cmp	r2, #0
 179              		.loc 1 167 0
 180 002a 14BF     		ite	ne
 181 002c 1D46     		movne	r5, r3
 182 002e 0025     		moveq	r5, #0
 183              	.LVL6:
 184              		.loc 1 176 0
 185 0030 4FEA4102 		lsl	r2, r1, #1
 186              	.LVL7:
 187              		.loc 1 164 0
 188 0034 4FEA0614 		lsl	r4, r6, #4
 189              	.LVL8:
 190              		.loc 1 165 0
 191 0038 0CBF     		ite	eq
 192 003a F026     		moveq	r6, #240
 193 003c 0026     		movne	r6, #0
 194              	.LVL9:
 195              		.loc 1 166 0
 196 003e 3901     		lsls	r1, r7, #4
 197              	.LVL10:
 198              		.loc 1 167 0
 199 0040 2D01     		lsls	r5, r5, #4
 200              	.LVL11:
 201              		.loc 1 168 0
 202 0042 12F0800F 		tst	r2, #128
 203              		.loc 1 171 0
 204 0046 14BF     		ite	ne
 205 0048 1943     		orrne	r1, r1, r3
 206              	.LVL12:
 207              		.loc 1 169 0
 208 004a 44F00F04 		orreq	r4, r4, #15
 209              	.LVL13:
 210              		.loc 1 172 0
 211 004e 12F4004F 		tst	r2, #32768
 212              		.loc 1 175 0
 213 0052 14BF     		ite	ne
 214 0054 1D43     		orrne	r5, r5, r3
 215              	.LVL14:
 216              		.loc 1 173 0
 217 0056 46F00F06 		orreq	r6, r6, #15
 218              	.LVL15:
 219              		.loc 1 176 0
 220 005a 5200     		lsls	r2, r2, #1
 221              	.LVL16:
 222              		.loc 1 164 0
 223 005c 2401     		lsls	r4, r4, #4
 224              	.LVL17:
 225              		.loc 1 165 0
 226 005e 3601     		lsls	r6, r6, #4
 227              	.LVL18:
ARM GAS  /tmp/ccvSpbeX.s 			page 5


 228              		.loc 1 166 0
 229 0060 0901     		lsls	r1, r1, #4
 230              	.LVL19:
 231              		.loc 1 167 0
 232 0062 2D01     		lsls	r5, r5, #4
 233              	.LVL20:
 234              		.loc 1 168 0
 235 0064 12F0800F 		tst	r2, #128
 236              		.loc 1 171 0
 237 0068 14BF     		ite	ne
 238 006a 1943     		orrne	r1, r1, r3
 239              	.LVL21:
 240              		.loc 1 169 0
 241 006c 44F00F04 		orreq	r4, r4, #15
 242              	.LVL22:
 243              		.loc 1 172 0
 244 0070 12F4004F 		tst	r2, #32768
 245              		.loc 1 175 0
 246 0074 14BF     		ite	ne
 247 0076 1D43     		orrne	r5, r5, r3
 248              	.LVL23:
 249              		.loc 1 173 0
 250 0078 46F00F06 		orreq	r6, r6, #15
 251              	.LVL24:
 252              		.loc 1 176 0
 253 007c 5200     		lsls	r2, r2, #1
 254              	.LVL25:
 255              		.loc 1 164 0
 256 007e 2401     		lsls	r4, r4, #4
 257              	.LVL26:
 258              		.loc 1 165 0
 259 0080 3601     		lsls	r6, r6, #4
 260              	.LVL27:
 261              		.loc 1 166 0
 262 0082 0901     		lsls	r1, r1, #4
 263              	.LVL28:
 264              		.loc 1 167 0
 265 0084 2D01     		lsls	r5, r5, #4
 266              	.LVL29:
 267              		.loc 1 168 0
 268 0086 12F0800F 		tst	r2, #128
 269              		.loc 1 171 0
 270 008a 14BF     		ite	ne
 271 008c 1943     		orrne	r1, r1, r3
 272              	.LVL30:
 273              		.loc 1 169 0
 274 008e 44F00F04 		orreq	r4, r4, #15
 275              	.LVL31:
 276              		.loc 1 172 0
 277 0092 12F4004F 		tst	r2, #32768
 278              		.loc 1 175 0
 279 0096 14BF     		ite	ne
 280 0098 1D43     		orrne	r5, r5, r3
 281              	.LVL32:
 282              		.loc 1 173 0
 283 009a 46F00F06 		orreq	r6, r6, #15
 284              	.LVL33:
ARM GAS  /tmp/ccvSpbeX.s 			page 6


 285              		.loc 1 176 0
 286 009e 5200     		lsls	r2, r2, #1
 287              	.LVL34:
 288              		.loc 1 164 0
 289 00a0 2401     		lsls	r4, r4, #4
 290              	.LVL35:
 291              		.loc 1 165 0
 292 00a2 3601     		lsls	r6, r6, #4
 293              	.LVL36:
 294              		.loc 1 166 0
 295 00a4 0901     		lsls	r1, r1, #4
 296              	.LVL37:
 297              		.loc 1 167 0
 298 00a6 2D01     		lsls	r5, r5, #4
 299              	.LVL38:
 300              		.loc 1 168 0
 301 00a8 12F0800F 		tst	r2, #128
 302              		.loc 1 171 0
 303 00ac 14BF     		ite	ne
 304 00ae 1943     		orrne	r1, r1, r3
 305              	.LVL39:
 306              		.loc 1 169 0
 307 00b0 44F00F04 		orreq	r4, r4, #15
 308              	.LVL40:
 309              		.loc 1 172 0
 310 00b4 12F4004F 		tst	r2, #32768
 311              		.loc 1 175 0
 312 00b8 14BF     		ite	ne
 313 00ba 1D43     		orrne	r5, r5, r3
 314              	.LVL41:
 315              		.loc 1 173 0
 316 00bc 46F00F06 		orreq	r6, r6, #15
 317              	.LVL42:
 318              		.loc 1 176 0
 319 00c0 5200     		lsls	r2, r2, #1
 320              	.LVL43:
 321              		.loc 1 164 0
 322 00c2 2401     		lsls	r4, r4, #4
 323              	.LVL44:
 324              		.loc 1 165 0
 325 00c4 3601     		lsls	r6, r6, #4
 326              	.LVL45:
 327              		.loc 1 166 0
 328 00c6 0901     		lsls	r1, r1, #4
 329              	.LVL46:
 330              		.loc 1 167 0
 331 00c8 2D01     		lsls	r5, r5, #4
 332              	.LVL47:
 333              		.loc 1 168 0
 334 00ca 12F0800F 		tst	r2, #128
 335              		.loc 1 171 0
 336 00ce 14BF     		ite	ne
 337 00d0 1943     		orrne	r1, r1, r3
 338              	.LVL48:
 339              		.loc 1 169 0
 340 00d2 44F00F04 		orreq	r4, r4, #15
 341              	.LVL49:
ARM GAS  /tmp/ccvSpbeX.s 			page 7


 342              		.loc 1 172 0
 343 00d6 12F4004F 		tst	r2, #32768
 344              		.loc 1 175 0
 345 00da 14BF     		ite	ne
 346 00dc 1D43     		orrne	r5, r5, r3
 347              	.LVL50:
 348              		.loc 1 173 0
 349 00de 46F00F06 		orreq	r6, r6, #15
 350              	.LVL51:
 351              		.loc 1 176 0
 352 00e2 5200     		lsls	r2, r2, #1
 353              	.LVL52:
 354              		.loc 1 164 0
 355 00e4 2401     		lsls	r4, r4, #4
 356              	.LVL53:
 357              		.loc 1 165 0
 358 00e6 3601     		lsls	r6, r6, #4
 359              	.LVL54:
 360              		.loc 1 166 0
 361 00e8 0901     		lsls	r1, r1, #4
 362              	.LVL55:
 363              		.loc 1 167 0
 364 00ea 2D01     		lsls	r5, r5, #4
 365              	.LVL56:
 366              		.loc 1 168 0
 367 00ec 12F0800F 		tst	r2, #128
 368              		.loc 1 171 0
 369 00f0 14BF     		ite	ne
 370 00f2 1943     		orrne	r1, r1, r3
 371              	.LVL57:
 372              		.loc 1 169 0
 373 00f4 44F00F04 		orreq	r4, r4, #15
 374              	.LVL58:
 375              		.loc 1 172 0
 376 00f8 12F4004F 		tst	r2, #32768
 377              		.loc 1 175 0
 378 00fc 14BF     		ite	ne
 379 00fe 1D43     		orrne	r5, r5, r3
 380              	.LVL59:
 381              		.loc 1 173 0
 382 0100 46F00F06 		orreq	r6, r6, #15
 383              	.LVL60:
 384              		.loc 1 176 0
 385 0104 5200     		lsls	r2, r2, #1
 386              	.LVL61:
 387              		.loc 1 164 0
 388 0106 2401     		lsls	r4, r4, #4
 389              	.LVL62:
 390              		.loc 1 165 0
 391 0108 3601     		lsls	r6, r6, #4
 392              	.LVL63:
 393              		.loc 1 166 0
 394 010a 0901     		lsls	r1, r1, #4
 395              	.LVL64:
 396              		.loc 1 167 0
 397 010c 2D01     		lsls	r5, r5, #4
 398              	.LVL65:
ARM GAS  /tmp/ccvSpbeX.s 			page 8


 399              		.loc 1 168 0
 400 010e 12F0800F 		tst	r2, #128
 401              		.loc 1 171 0
 402 0112 14BF     		ite	ne
 403 0114 1943     		orrne	r1, r1, r3
 404              	.LVL66:
 405              		.loc 1 169 0
 406 0116 44F00F04 		orreq	r4, r4, #15
 407              	.LVL67:
 408              		.loc 1 172 0
 409 011a 1204     		lsls	r2, r2, #16
 410              	.LVL68:
 411              		.loc 1 175 0
 412 011c 48BF     		it	mi
 413 011e 1D43     		orrmi	r5, r5, r3
 414              	.LVL69:
 415              		.loc 1 178 0
 416 0120 4368     		ldr	r3, [r0, #4]
 417              	.LVL70:
 418              		.loc 1 173 0
 419 0122 58BF     		it	pl
 420 0124 46F00F06 		orrpl	r6, r6, #15
 421              	.LVL71:
 422              		.loc 1 178 0
 423 0128 1E40     		ands	r6, r6, r3
 424              	.LVL72:
 425 012a 3543     		orrs	r5, r5, r6
 426              	.LVL73:
 427 012c 4560     		str	r5, [r0, #4]
 428              		.loc 1 179 0
 429 012e 0268     		ldr	r2, [r0, #0]
 430 0130 1440     		ands	r4, r4, r2
 431              	.LVL74:
 432 0132 2143     		orrs	r1, r1, r4
 433              	.LVL75:
 434 0134 0160     		str	r1, [r0, #0]
 435              		.loc 1 180 0
 436 0136 F0BC     		pop	{r4, r5, r6, r7}
 437 0138 7047     		bx	lr
 438              	.LVL76:
 439              	.L38:
 440              		.loc 1 158 0
 441 013a 0161     		str	r1, [r0, #16]
 442 013c 67E7     		b	.L4
 443              	.L40:
 444 013e 00BF     		.align	2
 445              	.L39:
 446 0140 00000000 		.word	.LANCHOR0
 447              		.cfi_endproc
 448              	.LFE64:
 449              		.size	_pal_lld_setgroupmode, .-_pal_lld_setgroupmode
 450 0144 AFF30080 		.section	.rodata.cfgtab.6194,"a",%progbits
 450      AFF30080 
 450      AFF30080 
 451              		.align	2
 452              		.set	.LANCHOR0,. + 0
 453              		.type	cfgtab.6194, %object
ARM GAS  /tmp/ccvSpbeX.s 			page 9


 454              		.size	cfgtab.6194, 18
 455              	cfgtab.6194:
 456 0000 04       		.byte	4
 457 0001 02       		.byte	2
 458 0002 04       		.byte	4
 459 0003 08       		.byte	8
 460 0004 08       		.byte	8
 461 0005 00       		.byte	0
 462 0006 03       		.byte	3
 463 0007 07       		.byte	7
 464 0008 08       		.byte	8
 465 0009 08       		.byte	8
 466 000a 08       		.byte	8
 467 000b 08       		.byte	8
 468 000c 08       		.byte	8
 469 000d 08       		.byte	8
 470 000e 08       		.byte	8
 471 000f 08       		.byte	8
 472 0010 0B       		.byte	11
 473 0011 0F       		.byte	15
 474 0012 0000     		.text
 475              	.Letext0:
 476              		.file 2 "/usr/bin/../lib/gcc/arm-none-eabi/4.7.4/../../../../arm-none-eabi/include/stdint.h"
 477              		.file 3 "../../os/hal/platforms/STM32F1xx/stm32f10x.h"
 478              		.file 4 "../../os/hal/platforms/STM32/GPIOv1/pal_lld.h"
 479              		.file 5 "../../os/ports/common/ARMCMx/CMSIS/include/core_cm3.h"