ARM GAS  /tmp/cctPMLcj.s 			page 1


   1              		.syntax unified
   2              		.cpu cortex-m3
   3              		.fpu softvfp
   4              		.eabi_attribute 20, 1
   5              		.eabi_attribute 21, 1
   6              		.eabi_attribute 23, 3
   7              		.eabi_attribute 24, 1
   8              		.eabi_attribute 25, 1
   9              		.eabi_attribute 26, 1
  10              		.eabi_attribute 30, 2
  11              		.eabi_attribute 34, 1
  12              		.eabi_attribute 18, 4
  13              		.thumb
  14              		.file	"serial_lld.c"
  15              		.text
  16              	.Ltext0:
  17              		.cfi_sections	.debug_frame
  18              		.section	.text.notify2,"ax",%progbits
  19              		.align	2
  20              		.p2align 4,,15
  21              		.thumb
  22              		.thumb_func
  23              		.type	notify2, %function
  24              	notify2:
  25              	.LFB67:
  26              		.file 1 "../../os/hal/platforms/STM32/USARTv1/serial_lld.c"
  27              		.loc 1 211 0
  28              		.cfi_startproc
  29              		@ args = 0, pretend = 0, frame = 0
  30              		@ frame_needed = 0, uses_anonymous_args = 0
  31              		@ link register save eliminated.
  32              	.LVL0:
  33              		.loc 1 214 0
  34 0000 4FF48843 		mov	r3, #17408
  35 0004 C4F20003 		movt	r3, 16384
  36 0008 9A89     		ldrh	r2, [r3, #12]
  37 000a 90B2     		uxth	r0, r2
  38              	.LVL1:
  39 000c 40F08001 		orr	r1, r0, #128
  40 0010 9981     		strh	r1, [r3, #12]	@ movhi
  41 0012 7047     		bx	lr
  42              		.cfi_endproc
  43              	.LFE67:
  44              		.size	notify2, .-notify2
  45 0014 AFF30080 		.section	.text.VectorD8,"ax",%progbits
  45      AFF30080 
  45      AFF30080 
  46              		.align	2
  47              		.p2align 4,,15
  48              		.global	VectorD8
  49              		.thumb
  50              		.thumb_func
  51              		.type	VectorD8, %function
  52              	VectorD8:
  53              	.LFB68:
  54              		.loc 1 282 0
  55              		.cfi_startproc
ARM GAS  /tmp/cctPMLcj.s 			page 2


  56              		@ args = 0, pretend = 0, frame = 0
  57              		@ frame_needed = 0, uses_anonymous_args = 0
  58 0000 F8B5     		push	{r3, r4, r5, r6, r7, lr}
  59              	.LCFI0:
  60              		.cfi_def_cfa_offset 24
  61              		.cfi_offset 3, -24
  62              		.cfi_offset 4, -20
  63              		.cfi_offset 5, -16
  64              		.cfi_offset 6, -12
  65              		.cfi_offset 7, -8
  66              		.cfi_offset 14, -4
  67              	.LBB26:
  68              	.LBB27:
  69              		.loc 1 155 0
  70 0002 514F     		ldr	r7, .L49
  71              	.LBE27:
  72              	.LBE26:
  73              		.loc 1 284 0
  74 0004 FFF7FEFF 		bl	dbg_check_enter_isr
  75              	.LVL2:
  76              	.LBB41:
  77              	.LBB39:
  78              		.loc 1 155 0
  79 0008 7D6F     		ldr	r5, [r7, #116]
  80              	.LVL3:
  81              		.loc 1 156 0
  82 000a AE89     		ldrh	r6, [r5, #12]
  83              		.loc 1 157 0
  84 000c 2C88     		ldrh	r4, [r5, #0]
  85              		.loc 1 156 0
  86 000e B6B2     		uxth	r6, r6
  87              	.LVL4:
  88              		.loc 1 157 0
  89 0010 A4B2     		uxth	r4, r4
  90              	.LVL5:
  91              		.loc 1 160 0
  92 0012 04F48073 		and	r3, r4, #256
  93 0016 98B2     		uxth	r0, r3
  94 0018 0028     		cmp	r0, #0
  95 001a 62D1     		bne	.L46
  96              	.L3:
  97              	.LBB28:
  98              		.loc 1 168 0
  99 001c 2023     		movs	r3, #32
 100              	.LVL6:
 101              	@ 168 "../../os/hal/platforms/STM32/USARTv1/serial_lld.c" 1
 102 001e 83F31188 		msr     BASEPRI, r3
 103              	@ 0 "" 2
 104              	.LVL7:
 105              		.thumb
 106              	.LBE28:
 107 0022 FFF7FEFF 		bl	dbg_check_lock_from_isr
 108              	.LVL8:
 109              		.loc 1 169 0
 110 0026 04F02001 		and	r1, r4, #32
 111 002a 8AB2     		uxth	r2, r1
 112 002c 5AB9     		cbnz	r2, .L34
ARM GAS  /tmp/cctPMLcj.s 			page 3


 113 002e 28E0     		b	.L4
 114              	.LVL9:
 115              	.L5:
 116              		.loc 1 173 0
 117 0030 A988     		ldrh	r1, [r5, #4]
 118 0032 4548     		ldr	r0, .L49
 119 0034 C9B2     		uxtb	r1, r1
 120 0036 FFF7FEFF 		bl	sdIncomingDataI
 121              	.LVL10:
 122              		.loc 1 174 0
 123 003a 2888     		ldrh	r0, [r5, #0]
 124 003c 84B2     		uxth	r4, r0
 125              	.LVL11:
 126              		.loc 1 169 0
 127 003e 04F02003 		and	r3, r4, #32
 128 0042 9AB2     		uxth	r2, r3
 129 0044 EAB1     		cbz	r2, .L4
 130              	.LVL12:
 131              	.L34:
 132              		.loc 1 171 0
 133 0046 2307     		lsls	r3, r4, #28
 134 0048 F2D0     		beq	.L5
 135              	.LVL13:
 136              	.LBB29:
 137              	.LBB30:
 138              		.loc 1 138 0
 139 004a 04F00803 		and	r3, r4, #8
 140 004e 98B2     		uxth	r0, r3
 141              		.loc 1 142 0
 142 0050 04F00202 		and	r2, r4, #2
 143              		.loc 1 139 0
 144 0054 0028     		cmp	r0, #0
 145 0056 14BF     		ite	ne
 146 0058 8021     		movne	r1, #128
 147 005a 0021     		moveq	r1, #0
 148              	.LVL14:
 149              		.loc 1 142 0
 150 005c 93B2     		uxth	r3, r2
 151              		.loc 1 140 0
 152 005e 14F0010F 		tst	r4, #1
 153              		.loc 1 144 0
 154 0062 04F00404 		and	r4, r4, #4
 155              	.LVL15:
 156              		.loc 1 146 0
 157 0066 3948     		ldr	r0, .L49+4
 158              		.loc 1 141 0
 159 0068 18BF     		it	ne
 160 006a 41F02001 		orrne	r1, r1, #32
 161              	.LVL16:
 162              		.loc 1 144 0
 163 006e A2B2     		uxth	r2, r4
 164              		.loc 1 142 0
 165 0070 0BB1     		cbz	r3, .L8
 166              		.loc 1 143 0
 167 0072 41F04001 		orr	r1, r1, #64
 168              	.LVL17:
 169              	.L8:
ARM GAS  /tmp/cctPMLcj.s 			page 4


 170              		.loc 1 144 0
 171 0076 0AB1     		cbz	r2, .L9
 172              		.loc 1 145 0
 173 0078 41F48071 		orr	r1, r1, #256
 174              	.LVL18:
 175              	.L9:
 176              		.loc 1 146 0
 177 007c FFF7FEFF 		bl	chEvtBroadcastFlagsI
 178              	.LVL19:
 179 0080 D6E7     		b	.L5
 180              	.LVL20:
 181              	.L4:
 182              	.LBE30:
 183              	.LBE29:
 184              		.loc 1 176 0
 185 0082 FFF7FEFF 		bl	dbg_check_unlock_from_isr
 186              	.LVL21:
 187              	.LBB31:
 188 0086 0023     		movs	r3, #0
 189              	.LVL22:
 190              	@ 176 "../../os/hal/platforms/STM32/USARTv1/serial_lld.c" 1
 191 0088 83F31188 		msr     BASEPRI, r3
 192              	@ 0 "" 2
 193              	.LVL23:
 194              		.thumb
 195              	.LBE31:
 196              		.loc 1 179 0
 197 008c 06F08001 		and	r1, r6, #128
 198 0090 88B2     		uxth	r0, r1
 199 0092 20B1     		cbz	r0, .L11
 200 0094 04F08003 		and	r3, r4, #128
 201              	.LVL24:
 202 0098 9AB2     		uxth	r2, r3
 203 009a 002A     		cmp	r2, #0
 204 009c 37D1     		bne	.L47
 205              	.LVL25:
 206              	.L11:
 207              		.loc 1 193 0
 208 009e 04F04004 		and	r4, r4, #64
 209 00a2 A4B2     		uxth	r4, r4
 210 00a4 BCB1     		cbz	r4, .L14
 211              	.LBB32:
 212              		.loc 1 194 0
 213 00a6 2023     		movs	r3, #32
 214              	.LVL26:
 215              	@ 194 "../../os/hal/platforms/STM32/USARTv1/serial_lld.c" 1
 216 00a8 83F31188 		msr     BASEPRI, r3
 217              	@ 0 "" 2
 218              	.LVL27:
 219              		.thumb
 220              	.LBE32:
 221 00ac FFF7FEFF 		bl	dbg_check_lock_from_isr
 222              	.LVL28:
 223              		.loc 1 195 0
 224 00b0 2648     		ldr	r0, .L49+4
 225 00b2 1021     		movs	r1, #16
 226 00b4 FFF7FEFF 		bl	chEvtBroadcastFlagsI
ARM GAS  /tmp/cctPMLcj.s 			page 5


 227              	.LVL29:
 228              		.loc 1 196 0
 229 00b8 FFF7FEFF 		bl	dbg_check_unlock_from_isr
 230              	.LVL30:
 231              	.LBB33:
 232 00bc 0023     		movs	r3, #0
 233              	.LVL31:
 234              	@ 196 "../../os/hal/platforms/STM32/USARTv1/serial_lld.c" 1
 235 00be 83F31188 		msr     BASEPRI, r3
 236              	@ 0 "" 2
 237              	.LVL32:
 238              		.thumb
 239              	.LBE33:
 240              		.loc 1 197 0
 241 00c2 4FF6BF72 		movw	r2, #65471
 242 00c6 3240     		ands	r2, r2, r6
 243 00c8 AA81     		strh	r2, [r5, #12]	@ movhi
 244              		.loc 1 198 0
 245 00ca 2988     		ldrh	r1, [r5, #0]
 246 00cc 21F04000 		bic	r0, r1, #64
 247 00d0 0304     		lsls	r3, r0, #16
 248              	.LVL33:
 249 00d2 1A0C     		lsrs	r2, r3, #16
 250 00d4 2A80     		strh	r2, [r5, #0]	@ movhi
 251              	.LVL34:
 252              	.L14:
 253              	.LBE39:
 254              	.LBE41:
 255              		.loc 1 288 0
 256 00d6 FFF7FEFF 		bl	dbg_check_leave_isr
 257              	.LVL35:
 258              		.loc 1 289 0
 259 00da BDE8F840 		pop	{r3, r4, r5, r6, r7, lr}
 260              		.loc 1 288 0
 261 00de FFF7FEBF 		b	_port_irq_epilogue
 262              	.LVL36:
 263              	.L46:
 264              	.LBB42:
 265              	.LBB40:
 266              	.LBB34:
 267              		.loc 1 161 0
 268 00e2 2023     		movs	r3, #32
 269              	.LVL37:
 270              	@ 161 "../../os/hal/platforms/STM32/USARTv1/serial_lld.c" 1
 271 00e4 83F31188 		msr     BASEPRI, r3
 272              	@ 0 "" 2
 273              	.LVL38:
 274              		.thumb
 275              	.LBE34:
 276 00e8 FFF7FEFF 		bl	dbg_check_lock_from_isr
 277              	.LVL39:
 278              		.loc 1 162 0
 279 00ec 381D     		adds	r0, r7, #4
 280 00ee 4FF40071 		mov	r1, #512
 281 00f2 FFF7FEFF 		bl	chEvtBroadcastFlagsI
 282              	.LVL40:
 283              		.loc 1 163 0
ARM GAS  /tmp/cctPMLcj.s 			page 6


 284 00f6 FFF7FEFF 		bl	dbg_check_unlock_from_isr
 285              	.LVL41:
 286              	.LBB35:
 287 00fa 0023     		movs	r3, #0
 288              	.LVL42:
 289              	@ 163 "../../os/hal/platforms/STM32/USARTv1/serial_lld.c" 1
 290 00fc 83F31188 		msr     BASEPRI, r3
 291              	@ 0 "" 2
 292              	.LVL43:
 293              		.thumb
 294              	.LBE35:
 295              		.loc 1 164 0
 296 0100 2988     		ldrh	r1, [r5, #0]
 297 0102 21F48072 		bic	r2, r1, #256
 298 0106 1304     		lsls	r3, r2, #16
 299              	.LVL44:
 300 0108 180C     		lsrs	r0, r3, #16
 301 010a 2880     		strh	r0, [r5, #0]	@ movhi
 302 010c 86E7     		b	.L3
 303              	.LVL45:
 304              	.L47:
 305              	.LBB36:
 306              	.LBB37:
 307              		.loc 1 181 0
 308 010e 2023     		movs	r3, #32
 309              	.LVL46:
 310              	@ 181 "../../os/hal/platforms/STM32/USARTv1/serial_lld.c" 1
 311 0110 83F31188 		msr     BASEPRI, r3
 312              	@ 0 "" 2
 313              	.LVL47:
 314              		.thumb
 315              	.LBE37:
 316 0114 FFF7FEFF 		bl	dbg_check_lock_from_isr
 317              	.LVL48:
 318              		.loc 1 182 0
 319 0118 0D48     		ldr	r0, .L49+8
 320 011a FFF7FEFF 		bl	chOQGetI
 321              	.LVL49:
 322              		.loc 1 183 0
 323 011e 0028     		cmp	r0, #0
 324 0120 07DB     		blt	.L48
 325              		.loc 1 188 0
 326 0122 81B2     		uxth	r1, r0
 327 0124 A980     		strh	r1, [r5, #4]	@ movhi
 328              	.LVL50:
 329              	.L13:
 330              		.loc 1 189 0
 331 0126 FFF7FEFF 		bl	dbg_check_unlock_from_isr
 332              	.LVL51:
 333              	.LBB38:
 334 012a 0023     		movs	r3, #0
 335              	@ 189 "../../os/hal/platforms/STM32/USARTv1/serial_lld.c" 1
 336 012c 83F31188 		msr     BASEPRI, r3
 337              	@ 0 "" 2
 338              	.LVL52:
 339              		.thumb
 340 0130 B5E7     		b	.L11
ARM GAS  /tmp/cctPMLcj.s 			page 7


 341              	.LVL53:
 342              	.L48:
 343              	.LBE38:
 344              		.loc 1 184 0
 345 0132 0648     		ldr	r0, .L49+4
 346              	.LVL54:
 347 0134 0821     		movs	r1, #8
 348 0136 FFF7FEFF 		bl	chEvtBroadcastFlagsI
 349              	.LVL55:
 350              		.loc 1 185 0
 351 013a 26F0C000 		bic	r0, r6, #192
 352 013e 40F04003 		orr	r3, r0, #64
 353 0142 AB81     		strh	r3, [r5, #12]	@ movhi
 354 0144 EFE7     		b	.L13
 355              	.L50:
 356 0146 00BF     		.align	2
 357              	.L49:
 358 0148 00000000 		.word	.LANCHOR0
 359 014c 04000000 		.word	.LANCHOR0+4
 360 0150 30000000 		.word	.LANCHOR0+48
 361              	.LBE36:
 362              	.LBE40:
 363              	.LBE42:
 364              		.cfi_endproc
 365              	.LFE68:
 366              		.size	VectorD8, .-VectorD8
 367 0154 AFF30080 		.section	.text.sd_lld_init,"ax",%progbits
 367      AFF30080 
 367      AFF30080 
 368              		.align	2
 369              		.p2align 4,,15
 370              		.global	sd_lld_init
 371              		.thumb
 372              		.thumb_func
 373              		.type	sd_lld_init, %function
 374              	sd_lld_init:
 375              	.LFB69:
 376              		.loc 1 377 0
 377              		.cfi_startproc
 378              		@ args = 0, pretend = 0, frame = 0
 379              		@ frame_needed = 0, uses_anonymous_args = 0
 380 0000 10B5     		push	{r4, lr}
 381              	.LCFI1:
 382              		.cfi_def_cfa_offset 8
 383              		.cfi_offset 4, -8
 384              		.cfi_offset 14, -4
 385              		.loc 1 385 0
 386 0002 40F20004 		movw	r4, #:lower16:.LANCHOR0
 387 0006 C0F20004 		movt	r4, #:upper16:.LANCHOR0
 388 000a 40F20002 		movw	r2, #:lower16:notify2
 389 000e 2046     		mov	r0, r4
 390 0010 0021     		movs	r1, #0
 391 0012 C0F20002 		movt	r2, #:upper16:notify2
 392 0016 FFF7FEFF 		bl	sdObjectInit
 393              	.LVL56:
 394              		.loc 1 386 0
 395 001a 4FF48843 		mov	r3, #17408
ARM GAS  /tmp/cctPMLcj.s 			page 8


 396 001e C4F20003 		movt	r3, 16384
 397 0022 6367     		str	r3, [r4, #116]
 398 0024 10BD     		pop	{r4, pc}
 399              		.cfi_endproc
 400              	.LFE69:
 401              		.size	sd_lld_init, .-sd_lld_init
 402 0026 00BFAFF3 		.section	.text.sd_lld_start,"ax",%progbits
 402      0080AFF3 
 402      0080
 403              		.align	2
 404              		.p2align 4,,15
 405              		.global	sd_lld_start
 406              		.thumb
 407              		.thumb_func
 408              		.type	sd_lld_start, %function
 409              	sd_lld_start:
 410              	.LFB70:
 411              		.loc 1 420 0
 412              		.cfi_startproc
 413              		@ args = 0, pretend = 0, frame = 0
 414              		@ frame_needed = 0, uses_anonymous_args = 0
 415              	.LVL57:
 416 0000 38B5     		push	{r3, r4, r5, lr}
 417              	.LCFI2:
 418              		.cfi_def_cfa_offset 16
 419              		.cfi_offset 3, -16
 420              		.cfi_offset 4, -12
 421              		.cfi_offset 5, -8
 422              		.cfi_offset 14, -4
 423              		.loc 1 425 0
 424 0002 037A     		ldrb	r3, [r0, #8]	@ zero_extendqisi2
 425              		.loc 1 423 0
 426 0004 1B4C     		ldr	r4, .L59
 427              		.loc 1 420 0
 428 0006 0546     		mov	r5, r0
 429              		.loc 1 423 0
 430 0008 0029     		cmp	r1, #0
 431 000a 18BF     		it	ne
 432 000c 0C46     		movne	r4, r1
 433              		.loc 1 425 0
 434 000e 012B     		cmp	r3, #1
 435 0010 1FD0     		beq	.L58
 436              	.LVL58:
 437              	.L54:
 438              	.LBB45:
 439              	.LBB46:
 440              		.loc 1 101 0
 441 0012 2068     		ldr	r0, [r4, #0]
 442 0014 4AF68001 		movw	r1, #43136
 443 0018 C0F21211 		movt	r1, 274
 444              		.loc 1 93 0
 445 001c 6B6F     		ldr	r3, [r5, #116]
 446              	.LVL59:
 447              		.loc 1 101 0
 448 001e B1FBF0F2 		udiv	r2, r1, r0
 449 0022 90B2     		uxth	r0, r2
 450 0024 1881     		strh	r0, [r3, #8]	@ movhi
ARM GAS  /tmp/cctPMLcj.s 			page 9


 451              		.loc 1 108 0
 452 0026 A288     		ldrh	r2, [r4, #4]
 453              		.loc 1 106 0
 454 0028 E088     		ldrh	r0, [r4, #6]
 455              		.loc 1 107 0
 456 002a 2189     		ldrh	r1, [r4, #8]
 457              		.loc 1 108 0
 458 002c 42F40452 		orr	r2, r2, #8448
 459              		.loc 1 106 0
 460 0030 40F04000 		orr	r0, r0, #64
 461 0034 80B2     		uxth	r0, r0
 462              		.loc 1 107 0
 463 0036 41F00101 		orr	r1, r1, #1
 464              		.loc 1 108 0
 465 003a 42F02C02 		orr	r2, r2, #44
 466              		.loc 1 106 0
 467 003e 1882     		strh	r0, [r3, #16]	@ movhi
 468              		.loc 1 108 0
 469 0040 92B2     		uxth	r2, r2
 470              		.loc 1 107 0
 471 0042 89B2     		uxth	r1, r1
 472              		.loc 1 111 0
 473 0044 0020     		movs	r0, #0
 474              		.loc 1 107 0
 475 0046 9982     		strh	r1, [r3, #20]	@ movhi
 476              		.loc 1 108 0
 477 0048 9A81     		strh	r2, [r3, #12]	@ movhi
 478              		.loc 1 111 0
 479 004a 1880     		strh	r0, [r3, #0]	@ movhi
 480              		.loc 1 112 0
 481 004c 1A88     		ldrh	r2, [r3, #0]
 482              		.loc 1 113 0
 483 004e 9B88     		ldrh	r3, [r3, #4]
 484              	.LVL60:
 485 0050 38BD     		pop	{r3, r4, r5, pc}
 486              	.LVL61:
 487              	.L58:
 488              	.LBE46:
 489              	.LBE45:
 490              		.loc 1 434 0
 491 0052 0948     		ldr	r0, .L59+4
 492              	.LVL62:
 493 0054 8542     		cmp	r5, r0
 494 0056 DCD1     		bne	.L54
 495              		.loc 1 435 0
 496 0058 4FF48051 		mov	r1, #4096
 497              	.LVL63:
 498 005c C4F20201 		movt	r1, 16386
 499 0060 CA69     		ldr	r2, [r1, #28]
 500              		.loc 1 436 0
 501 0062 2620     		movs	r0, #38
 502              		.loc 1 435 0
 503 0064 42F40033 		orr	r3, r2, #131072
 504 0068 CB61     		str	r3, [r1, #28]
 505              		.loc 1 436 0
 506 006a C021     		movs	r1, #192
 507 006c FFF7FEFF 		bl	nvicEnableVector
ARM GAS  /tmp/cctPMLcj.s 			page 10


 508              	.LVL64:
 509 0070 CFE7     		b	.L54
 510              	.L60:
 511 0072 00BF     		.align	2
 512              	.L59:
 513 0074 00000000 		.word	.LANCHOR1
 514 0078 00000000 		.word	.LANCHOR0
 515              		.cfi_endproc
 516              	.LFE70:
 517              		.size	sd_lld_start, .-sd_lld_start
 518 007c AFF30080 		.section	.text.sd_lld_stop,"ax",%progbits
 519              		.align	2
 520              		.p2align 4,,15
 521              		.global	sd_lld_stop
 522              		.thumb
 523              		.thumb_func
 524              		.type	sd_lld_stop, %function
 525              	sd_lld_stop:
 526              	.LFB71:
 527              		.loc 1 481 0
 528              		.cfi_startproc
 529              		@ args = 0, pretend = 0, frame = 0
 530              		@ frame_needed = 0, uses_anonymous_args = 0
 531              		@ link register save eliminated.
 532              	.LVL65:
 533              		.loc 1 483 0
 534 0000 037A     		ldrb	r3, [r0, #8]	@ zero_extendqisi2
 535 0002 022B     		cmp	r3, #2
 536 0004 00D0     		beq	.L65
 537              	.L61:
 538 0006 7047     		bx	lr
 539              	.L65:
 540              		.loc 1 493 0
 541 0008 094B     		ldr	r3, .L66
 542              		.loc 1 484 0
 543 000a 416F     		ldr	r1, [r0, #116]
 544              	.LVL66:
 545              	.LBB47:
 546              	.LBB48:
 547              		.loc 1 124 0
 548 000c 0022     		movs	r2, #0
 549              	.LBE48:
 550              	.LBE47:
 551              		.loc 1 493 0
 552 000e 9842     		cmp	r0, r3
 553              	.LBB50:
 554              	.LBB49:
 555              		.loc 1 124 0
 556 0010 8A81     		strh	r2, [r1, #12]	@ movhi
 557              		.loc 1 125 0
 558 0012 0A82     		strh	r2, [r1, #16]	@ movhi
 559              		.loc 1 126 0
 560 0014 8A82     		strh	r2, [r1, #20]	@ movhi
 561              	.LBE49:
 562              	.LBE50:
 563              		.loc 1 493 0
 564 0016 F6D1     		bne	.L61
ARM GAS  /tmp/cctPMLcj.s 			page 11


 565              		.loc 1 494 0
 566 0018 4FF48051 		mov	r1, #4096
 567              	.LVL67:
 568 001c C4F20201 		movt	r1, 16386
 569 0020 CA69     		ldr	r2, [r1, #28]
 570              		.loc 1 495 0
 571 0022 2620     		movs	r0, #38
 572              	.LVL68:
 573              		.loc 1 494 0
 574 0024 22F40033 		bic	r3, r2, #131072
 575 0028 CB61     		str	r3, [r1, #28]
 576              		.loc 1 528 0
 577              		.loc 1 495 0
 578 002a FFF7FEBF 		b	nvicDisableVector
 579              	.LVL69:
 580              	.L67:
 581 002e 00BF     		.align	2
 582              	.L66:
 583 0030 00000000 		.word	.LANCHOR0
 584              		.cfi_endproc
 585              	.LFE71:
 586              		.size	sd_lld_stop, .-sd_lld_stop
 587              		.global	SD2
 588 0034 AFF30080 		.section	.rodata.default_config,"a",%progbits
 588      AFF30080 
 588      AFF30080 
 589              		.align	2
 590              		.set	.LANCHOR1,. + 0
 591              		.type	default_config, %object
 592              		.size	default_config, 12
 593              	default_config:
 594 0000 00960000 		.word	38400
 595 0004 0000     		.short	0
 596 0006 0040     		.short	16384
 597 0008 0000     		.short	0
 598 000a 0000     		.space	2
 599              		.section	.bss.SD2,"aw",%nobits
 600              		.align	2
 601              		.set	.LANCHOR0,. + 0
 602              		.type	SD2, %object
 603              		.size	SD2, 120
 604              	SD2:
 605 0000 00000000 		.space	120
 605      00000000 
 605      00000000 
 605      00000000 
 605      00000000 
 606              		.text
 607              	.Letext0:
 608              		.file 2 "/usr/bin/../lib/gcc/arm-none-eabi/4.7.4/include/stddef.h"
 609              		.file 3 "/usr/bin/../lib/gcc/arm-none-eabi/4.7.4/../../../../arm-none-eabi/include/stdint.h"
 610              		.file 4 "../../os/ports/GCC/ARMCMx/chtypes.h"
 611              		.file 5 "../../os/kernel/include/chlists.h"
 612              		.file 6 "../../os/kernel/include/chthreads.h"
 613              		.file 7 "../../os/ports/GCC/ARMCMx/chcore_v7m.h"
 614              		.file 8 "../../os/kernel/include/chmtx.h"
 615              		.file 9 "../../os/kernel/include/chevents.h"
ARM GAS  /tmp/cctPMLcj.s 			page 12


 616              		.file 10 "../../os/kernel/include/chqueues.h"
 617              		.file 11 "../../os/hal/platforms/STM32F1xx/stm32f10x.h"
 618              		.file 12 "../../os/hal/include/serial.h"
 619              		.file 13 "../../os/hal/platforms/STM32/USARTv1/serial_lld.h"
 620              		.file 14 "../../os/kernel/include/chdebug.h"
 621              		.file 15 "../../os/ports/common/ARMCMx/nvic.h"
 622              		.file 16 "../../os/ports/common/ARMCMx/CMSIS/include/core_cm3.h"
 623              		.section	.debug_info,"",%progbits
 624              	.Ldebug_info0:
 625 0000 40110000 		.4byte	0x1140
 626 0004 0200     		.2byte	0x2
 627 0006 00000000 		.4byte	.Ldebug_abbrev0
 628 000a 04       		.byte	0x4
 629 000b 01       		.uleb128 0x1
 630 000c 7D010000 		.4byte	.LASF207
 631 0010 01       		.byte	0x1
 632 0011 6E090000 		.4byte	.LASF208
 633 0015 83020000 		.4byte	.LASF209
 634 0019 58000000 		.4byte	.Ldebug_ranges0+0x58
 635 001d 00000000 		.4byte	0
 636 0021 00000000 		.4byte	0
 637 0025 00000000 		.4byte	.Ldebug_line0
 638 0029 02       		.uleb128 0x2
 639 002a 04       		.byte	0x4
 640 002b 05       		.byte	0x5
 641 002c 696E7400 		.ascii	"int\000"
 642 0030 03       		.uleb128 0x3
 643 0031 33000000 		.4byte	.LASF2
 644 0035 02       		.byte	0x2
 645 0036 D5       		.byte	0xd5
 646 0037 3B000000 		.4byte	0x3b
 647 003b 04       		.uleb128 0x4
 648 003c 04       		.byte	0x4
 649 003d 07       		.byte	0x7
 650 003e 0D030000 		.4byte	.LASF0
 651 0042 04       		.uleb128 0x4
 652 0043 01       		.byte	0x1
 653 0044 06       		.byte	0x6
 654 0045 3C010000 		.4byte	.LASF1
 655 0049 03       		.uleb128 0x3
 656 004a 05090000 		.4byte	.LASF3
 657 004e 03       		.byte	0x3
 658 004f 2A       		.byte	0x2a
 659 0050 54000000 		.4byte	0x54
 660 0054 04       		.uleb128 0x4
 661 0055 01       		.byte	0x1
 662 0056 08       		.byte	0x8
 663 0057 10060000 		.4byte	.LASF4
 664 005b 04       		.uleb128 0x4
 665 005c 02       		.byte	0x2
 666 005d 05       		.byte	0x5
 667 005e 56060000 		.4byte	.LASF5
 668 0062 03       		.uleb128 0x3
 669 0063 1A030000 		.4byte	.LASF6
 670 0067 03       		.byte	0x3
 671 0068 36       		.byte	0x36
 672 0069 6D000000 		.4byte	0x6d
ARM GAS  /tmp/cctPMLcj.s 			page 13


 673 006d 04       		.uleb128 0x4
 674 006e 02       		.byte	0x2
 675 006f 07       		.byte	0x7
 676 0070 9F030000 		.4byte	.LASF7
 677 0074 03       		.uleb128 0x3
 678 0075 08060000 		.4byte	.LASF8
 679 0079 03       		.byte	0x3
 680 007a 4F       		.byte	0x4f
 681 007b 7F000000 		.4byte	0x7f
 682 007f 04       		.uleb128 0x4
 683 0080 04       		.byte	0x4
 684 0081 05       		.byte	0x5
 685 0082 DB010000 		.4byte	.LASF9
 686 0086 03       		.uleb128 0x3
 687 0087 0E070000 		.4byte	.LASF10
 688 008b 03       		.byte	0x3
 689 008c 50       		.byte	0x50
 690 008d 91000000 		.4byte	0x91
 691 0091 04       		.uleb128 0x4
 692 0092 04       		.byte	0x4
 693 0093 07       		.byte	0x7
 694 0094 52070000 		.4byte	.LASF11
 695 0098 04       		.uleb128 0x4
 696 0099 08       		.byte	0x8
 697 009a 05       		.byte	0x5
 698 009b 2E010000 		.4byte	.LASF12
 699 009f 03       		.uleb128 0x3
 700 00a0 4E000000 		.4byte	.LASF13
 701 00a4 03       		.byte	0x3
 702 00a5 78       		.byte	0x78
 703 00a6 AA000000 		.4byte	0xaa
 704 00aa 04       		.uleb128 0x4
 705 00ab 08       		.byte	0x8
 706 00ac 07       		.byte	0x7
 707 00ad A4000000 		.4byte	.LASF14
 708 00b1 04       		.uleb128 0x4
 709 00b2 01       		.byte	0x1
 710 00b3 02       		.byte	0x2
 711 00b4 02060000 		.4byte	.LASF15
 712 00b8 03       		.uleb128 0x3
 713 00b9 0C040000 		.4byte	.LASF16
 714 00bd 04       		.byte	0x4
 715 00be 25       		.byte	0x25
 716 00bf 49000000 		.4byte	0x49
 717 00c3 03       		.uleb128 0x3
 718 00c4 ED010000 		.4byte	.LASF17
 719 00c8 04       		.byte	0x4
 720 00c9 26       		.byte	0x26
 721 00ca 49000000 		.4byte	0x49
 722 00ce 03       		.uleb128 0x3
 723 00cf 9B050000 		.4byte	.LASF18
 724 00d3 04       		.byte	0x4
 725 00d4 27       		.byte	0x27
 726 00d5 49000000 		.4byte	0x49
 727 00d9 03       		.uleb128 0x3
 728 00da 73010000 		.4byte	.LASF19
 729 00de 04       		.byte	0x4
ARM GAS  /tmp/cctPMLcj.s 			page 14


 730 00df 28       		.byte	0x28
 731 00e0 49000000 		.4byte	0x49
 732 00e4 03       		.uleb128 0x3
 733 00e5 E6050000 		.4byte	.LASF20
 734 00e9 04       		.byte	0x4
 735 00ea 29       		.byte	0x29
 736 00eb 86000000 		.4byte	0x86
 737 00ef 03       		.uleb128 0x3
 738 00f0 D1030000 		.4byte	.LASF21
 739 00f4 04       		.byte	0x4
 740 00f5 2A       		.byte	0x2a
 741 00f6 74000000 		.4byte	0x74
 742 00fa 03       		.uleb128 0x3
 743 00fb 20040000 		.4byte	.LASF22
 744 00ff 04       		.byte	0x4
 745 0100 2C       		.byte	0x2c
 746 0101 86000000 		.4byte	0x86
 747 0105 03       		.uleb128 0x3
 748 0106 CE000000 		.4byte	.LASF23
 749 010a 04       		.byte	0x4
 750 010b 2D       		.byte	0x2d
 751 010c 86000000 		.4byte	0x86
 752 0110 03       		.uleb128 0x3
 753 0111 DD070000 		.4byte	.LASF24
 754 0115 04       		.byte	0x4
 755 0116 2E       		.byte	0x2e
 756 0117 86000000 		.4byte	0x86
 757 011b 03       		.uleb128 0x3
 758 011c CD060000 		.4byte	.LASF25
 759 0120 05       		.byte	0x5
 760 0121 23       		.byte	0x23
 761 0122 26010000 		.4byte	0x126
 762 0126 05       		.uleb128 0x5
 763 0127 CD060000 		.4byte	.LASF25
 764 012b 4C       		.byte	0x4c
 765 012c 06       		.byte	0x6
 766 012d 57       		.byte	0x57
 767 012e 59020000 		.4byte	0x259
 768 0132 06       		.uleb128 0x6
 769 0133 F4040000 		.4byte	.LASF26
 770 0137 06       		.byte	0x6
 771 0138 58       		.byte	0x58
 772 0139 7E020000 		.4byte	0x27e
 773 013d 02       		.byte	0x2
 774 013e 23       		.byte	0x23
 775 013f 00       		.uleb128 0
 776 0140 06       		.uleb128 0x6
 777 0141 D5050000 		.4byte	.LASF27
 778 0145 06       		.byte	0x6
 779 0146 5A       		.byte	0x5a
 780 0147 7E020000 		.4byte	0x27e
 781 014b 02       		.byte	0x2
 782 014c 23       		.byte	0x23
 783 014d 04       		.uleb128 0x4
 784 014e 06       		.uleb128 0x6
 785 014f 2E090000 		.4byte	.LASF28
 786 0153 06       		.byte	0x6
ARM GAS  /tmp/cctPMLcj.s 			page 15


 787 0154 5C       		.byte	0x5c
 788 0155 E4000000 		.4byte	0xe4
 789 0159 02       		.byte	0x2
 790 015a 23       		.byte	0x23
 791 015b 08       		.uleb128 0x8
 792 015c 06       		.uleb128 0x6
 793 015d E7090000 		.4byte	.LASF29
 794 0161 06       		.byte	0x6
 795 0162 5D       		.byte	0x5d
 796 0163 57030000 		.4byte	0x357
 797 0167 02       		.byte	0x2
 798 0168 23       		.byte	0x23
 799 0169 0C       		.uleb128 0xc
 800 016a 06       		.uleb128 0x6
 801 016b 46020000 		.4byte	.LASF30
 802 016f 06       		.byte	0x6
 803 0170 5F       		.byte	0x5f
 804 0171 7E020000 		.4byte	0x27e
 805 0175 02       		.byte	0x2
 806 0176 23       		.byte	0x23
 807 0177 10       		.uleb128 0x10
 808 0178 06       		.uleb128 0x6
 809 0179 75060000 		.4byte	.LASF31
 810 017d 06       		.byte	0x6
 811 017e 60       		.byte	0x60
 812 017f 7E020000 		.4byte	0x27e
 813 0183 02       		.byte	0x2
 814 0184 23       		.byte	0x23
 815 0185 14       		.uleb128 0x14
 816 0186 06       		.uleb128 0x6
 817 0187 19080000 		.4byte	.LASF32
 818 018b 06       		.byte	0x6
 819 018c 67       		.byte	0x67
 820 018d 84040000 		.4byte	0x484
 821 0191 02       		.byte	0x2
 822 0192 23       		.byte	0x23
 823 0193 18       		.uleb128 0x18
 824 0194 06       		.uleb128 0x6
 825 0195 FB070000 		.4byte	.LASF33
 826 0199 06       		.byte	0x6
 827 019a 6D       		.byte	0x6d
 828 019b 96040000 		.4byte	0x496
 829 019f 02       		.byte	0x2
 830 01a0 23       		.byte	0x23
 831 01a1 1C       		.uleb128 0x1c
 832 01a2 06       		.uleb128 0x6
 833 01a3 5B010000 		.4byte	.LASF34
 834 01a7 06       		.byte	0x6
 835 01a8 72       		.byte	0x72
 836 01a9 C3000000 		.4byte	0xc3
 837 01ad 02       		.byte	0x2
 838 01ae 23       		.byte	0x23
 839 01af 20       		.uleb128 0x20
 840 01b0 06       		.uleb128 0x6
 841 01b1 A2060000 		.4byte	.LASF35
 842 01b5 06       		.byte	0x6
 843 01b6 76       		.byte	0x76
ARM GAS  /tmp/cctPMLcj.s 			page 16


 844 01b7 B8000000 		.4byte	0xb8
 845 01bb 02       		.byte	0x2
 846 01bc 23       		.byte	0x23
 847 01bd 21       		.uleb128 0x21
 848 01be 06       		.uleb128 0x6
 849 01bf FF010000 		.4byte	.LASF36
 850 01c3 06       		.byte	0x6
 851 01c4 7B       		.byte	0x7b
 852 01c5 CE000000 		.4byte	0xce
 853 01c9 02       		.byte	0x2
 854 01ca 23       		.byte	0x23
 855 01cb 22       		.uleb128 0x22
 856 01cc 06       		.uleb128 0x6
 857 01cd 6B060000 		.4byte	.LASF37
 858 01d1 06       		.byte	0x6
 859 01d2 81       		.byte	0x81
 860 01d3 D9000000 		.4byte	0xd9
 861 01d7 02       		.byte	0x2
 862 01d8 23       		.byte	0x23
 863 01d9 23       		.uleb128 0x23
 864 01da 06       		.uleb128 0x6
 865 01db 33030000 		.4byte	.LASF38
 866 01df 06       		.byte	0x6
 867 01e0 88       		.byte	0x88
 868 01e1 86030000 		.4byte	0x386
 869 01e5 02       		.byte	0x2
 870 01e6 23       		.byte	0x23
 871 01e7 24       		.uleb128 0x24
 872 01e8 07       		.uleb128 0x7
 873 01e9 705F7500 		.ascii	"p_u\000"
 874 01ed 06       		.byte	0x6
 875 01ee AD       		.byte	0xad
 876 01ef 4F040000 		.4byte	0x44f
 877 01f3 02       		.byte	0x2
 878 01f4 23       		.byte	0x23
 879 01f5 28       		.uleb128 0x28
 880 01f6 06       		.uleb128 0x6
 881 01f7 ED090000 		.4byte	.LASF39
 882 01fb 06       		.byte	0x6
 883 01fc B2       		.byte	0xb2
 884 01fd A6020000 		.4byte	0x2a6
 885 0201 02       		.byte	0x2
 886 0202 23       		.byte	0x23
 887 0203 2C       		.uleb128 0x2c
 888 0204 06       		.uleb128 0x6
 889 0205 57030000 		.4byte	.LASF40
 890 0209 06       		.byte	0x6
 891 020a B8       		.byte	0xb8
 892 020b 84020000 		.4byte	0x284
 893 020f 02       		.byte	0x2
 894 0210 23       		.byte	0x23
 895 0211 30       		.uleb128 0x30
 896 0212 06       		.uleb128 0x6
 897 0213 F9080000 		.4byte	.LASF41
 898 0217 06       		.byte	0x6
 899 0218 BC       		.byte	0xbc
 900 0219 EF000000 		.4byte	0xef
ARM GAS  /tmp/cctPMLcj.s 			page 17


 901 021d 02       		.byte	0x2
 902 021e 23       		.byte	0x23
 903 021f 38       		.uleb128 0x38
 904 0220 06       		.uleb128 0x6
 905 0221 EF060000 		.4byte	.LASF42
 906 0225 06       		.byte	0x6
 907 0226 C2       		.byte	0xc2
 908 0227 FA000000 		.4byte	0xfa
 909 022b 02       		.byte	0x2
 910 022c 23       		.byte	0x23
 911 022d 3C       		.uleb128 0x3c
 912 022e 06       		.uleb128 0x6
 913 022f 4C060000 		.4byte	.LASF43
 914 0233 06       		.byte	0x6
 915 0234 C9       		.byte	0xc9
 916 0235 9C040000 		.4byte	0x49c
 917 0239 02       		.byte	0x2
 918 023a 23       		.byte	0x23
 919 023b 40       		.uleb128 0x40
 920 023c 06       		.uleb128 0x6
 921 023d 28000000 		.4byte	.LASF44
 922 0241 06       		.byte	0x6
 923 0242 CD       		.byte	0xcd
 924 0243 E4000000 		.4byte	0xe4
 925 0247 02       		.byte	0x2
 926 0248 23       		.byte	0x23
 927 0249 44       		.uleb128 0x44
 928 024a 06       		.uleb128 0x6
 929 024b 63010000 		.4byte	.LASF45
 930 024f 06       		.byte	0x6
 931 0250 D3       		.byte	0xd3
 932 0251 BC020000 		.4byte	0x2bc
 933 0255 02       		.byte	0x2
 934 0256 23       		.byte	0x23
 935 0257 48       		.uleb128 0x48
 936 0258 00       		.byte	0
 937 0259 08       		.uleb128 0x8
 938 025a 08       		.byte	0x8
 939 025b 05       		.byte	0x5
 940 025c 5A       		.byte	0x5a
 941 025d 7E020000 		.4byte	0x27e
 942 0261 06       		.uleb128 0x6
 943 0262 F4040000 		.4byte	.LASF26
 944 0266 05       		.byte	0x5
 945 0267 5B       		.byte	0x5b
 946 0268 7E020000 		.4byte	0x27e
 947 026c 02       		.byte	0x2
 948 026d 23       		.byte	0x23
 949 026e 00       		.uleb128 0
 950 026f 06       		.uleb128 0x6
 951 0270 D5050000 		.4byte	.LASF27
 952 0274 05       		.byte	0x5
 953 0275 5D       		.byte	0x5d
 954 0276 7E020000 		.4byte	0x27e
 955 027a 02       		.byte	0x2
 956 027b 23       		.byte	0x23
 957 027c 04       		.uleb128 0x4
ARM GAS  /tmp/cctPMLcj.s 			page 18


 958 027d 00       		.byte	0
 959 027e 09       		.uleb128 0x9
 960 027f 04       		.byte	0x4
 961 0280 1B010000 		.4byte	0x11b
 962 0284 03       		.uleb128 0x3
 963 0285 2E050000 		.4byte	.LASF46
 964 0289 05       		.byte	0x5
 965 028a 5F       		.byte	0x5f
 966 028b 59020000 		.4byte	0x259
 967 028f 08       		.uleb128 0x8
 968 0290 04       		.byte	0x4
 969 0291 05       		.byte	0x5
 970 0292 64       		.byte	0x64
 971 0293 A6020000 		.4byte	0x2a6
 972 0297 06       		.uleb128 0x6
 973 0298 F4040000 		.4byte	.LASF26
 974 029c 05       		.byte	0x5
 975 029d 66       		.byte	0x66
 976 029e 7E020000 		.4byte	0x27e
 977 02a2 02       		.byte	0x2
 978 02a3 23       		.byte	0x23
 979 02a4 00       		.uleb128 0
 980 02a5 00       		.byte	0
 981 02a6 03       		.uleb128 0x3
 982 02a7 14040000 		.4byte	.LASF47
 983 02ab 05       		.byte	0x5
 984 02ac 69       		.byte	0x69
 985 02ad 8F020000 		.4byte	0x28f
 986 02b1 03       		.uleb128 0x3
 987 02b2 CD020000 		.4byte	.LASF48
 988 02b6 07       		.byte	0x7
 989 02b7 DE       		.byte	0xde
 990 02b8 BC020000 		.4byte	0x2bc
 991 02bc 0A       		.uleb128 0xa
 992 02bd 04       		.byte	0x4
 993 02be 03       		.uleb128 0x3
 994 02bf 73040000 		.4byte	.LASF49
 995 02c3 07       		.byte	0x7
 996 02c4 E4       		.byte	0xe4
 997 02c5 9F000000 		.4byte	0x9f
 998 02c9 0B       		.uleb128 0xb
 999 02ca 6A080000 		.4byte	.LASF50
 1000 02ce 24       		.byte	0x24
 1001 02cf 07       		.byte	0x7
 1002 02d0 0501     		.2byte	0x105
 1003 02d2 57030000 		.4byte	0x357
 1004 02d6 0C       		.uleb128 0xc
 1005 02d7 723400   		.ascii	"r4\000"
 1006 02da 07       		.byte	0x7
 1007 02db 1801     		.2byte	0x118
 1008 02dd B1020000 		.4byte	0x2b1
 1009 02e1 02       		.byte	0x2
 1010 02e2 23       		.byte	0x23
 1011 02e3 00       		.uleb128 0
 1012 02e4 0C       		.uleb128 0xc
 1013 02e5 723500   		.ascii	"r5\000"
 1014 02e8 07       		.byte	0x7
ARM GAS  /tmp/cctPMLcj.s 			page 19


 1015 02e9 1901     		.2byte	0x119
 1016 02eb B1020000 		.4byte	0x2b1
 1017 02ef 02       		.byte	0x2
 1018 02f0 23       		.byte	0x23
 1019 02f1 04       		.uleb128 0x4
 1020 02f2 0C       		.uleb128 0xc
 1021 02f3 723600   		.ascii	"r6\000"
 1022 02f6 07       		.byte	0x7
 1023 02f7 1A01     		.2byte	0x11a
 1024 02f9 B1020000 		.4byte	0x2b1
 1025 02fd 02       		.byte	0x2
 1026 02fe 23       		.byte	0x23
 1027 02ff 08       		.uleb128 0x8
 1028 0300 0C       		.uleb128 0xc
 1029 0301 723700   		.ascii	"r7\000"
 1030 0304 07       		.byte	0x7
 1031 0305 1B01     		.2byte	0x11b
 1032 0307 B1020000 		.4byte	0x2b1
 1033 030b 02       		.byte	0x2
 1034 030c 23       		.byte	0x23
 1035 030d 0C       		.uleb128 0xc
 1036 030e 0C       		.uleb128 0xc
 1037 030f 723800   		.ascii	"r8\000"
 1038 0312 07       		.byte	0x7
 1039 0313 1C01     		.2byte	0x11c
 1040 0315 B1020000 		.4byte	0x2b1
 1041 0319 02       		.byte	0x2
 1042 031a 23       		.byte	0x23
 1043 031b 10       		.uleb128 0x10
 1044 031c 0C       		.uleb128 0xc
 1045 031d 723900   		.ascii	"r9\000"
 1046 0320 07       		.byte	0x7
 1047 0321 1D01     		.2byte	0x11d
 1048 0323 B1020000 		.4byte	0x2b1
 1049 0327 02       		.byte	0x2
 1050 0328 23       		.byte	0x23
 1051 0329 14       		.uleb128 0x14
 1052 032a 0C       		.uleb128 0xc
 1053 032b 72313000 		.ascii	"r10\000"
 1054 032f 07       		.byte	0x7
 1055 0330 1E01     		.2byte	0x11e
 1056 0332 B1020000 		.4byte	0x2b1
 1057 0336 02       		.byte	0x2
 1058 0337 23       		.byte	0x23
 1059 0338 18       		.uleb128 0x18
 1060 0339 0C       		.uleb128 0xc
 1061 033a 72313100 		.ascii	"r11\000"
 1062 033e 07       		.byte	0x7
 1063 033f 1F01     		.2byte	0x11f
 1064 0341 B1020000 		.4byte	0x2b1
 1065 0345 02       		.byte	0x2
 1066 0346 23       		.byte	0x23
 1067 0347 1C       		.uleb128 0x1c
 1068 0348 0C       		.uleb128 0xc
 1069 0349 6C7200   		.ascii	"lr\000"
 1070 034c 07       		.byte	0x7
 1071 034d 2001     		.2byte	0x120
ARM GAS  /tmp/cctPMLcj.s 			page 20


 1072 034f B1020000 		.4byte	0x2b1
 1073 0353 02       		.byte	0x2
 1074 0354 23       		.byte	0x23
 1075 0355 20       		.uleb128 0x20
 1076 0356 00       		.byte	0
 1077 0357 0B       		.uleb128 0xb
 1078 0358 34080000 		.4byte	.LASF51
 1079 035c 04       		.byte	0x4
 1080 035d 07       		.byte	0x7
 1081 035e 2A01     		.2byte	0x12a
 1082 0360 74030000 		.4byte	0x374
 1083 0364 0C       		.uleb128 0xc
 1084 0365 72313300 		.ascii	"r13\000"
 1085 0369 07       		.byte	0x7
 1086 036a 2B01     		.2byte	0x12b
 1087 036c 74030000 		.4byte	0x374
 1088 0370 02       		.byte	0x2
 1089 0371 23       		.byte	0x23
 1090 0372 00       		.uleb128 0
 1091 0373 00       		.byte	0
 1092 0374 09       		.uleb128 0x9
 1093 0375 04       		.byte	0x4
 1094 0376 C9020000 		.4byte	0x2c9
 1095 037a 0D       		.uleb128 0xd
 1096 037b 86000000 		.4byte	0x86
 1097 037f 04       		.uleb128 0x4
 1098 0380 04       		.byte	0x4
 1099 0381 07       		.byte	0x7
 1100 0382 AC040000 		.4byte	.LASF52
 1101 0386 0D       		.uleb128 0xd
 1102 0387 10010000 		.4byte	0x110
 1103 038b 05       		.uleb128 0x5
 1104 038c C8040000 		.4byte	.LASF53
 1105 0390 10       		.byte	0x10
 1106 0391 08       		.byte	0x8
 1107 0392 25       		.byte	0x25
 1108 0393 C2030000 		.4byte	0x3c2
 1109 0397 06       		.uleb128 0x6
 1110 0398 6B010000 		.4byte	.LASF54
 1111 039c 08       		.byte	0x8
 1112 039d 26       		.byte	0x26
 1113 039e 84020000 		.4byte	0x284
 1114 03a2 02       		.byte	0x2
 1115 03a3 23       		.byte	0x23
 1116 03a4 00       		.uleb128 0
 1117 03a5 06       		.uleb128 0x6
 1118 03a6 D1090000 		.4byte	.LASF55
 1119 03aa 08       		.byte	0x8
 1120 03ab 28       		.byte	0x28
 1121 03ac 7E020000 		.4byte	0x27e
 1122 03b0 02       		.byte	0x2
 1123 03b1 23       		.byte	0x23
 1124 03b2 08       		.uleb128 0x8
 1125 03b3 06       		.uleb128 0x6
 1126 03b4 D6070000 		.4byte	.LASF56
 1127 03b8 08       		.byte	0x8
 1128 03b9 2A       		.byte	0x2a
ARM GAS  /tmp/cctPMLcj.s 			page 21


 1129 03ba C2030000 		.4byte	0x3c2
 1130 03be 02       		.byte	0x2
 1131 03bf 23       		.byte	0x23
 1132 03c0 0C       		.uleb128 0xc
 1133 03c1 00       		.byte	0
 1134 03c2 09       		.uleb128 0x9
 1135 03c3 04       		.byte	0x4
 1136 03c4 8B030000 		.4byte	0x38b
 1137 03c8 03       		.uleb128 0x3
 1138 03c9 C8040000 		.4byte	.LASF53
 1139 03cd 08       		.byte	0x8
 1140 03ce 2C       		.byte	0x2c
 1141 03cf 8B030000 		.4byte	0x38b
 1142 03d3 03       		.uleb128 0x3
 1143 03d4 35090000 		.4byte	.LASF57
 1144 03d8 09       		.byte	0x9
 1145 03d9 25       		.byte	0x25
 1146 03da DE030000 		.4byte	0x3de
 1147 03de 05       		.uleb128 0x5
 1148 03df 35090000 		.4byte	.LASF57
 1149 03e3 10       		.byte	0x10
 1150 03e4 09       		.byte	0x9
 1151 03e5 2A       		.byte	0x2a
 1152 03e6 23040000 		.4byte	0x423
 1153 03ea 06       		.uleb128 0x6
 1154 03eb AA060000 		.4byte	.LASF58
 1155 03ef 09       		.byte	0x9
 1156 03f0 2B       		.byte	0x2b
 1157 03f1 23040000 		.4byte	0x423
 1158 03f5 02       		.byte	0x2
 1159 03f6 23       		.byte	0x23
 1160 03f7 00       		.uleb128 0
 1161 03f8 06       		.uleb128 0x6
 1162 03f9 2B060000 		.4byte	.LASF59
 1163 03fd 09       		.byte	0x9
 1164 03fe 2E       		.byte	0x2e
 1165 03ff 7E020000 		.4byte	0x27e
 1166 0403 02       		.byte	0x2
 1167 0404 23       		.byte	0x23
 1168 0405 04       		.uleb128 0x4
 1169 0406 06       		.uleb128 0x6
 1170 0407 6B050000 		.4byte	.LASF60
 1171 040b 09       		.byte	0x9
 1172 040c 30       		.byte	0x30
 1173 040d FA000000 		.4byte	0xfa
 1174 0411 02       		.byte	0x2
 1175 0412 23       		.byte	0x23
 1176 0413 08       		.uleb128 0x8
 1177 0414 06       		.uleb128 0x6
 1178 0415 37060000 		.4byte	.LASF61
 1179 0419 09       		.byte	0x9
 1180 041a 33       		.byte	0x33
 1181 041b 05010000 		.4byte	0x105
 1182 041f 02       		.byte	0x2
 1183 0420 23       		.byte	0x23
 1184 0421 0C       		.uleb128 0xc
 1185 0422 00       		.byte	0
ARM GAS  /tmp/cctPMLcj.s 			page 22


 1186 0423 09       		.uleb128 0x9
 1187 0424 04       		.byte	0x4
 1188 0425 D3030000 		.4byte	0x3d3
 1189 0429 05       		.uleb128 0x5
 1190 042a ED020000 		.4byte	.LASF62
 1191 042e 04       		.byte	0x4
 1192 042f 09       		.byte	0x9
 1193 0430 3A       		.byte	0x3a
 1194 0431 44040000 		.4byte	0x444
 1195 0435 06       		.uleb128 0x6
 1196 0436 B8080000 		.4byte	.LASF63
 1197 043a 09       		.byte	0x9
 1198 043b 3B       		.byte	0x3b
 1199 043c 23040000 		.4byte	0x423
 1200 0440 02       		.byte	0x2
 1201 0441 23       		.byte	0x23
 1202 0442 00       		.uleb128 0
 1203 0443 00       		.byte	0
 1204 0444 03       		.uleb128 0x3
 1205 0445 ED020000 		.4byte	.LASF62
 1206 0449 09       		.byte	0x9
 1207 044a 3E       		.byte	0x3e
 1208 044b 29040000 		.4byte	0x429
 1209 044f 0E       		.uleb128 0xe
 1210 0450 04       		.byte	0x4
 1211 0451 06       		.byte	0x6
 1212 0452 8F       		.byte	0x8f
 1213 0453 84040000 		.4byte	0x484
 1214 0457 0F       		.uleb128 0xf
 1215 0458 47000000 		.4byte	.LASF64
 1216 045c 06       		.byte	0x6
 1217 045d 96       		.byte	0x96
 1218 045e EF000000 		.4byte	0xef
 1219 0462 0F       		.uleb128 0xf
 1220 0463 DA000000 		.4byte	.LASF65
 1221 0467 06       		.byte	0x6
 1222 0468 9D       		.byte	0x9d
 1223 0469 EF000000 		.4byte	0xef
 1224 046d 0F       		.uleb128 0xf
 1225 046e 43090000 		.4byte	.LASF66
 1226 0472 06       		.byte	0x6
 1227 0473 A4       		.byte	0xa4
 1228 0474 BC020000 		.4byte	0x2bc
 1229 0478 0F       		.uleb128 0xf
 1230 0479 9B060000 		.4byte	.LASF67
 1231 047d 06       		.byte	0x6
 1232 047e AB       		.byte	0xab
 1233 047f FA000000 		.4byte	0xfa
 1234 0483 00       		.byte	0
 1235 0484 09       		.uleb128 0x9
 1236 0485 04       		.byte	0x4
 1237 0486 8A040000 		.4byte	0x48a
 1238 048a 10       		.uleb128 0x10
 1239 048b 8F040000 		.4byte	0x48f
 1240 048f 04       		.uleb128 0x4
 1241 0490 01       		.byte	0x1
 1242 0491 08       		.byte	0x8
ARM GAS  /tmp/cctPMLcj.s 			page 23


 1243 0492 69070000 		.4byte	.LASF68
 1244 0496 09       		.uleb128 0x9
 1245 0497 04       		.byte	0x4
 1246 0498 BE020000 		.4byte	0x2be
 1247 049c 09       		.uleb128 0x9
 1248 049d 04       		.byte	0x4
 1249 049e C8030000 		.4byte	0x3c8
 1250 04a2 09       		.uleb128 0x9
 1251 04a3 04       		.byte	0x4
 1252 04a4 A8040000 		.4byte	0x4a8
 1253 04a8 11       		.uleb128 0x11
 1254 04a9 01       		.byte	0x1
 1255 04aa EF000000 		.4byte	0xef
 1256 04ae B8040000 		.4byte	0x4b8
 1257 04b2 12       		.uleb128 0x12
 1258 04b3 BC020000 		.4byte	0x2bc
 1259 04b7 00       		.byte	0
 1260 04b8 03       		.uleb128 0x3
 1261 04b9 4E020000 		.4byte	.LASF69
 1262 04bd 0A       		.byte	0xa
 1263 04be 30       		.byte	0x30
 1264 04bf C3040000 		.4byte	0x4c3
 1265 04c3 05       		.uleb128 0x5
 1266 04c4 4E020000 		.4byte	.LASF69
 1267 04c8 24       		.byte	0x24
 1268 04c9 0A       		.byte	0xa
 1269 04ca 3E       		.byte	0x3e
 1270 04cb 40050000 		.4byte	0x540
 1271 04cf 06       		.uleb128 0x6
 1272 04d0 24010000 		.4byte	.LASF70
 1273 04d4 0A       		.byte	0xa
 1274 04d5 3F       		.byte	0x3f
 1275 04d6 84020000 		.4byte	0x284
 1276 04da 02       		.byte	0x2
 1277 04db 23       		.byte	0x23
 1278 04dc 00       		.uleb128 0
 1279 04dd 06       		.uleb128 0x6
 1280 04de BE040000 		.4byte	.LASF71
 1281 04e2 0A       		.byte	0xa
 1282 04e3 40       		.byte	0x40
 1283 04e4 30000000 		.4byte	0x30
 1284 04e8 02       		.byte	0x2
 1285 04e9 23       		.byte	0x23
 1286 04ea 08       		.uleb128 0x8
 1287 04eb 06       		.uleb128 0x6
 1288 04ec 06020000 		.4byte	.LASF72
 1289 04f0 0A       		.byte	0xa
 1290 04f1 41       		.byte	0x41
 1291 04f2 63050000 		.4byte	0x563
 1292 04f6 02       		.byte	0x2
 1293 04f7 23       		.byte	0x23
 1294 04f8 0C       		.uleb128 0xc
 1295 04f9 06       		.uleb128 0x6
 1296 04fa A7080000 		.4byte	.LASF73
 1297 04fe 0A       		.byte	0xa
 1298 04ff 42       		.byte	0x42
 1299 0500 63050000 		.4byte	0x563
ARM GAS  /tmp/cctPMLcj.s 			page 24


 1300 0504 02       		.byte	0x2
 1301 0505 23       		.byte	0x23
 1302 0506 10       		.uleb128 0x10
 1303 0507 06       		.uleb128 0x6
 1304 0508 1D020000 		.4byte	.LASF74
 1305 050c 0A       		.byte	0xa
 1306 050d 44       		.byte	0x44
 1307 050e 63050000 		.4byte	0x563
 1308 0512 02       		.byte	0x2
 1309 0513 23       		.byte	0x23
 1310 0514 14       		.uleb128 0x14
 1311 0515 06       		.uleb128 0x6
 1312 0516 EE050000 		.4byte	.LASF75
 1313 051a 0A       		.byte	0xa
 1314 051b 45       		.byte	0x45
 1315 051c 63050000 		.4byte	0x563
 1316 0520 02       		.byte	0x2
 1317 0521 23       		.byte	0x23
 1318 0522 18       		.uleb128 0x18
 1319 0523 06       		.uleb128 0x6
 1320 0524 D1080000 		.4byte	.LASF76
 1321 0528 0A       		.byte	0xa
 1322 0529 46       		.byte	0x46
 1323 052a 40050000 		.4byte	0x540
 1324 052e 02       		.byte	0x2
 1325 052f 23       		.byte	0x23
 1326 0530 1C       		.uleb128 0x1c
 1327 0531 06       		.uleb128 0x6
 1328 0532 C0090000 		.4byte	.LASF77
 1329 0536 0A       		.byte	0xa
 1330 0537 47       		.byte	0x47
 1331 0538 BC020000 		.4byte	0x2bc
 1332 053c 02       		.byte	0x2
 1333 053d 23       		.byte	0x23
 1334 053e 20       		.uleb128 0x20
 1335 053f 00       		.byte	0
 1336 0540 03       		.uleb128 0x3
 1337 0541 D6020000 		.4byte	.LASF78
 1338 0545 0A       		.byte	0xa
 1339 0546 33       		.byte	0x33
 1340 0547 4B050000 		.4byte	0x54b
 1341 054b 09       		.uleb128 0x9
 1342 054c 04       		.byte	0x4
 1343 054d 51050000 		.4byte	0x551
 1344 0551 13       		.uleb128 0x13
 1345 0552 01       		.byte	0x1
 1346 0553 5D050000 		.4byte	0x55d
 1347 0557 12       		.uleb128 0x12
 1348 0558 5D050000 		.4byte	0x55d
 1349 055c 00       		.byte	0
 1350 055d 09       		.uleb128 0x9
 1351 055e 04       		.byte	0x4
 1352 055f B8040000 		.4byte	0x4b8
 1353 0563 09       		.uleb128 0x9
 1354 0564 04       		.byte	0x4
 1355 0565 49000000 		.4byte	0x49
 1356 0569 03       		.uleb128 0x3
ARM GAS  /tmp/cctPMLcj.s 			page 25


 1357 056a 2C040000 		.4byte	.LASF79
 1358 056e 0A       		.byte	0xa
 1359 056f 7B       		.byte	0x7b
 1360 0570 B8040000 		.4byte	0x4b8
 1361 0574 03       		.uleb128 0x3
 1362 0575 57000000 		.4byte	.LASF80
 1363 0579 0A       		.byte	0xa
 1364 057a EE       		.byte	0xee
 1365 057b B8040000 		.4byte	0x4b8
 1366 057f 11       		.uleb128 0x11
 1367 0580 01       		.byte	0x1
 1368 0581 30000000 		.4byte	0x30
 1369 0585 99050000 		.4byte	0x599
 1370 0589 12       		.uleb128 0x12
 1371 058a BC020000 		.4byte	0x2bc
 1372 058e 12       		.uleb128 0x12
 1373 058f 99050000 		.4byte	0x599
 1374 0593 12       		.uleb128 0x12
 1375 0594 30000000 		.4byte	0x30
 1376 0598 00       		.byte	0
 1377 0599 09       		.uleb128 0x9
 1378 059a 04       		.byte	0x4
 1379 059b 9F050000 		.4byte	0x59f
 1380 059f 10       		.uleb128 0x10
 1381 05a0 49000000 		.4byte	0x49
 1382 05a4 09       		.uleb128 0x9
 1383 05a5 04       		.byte	0x4
 1384 05a6 7F050000 		.4byte	0x57f
 1385 05aa 11       		.uleb128 0x11
 1386 05ab 01       		.byte	0x1
 1387 05ac 30000000 		.4byte	0x30
 1388 05b0 C4050000 		.4byte	0x5c4
 1389 05b4 12       		.uleb128 0x12
 1390 05b5 BC020000 		.4byte	0x2bc
 1391 05b9 12       		.uleb128 0x12
 1392 05ba 63050000 		.4byte	0x563
 1393 05be 12       		.uleb128 0x12
 1394 05bf 30000000 		.4byte	0x30
 1395 05c3 00       		.byte	0
 1396 05c4 09       		.uleb128 0x9
 1397 05c5 04       		.byte	0x4
 1398 05c6 AA050000 		.4byte	0x5aa
 1399 05ca 11       		.uleb128 0x11
 1400 05cb 01       		.byte	0x1
 1401 05cc EF000000 		.4byte	0xef
 1402 05d0 DF050000 		.4byte	0x5df
 1403 05d4 12       		.uleb128 0x12
 1404 05d5 BC020000 		.4byte	0x2bc
 1405 05d9 12       		.uleb128 0x12
 1406 05da 49000000 		.4byte	0x49
 1407 05de 00       		.byte	0
 1408 05df 09       		.uleb128 0x9
 1409 05e0 04       		.byte	0x4
 1410 05e1 CA050000 		.4byte	0x5ca
 1411 05e5 14       		.uleb128 0x14
 1412 05e6 84040000 		.4byte	.LASF210
 1413 05ea 01       		.byte	0x1
ARM GAS  /tmp/cctPMLcj.s 			page 26


 1414 05eb 0B       		.byte	0xb
 1415 05ec A9       		.byte	0xa9
 1416 05ed 94070000 		.4byte	0x794
 1417 05f1 15       		.uleb128 0x15
 1418 05f2 E7070000 		.4byte	.LASF81
 1419 05f6 72       		.sleb128 -14
 1420 05f7 15       		.uleb128 0x15
 1421 05f8 3A030000 		.4byte	.LASF82
 1422 05fc 74       		.sleb128 -12
 1423 05fd 15       		.uleb128 0x15
 1424 05fe 91070000 		.4byte	.LASF83
 1425 0602 75       		.sleb128 -11
 1426 0603 15       		.uleb128 0x15
 1427 0604 23070000 		.4byte	.LASF84
 1428 0608 76       		.sleb128 -10
 1429 0609 15       		.uleb128 0x15
 1430 060a F6050000 		.4byte	.LASF85
 1431 060e 7B       		.sleb128 -5
 1432 060f 15       		.uleb128 0x15
 1433 0610 05050000 		.4byte	.LASF86
 1434 0614 7C       		.sleb128 -4
 1435 0615 15       		.uleb128 0x15
 1436 0616 77020000 		.4byte	.LASF87
 1437 061a 7E       		.sleb128 -2
 1438 061b 15       		.uleb128 0x15
 1439 061c 59040000 		.4byte	.LASF88
 1440 0620 7F       		.sleb128 -1
 1441 0621 15       		.uleb128 0x15
 1442 0622 07010000 		.4byte	.LASF89
 1443 0626 00       		.sleb128 0
 1444 0627 15       		.uleb128 0x15
 1445 0628 11000000 		.4byte	.LASF90
 1446 062c 01       		.sleb128 1
 1447 062d 15       		.uleb128 0x15
 1448 062e 28080000 		.4byte	.LASF91
 1449 0632 02       		.sleb128 2
 1450 0633 15       		.uleb128 0x15
 1451 0634 AD090000 		.4byte	.LASF92
 1452 0638 03       		.sleb128 3
 1453 0639 15       		.uleb128 0x15
 1454 063a E4060000 		.4byte	.LASF93
 1455 063e 04       		.sleb128 4
 1456 063f 15       		.uleb128 0x15
 1457 0640 0D090000 		.4byte	.LASF94
 1458 0644 05       		.sleb128 5
 1459 0645 15       		.uleb128 0x15
 1460 0646 AD080000 		.4byte	.LASF95
 1461 064a 06       		.sleb128 6
 1462 064b 15       		.uleb128 0x15
 1463 064c FE090000 		.4byte	.LASF96
 1464 0650 07       		.sleb128 7
 1465 0651 15       		.uleb128 0x15
 1466 0652 B2060000 		.4byte	.LASF97
 1467 0656 08       		.sleb128 8
 1468 0657 15       		.uleb128 0x15
 1469 0658 DA080000 		.4byte	.LASF98
 1470 065c 09       		.sleb128 9
ARM GAS  /tmp/cctPMLcj.s 			page 27


 1471 065d 15       		.uleb128 0x15
 1472 065e 60060000 		.4byte	.LASF99
 1473 0662 0A       		.sleb128 10
 1474 0663 15       		.uleb128 0x15
 1475 0664 88050000 		.4byte	.LASF100
 1476 0668 0B       		.sleb128 11
 1477 0669 15       		.uleb128 0x15
 1478 066a 99040000 		.4byte	.LASF101
 1479 066e 0C       		.sleb128 12
 1480 066f 15       		.uleb128 0x15
 1481 0670 88060000 		.4byte	.LASF102
 1482 0674 0D       		.sleb128 13
 1483 0675 15       		.uleb128 0x15
 1484 0676 46040000 		.4byte	.LASF103
 1485 067a 0E       		.sleb128 14
 1486 067b 15       		.uleb128 0x15
 1487 067c 8C030000 		.4byte	.LASF104
 1488 0680 0F       		.sleb128 15
 1489 0681 15       		.uleb128 0x15
 1490 0682 06080000 		.4byte	.LASF105
 1491 0686 10       		.sleb128 16
 1492 0687 15       		.uleb128 0x15
 1493 0688 4A090000 		.4byte	.LASF106
 1494 068c 11       		.sleb128 17
 1495 068d 15       		.uleb128 0x15
 1496 068e 3A020000 		.4byte	.LASF107
 1497 0692 12       		.sleb128 18
 1498 0693 15       		.uleb128 0x15
 1499 0694 C4030000 		.4byte	.LASF108
 1500 0698 13       		.sleb128 19
 1501 0699 15       		.uleb128 0x15
 1502 069a F9020000 		.4byte	.LASF109
 1503 069e 14       		.sleb128 20
 1504 069f 15       		.uleb128 0x15
 1505 06a0 96000000 		.4byte	.LASF110
 1506 06a4 15       		.sleb128 21
 1507 06a5 15       		.uleb128 0x15
 1508 06a6 C8070000 		.4byte	.LASF111
 1509 06aa 16       		.sleb128 22
 1510 06ab 15       		.uleb128 0x15
 1511 06ac 3A000000 		.4byte	.LASF112
 1512 06b0 17       		.sleb128 23
 1513 06b1 15       		.uleb128 0x15
 1514 06b2 B0070000 		.4byte	.LASF113
 1515 06b6 18       		.sleb128 24
 1516 06b7 15       		.uleb128 0x15
 1517 06b8 89000000 		.4byte	.LASF114
 1518 06bc 19       		.sleb128 25
 1519 06bd 15       		.uleb128 0x15
 1520 06be B2030000 		.4byte	.LASF115
 1521 06c2 1A       		.sleb128 26
 1522 06c3 15       		.uleb128 0x15
 1523 06c4 66040000 		.4byte	.LASF116
 1524 06c8 1B       		.sleb128 27
 1525 06c9 15       		.uleb128 0x15
 1526 06ca 9D080000 		.4byte	.LASF117
 1527 06ce 1C       		.sleb128 28
ARM GAS  /tmp/cctPMLcj.s 			page 28


 1528 06cf 15       		.uleb128 0x15
 1529 06d0 C7090000 		.4byte	.LASF118
 1530 06d4 1D       		.sleb128 29
 1531 06d5 15       		.uleb128 0x15
 1532 06d6 F0000000 		.4byte	.LASF119
 1533 06da 1E       		.sleb128 30
 1534 06db 15       		.uleb128 0x15
 1535 06dc 63000000 		.4byte	.LASF120
 1536 06e0 1F       		.sleb128 31
 1537 06e1 15       		.uleb128 0x15
 1538 06e2 A0090000 		.4byte	.LASF121
 1539 06e6 20       		.sleb128 32
 1540 06e7 15       		.uleb128 0x15
 1541 06e8 7A080000 		.4byte	.LASF122
 1542 06ec 21       		.sleb128 33
 1543 06ed 15       		.uleb128 0x15
 1544 06ee E3000000 		.4byte	.LASF123
 1545 06f2 22       		.sleb128 34
 1546 06f3 15       		.uleb128 0x15
 1547 06f4 ED030000 		.4byte	.LASF124
 1548 06f8 23       		.sleb128 35
 1549 06f9 15       		.uleb128 0x15
 1550 06fa 17050000 		.4byte	.LASF125
 1551 06fe 24       		.sleb128 36
 1552 06ff 15       		.uleb128 0x15
 1553 0700 C0080000 		.4byte	.LASF126
 1554 0704 25       		.sleb128 37
 1555 0705 15       		.uleb128 0x15
 1556 0706 17070000 		.4byte	.LASF127
 1557 070a 26       		.sleb128 38
 1558 070b 15       		.uleb128 0x15
 1559 070c 87080000 		.4byte	.LASF128
 1560 0710 27       		.sleb128 39
 1561 0711 15       		.uleb128 0x15
 1562 0712 DE030000 		.4byte	.LASF129
 1563 0716 28       		.sleb128 40
 1564 0717 15       		.uleb128 0x15
 1565 0718 70000000 		.4byte	.LASF130
 1566 071c 29       		.sleb128 41
 1567 071d 15       		.uleb128 0x15
 1568 071e 66020000 		.4byte	.LASF131
 1569 0722 2A       		.sleb128 42
 1570 0723 15       		.uleb128 0x15
 1571 0724 FB040000 		.4byte	.LASF132
 1572 0728 32       		.sleb128 50
 1573 0729 15       		.uleb128 0x15
 1574 072a B6090000 		.4byte	.LASF133
 1575 072e 33       		.sleb128 51
 1576 072f 15       		.uleb128 0x15
 1577 0730 5B020000 		.4byte	.LASF134
 1578 0734 34       		.sleb128 52
 1579 0735 15       		.uleb128 0x15
 1580 0736 7D060000 		.4byte	.LASF135
 1581 073a 35       		.sleb128 53
 1582 073b 15       		.uleb128 0x15
 1583 073c 9F070000 		.4byte	.LASF136
 1584 0740 36       		.sleb128 54
ARM GAS  /tmp/cctPMLcj.s 			page 29


 1585 0741 15       		.uleb128 0x15
 1586 0742 BE070000 		.4byte	.LASF137
 1587 0746 37       		.sleb128 55
 1588 0747 15       		.uleb128 0x15
 1589 0748 BB000000 		.4byte	.LASF138
 1590 074c 38       		.sleb128 56
 1591 074d 15       		.uleb128 0x15
 1592 074e CE040000 		.4byte	.LASF139
 1593 0752 39       		.sleb128 57
 1594 0753 15       		.uleb128 0x15
 1595 0754 47050000 		.4byte	.LASF140
 1596 0758 3A       		.sleb128 58
 1597 0759 15       		.uleb128 0x15
 1598 075a 6E070000 		.4byte	.LASF141
 1599 075e 3B       		.sleb128 59
 1600 075f 15       		.uleb128 0x15
 1601 0760 E1040000 		.4byte	.LASF142
 1602 0764 3C       		.sleb128 60
 1603 0765 15       		.uleb128 0x15
 1604 0766 B5040000 		.4byte	.LASF143
 1605 076a 3D       		.sleb128 61
 1606 076b 15       		.uleb128 0x15
 1607 076c 0F020000 		.4byte	.LASF144
 1608 0770 3E       		.sleb128 62
 1609 0771 15       		.uleb128 0x15
 1610 0772 21050000 		.4byte	.LASF145
 1611 0776 3F       		.sleb128 63
 1612 0777 15       		.uleb128 0x15
 1613 0778 1A000000 		.4byte	.LASF146
 1614 077c C000     		.sleb128 64
 1615 077e 15       		.uleb128 0x15
 1616 077f 48010000 		.4byte	.LASF147
 1617 0783 C100     		.sleb128 65
 1618 0785 15       		.uleb128 0x15
 1619 0786 D9090000 		.4byte	.LASF148
 1620 078a C200     		.sleb128 66
 1621 078c 15       		.uleb128 0x15
 1622 078d 3B050000 		.4byte	.LASF149
 1623 0791 C300     		.sleb128 67
 1624 0793 00       		.byte	0
 1625 0794 0D       		.uleb128 0xd
 1626 0795 62000000 		.4byte	0x62
 1627 0799 0D       		.uleb128 0xd
 1628 079a 74000000 		.4byte	0x74
 1629 079e 16       		.uleb128 0x16
 1630 079f 30       		.byte	0x30
 1631 07a0 0B       		.byte	0xb
 1632 07a1 4304     		.2byte	0x443
 1633 07a3 5B080000 		.4byte	0x85b
 1634 07a7 0C       		.uleb128 0xc
 1635 07a8 435200   		.ascii	"CR\000"
 1636 07ab 0B       		.byte	0xb
 1637 07ac 4504     		.2byte	0x445
 1638 07ae 7A030000 		.4byte	0x37a
 1639 07b2 02       		.byte	0x2
 1640 07b3 23       		.byte	0x23
 1641 07b4 00       		.uleb128 0
ARM GAS  /tmp/cctPMLcj.s 			page 30


 1642 07b5 17       		.uleb128 0x17
 1643 07b6 69090000 		.4byte	.LASF150
 1644 07ba 0B       		.byte	0xb
 1645 07bb 4604     		.2byte	0x446
 1646 07bd 7A030000 		.4byte	0x37a
 1647 07c1 02       		.byte	0x2
 1648 07c2 23       		.byte	0x23
 1649 07c3 04       		.uleb128 0x4
 1650 07c4 0C       		.uleb128 0xc
 1651 07c5 43495200 		.ascii	"CIR\000"
 1652 07c9 0B       		.byte	0xb
 1653 07ca 4704     		.2byte	0x447
 1654 07cc 7A030000 		.4byte	0x37a
 1655 07d0 02       		.byte	0x2
 1656 07d1 23       		.byte	0x23
 1657 07d2 08       		.uleb128 0x8
 1658 07d3 17       		.uleb128 0x17
 1659 07d4 E4010000 		.4byte	.LASF151
 1660 07d8 0B       		.byte	0xb
 1661 07d9 4804     		.2byte	0x448
 1662 07db 7A030000 		.4byte	0x37a
 1663 07df 02       		.byte	0x2
 1664 07e0 23       		.byte	0x23
 1665 07e1 0C       		.uleb128 0xc
 1666 07e2 17       		.uleb128 0x17
 1667 07e3 62050000 		.4byte	.LASF152
 1668 07e7 0B       		.byte	0xb
 1669 07e8 4904     		.2byte	0x449
 1670 07ea 7A030000 		.4byte	0x37a
 1671 07ee 02       		.byte	0x2
 1672 07ef 23       		.byte	0x23
 1673 07f0 10       		.uleb128 0x10
 1674 07f1 17       		.uleb128 0x17
 1675 07f2 F7090000 		.4byte	.LASF153
 1676 07f6 0B       		.byte	0xb
 1677 07f7 4A04     		.2byte	0x44a
 1678 07f9 7A030000 		.4byte	0x37a
 1679 07fd 02       		.byte	0x2
 1680 07fe 23       		.byte	0x23
 1681 07ff 14       		.uleb128 0x14
 1682 0800 17       		.uleb128 0x17
 1683 0801 C5060000 		.4byte	.LASF154
 1684 0805 0B       		.byte	0xb
 1685 0806 4B04     		.2byte	0x44b
 1686 0808 7A030000 		.4byte	0x37a
 1687 080c 02       		.byte	0x2
 1688 080d 23       		.byte	0x23
 1689 080e 18       		.uleb128 0x18
 1690 080f 17       		.uleb128 0x17
 1691 0810 20080000 		.4byte	.LASF155
 1692 0814 0B       		.byte	0xb
 1693 0815 4C04     		.2byte	0x44c
 1694 0817 7A030000 		.4byte	0x37a
 1695 081b 02       		.byte	0x2
 1696 081c 23       		.byte	0x23
 1697 081d 1C       		.uleb128 0x1c
 1698 081e 17       		.uleb128 0x17
ARM GAS  /tmp/cctPMLcj.s 			page 31


 1699 081f CC080000 		.4byte	.LASF156
 1700 0823 0B       		.byte	0xb
 1701 0824 4D04     		.2byte	0x44d
 1702 0826 7A030000 		.4byte	0x37a
 1703 082a 02       		.byte	0x2
 1704 082b 23       		.byte	0x23
 1705 082c 20       		.uleb128 0x20
 1706 082d 0C       		.uleb128 0xc
 1707 082e 43535200 		.ascii	"CSR\000"
 1708 0832 0B       		.byte	0xb
 1709 0833 4E04     		.2byte	0x44e
 1710 0835 7A030000 		.4byte	0x37a
 1711 0839 02       		.byte	0x2
 1712 083a 23       		.byte	0x23
 1713 083b 24       		.uleb128 0x24
 1714 083c 17       		.uleb128 0x17
 1715 083d 5A050000 		.4byte	.LASF157
 1716 0841 0B       		.byte	0xb
 1717 0842 5104     		.2byte	0x451
 1718 0844 7A030000 		.4byte	0x37a
 1719 0848 02       		.byte	0x2
 1720 0849 23       		.byte	0x23
 1721 084a 28       		.uleb128 0x28
 1722 084b 17       		.uleb128 0x17
 1723 084c FF080000 		.4byte	.LASF158
 1724 0850 0B       		.byte	0xb
 1725 0851 5204     		.2byte	0x452
 1726 0853 7A030000 		.4byte	0x37a
 1727 0857 02       		.byte	0x2
 1728 0858 23       		.byte	0x23
 1729 0859 2C       		.uleb128 0x2c
 1730 085a 00       		.byte	0
 1731 085b 18       		.uleb128 0x18
 1732 085c 40060000 		.4byte	.LASF159
 1733 0860 0B       		.byte	0xb
 1734 0861 5904     		.2byte	0x459
 1735 0863 9E070000 		.4byte	0x79e
 1736 0867 16       		.uleb128 0x16
 1737 0868 1C       		.byte	0x1c
 1738 0869 0B       		.byte	0xb
 1739 086a E104     		.2byte	0x4e1
 1740 086c 41090000 		.4byte	0x941
 1741 0870 0C       		.uleb128 0xc
 1742 0871 535200   		.ascii	"SR\000"
 1743 0874 0B       		.byte	0xb
 1744 0875 E304     		.2byte	0x4e3
 1745 0877 94070000 		.4byte	0x794
 1746 087b 02       		.byte	0x2
 1747 087c 23       		.byte	0x23
 1748 087d 00       		.uleb128 0
 1749 087e 17       		.uleb128 0x17
 1750 087f A3050000 		.4byte	.LASF160
 1751 0883 0B       		.byte	0xb
 1752 0884 E404     		.2byte	0x4e4
 1753 0886 62000000 		.4byte	0x62
 1754 088a 02       		.byte	0x2
 1755 088b 23       		.byte	0x23
ARM GAS  /tmp/cctPMLcj.s 			page 32


 1756 088c 02       		.uleb128 0x2
 1757 088d 0C       		.uleb128 0xc
 1758 088e 445200   		.ascii	"DR\000"
 1759 0891 0B       		.byte	0xb
 1760 0892 E504     		.2byte	0x4e5
 1761 0894 94070000 		.4byte	0x794
 1762 0898 02       		.byte	0x2
 1763 0899 23       		.byte	0x23
 1764 089a 04       		.uleb128 0x4
 1765 089b 17       		.uleb128 0x17
 1766 089c AD050000 		.4byte	.LASF161
 1767 08a0 0B       		.byte	0xb
 1768 08a1 E604     		.2byte	0x4e6
 1769 08a3 62000000 		.4byte	0x62
 1770 08a7 02       		.byte	0x2
 1771 08a8 23       		.byte	0x23
 1772 08a9 06       		.uleb128 0x6
 1773 08aa 0C       		.uleb128 0xc
 1774 08ab 42525200 		.ascii	"BRR\000"
 1775 08af 0B       		.byte	0xb
 1776 08b0 E704     		.2byte	0x4e7
 1777 08b2 94070000 		.4byte	0x794
 1778 08b6 02       		.byte	0x2
 1779 08b7 23       		.byte	0x23
 1780 08b8 08       		.uleb128 0x8
 1781 08b9 17       		.uleb128 0x17
 1782 08ba B7050000 		.4byte	.LASF162
 1783 08be 0B       		.byte	0xb
 1784 08bf E804     		.2byte	0x4e8
 1785 08c1 62000000 		.4byte	0x62
 1786 08c5 02       		.byte	0x2
 1787 08c6 23       		.byte	0x23
 1788 08c7 0A       		.uleb128 0xa
 1789 08c8 0C       		.uleb128 0xc
 1790 08c9 43523100 		.ascii	"CR1\000"
 1791 08cd 0B       		.byte	0xb
 1792 08ce E904     		.2byte	0x4e9
 1793 08d0 94070000 		.4byte	0x794
 1794 08d4 02       		.byte	0x2
 1795 08d5 23       		.byte	0x23
 1796 08d6 0C       		.uleb128 0xc
 1797 08d7 17       		.uleb128 0x17
 1798 08d8 C1050000 		.4byte	.LASF163
 1799 08dc 0B       		.byte	0xb
 1800 08dd EA04     		.2byte	0x4ea
 1801 08df 62000000 		.4byte	0x62
 1802 08e3 02       		.byte	0x2
 1803 08e4 23       		.byte	0x23
 1804 08e5 0E       		.uleb128 0xe
 1805 08e6 0C       		.uleb128 0xc
 1806 08e7 43523200 		.ascii	"CR2\000"
 1807 08eb 0B       		.byte	0xb
 1808 08ec EB04     		.2byte	0x4eb
 1809 08ee 94070000 		.4byte	0x794
 1810 08f2 02       		.byte	0x2
 1811 08f3 23       		.byte	0x23
 1812 08f4 10       		.uleb128 0x10
ARM GAS  /tmp/cctPMLcj.s 			page 33


 1813 08f5 17       		.uleb128 0x17
 1814 08f6 CB050000 		.4byte	.LASF164
 1815 08fa 0B       		.byte	0xb
 1816 08fb EC04     		.2byte	0x4ec
 1817 08fd 62000000 		.4byte	0x62
 1818 0901 02       		.byte	0x2
 1819 0902 23       		.byte	0x23
 1820 0903 12       		.uleb128 0x12
 1821 0904 0C       		.uleb128 0xc
 1822 0905 43523300 		.ascii	"CR3\000"
 1823 0909 0B       		.byte	0xb
 1824 090a ED04     		.2byte	0x4ed
 1825 090c 94070000 		.4byte	0x794
 1826 0910 02       		.byte	0x2
 1827 0911 23       		.byte	0x23
 1828 0912 14       		.uleb128 0x14
 1829 0913 17       		.uleb128 0x17
 1830 0914 04070000 		.4byte	.LASF165
 1831 0918 0B       		.byte	0xb
 1832 0919 EE04     		.2byte	0x4ee
 1833 091b 62000000 		.4byte	0x62
 1834 091f 02       		.byte	0x2
 1835 0920 23       		.byte	0x23
 1836 0921 16       		.uleb128 0x16
 1837 0922 17       		.uleb128 0x17
 1838 0923 56010000 		.4byte	.LASF166
 1839 0927 0B       		.byte	0xb
 1840 0928 EF04     		.2byte	0x4ef
 1841 092a 94070000 		.4byte	0x794
 1842 092e 02       		.byte	0x2
 1843 092f 23       		.byte	0x23
 1844 0930 18       		.uleb128 0x18
 1845 0931 17       		.uleb128 0x17
 1846 0932 DC050000 		.4byte	.LASF167
 1847 0936 0B       		.byte	0xb
 1848 0937 F004     		.2byte	0x4f0
 1849 0939 62000000 		.4byte	0x62
 1850 093d 02       		.byte	0x2
 1851 093e 23       		.byte	0x23
 1852 093f 1A       		.uleb128 0x1a
 1853 0940 00       		.byte	0
 1854 0941 18       		.uleb128 0x18
 1855 0942 F7030000 		.4byte	.LASF168
 1856 0946 0B       		.byte	0xb
 1857 0947 F104     		.2byte	0x4f1
 1858 0949 67080000 		.4byte	0x867
 1859 094d 11       		.uleb128 0x11
 1860 094e 01       		.byte	0x1
 1861 094f EF000000 		.4byte	0xef
 1862 0953 67090000 		.4byte	0x967
 1863 0957 12       		.uleb128 0x12
 1864 0958 BC020000 		.4byte	0x2bc
 1865 095c 12       		.uleb128 0x12
 1866 095d 49000000 		.4byte	0x49
 1867 0961 12       		.uleb128 0x12
 1868 0962 10010000 		.4byte	0x110
 1869 0966 00       		.byte	0
ARM GAS  /tmp/cctPMLcj.s 			page 34


 1870 0967 09       		.uleb128 0x9
 1871 0968 04       		.byte	0x4
 1872 0969 4D090000 		.4byte	0x94d
 1873 096d 11       		.uleb128 0x11
 1874 096e 01       		.byte	0x1
 1875 096f EF000000 		.4byte	0xef
 1876 0973 82090000 		.4byte	0x982
 1877 0977 12       		.uleb128 0x12
 1878 0978 BC020000 		.4byte	0x2bc
 1879 097c 12       		.uleb128 0x12
 1880 097d 10010000 		.4byte	0x110
 1881 0981 00       		.byte	0
 1882 0982 09       		.uleb128 0x9
 1883 0983 04       		.byte	0x4
 1884 0984 6D090000 		.4byte	0x96d
 1885 0988 11       		.uleb128 0x11
 1886 0989 01       		.byte	0x1
 1887 098a 30000000 		.4byte	0x30
 1888 098e A7090000 		.4byte	0x9a7
 1889 0992 12       		.uleb128 0x12
 1890 0993 BC020000 		.4byte	0x2bc
 1891 0997 12       		.uleb128 0x12
 1892 0998 99050000 		.4byte	0x599
 1893 099c 12       		.uleb128 0x12
 1894 099d 30000000 		.4byte	0x30
 1895 09a1 12       		.uleb128 0x12
 1896 09a2 10010000 		.4byte	0x110
 1897 09a6 00       		.byte	0
 1898 09a7 09       		.uleb128 0x9
 1899 09a8 04       		.byte	0x4
 1900 09a9 88090000 		.4byte	0x988
 1901 09ad 11       		.uleb128 0x11
 1902 09ae 01       		.byte	0x1
 1903 09af 30000000 		.4byte	0x30
 1904 09b3 CC090000 		.4byte	0x9cc
 1905 09b7 12       		.uleb128 0x12
 1906 09b8 BC020000 		.4byte	0x2bc
 1907 09bc 12       		.uleb128 0x12
 1908 09bd 63050000 		.4byte	0x563
 1909 09c1 12       		.uleb128 0x12
 1910 09c2 30000000 		.4byte	0x30
 1911 09c6 12       		.uleb128 0x12
 1912 09c7 10010000 		.4byte	0x110
 1913 09cb 00       		.byte	0
 1914 09cc 09       		.uleb128 0x9
 1915 09cd 04       		.byte	0x4
 1916 09ce AD090000 		.4byte	0x9ad
 1917 09d2 19       		.uleb128 0x19
 1918 09d3 01       		.byte	0x1
 1919 09d4 0C       		.byte	0xc
 1920 09d5 5D       		.byte	0x5d
 1921 09d6 ED090000 		.4byte	0x9ed
 1922 09da 15       		.uleb128 0x15
 1923 09db FA060000 		.4byte	.LASF169
 1924 09df 00       		.sleb128 0
 1925 09e0 15       		.uleb128 0x15
 1926 09e1 BD060000 		.4byte	.LASF170
ARM GAS  /tmp/cctPMLcj.s 			page 35


 1927 09e5 01       		.sleb128 1
 1928 09e6 15       		.uleb128 0x15
 1929 09e7 71080000 		.4byte	.LASF171
 1930 09eb 02       		.sleb128 2
 1931 09ec 00       		.byte	0
 1932 09ed 03       		.uleb128 0x3
 1933 09ee 93080000 		.4byte	.LASF172
 1934 09f2 0C       		.byte	0xc
 1935 09f3 61       		.byte	0x61
 1936 09f4 D2090000 		.4byte	0x9d2
 1937 09f8 03       		.uleb128 0x3
 1938 09f9 33070000 		.4byte	.LASF173
 1939 09fd 0C       		.byte	0xc
 1940 09fe 66       		.byte	0x66
 1941 09ff 030A0000 		.4byte	0xa03
 1942 0a03 05       		.uleb128 0x5
 1943 0a04 33070000 		.4byte	.LASF173
 1944 0a08 78       		.byte	0x78
 1945 0a09 0C       		.byte	0xc
 1946 0a0a 80       		.byte	0x80
 1947 0a0b 7E0A0000 		.4byte	0xa7e
 1948 0a0f 07       		.uleb128 0x7
 1949 0a10 766D7400 		.ascii	"vmt\000"
 1950 0a14 0C       		.byte	0xc
 1951 0a15 82       		.byte	0x82
 1952 0a16 470B0000 		.4byte	0xb47
 1953 0a1a 02       		.byte	0x2
 1954 0a1b 23       		.byte	0x23
 1955 0a1c 00       		.uleb128 0
 1956 0a1d 06       		.uleb128 0x6
 1957 0a1e 86030000 		.4byte	.LASF174
 1958 0a22 0C       		.byte	0xc
 1959 0a23 83       		.byte	0x83
 1960 0a24 44040000 		.4byte	0x444
 1961 0a28 02       		.byte	0x2
 1962 0a29 23       		.byte	0x23
 1963 0a2a 04       		.uleb128 0x4
 1964 0a2b 06       		.uleb128 0x6
 1965 0a2c D5010000 		.4byte	.LASF175
 1966 0a30 0C       		.byte	0xc
 1967 0a31 83       		.byte	0x83
 1968 0a32 ED090000 		.4byte	0x9ed
 1969 0a36 02       		.byte	0x2
 1970 0a37 23       		.byte	0x23
 1971 0a38 08       		.uleb128 0x8
 1972 0a39 06       		.uleb128 0x6
 1973 0a3a 50030000 		.4byte	.LASF176
 1974 0a3e 0C       		.byte	0xc
 1975 0a3f 83       		.byte	0x83
 1976 0a40 69050000 		.4byte	0x569
 1977 0a44 02       		.byte	0x2
 1978 0a45 23       		.byte	0x23
 1979 0a46 0C       		.uleb128 0xc
 1980 0a47 06       		.uleb128 0x6
 1981 0a48 D7030000 		.4byte	.LASF177
 1982 0a4c 0C       		.byte	0xc
 1983 0a4d 83       		.byte	0x83
ARM GAS  /tmp/cctPMLcj.s 			page 36


 1984 0a4e 74050000 		.4byte	0x574
 1985 0a52 02       		.byte	0x2
 1986 0a53 23       		.byte	0x23
 1987 0a54 30       		.uleb128 0x30
 1988 0a55 07       		.uleb128 0x7
 1989 0a56 696200   		.ascii	"ib\000"
 1990 0a59 0C       		.byte	0xc
 1991 0a5a 83       		.byte	0x83
 1992 0a5b 520B0000 		.4byte	0xb52
 1993 0a5f 02       		.byte	0x2
 1994 0a60 23       		.byte	0x23
 1995 0a61 54       		.uleb128 0x54
 1996 0a62 07       		.uleb128 0x7
 1997 0a63 6F6200   		.ascii	"ob\000"
 1998 0a66 0C       		.byte	0xc
 1999 0a67 83       		.byte	0x83
 2000 0a68 520B0000 		.4byte	0xb52
 2001 0a6c 02       		.byte	0x2
 2002 0a6d 23       		.byte	0x23
 2003 0a6e 64       		.uleb128 0x64
 2004 0a6f 06       		.uleb128 0x6
 2005 0a70 07030000 		.4byte	.LASF178
 2006 0a74 0C       		.byte	0xc
 2007 0a75 83       		.byte	0x83
 2008 0a76 620B0000 		.4byte	0xb62
 2009 0a7a 02       		.byte	0x2
 2010 0a7b 23       		.byte	0x23
 2011 0a7c 74       		.uleb128 0x74
 2012 0a7d 00       		.byte	0
 2013 0a7e 08       		.uleb128 0x8
 2014 0a7f 0C       		.byte	0xc
 2015 0a80 0D       		.byte	0xd
 2016 0a81 D7       		.byte	0xd7
 2017 0a82 BF0A0000 		.4byte	0xabf
 2018 0a86 06       		.uleb128 0x6
 2019 0a87 37040000 		.4byte	.LASF179
 2020 0a8b 0D       		.byte	0xd
 2021 0a8c DB       		.byte	0xdb
 2022 0a8d 86000000 		.4byte	0x86
 2023 0a91 02       		.byte	0x2
 2024 0a92 23       		.byte	0x23
 2025 0a93 00       		.uleb128 0
 2026 0a94 07       		.uleb128 0x7
 2027 0a95 63723100 		.ascii	"cr1\000"
 2028 0a99 0D       		.byte	0xd
 2029 0a9a E0       		.byte	0xe0
 2030 0a9b 62000000 		.4byte	0x62
 2031 0a9f 02       		.byte	0x2
 2032 0aa0 23       		.byte	0x23
 2033 0aa1 04       		.uleb128 0x4
 2034 0aa2 07       		.uleb128 0x7
 2035 0aa3 63723200 		.ascii	"cr2\000"
 2036 0aa7 0D       		.byte	0xd
 2037 0aa8 E4       		.byte	0xe4
 2038 0aa9 62000000 		.4byte	0x62
 2039 0aad 02       		.byte	0x2
 2040 0aae 23       		.byte	0x23
ARM GAS  /tmp/cctPMLcj.s 			page 37


 2041 0aaf 06       		.uleb128 0x6
 2042 0ab0 07       		.uleb128 0x7
 2043 0ab1 63723300 		.ascii	"cr3\000"
 2044 0ab5 0D       		.byte	0xd
 2045 0ab6 E8       		.byte	0xe8
 2046 0ab7 62000000 		.4byte	0x62
 2047 0abb 02       		.byte	0x2
 2048 0abc 23       		.byte	0x23
 2049 0abd 08       		.uleb128 0x8
 2050 0abe 00       		.byte	0
 2051 0abf 03       		.uleb128 0x3
 2052 0ac0 73050000 		.4byte	.LASF180
 2053 0ac4 0D       		.byte	0xd
 2054 0ac5 E9       		.byte	0xe9
 2055 0ac6 7E0A0000 		.4byte	0xa7e
 2056 0aca 05       		.uleb128 0x5
 2057 0acb 23030000 		.4byte	.LASF181
 2058 0acf 20       		.byte	0x20
 2059 0ad0 0C       		.byte	0xc
 2060 0ad1 75       		.byte	0x75
 2061 0ad2 470B0000 		.4byte	0xb47
 2062 0ad6 06       		.uleb128 0x6
 2063 0ad7 7E040000 		.4byte	.LASF182
 2064 0adb 0C       		.byte	0xc
 2065 0adc 76       		.byte	0x76
 2066 0add A4050000 		.4byte	0x5a4
 2067 0ae1 02       		.byte	0x2
 2068 0ae2 23       		.byte	0x23
 2069 0ae3 00       		.uleb128 0
 2070 0ae4 06       		.uleb128 0x6
 2071 0ae5 64070000 		.4byte	.LASF183
 2072 0ae9 0C       		.byte	0xc
 2073 0aea 76       		.byte	0x76
 2074 0aeb C4050000 		.4byte	0x5c4
 2075 0aef 02       		.byte	0x2
 2076 0af0 23       		.byte	0x23
 2077 0af1 04       		.uleb128 0x4
 2078 0af2 07       		.uleb128 0x7
 2079 0af3 70757400 		.ascii	"put\000"
 2080 0af7 0C       		.byte	0xc
 2081 0af8 76       		.byte	0x76
 2082 0af9 DF050000 		.4byte	0x5df
 2083 0afd 02       		.byte	0x2
 2084 0afe 23       		.byte	0x23
 2085 0aff 08       		.uleb128 0x8
 2086 0b00 07       		.uleb128 0x7
 2087 0b01 67657400 		.ascii	"get\000"
 2088 0b05 0C       		.byte	0xc
 2089 0b06 76       		.byte	0x76
 2090 0b07 A2040000 		.4byte	0x4a2
 2091 0b0b 02       		.byte	0x2
 2092 0b0c 23       		.byte	0x23
 2093 0b0d 0C       		.uleb128 0xc
 2094 0b0e 06       		.uleb128 0x6
 2095 0b0f 89040000 		.4byte	.LASF184
 2096 0b13 0C       		.byte	0xc
 2097 0b14 76       		.byte	0x76
ARM GAS  /tmp/cctPMLcj.s 			page 38


 2098 0b15 67090000 		.4byte	0x967
 2099 0b19 02       		.byte	0x2
 2100 0b1a 23       		.byte	0x23
 2101 0b1b 10       		.uleb128 0x10
 2102 0b1c 06       		.uleb128 0x6
 2103 0b1d 81030000 		.4byte	.LASF185
 2104 0b21 0C       		.byte	0xc
 2105 0b22 76       		.byte	0x76
 2106 0b23 82090000 		.4byte	0x982
 2107 0b27 02       		.byte	0x2
 2108 0b28 23       		.byte	0x23
 2109 0b29 14       		.uleb128 0x14
 2110 0b2a 06       		.uleb128 0x6
 2111 0b2b 05040000 		.4byte	.LASF186
 2112 0b2f 0C       		.byte	0xc
 2113 0b30 76       		.byte	0x76
 2114 0b31 A7090000 		.4byte	0x9a7
 2115 0b35 02       		.byte	0x2
 2116 0b36 23       		.byte	0x23
 2117 0b37 18       		.uleb128 0x18
 2118 0b38 06       		.uleb128 0x6
 2119 0b39 1E010000 		.4byte	.LASF187
 2120 0b3d 0C       		.byte	0xc
 2121 0b3e 76       		.byte	0x76
 2122 0b3f CC090000 		.4byte	0x9cc
 2123 0b43 02       		.byte	0x2
 2124 0b44 23       		.byte	0x23
 2125 0b45 1C       		.uleb128 0x1c
 2126 0b46 00       		.byte	0
 2127 0b47 09       		.uleb128 0x9
 2128 0b48 04       		.byte	0x4
 2129 0b49 4D0B0000 		.4byte	0xb4d
 2130 0b4d 10       		.uleb128 0x10
 2131 0b4e CA0A0000 		.4byte	0xaca
 2132 0b52 1A       		.uleb128 0x1a
 2133 0b53 49000000 		.4byte	0x49
 2134 0b57 620B0000 		.4byte	0xb62
 2135 0b5b 1B       		.uleb128 0x1b
 2136 0b5c 7F030000 		.4byte	0x37f
 2137 0b60 0F       		.byte	0xf
 2138 0b61 00       		.byte	0
 2139 0b62 09       		.uleb128 0x9
 2140 0b63 04       		.byte	0x4
 2141 0b64 41090000 		.4byte	0x941
 2142 0b68 1C       		.uleb128 0x1c
 2143 0b69 E0020000 		.4byte	.LASF188
 2144 0b6d 01       		.byte	0x1
 2145 0b6e 7A       		.byte	0x7a
 2146 0b6f 01       		.byte	0x1
 2147 0b70 01       		.byte	0x1
 2148 0b71 7F0B0000 		.4byte	0xb7f
 2149 0b75 1D       		.uleb128 0x1d
 2150 0b76 7500     		.ascii	"u\000"
 2151 0b78 01       		.byte	0x1
 2152 0b79 7A       		.byte	0x7a
 2153 0b7a 620B0000 		.4byte	0xb62
 2154 0b7e 00       		.byte	0
ARM GAS  /tmp/cctPMLcj.s 			page 39


 2155 0b7f 1C       		.uleb128 0x1c
 2156 0b80 D4060000 		.4byte	.LASF189
 2157 0b84 01       		.byte	0x1
 2158 0b85 9A       		.byte	0x9a
 2159 0b86 01       		.byte	0x1
 2160 0b87 01       		.byte	0x1
 2161 0b88 450C0000 		.4byte	0xc45
 2162 0b8c 1D       		.uleb128 0x1d
 2163 0b8d 73647000 		.ascii	"sdp\000"
 2164 0b91 01       		.byte	0x1
 2165 0b92 9A       		.byte	0x9a
 2166 0b93 450C0000 		.4byte	0xc45
 2167 0b97 1E       		.uleb128 0x1e
 2168 0b98 7500     		.ascii	"u\000"
 2169 0b9a 01       		.byte	0x1
 2170 0b9b 9B       		.byte	0x9b
 2171 0b9c 620B0000 		.4byte	0xb62
 2172 0ba0 1E       		.uleb128 0x1e
 2173 0ba1 63723100 		.ascii	"cr1\000"
 2174 0ba5 01       		.byte	0x1
 2175 0ba6 9C       		.byte	0x9c
 2176 0ba7 62000000 		.4byte	0x62
 2177 0bab 1E       		.uleb128 0x1e
 2178 0bac 737200   		.ascii	"sr\000"
 2179 0baf 01       		.byte	0x1
 2180 0bb0 9D       		.byte	0x9d
 2181 0bb1 62000000 		.4byte	0x62
 2182 0bb5 1F       		.uleb128 0x1f
 2183 0bb6 C60B0000 		.4byte	0xbc6
 2184 0bba 1E       		.uleb128 0x1e
 2185 0bbb 746D7000 		.ascii	"tmp\000"
 2186 0bbf 01       		.byte	0x1
 2187 0bc0 A1       		.byte	0xa1
 2188 0bc1 86000000 		.4byte	0x86
 2189 0bc5 00       		.byte	0
 2190 0bc6 1F       		.uleb128 0x1f
 2191 0bc7 D70B0000 		.4byte	0xbd7
 2192 0bcb 1E       		.uleb128 0x1e
 2193 0bcc 746D7000 		.ascii	"tmp\000"
 2194 0bd0 01       		.byte	0x1
 2195 0bd1 A3       		.byte	0xa3
 2196 0bd2 86000000 		.4byte	0x86
 2197 0bd6 00       		.byte	0
 2198 0bd7 1F       		.uleb128 0x1f
 2199 0bd8 E80B0000 		.4byte	0xbe8
 2200 0bdc 1E       		.uleb128 0x1e
 2201 0bdd 746D7000 		.ascii	"tmp\000"
 2202 0be1 01       		.byte	0x1
 2203 0be2 A8       		.byte	0xa8
 2204 0be3 86000000 		.4byte	0x86
 2205 0be7 00       		.byte	0
 2206 0be8 1F       		.uleb128 0x1f
 2207 0be9 F90B0000 		.4byte	0xbf9
 2208 0bed 1E       		.uleb128 0x1e
 2209 0bee 746D7000 		.ascii	"tmp\000"
 2210 0bf2 01       		.byte	0x1
 2211 0bf3 B0       		.byte	0xb0
ARM GAS  /tmp/cctPMLcj.s 			page 40


 2212 0bf4 86000000 		.4byte	0x86
 2213 0bf8 00       		.byte	0
 2214 0bf9 1F       		.uleb128 0x1f
 2215 0bfa 260C0000 		.4byte	0xc26
 2216 0bfe 1E       		.uleb128 0x1e
 2217 0bff 6200     		.ascii	"b\000"
 2218 0c01 01       		.byte	0x1
 2219 0c02 B4       		.byte	0xb4
 2220 0c03 EF000000 		.4byte	0xef
 2221 0c07 1F       		.uleb128 0x1f
 2222 0c08 180C0000 		.4byte	0xc18
 2223 0c0c 1E       		.uleb128 0x1e
 2224 0c0d 746D7000 		.ascii	"tmp\000"
 2225 0c11 01       		.byte	0x1
 2226 0c12 B5       		.byte	0xb5
 2227 0c13 86000000 		.4byte	0x86
 2228 0c17 00       		.byte	0
 2229 0c18 20       		.uleb128 0x20
 2230 0c19 1E       		.uleb128 0x1e
 2231 0c1a 746D7000 		.ascii	"tmp\000"
 2232 0c1e 01       		.byte	0x1
 2233 0c1f BD       		.byte	0xbd
 2234 0c20 86000000 		.4byte	0x86
 2235 0c24 00       		.byte	0
 2236 0c25 00       		.byte	0
 2237 0c26 1F       		.uleb128 0x1f
 2238 0c27 370C0000 		.4byte	0xc37
 2239 0c2b 1E       		.uleb128 0x1e
 2240 0c2c 746D7000 		.ascii	"tmp\000"
 2241 0c30 01       		.byte	0x1
 2242 0c31 C2       		.byte	0xc2
 2243 0c32 86000000 		.4byte	0x86
 2244 0c36 00       		.byte	0
 2245 0c37 20       		.uleb128 0x20
 2246 0c38 1E       		.uleb128 0x1e
 2247 0c39 746D7000 		.ascii	"tmp\000"
 2248 0c3d 01       		.byte	0x1
 2249 0c3e C4       		.byte	0xc4
 2250 0c3f 86000000 		.4byte	0x86
 2251 0c43 00       		.byte	0
 2252 0c44 00       		.byte	0
 2253 0c45 09       		.uleb128 0x9
 2254 0c46 04       		.byte	0x4
 2255 0c47 F8090000 		.4byte	0x9f8
 2256 0c4b 21       		.uleb128 0x21
 2257 0c4c 80050000 		.4byte	.LASF211
 2258 0c50 01       		.byte	0x1
 2259 0c51 D3       		.byte	0xd3
 2260 0c52 01       		.byte	0x1
 2261 0c53 00000000 		.4byte	.LFB67
 2262 0c57 14000000 		.4byte	.LFE67
 2263 0c5b 02       		.byte	0x2
 2264 0c5c 7D       		.byte	0x7d
 2265 0c5d 00       		.sleb128 0
 2266 0c5e 01       		.byte	0x1
 2267 0c5f 720C0000 		.4byte	0xc72
 2268 0c63 22       		.uleb128 0x22
ARM GAS  /tmp/cctPMLcj.s 			page 41


 2269 0c64 717000   		.ascii	"qp\000"
 2270 0c67 01       		.byte	0x1
 2271 0c68 D3       		.byte	0xd3
 2272 0c69 5D050000 		.4byte	0x55d
 2273 0c6d 00000000 		.4byte	.LLST0
 2274 0c71 00       		.byte	0
 2275 0c72 1C       		.uleb128 0x1c
 2276 0c73 7F000000 		.4byte	.LASF190
 2277 0c77 01       		.byte	0x1
 2278 0c78 87       		.byte	0x87
 2279 0c79 01       		.byte	0x1
 2280 0c7a 01       		.byte	0x1
 2281 0c7b A00C0000 		.4byte	0xca0
 2282 0c7f 1D       		.uleb128 0x1d
 2283 0c80 73647000 		.ascii	"sdp\000"
 2284 0c84 01       		.byte	0x1
 2285 0c85 87       		.byte	0x87
 2286 0c86 450C0000 		.4byte	0xc45
 2287 0c8a 1D       		.uleb128 0x1d
 2288 0c8b 737200   		.ascii	"sr\000"
 2289 0c8e 01       		.byte	0x1
 2290 0c8f 87       		.byte	0x87
 2291 0c90 62000000 		.4byte	0x62
 2292 0c94 1E       		.uleb128 0x1e
 2293 0c95 73747300 		.ascii	"sts\000"
 2294 0c99 01       		.byte	0x1
 2295 0c9a 88       		.byte	0x88
 2296 0c9b 05010000 		.4byte	0x105
 2297 0c9f 00       		.byte	0
 2298 0ca0 23       		.uleb128 0x23
 2299 0ca1 01       		.byte	0x1
 2300 0ca2 3D040000 		.4byte	.LASF191
 2301 0ca6 01       		.byte	0x1
 2302 0ca7 1A01     		.2byte	0x11a
 2303 0ca9 01       		.byte	0x1
 2304 0caa 00000000 		.4byte	.LFB68
 2305 0cae 54010000 		.4byte	.LFE68
 2306 0cb2 21000000 		.4byte	.LLST1
 2307 0cb6 01       		.byte	0x1
 2308 0cb7 E90E0000 		.4byte	0xee9
 2309 0cbb 24       		.uleb128 0x24
 2310 0cbc 7F0B0000 		.4byte	0xb7f
 2311 0cc0 02000000 		.4byte	.LBB26
 2312 0cc4 00000000 		.4byte	.Ldebug_ranges0+0
 2313 0cc8 01       		.byte	0x1
 2314 0cc9 1E01     		.2byte	0x11e
 2315 0ccb CC0E0000 		.4byte	0xecc
 2316 0ccf 25       		.uleb128 0x25
 2317 0cd0 20000000 		.4byte	.Ldebug_ranges0+0x20
 2318 0cd4 26       		.uleb128 0x26
 2319 0cd5 970B0000 		.4byte	0xb97
 2320 0cd9 01       		.byte	0x1
 2321 0cda 55       		.byte	0x55
 2322 0cdb 26       		.uleb128 0x26
 2323 0cdc A00B0000 		.4byte	0xba0
 2324 0ce0 01       		.byte	0x1
 2325 0ce1 56       		.byte	0x56
ARM GAS  /tmp/cctPMLcj.s 			page 42


 2326 0ce2 27       		.uleb128 0x27
 2327 0ce3 AB0B0000 		.4byte	0xbab
 2328 0ce7 41000000 		.4byte	.LLST2
 2329 0ceb 28       		.uleb128 0x28
 2330 0cec 8C0B0000 		.4byte	0xb8c
 2331 0cf0 06       		.byte	0x6
 2332 0cf1 03       		.byte	0x3
 2333 0cf2 00000000 		.4byte	SD2
 2334 0cf6 9F       		.byte	0x9f
 2335 0cf7 29       		.uleb128 0x29
 2336 0cf8 1C000000 		.4byte	.LBB28
 2337 0cfc 22000000 		.4byte	.LBE28
 2338 0d00 0E0D0000 		.4byte	0xd0e
 2339 0d04 27       		.uleb128 0x27
 2340 0d05 DC0B0000 		.4byte	0xbdc
 2341 0d09 6A000000 		.4byte	.LLST3
 2342 0d0d 00       		.byte	0
 2343 0d0e 2A       		.uleb128 0x2a
 2344 0d0f 720C0000 		.4byte	0xc72
 2345 0d13 4A000000 		.4byte	.LBB29
 2346 0d17 82000000 		.4byte	.LBE29
 2347 0d1b 01       		.byte	0x1
 2348 0d1c AC       		.byte	0xac
 2349 0d1d 500D0000 		.4byte	0xd50
 2350 0d21 2B       		.uleb128 0x2b
 2351 0d22 8A0C0000 		.4byte	0xc8a
 2352 0d26 7D000000 		.4byte	.LLST4
 2353 0d2a 2B       		.uleb128 0x2b
 2354 0d2b 7F0C0000 		.4byte	0xc7f
 2355 0d2f 90000000 		.4byte	.LLST5
 2356 0d33 2C       		.uleb128 0x2c
 2357 0d34 4A000000 		.4byte	.LBB30
 2358 0d38 82000000 		.4byte	.LBE30
 2359 0d3c 27       		.uleb128 0x27
 2360 0d3d 940C0000 		.4byte	0xc94
 2361 0d41 A8000000 		.4byte	.LLST6
 2362 0d45 2D       		.uleb128 0x2d
 2363 0d46 80000000 		.4byte	.LVL19
 2364 0d4a 6E100000 		.4byte	0x106e
 2365 0d4e 00       		.byte	0
 2366 0d4f 00       		.byte	0
 2367 0d50 29       		.uleb128 0x29
 2368 0d51 86000000 		.4byte	.LBB31
 2369 0d55 8C000000 		.4byte	.LBE31
 2370 0d59 670D0000 		.4byte	0xd67
 2371 0d5d 27       		.uleb128 0x27
 2372 0d5e ED0B0000 		.4byte	0xbed
 2373 0d62 C7000000 		.4byte	.LLST7
 2374 0d66 00       		.byte	0
 2375 0d67 29       		.uleb128 0x29
 2376 0d68 A6000000 		.4byte	.LBB32
 2377 0d6c AC000000 		.4byte	.LBE32
 2378 0d70 7E0D0000 		.4byte	0xd7e
 2379 0d74 27       		.uleb128 0x27
 2380 0d75 2B0C0000 		.4byte	0xc2b
 2381 0d79 F0000000 		.4byte	.LLST8
 2382 0d7d 00       		.byte	0
ARM GAS  /tmp/cctPMLcj.s 			page 43


 2383 0d7e 29       		.uleb128 0x29
 2384 0d7f BC000000 		.4byte	.LBB33
 2385 0d83 C2000000 		.4byte	.LBE33
 2386 0d87 950D0000 		.4byte	0xd95
 2387 0d8b 27       		.uleb128 0x27
 2388 0d8c 380C0000 		.4byte	0xc38
 2389 0d90 03010000 		.4byte	.LLST9
 2390 0d94 00       		.byte	0
 2391 0d95 29       		.uleb128 0x29
 2392 0d96 E2000000 		.4byte	.LBB34
 2393 0d9a E8000000 		.4byte	.LBE34
 2394 0d9e AC0D0000 		.4byte	0xdac
 2395 0da2 27       		.uleb128 0x27
 2396 0da3 BA0B0000 		.4byte	0xbba
 2397 0da7 16010000 		.4byte	.LLST10
 2398 0dab 00       		.byte	0
 2399 0dac 29       		.uleb128 0x29
 2400 0dad FA000000 		.4byte	.LBB35
 2401 0db1 00010000 		.4byte	.LBE35
 2402 0db5 C30D0000 		.4byte	0xdc3
 2403 0db9 27       		.uleb128 0x27
 2404 0dba CB0B0000 		.4byte	0xbcb
 2405 0dbe 29010000 		.4byte	.LLST11
 2406 0dc2 00       		.byte	0
 2407 0dc3 29       		.uleb128 0x29
 2408 0dc4 0E010000 		.4byte	.LBB36
 2409 0dc8 54010000 		.4byte	.LBE36
 2410 0dcc 490E0000 		.4byte	0xe49
 2411 0dd0 27       		.uleb128 0x27
 2412 0dd1 FE0B0000 		.4byte	0xbfe
 2413 0dd5 3C010000 		.4byte	.LLST12
 2414 0dd9 29       		.uleb128 0x29
 2415 0dda 0E010000 		.4byte	.LBB37
 2416 0dde 14010000 		.4byte	.LBE37
 2417 0de2 F00D0000 		.4byte	0xdf0
 2418 0de6 27       		.uleb128 0x27
 2419 0de7 0C0C0000 		.4byte	0xc0c
 2420 0deb 5A010000 		.4byte	.LLST13
 2421 0def 00       		.byte	0
 2422 0df0 29       		.uleb128 0x29
 2423 0df1 2A010000 		.4byte	.LBB38
 2424 0df5 32010000 		.4byte	.LBE38
 2425 0df9 070E0000 		.4byte	0xe07
 2426 0dfd 27       		.uleb128 0x27
 2427 0dfe 190C0000 		.4byte	0xc19
 2428 0e02 6D010000 		.4byte	.LLST14
 2429 0e06 00       		.byte	0
 2430 0e07 2D       		.uleb128 0x2d
 2431 0e08 18010000 		.4byte	.LVL48
 2432 0e0c 8D100000 		.4byte	0x108d
 2433 0e10 2E       		.uleb128 0x2e
 2434 0e11 1E010000 		.4byte	.LVL49
 2435 0e15 97100000 		.4byte	0x1097
 2436 0e19 270E0000 		.4byte	0xe27
 2437 0e1d 2F       		.uleb128 0x2f
 2438 0e1e 01       		.byte	0x1
 2439 0e1f 50       		.byte	0x50
ARM GAS  /tmp/cctPMLcj.s 			page 44


 2440 0e20 05       		.byte	0x5
 2441 0e21 03       		.byte	0x3
 2442 0e22 30000000 		.4byte	.LANCHOR0+48
 2443 0e26 00       		.byte	0
 2444 0e27 2D       		.uleb128 0x2d
 2445 0e28 2A010000 		.4byte	.LVL51
 2446 0e2c B6100000 		.4byte	0x10b6
 2447 0e30 30       		.uleb128 0x30
 2448 0e31 3A010000 		.4byte	.LVL55
 2449 0e35 6E100000 		.4byte	0x106e
 2450 0e39 2F       		.uleb128 0x2f
 2451 0e3a 01       		.byte	0x1
 2452 0e3b 51       		.byte	0x51
 2453 0e3c 01       		.byte	0x1
 2454 0e3d 38       		.byte	0x38
 2455 0e3e 2F       		.uleb128 0x2f
 2456 0e3f 01       		.byte	0x1
 2457 0e40 50       		.byte	0x50
 2458 0e41 05       		.byte	0x5
 2459 0e42 03       		.byte	0x3
 2460 0e43 04000000 		.4byte	.LANCHOR0+4
 2461 0e47 00       		.byte	0
 2462 0e48 00       		.byte	0
 2463 0e49 2D       		.uleb128 0x2d
 2464 0e4a 26000000 		.4byte	.LVL8
 2465 0e4e 8D100000 		.4byte	0x108d
 2466 0e52 2E       		.uleb128 0x2e
 2467 0e53 3A000000 		.4byte	.LVL10
 2468 0e57 C0100000 		.4byte	0x10c0
 2469 0e5b 660E0000 		.4byte	0xe66
 2470 0e5f 2F       		.uleb128 0x2f
 2471 0e60 01       		.byte	0x1
 2472 0e61 50       		.byte	0x50
 2473 0e62 02       		.byte	0x2
 2474 0e63 77       		.byte	0x77
 2475 0e64 00       		.sleb128 0
 2476 0e65 00       		.byte	0
 2477 0e66 2D       		.uleb128 0x2d
 2478 0e67 86000000 		.4byte	.LVL21
 2479 0e6b B6100000 		.4byte	0x10b6
 2480 0e6f 2D       		.uleb128 0x2d
 2481 0e70 B0000000 		.4byte	.LVL28
 2482 0e74 8D100000 		.4byte	0x108d
 2483 0e78 2E       		.uleb128 0x2e
 2484 0e79 B8000000 		.4byte	.LVL29
 2485 0e7d 6E100000 		.4byte	0x106e
 2486 0e81 940E0000 		.4byte	0xe94
 2487 0e85 2F       		.uleb128 0x2f
 2488 0e86 01       		.byte	0x1
 2489 0e87 51       		.byte	0x51
 2490 0e88 01       		.byte	0x1
 2491 0e89 40       		.byte	0x40
 2492 0e8a 2F       		.uleb128 0x2f
 2493 0e8b 01       		.byte	0x1
 2494 0e8c 50       		.byte	0x50
 2495 0e8d 05       		.byte	0x5
 2496 0e8e 03       		.byte	0x3
ARM GAS  /tmp/cctPMLcj.s 			page 45


 2497 0e8f 04000000 		.4byte	.LANCHOR0+4
 2498 0e93 00       		.byte	0
 2499 0e94 2D       		.uleb128 0x2d
 2500 0e95 BC000000 		.4byte	.LVL30
 2501 0e99 B6100000 		.4byte	0x10b6
 2502 0e9d 2D       		.uleb128 0x2d
 2503 0e9e EC000000 		.4byte	.LVL39
 2504 0ea2 8D100000 		.4byte	0x108d
 2505 0ea6 2E       		.uleb128 0x2e
 2506 0ea7 F6000000 		.4byte	.LVL40
 2507 0eab 6E100000 		.4byte	0x106e
 2508 0eaf C10E0000 		.4byte	0xec1
 2509 0eb3 2F       		.uleb128 0x2f
 2510 0eb4 01       		.byte	0x1
 2511 0eb5 51       		.byte	0x51
 2512 0eb6 03       		.byte	0x3
 2513 0eb7 0A       		.byte	0xa
 2514 0eb8 0002     		.2byte	0x200
 2515 0eba 2F       		.uleb128 0x2f
 2516 0ebb 01       		.byte	0x1
 2517 0ebc 50       		.byte	0x50
 2518 0ebd 02       		.byte	0x2
 2519 0ebe 77       		.byte	0x77
 2520 0ebf 04       		.sleb128 4
 2521 0ec0 00       		.byte	0
 2522 0ec1 2D       		.uleb128 0x2d
 2523 0ec2 FA000000 		.4byte	.LVL41
 2524 0ec6 B6100000 		.4byte	0x10b6
 2525 0eca 00       		.byte	0
 2526 0ecb 00       		.byte	0
 2527 0ecc 2D       		.uleb128 0x2d
 2528 0ecd 08000000 		.4byte	.LVL2
 2529 0ed1 DA100000 		.4byte	0x10da
 2530 0ed5 2D       		.uleb128 0x2d
 2531 0ed6 DA000000 		.4byte	.LVL35
 2532 0eda E4100000 		.4byte	0x10e4
 2533 0ede 31       		.uleb128 0x31
 2534 0edf E2000000 		.4byte	.LVL36
 2535 0ee3 01       		.byte	0x1
 2536 0ee4 EE100000 		.4byte	0x10ee
 2537 0ee8 00       		.byte	0
 2538 0ee9 23       		.uleb128 0x23
 2539 0eea 01       		.byte	0x1
 2540 0eeb 62030000 		.4byte	.LASF192
 2541 0eef 01       		.byte	0x1
 2542 0ef0 7901     		.2byte	0x179
 2543 0ef2 01       		.byte	0x1
 2544 0ef3 00000000 		.4byte	.LFB69
 2545 0ef7 26000000 		.4byte	.LFE69
 2546 0efb 96010000 		.4byte	.LLST15
 2547 0eff 01       		.byte	0x1
 2548 0f00 230F0000 		.4byte	0xf23
 2549 0f04 30       		.uleb128 0x30
 2550 0f05 1A000000 		.4byte	.LVL56
 2551 0f09 F9100000 		.4byte	0x10f9
 2552 0f0d 2F       		.uleb128 0x2f
 2553 0f0e 01       		.byte	0x1
ARM GAS  /tmp/cctPMLcj.s 			page 46


 2554 0f0f 52       		.byte	0x52
 2555 0f10 05       		.byte	0x5
 2556 0f11 03       		.byte	0x3
 2557 0f12 00000000 		.4byte	notify2
 2558 0f16 2F       		.uleb128 0x2f
 2559 0f17 01       		.byte	0x1
 2560 0f18 51       		.byte	0x51
 2561 0f19 01       		.byte	0x1
 2562 0f1a 30       		.byte	0x30
 2563 0f1b 2F       		.uleb128 0x2f
 2564 0f1c 01       		.byte	0x1
 2565 0f1d 50       		.byte	0x50
 2566 0f1e 02       		.byte	0x2
 2567 0f1f 74       		.byte	0x74
 2568 0f20 00       		.sleb128 0
 2569 0f21 00       		.byte	0
 2570 0f22 00       		.byte	0
 2571 0f23 1C       		.uleb128 0x1c
 2572 0f24 8E040000 		.4byte	.LASF193
 2573 0f28 01       		.byte	0x1
 2574 0f29 5C       		.byte	0x5c
 2575 0f2a 01       		.byte	0x1
 2576 0f2b 01       		.byte	0x1
 2577 0f2c 500F0000 		.4byte	0xf50
 2578 0f30 1D       		.uleb128 0x1d
 2579 0f31 73647000 		.ascii	"sdp\000"
 2580 0f35 01       		.byte	0x1
 2581 0f36 5C       		.byte	0x5c
 2582 0f37 450C0000 		.4byte	0xc45
 2583 0f3b 32       		.uleb128 0x32
 2584 0f3c A9070000 		.4byte	.LASF194
 2585 0f40 01       		.byte	0x1
 2586 0f41 5C       		.byte	0x5c
 2587 0f42 500F0000 		.4byte	0xf50
 2588 0f46 1E       		.uleb128 0x1e
 2589 0f47 7500     		.ascii	"u\000"
 2590 0f49 01       		.byte	0x1
 2591 0f4a 5D       		.byte	0x5d
 2592 0f4b 620B0000 		.4byte	0xb62
 2593 0f4f 00       		.byte	0
 2594 0f50 09       		.uleb128 0x9
 2595 0f51 04       		.byte	0x4
 2596 0f52 560F0000 		.4byte	0xf56
 2597 0f56 10       		.uleb128 0x10
 2598 0f57 BF0A0000 		.4byte	0xabf
 2599 0f5b 23       		.uleb128 0x23
 2600 0f5c 01       		.byte	0x1
 2601 0f5d 1E060000 		.4byte	.LASF195
 2602 0f61 01       		.byte	0x1
 2603 0f62 A401     		.2byte	0x1a4
 2604 0f64 01       		.byte	0x1
 2605 0f65 00000000 		.4byte	.LFB70
 2606 0f69 7C000000 		.4byte	.LFE70
 2607 0f6d B6010000 		.4byte	.LLST16
 2608 0f71 01       		.byte	0x1
 2609 0f72 E30F0000 		.4byte	0xfe3
 2610 0f76 33       		.uleb128 0x33
ARM GAS  /tmp/cctPMLcj.s 			page 47


 2611 0f77 73647000 		.ascii	"sdp\000"
 2612 0f7b 01       		.byte	0x1
 2613 0f7c A401     		.2byte	0x1a4
 2614 0f7e 450C0000 		.4byte	0xc45
 2615 0f82 D6010000 		.4byte	.LLST17
 2616 0f86 34       		.uleb128 0x34
 2617 0f87 A9070000 		.4byte	.LASF194
 2618 0f8b 01       		.byte	0x1
 2619 0f8c A401     		.2byte	0x1a4
 2620 0f8e 500F0000 		.4byte	0xf50
 2621 0f92 0A020000 		.4byte	.LLST18
 2622 0f96 35       		.uleb128 0x35
 2623 0f97 230F0000 		.4byte	0xf23
 2624 0f9b 12000000 		.4byte	.LBB45
 2625 0f9f 52000000 		.4byte	.LBE45
 2626 0fa3 01       		.byte	0x1
 2627 0fa4 D501     		.2byte	0x1d5
 2628 0fa6 CC0F0000 		.4byte	0xfcc
 2629 0faa 36       		.uleb128 0x36
 2630 0fab 3B0F0000 		.4byte	0xf3b
 2631 0faf 2B       		.uleb128 0x2b
 2632 0fb0 300F0000 		.4byte	0xf30
 2633 0fb4 44020000 		.4byte	.LLST19
 2634 0fb8 2C       		.uleb128 0x2c
 2635 0fb9 12000000 		.4byte	.LBB46
 2636 0fbd 52000000 		.4byte	.LBE46
 2637 0fc1 27       		.uleb128 0x27
 2638 0fc2 460F0000 		.4byte	0xf46
 2639 0fc6 57020000 		.4byte	.LLST20
 2640 0fca 00       		.byte	0
 2641 0fcb 00       		.byte	0
 2642 0fcc 30       		.uleb128 0x30
 2643 0fcd 70000000 		.4byte	.LVL64
 2644 0fd1 18110000 		.4byte	0x1118
 2645 0fd5 2F       		.uleb128 0x2f
 2646 0fd6 01       		.byte	0x1
 2647 0fd7 51       		.byte	0x51
 2648 0fd8 02       		.byte	0x2
 2649 0fd9 08       		.byte	0x8
 2650 0fda C0       		.byte	0xc0
 2651 0fdb 2F       		.uleb128 0x2f
 2652 0fdc 01       		.byte	0x1
 2653 0fdd 50       		.byte	0x50
 2654 0fde 02       		.byte	0x2
 2655 0fdf 08       		.byte	0x8
 2656 0fe0 26       		.byte	0x26
 2657 0fe1 00       		.byte	0
 2658 0fe2 00       		.byte	0
 2659 0fe3 37       		.uleb128 0x37
 2660 0fe4 01       		.byte	0x1
 2661 0fe5 5D090000 		.4byte	.LASF196
 2662 0fe9 01       		.byte	0x1
 2663 0fea E101     		.2byte	0x1e1
 2664 0fec 01       		.byte	0x1
 2665 0fed 00000000 		.4byte	.LFB71
 2666 0ff1 34000000 		.4byte	.LFE71
 2667 0ff5 02       		.byte	0x2
ARM GAS  /tmp/cctPMLcj.s 			page 48


 2668 0ff6 7D       		.byte	0x7d
 2669 0ff7 00       		.sleb128 0
 2670 0ff8 01       		.byte	0x1
 2671 0ff9 3D100000 		.4byte	0x103d
 2672 0ffd 33       		.uleb128 0x33
 2673 0ffe 73647000 		.ascii	"sdp\000"
 2674 1002 01       		.byte	0x1
 2675 1003 E101     		.2byte	0x1e1
 2676 1005 450C0000 		.4byte	0xc45
 2677 1009 77020000 		.4byte	.LLST21
 2678 100d 24       		.uleb128 0x24
 2679 100e 680B0000 		.4byte	0xb68
 2680 1012 0C000000 		.4byte	.LBB47
 2681 1016 40000000 		.4byte	.Ldebug_ranges0+0x40
 2682 101a 01       		.byte	0x1
 2683 101b E401     		.2byte	0x1e4
 2684 101d 2B100000 		.4byte	0x102b
 2685 1021 2B       		.uleb128 0x2b
 2686 1022 750B0000 		.4byte	0xb75
 2687 1026 98020000 		.4byte	.LLST22
 2688 102a 00       		.byte	0
 2689 102b 38       		.uleb128 0x38
 2690 102c 2E000000 		.4byte	.LVL69
 2691 1030 01       		.byte	0x1
 2692 1031 32110000 		.4byte	0x1132
 2693 1035 2F       		.uleb128 0x2f
 2694 1036 01       		.byte	0x1
 2695 1037 50       		.byte	0x50
 2696 1038 02       		.byte	0x2
 2697 1039 08       		.byte	0x8
 2698 103a 26       		.byte	0x26
 2699 103b 00       		.byte	0
 2700 103c 00       		.byte	0
 2701 103d 39       		.uleb128 0x39
 2702 103e C6010000 		.4byte	.LASF212
 2703 1042 01       		.byte	0x1
 2704 1043 49       		.byte	0x49
 2705 1044 560F0000 		.4byte	0xf56
 2706 1048 05       		.byte	0x5
 2707 1049 03       		.byte	0x3
 2708 104a 00000000 		.4byte	default_config
 2709 104e 3A       		.uleb128 0x3a
 2710 104f FA000000 		.4byte	.LASF197
 2711 1053 10       		.byte	0x10
 2712 1054 0706     		.2byte	0x607
 2713 1056 99070000 		.4byte	0x799
 2714 105a 01       		.byte	0x1
 2715 105b 01       		.byte	0x1
 2716 105c 3B       		.uleb128 0x3b
 2717 105d 53443200 		.ascii	"SD2\000"
 2718 1061 01       		.byte	0x1
 2719 1062 2D       		.byte	0x2d
 2720 1063 F8090000 		.4byte	0x9f8
 2721 1067 01       		.byte	0x1
 2722 1068 05       		.byte	0x5
 2723 1069 03       		.byte	0x3
 2724 106a 00000000 		.4byte	SD2
ARM GAS  /tmp/cctPMLcj.s 			page 49


 2725 106e 3C       		.uleb128 0x3c
 2726 106f 01       		.byte	0x1
 2727 1070 25020000 		.4byte	.LASF200
 2728 1074 09       		.byte	0x9
 2729 1075 B3       		.byte	0xb3
 2730 1076 01       		.byte	0x1
 2731 1077 01       		.byte	0x1
 2732 1078 87100000 		.4byte	0x1087
 2733 107c 12       		.uleb128 0x12
 2734 107d 87100000 		.4byte	0x1087
 2735 1081 12       		.uleb128 0x12
 2736 1082 05010000 		.4byte	0x105
 2737 1086 00       		.byte	0
 2738 1087 09       		.uleb128 0x9
 2739 1088 04       		.byte	0x4
 2740 1089 44040000 		.4byte	0x444
 2741 108d 3D       		.uleb128 0x3d
 2742 108e 01       		.byte	0x1
 2743 108f 16090000 		.4byte	.LASF198
 2744 1093 0E       		.byte	0xe
 2745 1094 E2       		.byte	0xe2
 2746 1095 01       		.byte	0x1
 2747 1096 01       		.byte	0x1
 2748 1097 3E       		.uleb128 0x3e
 2749 1098 01       		.byte	0x1
 2750 1099 F6010000 		.4byte	.LASF213
 2751 109d 0A       		.byte	0xa
 2752 109e 6701     		.2byte	0x167
 2753 10a0 01       		.byte	0x1
 2754 10a1 EF000000 		.4byte	0xef
 2755 10a5 01       		.byte	0x1
 2756 10a6 B0100000 		.4byte	0x10b0
 2757 10aa 12       		.uleb128 0x12
 2758 10ab B0100000 		.4byte	0x10b0
 2759 10af 00       		.byte	0
 2760 10b0 09       		.uleb128 0x9
 2761 10b1 04       		.byte	0x4
 2762 10b2 74050000 		.4byte	0x574
 2763 10b6 3D       		.uleb128 0x3d
 2764 10b7 01       		.byte	0x1
 2765 10b8 3C080000 		.4byte	.LASF199
 2766 10bc 0E       		.byte	0xe
 2767 10bd E3       		.byte	0xe3
 2768 10be 01       		.byte	0x1
 2769 10bf 01       		.byte	0x1
 2770 10c0 3F       		.uleb128 0x3f
 2771 10c1 01       		.byte	0x1
 2772 10c2 81070000 		.4byte	.LASF201
 2773 10c6 0C       		.byte	0xc
 2774 10c7 3201     		.2byte	0x132
 2775 10c9 01       		.byte	0x1
 2776 10ca 01       		.byte	0x1
 2777 10cb DA100000 		.4byte	0x10da
 2778 10cf 12       		.uleb128 0x12
 2779 10d0 450C0000 		.4byte	0xc45
 2780 10d4 12       		.uleb128 0x12
 2781 10d5 49000000 		.4byte	0x49
ARM GAS  /tmp/cctPMLcj.s 			page 50


 2782 10d9 00       		.byte	0
 2783 10da 3D       		.uleb128 0x3d
 2784 10db 01       		.byte	0x1
 2785 10dc E5080000 		.4byte	.LASF202
 2786 10e0 0E       		.byte	0xe
 2787 10e1 E4       		.byte	0xe4
 2788 10e2 01       		.byte	0x1
 2789 10e3 01       		.byte	0x1
 2790 10e4 3D       		.uleb128 0x3d
 2791 10e5 01       		.byte	0x1
 2792 10e6 56080000 		.4byte	.LASF203
 2793 10ea 0E       		.byte	0xe
 2794 10eb E5       		.byte	0xe5
 2795 10ec 01       		.byte	0x1
 2796 10ed 01       		.byte	0x1
 2797 10ee 40       		.uleb128 0x40
 2798 10ef 01       		.byte	0x1
 2799 10f0 6E030000 		.4byte	.LASF204
 2800 10f4 07       		.byte	0x7
 2801 10f5 FC01     		.2byte	0x1fc
 2802 10f7 01       		.byte	0x1
 2803 10f8 01       		.byte	0x1
 2804 10f9 3F       		.uleb128 0x3f
 2805 10fa 01       		.byte	0x1
 2806 10fb 11010000 		.4byte	.LASF205
 2807 10ff 0C       		.byte	0xc
 2808 1100 2F01     		.2byte	0x12f
 2809 1102 01       		.byte	0x1
 2810 1103 01       		.byte	0x1
 2811 1104 18110000 		.4byte	0x1118
 2812 1108 12       		.uleb128 0x12
 2813 1109 450C0000 		.4byte	0xc45
 2814 110d 12       		.uleb128 0x12
 2815 110e 40050000 		.4byte	0x540
 2816 1112 12       		.uleb128 0x12
 2817 1113 40050000 		.4byte	0x540
 2818 1117 00       		.byte	0
 2819 1118 3F       		.uleb128 0x3f
 2820 1119 01       		.byte	0x1
 2821 111a 00000000 		.4byte	.LASF206
 2822 111e 0F       		.byte	0xf
 2823 111f 1C01     		.2byte	0x11c
 2824 1121 01       		.byte	0x1
 2825 1122 01       		.byte	0x1
 2826 1123 32110000 		.4byte	0x1132
 2827 1127 12       		.uleb128 0x12
 2828 1128 86000000 		.4byte	0x86
 2829 112c 12       		.uleb128 0x12
 2830 112d 86000000 		.4byte	0x86
 2831 1131 00       		.byte	0
 2832 1132 41       		.uleb128 0x41
 2833 1133 01       		.byte	0x1
 2834 1134 40070000 		.4byte	.LASF214
 2835 1138 0F       		.byte	0xf
 2836 1139 1D01     		.2byte	0x11d
 2837 113b 01       		.byte	0x1
 2838 113c 01       		.byte	0x1
ARM GAS  /tmp/cctPMLcj.s 			page 51


 2839 113d 12       		.uleb128 0x12
 2840 113e 86000000 		.4byte	0x86
 2841 1142 00       		.byte	0
 2842 1143 00       		.byte	0
 2843              		.section	.debug_abbrev,"",%progbits
 2844              	.Ldebug_abbrev0:
 2845 0000 01       		.uleb128 0x1
 2846 0001 11       		.uleb128 0x11
 2847 0002 01       		.byte	0x1
 2848 0003 25       		.uleb128 0x25
 2849 0004 0E       		.uleb128 0xe
 2850 0005 13       		.uleb128 0x13
 2851 0006 0B       		.uleb128 0xb
 2852 0007 03       		.uleb128 0x3
 2853 0008 0E       		.uleb128 0xe
 2854 0009 1B       		.uleb128 0x1b
 2855 000a 0E       		.uleb128 0xe
 2856 000b 55       		.uleb128 0x55
 2857 000c 06       		.uleb128 0x6
 2858 000d 11       		.uleb128 0x11
 2859 000e 01       		.uleb128 0x1
 2860 000f 52       		.uleb128 0x52
 2861 0010 01       		.uleb128 0x1
 2862 0011 10       		.uleb128 0x10
 2863 0012 06       		.uleb128 0x6
 2864 0013 00       		.byte	0
 2865 0014 00       		.byte	0
 2866 0015 02       		.uleb128 0x2
 2867 0016 24       		.uleb128 0x24
 2868 0017 00       		.byte	0
 2869 0018 0B       		.uleb128 0xb
 2870 0019 0B       		.uleb128 0xb
 2871 001a 3E       		.uleb128 0x3e
 2872 001b 0B       		.uleb128 0xb
 2873 001c 03       		.uleb128 0x3
 2874 001d 08       		.uleb128 0x8
 2875 001e 00       		.byte	0
 2876 001f 00       		.byte	0
 2877 0020 03       		.uleb128 0x3
 2878 0021 16       		.uleb128 0x16
 2879 0022 00       		.byte	0
 2880 0023 03       		.uleb128 0x3
 2881 0024 0E       		.uleb128 0xe
 2882 0025 3A       		.uleb128 0x3a
 2883 0026 0B       		.uleb128 0xb
 2884 0027 3B       		.uleb128 0x3b
 2885 0028 0B       		.uleb128 0xb
 2886 0029 49       		.uleb128 0x49
 2887 002a 13       		.uleb128 0x13
 2888 002b 00       		.byte	0
 2889 002c 00       		.byte	0
 2890 002d 04       		.uleb128 0x4
 2891 002e 24       		.uleb128 0x24
 2892 002f 00       		.byte	0
 2893 0030 0B       		.uleb128 0xb
 2894 0031 0B       		.uleb128 0xb
 2895 0032 3E       		.uleb128 0x3e
ARM GAS  /tmp/cctPMLcj.s 			page 52


 2896 0033 0B       		.uleb128 0xb
 2897 0034 03       		.uleb128 0x3
 2898 0035 0E       		.uleb128 0xe
 2899 0036 00       		.byte	0
 2900 0037 00       		.byte	0
 2901 0038 05       		.uleb128 0x5
 2902 0039 13       		.uleb128 0x13
 2903 003a 01       		.byte	0x1
 2904 003b 03       		.uleb128 0x3
 2905 003c 0E       		.uleb128 0xe
 2906 003d 0B       		.uleb128 0xb
 2907 003e 0B       		.uleb128 0xb
 2908 003f 3A       		.uleb128 0x3a
 2909 0040 0B       		.uleb128 0xb
 2910 0041 3B       		.uleb128 0x3b
 2911 0042 0B       		.uleb128 0xb
 2912 0043 01       		.uleb128 0x1
 2913 0044 13       		.uleb128 0x13
 2914 0045 00       		.byte	0
 2915 0046 00       		.byte	0
 2916 0047 06       		.uleb128 0x6
 2917 0048 0D       		.uleb128 0xd
 2918 0049 00       		.byte	0
 2919 004a 03       		.uleb128 0x3
 2920 004b 0E       		.uleb128 0xe
 2921 004c 3A       		.uleb128 0x3a
 2922 004d 0B       		.uleb128 0xb
 2923 004e 3B       		.uleb128 0x3b
 2924 004f 0B       		.uleb128 0xb
 2925 0050 49       		.uleb128 0x49
 2926 0051 13       		.uleb128 0x13
 2927 0052 38       		.uleb128 0x38
 2928 0053 0A       		.uleb128 0xa
 2929 0054 00       		.byte	0
 2930 0055 00       		.byte	0
 2931 0056 07       		.uleb128 0x7
 2932 0057 0D       		.uleb128 0xd
 2933 0058 00       		.byte	0
 2934 0059 03       		.uleb128 0x3
 2935 005a 08       		.uleb128 0x8
 2936 005b 3A       		.uleb128 0x3a
 2937 005c 0B       		.uleb128 0xb
 2938 005d 3B       		.uleb128 0x3b
 2939 005e 0B       		.uleb128 0xb
 2940 005f 49       		.uleb128 0x49
 2941 0060 13       		.uleb128 0x13
 2942 0061 38       		.uleb128 0x38
 2943 0062 0A       		.uleb128 0xa
 2944 0063 00       		.byte	0
 2945 0064 00       		.byte	0
 2946 0065 08       		.uleb128 0x8
 2947 0066 13       		.uleb128 0x13
 2948 0067 01       		.byte	0x1
 2949 0068 0B       		.uleb128 0xb
 2950 0069 0B       		.uleb128 0xb
 2951 006a 3A       		.uleb128 0x3a
 2952 006b 0B       		.uleb128 0xb
ARM GAS  /tmp/cctPMLcj.s 			page 53


 2953 006c 3B       		.uleb128 0x3b
 2954 006d 0B       		.uleb128 0xb
 2955 006e 01       		.uleb128 0x1
 2956 006f 13       		.uleb128 0x13
 2957 0070 00       		.byte	0
 2958 0071 00       		.byte	0
 2959 0072 09       		.uleb128 0x9
 2960 0073 0F       		.uleb128 0xf
 2961 0074 00       		.byte	0
 2962 0075 0B       		.uleb128 0xb
 2963 0076 0B       		.uleb128 0xb
 2964 0077 49       		.uleb128 0x49
 2965 0078 13       		.uleb128 0x13
 2966 0079 00       		.byte	0
 2967 007a 00       		.byte	0
 2968 007b 0A       		.uleb128 0xa
 2969 007c 0F       		.uleb128 0xf
 2970 007d 00       		.byte	0
 2971 007e 0B       		.uleb128 0xb
 2972 007f 0B       		.uleb128 0xb
 2973 0080 00       		.byte	0
 2974 0081 00       		.byte	0
 2975 0082 0B       		.uleb128 0xb
 2976 0083 13       		.uleb128 0x13
 2977 0084 01       		.byte	0x1
 2978 0085 03       		.uleb128 0x3
 2979 0086 0E       		.uleb128 0xe
 2980 0087 0B       		.uleb128 0xb
 2981 0088 0B       		.uleb128 0xb
 2982 0089 3A       		.uleb128 0x3a
 2983 008a 0B       		.uleb128 0xb
 2984 008b 3B       		.uleb128 0x3b
 2985 008c 05       		.uleb128 0x5
 2986 008d 01       		.uleb128 0x1
 2987 008e 13       		.uleb128 0x13
 2988 008f 00       		.byte	0
 2989 0090 00       		.byte	0
 2990 0091 0C       		.uleb128 0xc
 2991 0092 0D       		.uleb128 0xd
 2992 0093 00       		.byte	0
 2993 0094 03       		.uleb128 0x3
 2994 0095 08       		.uleb128 0x8
 2995 0096 3A       		.uleb128 0x3a
 2996 0097 0B       		.uleb128 0xb
 2997 0098 3B       		.uleb128 0x3b
 2998 0099 05       		.uleb128 0x5
 2999 009a 49       		.uleb128 0x49
 3000 009b 13       		.uleb128 0x13
 3001 009c 38       		.uleb128 0x38
 3002 009d 0A       		.uleb128 0xa
 3003 009e 00       		.byte	0
 3004 009f 00       		.byte	0
 3005 00a0 0D       		.uleb128 0xd
 3006 00a1 35       		.uleb128 0x35
 3007 00a2 00       		.byte	0
 3008 00a3 49       		.uleb128 0x49
 3009 00a4 13       		.uleb128 0x13
ARM GAS  /tmp/cctPMLcj.s 			page 54


 3010 00a5 00       		.byte	0
 3011 00a6 00       		.byte	0
 3012 00a7 0E       		.uleb128 0xe
 3013 00a8 17       		.uleb128 0x17
 3014 00a9 01       		.byte	0x1
 3015 00aa 0B       		.uleb128 0xb
 3016 00ab 0B       		.uleb128 0xb
 3017 00ac 3A       		.uleb128 0x3a
 3018 00ad 0B       		.uleb128 0xb
 3019 00ae 3B       		.uleb128 0x3b
 3020 00af 0B       		.uleb128 0xb
 3021 00b0 01       		.uleb128 0x1
 3022 00b1 13       		.uleb128 0x13
 3023 00b2 00       		.byte	0
 3024 00b3 00       		.byte	0
 3025 00b4 0F       		.uleb128 0xf
 3026 00b5 0D       		.uleb128 0xd
 3027 00b6 00       		.byte	0
 3028 00b7 03       		.uleb128 0x3
 3029 00b8 0E       		.uleb128 0xe
 3030 00b9 3A       		.uleb128 0x3a
 3031 00ba 0B       		.uleb128 0xb
 3032 00bb 3B       		.uleb128 0x3b
 3033 00bc 0B       		.uleb128 0xb
 3034 00bd 49       		.uleb128 0x49
 3035 00be 13       		.uleb128 0x13
 3036 00bf 00       		.byte	0
 3037 00c0 00       		.byte	0
 3038 00c1 10       		.uleb128 0x10
 3039 00c2 26       		.uleb128 0x26
 3040 00c3 00       		.byte	0
 3041 00c4 49       		.uleb128 0x49
 3042 00c5 13       		.uleb128 0x13
 3043 00c6 00       		.byte	0
 3044 00c7 00       		.byte	0
 3045 00c8 11       		.uleb128 0x11
 3046 00c9 15       		.uleb128 0x15
 3047 00ca 01       		.byte	0x1
 3048 00cb 27       		.uleb128 0x27
 3049 00cc 0C       		.uleb128 0xc
 3050 00cd 49       		.uleb128 0x49
 3051 00ce 13       		.uleb128 0x13
 3052 00cf 01       		.uleb128 0x1
 3053 00d0 13       		.uleb128 0x13
 3054 00d1 00       		.byte	0
 3055 00d2 00       		.byte	0
 3056 00d3 12       		.uleb128 0x12
 3057 00d4 05       		.uleb128 0x5
 3058 00d5 00       		.byte	0
 3059 00d6 49       		.uleb128 0x49
 3060 00d7 13       		.uleb128 0x13
 3061 00d8 00       		.byte	0
 3062 00d9 00       		.byte	0
 3063 00da 13       		.uleb128 0x13
 3064 00db 15       		.uleb128 0x15
 3065 00dc 01       		.byte	0x1
 3066 00dd 27       		.uleb128 0x27
ARM GAS  /tmp/cctPMLcj.s 			page 55


 3067 00de 0C       		.uleb128 0xc
 3068 00df 01       		.uleb128 0x1
 3069 00e0 13       		.uleb128 0x13
 3070 00e1 00       		.byte	0
 3071 00e2 00       		.byte	0
 3072 00e3 14       		.uleb128 0x14
 3073 00e4 04       		.uleb128 0x4
 3074 00e5 01       		.byte	0x1
 3075 00e6 03       		.uleb128 0x3
 3076 00e7 0E       		.uleb128 0xe
 3077 00e8 0B       		.uleb128 0xb
 3078 00e9 0B       		.uleb128 0xb
 3079 00ea 3A       		.uleb128 0x3a
 3080 00eb 0B       		.uleb128 0xb
 3081 00ec 3B       		.uleb128 0x3b
 3082 00ed 0B       		.uleb128 0xb
 3083 00ee 01       		.uleb128 0x1
 3084 00ef 13       		.uleb128 0x13
 3085 00f0 00       		.byte	0
 3086 00f1 00       		.byte	0
 3087 00f2 15       		.uleb128 0x15
 3088 00f3 28       		.uleb128 0x28
 3089 00f4 00       		.byte	0
 3090 00f5 03       		.uleb128 0x3
 3091 00f6 0E       		.uleb128 0xe
 3092 00f7 1C       		.uleb128 0x1c
 3093 00f8 0D       		.uleb128 0xd
 3094 00f9 00       		.byte	0
 3095 00fa 00       		.byte	0
 3096 00fb 16       		.uleb128 0x16
 3097 00fc 13       		.uleb128 0x13
 3098 00fd 01       		.byte	0x1
 3099 00fe 0B       		.uleb128 0xb
 3100 00ff 0B       		.uleb128 0xb
 3101 0100 3A       		.uleb128 0x3a
 3102 0101 0B       		.uleb128 0xb
 3103 0102 3B       		.uleb128 0x3b
 3104 0103 05       		.uleb128 0x5
 3105 0104 01       		.uleb128 0x1
 3106 0105 13       		.uleb128 0x13
 3107 0106 00       		.byte	0
 3108 0107 00       		.byte	0
 3109 0108 17       		.uleb128 0x17
 3110 0109 0D       		.uleb128 0xd
 3111 010a 00       		.byte	0
 3112 010b 03       		.uleb128 0x3
 3113 010c 0E       		.uleb128 0xe
 3114 010d 3A       		.uleb128 0x3a
 3115 010e 0B       		.uleb128 0xb
 3116 010f 3B       		.uleb128 0x3b
 3117 0110 05       		.uleb128 0x5
 3118 0111 49       		.uleb128 0x49
 3119 0112 13       		.uleb128 0x13
 3120 0113 38       		.uleb128 0x38
 3121 0114 0A       		.uleb128 0xa
 3122 0115 00       		.byte	0
 3123 0116 00       		.byte	0
ARM GAS  /tmp/cctPMLcj.s 			page 56


 3124 0117 18       		.uleb128 0x18
 3125 0118 16       		.uleb128 0x16
 3126 0119 00       		.byte	0
 3127 011a 03       		.uleb128 0x3
 3128 011b 0E       		.uleb128 0xe
 3129 011c 3A       		.uleb128 0x3a
 3130 011d 0B       		.uleb128 0xb
 3131 011e 3B       		.uleb128 0x3b
 3132 011f 05       		.uleb128 0x5
 3133 0120 49       		.uleb128 0x49
 3134 0121 13       		.uleb128 0x13
 3135 0122 00       		.byte	0
 3136 0123 00       		.byte	0
 3137 0124 19       		.uleb128 0x19
 3138 0125 04       		.uleb128 0x4
 3139 0126 01       		.byte	0x1
 3140 0127 0B       		.uleb128 0xb
 3141 0128 0B       		.uleb128 0xb
 3142 0129 3A       		.uleb128 0x3a
 3143 012a 0B       		.uleb128 0xb
 3144 012b 3B       		.uleb128 0x3b
 3145 012c 0B       		.uleb128 0xb
 3146 012d 01       		.uleb128 0x1
 3147 012e 13       		.uleb128 0x13
 3148 012f 00       		.byte	0
 3149 0130 00       		.byte	0
 3150 0131 1A       		.uleb128 0x1a
 3151 0132 01       		.uleb128 0x1
 3152 0133 01       		.byte	0x1
 3153 0134 49       		.uleb128 0x49
 3154 0135 13       		.uleb128 0x13
 3155 0136 01       		.uleb128 0x1
 3156 0137 13       		.uleb128 0x13
 3157 0138 00       		.byte	0
 3158 0139 00       		.byte	0
 3159 013a 1B       		.uleb128 0x1b
 3160 013b 21       		.uleb128 0x21
 3161 013c 00       		.byte	0
 3162 013d 49       		.uleb128 0x49
 3163 013e 13       		.uleb128 0x13
 3164 013f 2F       		.uleb128 0x2f
 3165 0140 0B       		.uleb128 0xb
 3166 0141 00       		.byte	0
 3167 0142 00       		.byte	0
 3168 0143 1C       		.uleb128 0x1c
 3169 0144 2E       		.uleb128 0x2e
 3170 0145 01       		.byte	0x1
 3171 0146 03       		.uleb128 0x3
 3172 0147 0E       		.uleb128 0xe
 3173 0148 3A       		.uleb128 0x3a
 3174 0149 0B       		.uleb128 0xb
 3175 014a 3B       		.uleb128 0x3b
 3176 014b 0B       		.uleb128 0xb
 3177 014c 27       		.uleb128 0x27
 3178 014d 0C       		.uleb128 0xc
 3179 014e 20       		.uleb128 0x20
 3180 014f 0B       		.uleb128 0xb
ARM GAS  /tmp/cctPMLcj.s 			page 57


 3181 0150 01       		.uleb128 0x1
 3182 0151 13       		.uleb128 0x13
 3183 0152 00       		.byte	0
 3184 0153 00       		.byte	0
 3185 0154 1D       		.uleb128 0x1d
 3186 0155 05       		.uleb128 0x5
 3187 0156 00       		.byte	0
 3188 0157 03       		.uleb128 0x3
 3189 0158 08       		.uleb128 0x8
 3190 0159 3A       		.uleb128 0x3a
 3191 015a 0B       		.uleb128 0xb
 3192 015b 3B       		.uleb128 0x3b
 3193 015c 0B       		.uleb128 0xb
 3194 015d 49       		.uleb128 0x49
 3195 015e 13       		.uleb128 0x13
 3196 015f 00       		.byte	0
 3197 0160 00       		.byte	0
 3198 0161 1E       		.uleb128 0x1e
 3199 0162 34       		.uleb128 0x34
 3200 0163 00       		.byte	0
 3201 0164 03       		.uleb128 0x3
 3202 0165 08       		.uleb128 0x8
 3203 0166 3A       		.uleb128 0x3a
 3204 0167 0B       		.uleb128 0xb
 3205 0168 3B       		.uleb128 0x3b
 3206 0169 0B       		.uleb128 0xb
 3207 016a 49       		.uleb128 0x49
 3208 016b 13       		.uleb128 0x13
 3209 016c 00       		.byte	0
 3210 016d 00       		.byte	0
 3211 016e 1F       		.uleb128 0x1f
 3212 016f 0B       		.uleb128 0xb
 3213 0170 01       		.byte	0x1
 3214 0171 01       		.uleb128 0x1
 3215 0172 13       		.uleb128 0x13
 3216 0173 00       		.byte	0
 3217 0174 00       		.byte	0
 3218 0175 20       		.uleb128 0x20
 3219 0176 0B       		.uleb128 0xb
 3220 0177 01       		.byte	0x1
 3221 0178 00       		.byte	0
 3222 0179 00       		.byte	0
 3223 017a 21       		.uleb128 0x21
 3224 017b 2E       		.uleb128 0x2e
 3225 017c 01       		.byte	0x1
 3226 017d 03       		.uleb128 0x3
 3227 017e 0E       		.uleb128 0xe
 3228 017f 3A       		.uleb128 0x3a
 3229 0180 0B       		.uleb128 0xb
 3230 0181 3B       		.uleb128 0x3b
 3231 0182 0B       		.uleb128 0xb
 3232 0183 27       		.uleb128 0x27
 3233 0184 0C       		.uleb128 0xc
 3234 0185 11       		.uleb128 0x11
 3235 0186 01       		.uleb128 0x1
 3236 0187 12       		.uleb128 0x12
 3237 0188 01       		.uleb128 0x1
ARM GAS  /tmp/cctPMLcj.s 			page 58


 3238 0189 40       		.uleb128 0x40
 3239 018a 0A       		.uleb128 0xa
 3240 018b 9742     		.uleb128 0x2117
 3241 018d 0C       		.uleb128 0xc
 3242 018e 01       		.uleb128 0x1
 3243 018f 13       		.uleb128 0x13
 3244 0190 00       		.byte	0
 3245 0191 00       		.byte	0
 3246 0192 22       		.uleb128 0x22
 3247 0193 05       		.uleb128 0x5
 3248 0194 00       		.byte	0
 3249 0195 03       		.uleb128 0x3
 3250 0196 08       		.uleb128 0x8
 3251 0197 3A       		.uleb128 0x3a
 3252 0198 0B       		.uleb128 0xb
 3253 0199 3B       		.uleb128 0x3b
 3254 019a 0B       		.uleb128 0xb
 3255 019b 49       		.uleb128 0x49
 3256 019c 13       		.uleb128 0x13
 3257 019d 02       		.uleb128 0x2
 3258 019e 06       		.uleb128 0x6
 3259 019f 00       		.byte	0
 3260 01a0 00       		.byte	0
 3261 01a1 23       		.uleb128 0x23
 3262 01a2 2E       		.uleb128 0x2e
 3263 01a3 01       		.byte	0x1
 3264 01a4 3F       		.uleb128 0x3f
 3265 01a5 0C       		.uleb128 0xc
 3266 01a6 03       		.uleb128 0x3
 3267 01a7 0E       		.uleb128 0xe
 3268 01a8 3A       		.uleb128 0x3a
 3269 01a9 0B       		.uleb128 0xb
 3270 01aa 3B       		.uleb128 0x3b
 3271 01ab 05       		.uleb128 0x5
 3272 01ac 27       		.uleb128 0x27
 3273 01ad 0C       		.uleb128 0xc
 3274 01ae 11       		.uleb128 0x11
 3275 01af 01       		.uleb128 0x1
 3276 01b0 12       		.uleb128 0x12
 3277 01b1 01       		.uleb128 0x1
 3278 01b2 40       		.uleb128 0x40
 3279 01b3 06       		.uleb128 0x6
 3280 01b4 9742     		.uleb128 0x2117
 3281 01b6 0C       		.uleb128 0xc
 3282 01b7 01       		.uleb128 0x1
 3283 01b8 13       		.uleb128 0x13
 3284 01b9 00       		.byte	0
 3285 01ba 00       		.byte	0
 3286 01bb 24       		.uleb128 0x24
 3287 01bc 1D       		.uleb128 0x1d
 3288 01bd 01       		.byte	0x1
 3289 01be 31       		.uleb128 0x31
 3290 01bf 13       		.uleb128 0x13
 3291 01c0 52       		.uleb128 0x52
 3292 01c1 01       		.uleb128 0x1
 3293 01c2 55       		.uleb128 0x55
 3294 01c3 06       		.uleb128 0x6
ARM GAS  /tmp/cctPMLcj.s 			page 59


 3295 01c4 58       		.uleb128 0x58
 3296 01c5 0B       		.uleb128 0xb
 3297 01c6 59       		.uleb128 0x59
 3298 01c7 05       		.uleb128 0x5
 3299 01c8 01       		.uleb128 0x1
 3300 01c9 13       		.uleb128 0x13
 3301 01ca 00       		.byte	0
 3302 01cb 00       		.byte	0
 3303 01cc 25       		.uleb128 0x25
 3304 01cd 0B       		.uleb128 0xb
 3305 01ce 01       		.byte	0x1
 3306 01cf 55       		.uleb128 0x55
 3307 01d0 06       		.uleb128 0x6
 3308 01d1 00       		.byte	0
 3309 01d2 00       		.byte	0
 3310 01d3 26       		.uleb128 0x26
 3311 01d4 34       		.uleb128 0x34
 3312 01d5 00       		.byte	0
 3313 01d6 31       		.uleb128 0x31
 3314 01d7 13       		.uleb128 0x13
 3315 01d8 02       		.uleb128 0x2
 3316 01d9 0A       		.uleb128 0xa
 3317 01da 00       		.byte	0
 3318 01db 00       		.byte	0
 3319 01dc 27       		.uleb128 0x27
 3320 01dd 34       		.uleb128 0x34
 3321 01de 00       		.byte	0
 3322 01df 31       		.uleb128 0x31
 3323 01e0 13       		.uleb128 0x13
 3324 01e1 02       		.uleb128 0x2
 3325 01e2 06       		.uleb128 0x6
 3326 01e3 00       		.byte	0
 3327 01e4 00       		.byte	0
 3328 01e5 28       		.uleb128 0x28
 3329 01e6 05       		.uleb128 0x5
 3330 01e7 00       		.byte	0
 3331 01e8 31       		.uleb128 0x31
 3332 01e9 13       		.uleb128 0x13
 3333 01ea 02       		.uleb128 0x2
 3334 01eb 0A       		.uleb128 0xa
 3335 01ec 00       		.byte	0
 3336 01ed 00       		.byte	0
 3337 01ee 29       		.uleb128 0x29
 3338 01ef 0B       		.uleb128 0xb
 3339 01f0 01       		.byte	0x1
 3340 01f1 11       		.uleb128 0x11
 3341 01f2 01       		.uleb128 0x1
 3342 01f3 12       		.uleb128 0x12
 3343 01f4 01       		.uleb128 0x1
 3344 01f5 01       		.uleb128 0x1
 3345 01f6 13       		.uleb128 0x13
 3346 01f7 00       		.byte	0
 3347 01f8 00       		.byte	0
 3348 01f9 2A       		.uleb128 0x2a
 3349 01fa 1D       		.uleb128 0x1d
 3350 01fb 01       		.byte	0x1
 3351 01fc 31       		.uleb128 0x31
ARM GAS  /tmp/cctPMLcj.s 			page 60


 3352 01fd 13       		.uleb128 0x13
 3353 01fe 11       		.uleb128 0x11
 3354 01ff 01       		.uleb128 0x1
 3355 0200 12       		.uleb128 0x12
 3356 0201 01       		.uleb128 0x1
 3357 0202 58       		.uleb128 0x58
 3358 0203 0B       		.uleb128 0xb
 3359 0204 59       		.uleb128 0x59
 3360 0205 0B       		.uleb128 0xb
 3361 0206 01       		.uleb128 0x1
 3362 0207 13       		.uleb128 0x13
 3363 0208 00       		.byte	0
 3364 0209 00       		.byte	0
 3365 020a 2B       		.uleb128 0x2b
 3366 020b 05       		.uleb128 0x5
 3367 020c 00       		.byte	0
 3368 020d 31       		.uleb128 0x31
 3369 020e 13       		.uleb128 0x13
 3370 020f 02       		.uleb128 0x2
 3371 0210 06       		.uleb128 0x6
 3372 0211 00       		.byte	0
 3373 0212 00       		.byte	0
 3374 0213 2C       		.uleb128 0x2c
 3375 0214 0B       		.uleb128 0xb
 3376 0215 01       		.byte	0x1
 3377 0216 11       		.uleb128 0x11
 3378 0217 01       		.uleb128 0x1
 3379 0218 12       		.uleb128 0x12
 3380 0219 01       		.uleb128 0x1
 3381 021a 00       		.byte	0
 3382 021b 00       		.byte	0
 3383 021c 2D       		.uleb128 0x2d
 3384 021d 898201   		.uleb128 0x4109
 3385 0220 00       		.byte	0
 3386 0221 11       		.uleb128 0x11
 3387 0222 01       		.uleb128 0x1
 3388 0223 31       		.uleb128 0x31
 3389 0224 13       		.uleb128 0x13
 3390 0225 00       		.byte	0
 3391 0226 00       		.byte	0
 3392 0227 2E       		.uleb128 0x2e
 3393 0228 898201   		.uleb128 0x4109
 3394 022b 01       		.byte	0x1
 3395 022c 11       		.uleb128 0x11
 3396 022d 01       		.uleb128 0x1
 3397 022e 31       		.uleb128 0x31
 3398 022f 13       		.uleb128 0x13
 3399 0230 01       		.uleb128 0x1
 3400 0231 13       		.uleb128 0x13
 3401 0232 00       		.byte	0
 3402 0233 00       		.byte	0
 3403 0234 2F       		.uleb128 0x2f
 3404 0235 8A8201   		.uleb128 0x410a
 3405 0238 00       		.byte	0
 3406 0239 02       		.uleb128 0x2
 3407 023a 0A       		.uleb128 0xa
 3408 023b 9142     		.uleb128 0x2111
ARM GAS  /tmp/cctPMLcj.s 			page 61


 3409 023d 0A       		.uleb128 0xa
 3410 023e 00       		.byte	0
 3411 023f 00       		.byte	0
 3412 0240 30       		.uleb128 0x30
 3413 0241 898201   		.uleb128 0x4109
 3414 0244 01       		.byte	0x1
 3415 0245 11       		.uleb128 0x11
 3416 0246 01       		.uleb128 0x1
 3417 0247 31       		.uleb128 0x31
 3418 0248 13       		.uleb128 0x13
 3419 0249 00       		.byte	0
 3420 024a 00       		.byte	0
 3421 024b 31       		.uleb128 0x31
 3422 024c 898201   		.uleb128 0x4109
 3423 024f 00       		.byte	0
 3424 0250 11       		.uleb128 0x11
 3425 0251 01       		.uleb128 0x1
 3426 0252 9542     		.uleb128 0x2115
 3427 0254 0C       		.uleb128 0xc
 3428 0255 31       		.uleb128 0x31
 3429 0256 13       		.uleb128 0x13
 3430 0257 00       		.byte	0
 3431 0258 00       		.byte	0
 3432 0259 32       		.uleb128 0x32
 3433 025a 05       		.uleb128 0x5
 3434 025b 00       		.byte	0
 3435 025c 03       		.uleb128 0x3
 3436 025d 0E       		.uleb128 0xe
 3437 025e 3A       		.uleb128 0x3a
 3438 025f 0B       		.uleb128 0xb
 3439 0260 3B       		.uleb128 0x3b
 3440 0261 0B       		.uleb128 0xb
 3441 0262 49       		.uleb128 0x49
 3442 0263 13       		.uleb128 0x13
 3443 0264 00       		.byte	0
 3444 0265 00       		.byte	0
 3445 0266 33       		.uleb128 0x33
 3446 0267 05       		.uleb128 0x5
 3447 0268 00       		.byte	0
 3448 0269 03       		.uleb128 0x3
 3449 026a 08       		.uleb128 0x8
 3450 026b 3A       		.uleb128 0x3a
 3451 026c 0B       		.uleb128 0xb
 3452 026d 3B       		.uleb128 0x3b
 3453 026e 05       		.uleb128 0x5
 3454 026f 49       		.uleb128 0x49
 3455 0270 13       		.uleb128 0x13
 3456 0271 02       		.uleb128 0x2
 3457 0272 06       		.uleb128 0x6
 3458 0273 00       		.byte	0
 3459 0274 00       		.byte	0
 3460 0275 34       		.uleb128 0x34
 3461 0276 05       		.uleb128 0x5
 3462 0277 00       		.byte	0
 3463 0278 03       		.uleb128 0x3
 3464 0279 0E       		.uleb128 0xe
 3465 027a 3A       		.uleb128 0x3a
ARM GAS  /tmp/cctPMLcj.s 			page 62


 3466 027b 0B       		.uleb128 0xb
 3467 027c 3B       		.uleb128 0x3b
 3468 027d 05       		.uleb128 0x5
 3469 027e 49       		.uleb128 0x49
 3470 027f 13       		.uleb128 0x13
 3471 0280 02       		.uleb128 0x2
 3472 0281 06       		.uleb128 0x6
 3473 0282 00       		.byte	0
 3474 0283 00       		.byte	0
 3475 0284 35       		.uleb128 0x35
 3476 0285 1D       		.uleb128 0x1d
 3477 0286 01       		.byte	0x1
 3478 0287 31       		.uleb128 0x31
 3479 0288 13       		.uleb128 0x13
 3480 0289 11       		.uleb128 0x11
 3481 028a 01       		.uleb128 0x1
 3482 028b 12       		.uleb128 0x12
 3483 028c 01       		.uleb128 0x1
 3484 028d 58       		.uleb128 0x58
 3485 028e 0B       		.uleb128 0xb
 3486 028f 59       		.uleb128 0x59
 3487 0290 05       		.uleb128 0x5
 3488 0291 01       		.uleb128 0x1
 3489 0292 13       		.uleb128 0x13
 3490 0293 00       		.byte	0
 3491 0294 00       		.byte	0
 3492 0295 36       		.uleb128 0x36
 3493 0296 05       		.uleb128 0x5
 3494 0297 00       		.byte	0
 3495 0298 31       		.uleb128 0x31
 3496 0299 13       		.uleb128 0x13
 3497 029a 00       		.byte	0
 3498 029b 00       		.byte	0
 3499 029c 37       		.uleb128 0x37
 3500 029d 2E       		.uleb128 0x2e
 3501 029e 01       		.byte	0x1
 3502 029f 3F       		.uleb128 0x3f
 3503 02a0 0C       		.uleb128 0xc
 3504 02a1 03       		.uleb128 0x3
 3505 02a2 0E       		.uleb128 0xe
 3506 02a3 3A       		.uleb128 0x3a
 3507 02a4 0B       		.uleb128 0xb
 3508 02a5 3B       		.uleb128 0x3b
 3509 02a6 05       		.uleb128 0x5
 3510 02a7 27       		.uleb128 0x27
 3511 02a8 0C       		.uleb128 0xc
 3512 02a9 11       		.uleb128 0x11
 3513 02aa 01       		.uleb128 0x1
 3514 02ab 12       		.uleb128 0x12
 3515 02ac 01       		.uleb128 0x1
 3516 02ad 40       		.uleb128 0x40
 3517 02ae 0A       		.uleb128 0xa
 3518 02af 9742     		.uleb128 0x2117
 3519 02b1 0C       		.uleb128 0xc
 3520 02b2 01       		.uleb128 0x1
 3521 02b3 13       		.uleb128 0x13
 3522 02b4 00       		.byte	0
ARM GAS  /tmp/cctPMLcj.s 			page 63


 3523 02b5 00       		.byte	0
 3524 02b6 38       		.uleb128 0x38
 3525 02b7 898201   		.uleb128 0x4109
 3526 02ba 01       		.byte	0x1
 3527 02bb 11       		.uleb128 0x11
 3528 02bc 01       		.uleb128 0x1
 3529 02bd 9542     		.uleb128 0x2115
 3530 02bf 0C       		.uleb128 0xc
 3531 02c0 31       		.uleb128 0x31
 3532 02c1 13       		.uleb128 0x13
 3533 02c2 00       		.byte	0
 3534 02c3 00       		.byte	0
 3535 02c4 39       		.uleb128 0x39
 3536 02c5 34       		.uleb128 0x34
 3537 02c6 00       		.byte	0
 3538 02c7 03       		.uleb128 0x3
 3539 02c8 0E       		.uleb128 0xe
 3540 02c9 3A       		.uleb128 0x3a
 3541 02ca 0B       		.uleb128 0xb
 3542 02cb 3B       		.uleb128 0x3b
 3543 02cc 0B       		.uleb128 0xb
 3544 02cd 49       		.uleb128 0x49
 3545 02ce 13       		.uleb128 0x13
 3546 02cf 02       		.uleb128 0x2
 3547 02d0 0A       		.uleb128 0xa
 3548 02d1 00       		.byte	0
 3549 02d2 00       		.byte	0
 3550 02d3 3A       		.uleb128 0x3a
 3551 02d4 34       		.uleb128 0x34
 3552 02d5 00       		.byte	0
 3553 02d6 03       		.uleb128 0x3
 3554 02d7 0E       		.uleb128 0xe
 3555 02d8 3A       		.uleb128 0x3a
 3556 02d9 0B       		.uleb128 0xb
 3557 02da 3B       		.uleb128 0x3b
 3558 02db 05       		.uleb128 0x5
 3559 02dc 49       		.uleb128 0x49
 3560 02dd 13       		.uleb128 0x13
 3561 02de 3F       		.uleb128 0x3f
 3562 02df 0C       		.uleb128 0xc
 3563 02e0 3C       		.uleb128 0x3c
 3564 02e1 0C       		.uleb128 0xc
 3565 02e2 00       		.byte	0
 3566 02e3 00       		.byte	0
 3567 02e4 3B       		.uleb128 0x3b
 3568 02e5 34       		.uleb128 0x34
 3569 02e6 00       		.byte	0
 3570 02e7 03       		.uleb128 0x3
 3571 02e8 08       		.uleb128 0x8
 3572 02e9 3A       		.uleb128 0x3a
 3573 02ea 0B       		.uleb128 0xb
 3574 02eb 3B       		.uleb128 0x3b
 3575 02ec 0B       		.uleb128 0xb
 3576 02ed 49       		.uleb128 0x49
 3577 02ee 13       		.uleb128 0x13
 3578 02ef 3F       		.uleb128 0x3f
 3579 02f0 0C       		.uleb128 0xc
ARM GAS  /tmp/cctPMLcj.s 			page 64


 3580 02f1 02       		.uleb128 0x2
 3581 02f2 0A       		.uleb128 0xa
 3582 02f3 00       		.byte	0
 3583 02f4 00       		.byte	0
 3584 02f5 3C       		.uleb128 0x3c
 3585 02f6 2E       		.uleb128 0x2e
 3586 02f7 01       		.byte	0x1
 3587 02f8 3F       		.uleb128 0x3f
 3588 02f9 0C       		.uleb128 0xc
 3589 02fa 03       		.uleb128 0x3
 3590 02fb 0E       		.uleb128 0xe
 3591 02fc 3A       		.uleb128 0x3a
 3592 02fd 0B       		.uleb128 0xb
 3593 02fe 3B       		.uleb128 0x3b
 3594 02ff 0B       		.uleb128 0xb
 3595 0300 27       		.uleb128 0x27
 3596 0301 0C       		.uleb128 0xc
 3597 0302 3C       		.uleb128 0x3c
 3598 0303 0C       		.uleb128 0xc
 3599 0304 01       		.uleb128 0x1
 3600 0305 13       		.uleb128 0x13
 3601 0306 00       		.byte	0
 3602 0307 00       		.byte	0
 3603 0308 3D       		.uleb128 0x3d
 3604 0309 2E       		.uleb128 0x2e
 3605 030a 00       		.byte	0
 3606 030b 3F       		.uleb128 0x3f
 3607 030c 0C       		.uleb128 0xc
 3608 030d 03       		.uleb128 0x3
 3609 030e 0E       		.uleb128 0xe
 3610 030f 3A       		.uleb128 0x3a
 3611 0310 0B       		.uleb128 0xb
 3612 0311 3B       		.uleb128 0x3b
 3613 0312 0B       		.uleb128 0xb
 3614 0313 27       		.uleb128 0x27
 3615 0314 0C       		.uleb128 0xc
 3616 0315 3C       		.uleb128 0x3c
 3617 0316 0C       		.uleb128 0xc
 3618 0317 00       		.byte	0
 3619 0318 00       		.byte	0
 3620 0319 3E       		.uleb128 0x3e
 3621 031a 2E       		.uleb128 0x2e
 3622 031b 01       		.byte	0x1
 3623 031c 3F       		.uleb128 0x3f
 3624 031d 0C       		.uleb128 0xc
 3625 031e 03       		.uleb128 0x3
 3626 031f 0E       		.uleb128 0xe
 3627 0320 3A       		.uleb128 0x3a
 3628 0321 0B       		.uleb128 0xb
 3629 0322 3B       		.uleb128 0x3b
 3630 0323 05       		.uleb128 0x5
 3631 0324 27       		.uleb128 0x27
 3632 0325 0C       		.uleb128 0xc
 3633 0326 49       		.uleb128 0x49
 3634 0327 13       		.uleb128 0x13
 3635 0328 3C       		.uleb128 0x3c
 3636 0329 0C       		.uleb128 0xc
ARM GAS  /tmp/cctPMLcj.s 			page 65


 3637 032a 01       		.uleb128 0x1
 3638 032b 13       		.uleb128 0x13
 3639 032c 00       		.byte	0
 3640 032d 00       		.byte	0
 3641 032e 3F       		.uleb128 0x3f
 3642 032f 2E       		.uleb128 0x2e
 3643 0330 01       		.byte	0x1
 3644 0331 3F       		.uleb128 0x3f
 3645 0332 0C       		.uleb128 0xc
 3646 0333 03       		.uleb128 0x3
 3647 0334 0E       		.uleb128 0xe
 3648 0335 3A       		.uleb128 0x3a
 3649 0336 0B       		.uleb128 0xb
 3650 0337 3B       		.uleb128 0x3b
 3651 0338 05       		.uleb128 0x5
 3652 0339 27       		.uleb128 0x27
 3653 033a 0C       		.uleb128 0xc
 3654 033b 3C       		.uleb128 0x3c
 3655 033c 0C       		.uleb128 0xc
 3656 033d 01       		.uleb128 0x1
 3657 033e 13       		.uleb128 0x13
 3658 033f 00       		.byte	0
 3659 0340 00       		.byte	0
 3660 0341 40       		.uleb128 0x40
 3661 0342 2E       		.uleb128 0x2e
 3662 0343 00       		.byte	0
 3663 0344 3F       		.uleb128 0x3f
 3664 0345 0C       		.uleb128 0xc
 3665 0346 03       		.uleb128 0x3
 3666 0347 0E       		.uleb128 0xe
 3667 0348 3A       		.uleb128 0x3a
 3668 0349 0B       		.uleb128 0xb
 3669 034a 3B       		.uleb128 0x3b
 3670 034b 05       		.uleb128 0x5
 3671 034c 27       		.uleb128 0x27
 3672 034d 0C       		.uleb128 0xc
 3673 034e 3C       		.uleb128 0x3c
 3674 034f 0C       		.uleb128 0xc
 3675 0350 00       		.byte	0
 3676 0351 00       		.byte	0
 3677 0352 41       		.uleb128 0x41
 3678 0353 2E       		.uleb128 0x2e
 3679 0354 01       		.byte	0x1
 3680 0355 3F       		.uleb128 0x3f
 3681 0356 0C       		.uleb128 0xc
 3682 0357 03       		.uleb128 0x3
 3683 0358 0E       		.uleb128 0xe
 3684 0359 3A       		.uleb128 0x3a
 3685 035a 0B       		.uleb128 0xb
 3686 035b 3B       		.uleb128 0x3b
 3687 035c 05       		.uleb128 0x5
 3688 035d 27       		.uleb128 0x27
 3689 035e 0C       		.uleb128 0xc
 3690 035f 3C       		.uleb128 0x3c
 3691 0360 0C       		.uleb128 0xc
 3692 0361 00       		.byte	0
 3693 0362 00       		.byte	0
ARM GAS  /tmp/cctPMLcj.s 			page 66


 3694 0363 00       		.byte	0
 3695              		.section	.debug_loc,"",%progbits
 3696              	.Ldebug_loc0:
 3697              	.LLST0:
 3698 0000 00000000 		.4byte	.LVL0
 3699 0004 0C000000 		.4byte	.LVL1
 3700 0008 0100     		.2byte	0x1
 3701 000a 50       		.byte	0x50
 3702 000b 0C000000 		.4byte	.LVL1
 3703 000f 14000000 		.4byte	.LFE67
 3704 0013 0400     		.2byte	0x4
 3705 0015 F3       		.byte	0xf3
 3706 0016 01       		.uleb128 0x1
 3707 0017 50       		.byte	0x50
 3708 0018 9F       		.byte	0x9f
 3709 0019 00000000 		.4byte	0
 3710 001d 00000000 		.4byte	0
 3711              	.LLST1:
 3712 0021 00000000 		.4byte	.LFB68
 3713 0025 02000000 		.4byte	.LCFI0
 3714 0029 0200     		.2byte	0x2
 3715 002b 7D       		.byte	0x7d
 3716 002c 00       		.sleb128 0
 3717 002d 02000000 		.4byte	.LCFI0
 3718 0031 54010000 		.4byte	.LFE68
 3719 0035 0200     		.2byte	0x2
 3720 0037 7D       		.byte	0x7d
 3721 0038 18       		.sleb128 24
 3722 0039 00000000 		.4byte	0
 3723 003d 00000000 		.4byte	0
 3724              	.LLST2:
 3725 0041 12000000 		.4byte	.LVL5
 3726 0045 30000000 		.4byte	.LVL9
 3727 0049 0100     		.2byte	0x1
 3728 004b 54       		.byte	0x54
 3729 004c 3E000000 		.4byte	.LVL11
 3730 0050 46000000 		.4byte	.LVL12
 3731 0054 0100     		.2byte	0x1
 3732 0056 50       		.byte	0x50
 3733 0057 E2000000 		.4byte	.LVL36
 3734 005b 0E010000 		.4byte	.LVL45
 3735 005f 0100     		.2byte	0x1
 3736 0061 54       		.byte	0x54
 3737 0062 00000000 		.4byte	0
 3738 0066 00000000 		.4byte	0
 3739              	.LLST3:
 3740 006a 22000000 		.4byte	.LVL7
 3741 006e 25000000 		.4byte	.LVL8-1
 3742 0072 0100     		.2byte	0x1
 3743 0074 53       		.byte	0x53
 3744 0075 00000000 		.4byte	0
 3745 0079 00000000 		.4byte	0
 3746              	.LLST4:
 3747 007d 4A000000 		.4byte	.LVL13
 3748 0081 66000000 		.4byte	.LVL15
 3749 0085 0100     		.2byte	0x1
 3750 0087 54       		.byte	0x54
ARM GAS  /tmp/cctPMLcj.s 			page 67


 3751 0088 00000000 		.4byte	0
 3752 008c 00000000 		.4byte	0
 3753              	.LLST5:
 3754 0090 4A000000 		.4byte	.LVL13
 3755 0094 82000000 		.4byte	.LVL20
 3756 0098 0600     		.2byte	0x6
 3757 009a 03       		.byte	0x3
 3758 009b 00000000 		.4byte	SD2
 3759 009f 9F       		.byte	0x9f
 3760 00a0 00000000 		.4byte	0
 3761 00a4 00000000 		.4byte	0
 3762              	.LLST6:
 3763 00a8 4A000000 		.4byte	.LVL13
 3764 00ac 5C000000 		.4byte	.LVL14
 3765 00b0 0200     		.2byte	0x2
 3766 00b2 30       		.byte	0x30
 3767 00b3 9F       		.byte	0x9f
 3768 00b4 5C000000 		.4byte	.LVL14
 3769 00b8 7F000000 		.4byte	.LVL19-1
 3770 00bc 0100     		.2byte	0x1
 3771 00be 51       		.byte	0x51
 3772 00bf 00000000 		.4byte	0
 3773 00c3 00000000 		.4byte	0
 3774              	.LLST7:
 3775 00c7 8C000000 		.4byte	.LVL23
 3776 00cb 98000000 		.4byte	.LVL24
 3777 00cf 0100     		.2byte	0x1
 3778 00d1 53       		.byte	0x53
 3779 00d2 9E000000 		.4byte	.LVL25
 3780 00d6 A8000000 		.4byte	.LVL26
 3781 00da 0100     		.2byte	0x1
 3782 00dc 53       		.byte	0x53
 3783 00dd D6000000 		.4byte	.LVL34
 3784 00e1 D9000000 		.4byte	.LVL35-1
 3785 00e5 0100     		.2byte	0x1
 3786 00e7 53       		.byte	0x53
 3787 00e8 00000000 		.4byte	0
 3788 00ec 00000000 		.4byte	0
 3789              	.LLST8:
 3790 00f0 AC000000 		.4byte	.LVL27
 3791 00f4 AF000000 		.4byte	.LVL28-1
 3792 00f8 0100     		.2byte	0x1
 3793 00fa 53       		.byte	0x53
 3794 00fb 00000000 		.4byte	0
 3795 00ff 00000000 		.4byte	0
 3796              	.LLST9:
 3797 0103 C2000000 		.4byte	.LVL32
 3798 0107 D2000000 		.4byte	.LVL33
 3799 010b 0100     		.2byte	0x1
 3800 010d 53       		.byte	0x53
 3801 010e 00000000 		.4byte	0
 3802 0112 00000000 		.4byte	0
 3803              	.LLST10:
 3804 0116 E8000000 		.4byte	.LVL38
 3805 011a EB000000 		.4byte	.LVL39-1
 3806 011e 0100     		.2byte	0x1
 3807 0120 53       		.byte	0x53
ARM GAS  /tmp/cctPMLcj.s 			page 68


 3808 0121 00000000 		.4byte	0
 3809 0125 00000000 		.4byte	0
 3810              	.LLST11:
 3811 0129 00010000 		.4byte	.LVL43
 3812 012d 08010000 		.4byte	.LVL44
 3813 0131 0100     		.2byte	0x1
 3814 0133 53       		.byte	0x53
 3815 0134 00000000 		.4byte	0
 3816 0138 00000000 		.4byte	0
 3817              	.LLST12:
 3818 013c 1E010000 		.4byte	.LVL49
 3819 0140 26010000 		.4byte	.LVL50
 3820 0144 0100     		.2byte	0x1
 3821 0146 50       		.byte	0x50
 3822 0147 32010000 		.4byte	.LVL53
 3823 014b 34010000 		.4byte	.LVL54
 3824 014f 0100     		.2byte	0x1
 3825 0151 50       		.byte	0x50
 3826 0152 00000000 		.4byte	0
 3827 0156 00000000 		.4byte	0
 3828              	.LLST13:
 3829 015a 14010000 		.4byte	.LVL47
 3830 015e 17010000 		.4byte	.LVL48-1
 3831 0162 0100     		.2byte	0x1
 3832 0164 53       		.byte	0x53
 3833 0165 00000000 		.4byte	0
 3834 0169 00000000 		.4byte	0
 3835              	.LLST14:
 3836 016d 9E000000 		.4byte	.LVL25
 3837 0171 A8000000 		.4byte	.LVL26
 3838 0175 0100     		.2byte	0x1
 3839 0177 53       		.byte	0x53
 3840 0178 D6000000 		.4byte	.LVL34
 3841 017c D9000000 		.4byte	.LVL35-1
 3842 0180 0100     		.2byte	0x1
 3843 0182 53       		.byte	0x53
 3844 0183 30010000 		.4byte	.LVL52
 3845 0187 32010000 		.4byte	.LVL53
 3846 018b 0100     		.2byte	0x1
 3847 018d 53       		.byte	0x53
 3848 018e 00000000 		.4byte	0
 3849 0192 00000000 		.4byte	0
 3850              	.LLST15:
 3851 0196 00000000 		.4byte	.LFB69
 3852 019a 02000000 		.4byte	.LCFI1
 3853 019e 0200     		.2byte	0x2
 3854 01a0 7D       		.byte	0x7d
 3855 01a1 00       		.sleb128 0
 3856 01a2 02000000 		.4byte	.LCFI1
 3857 01a6 26000000 		.4byte	.LFE69
 3858 01aa 0200     		.2byte	0x2
 3859 01ac 7D       		.byte	0x7d
 3860 01ad 08       		.sleb128 8
 3861 01ae 00000000 		.4byte	0
 3862 01b2 00000000 		.4byte	0
 3863              	.LLST16:
 3864 01b6 00000000 		.4byte	.LFB70
ARM GAS  /tmp/cctPMLcj.s 			page 69


 3865 01ba 02000000 		.4byte	.LCFI2
 3866 01be 0200     		.2byte	0x2
 3867 01c0 7D       		.byte	0x7d
 3868 01c1 00       		.sleb128 0
 3869 01c2 02000000 		.4byte	.LCFI2
 3870 01c6 7C000000 		.4byte	.LFE70
 3871 01ca 0200     		.2byte	0x2
 3872 01cc 7D       		.byte	0x7d
 3873 01cd 10       		.sleb128 16
 3874 01ce 00000000 		.4byte	0
 3875 01d2 00000000 		.4byte	0
 3876              	.LLST17:
 3877 01d6 00000000 		.4byte	.LVL57
 3878 01da 12000000 		.4byte	.LVL58
 3879 01de 0100     		.2byte	0x1
 3880 01e0 50       		.byte	0x50
 3881 01e1 12000000 		.4byte	.LVL58
 3882 01e5 52000000 		.4byte	.LVL61
 3883 01e9 0100     		.2byte	0x1
 3884 01eb 55       		.byte	0x55
 3885 01ec 52000000 		.4byte	.LVL61
 3886 01f0 54000000 		.4byte	.LVL62
 3887 01f4 0100     		.2byte	0x1
 3888 01f6 50       		.byte	0x50
 3889 01f7 54000000 		.4byte	.LVL62
 3890 01fb 7C000000 		.4byte	.LFE70
 3891 01ff 0100     		.2byte	0x1
 3892 0201 55       		.byte	0x55
 3893 0202 00000000 		.4byte	0
 3894 0206 00000000 		.4byte	0
 3895              	.LLST18:
 3896 020a 00000000 		.4byte	.LVL57
 3897 020e 12000000 		.4byte	.LVL58
 3898 0212 0100     		.2byte	0x1
 3899 0214 51       		.byte	0x51
 3900 0215 12000000 		.4byte	.LVL58
 3901 0219 52000000 		.4byte	.LVL61
 3902 021d 0400     		.2byte	0x4
 3903 021f F3       		.byte	0xf3
 3904 0220 01       		.uleb128 0x1
 3905 0221 51       		.byte	0x51
 3906 0222 9F       		.byte	0x9f
 3907 0223 52000000 		.4byte	.LVL61
 3908 0227 5C000000 		.4byte	.LVL63
 3909 022b 0100     		.2byte	0x1
 3910 022d 51       		.byte	0x51
 3911 022e 5C000000 		.4byte	.LVL63
 3912 0232 7C000000 		.4byte	.LFE70
 3913 0236 0400     		.2byte	0x4
 3914 0238 F3       		.byte	0xf3
 3915 0239 01       		.uleb128 0x1
 3916 023a 51       		.byte	0x51
 3917 023b 9F       		.byte	0x9f
 3918 023c 00000000 		.4byte	0
 3919 0240 00000000 		.4byte	0
 3920              	.LLST19:
 3921 0244 12000000 		.4byte	.LVL58
ARM GAS  /tmp/cctPMLcj.s 			page 70


 3922 0248 52000000 		.4byte	.LVL61
 3923 024c 0100     		.2byte	0x1
 3924 024e 55       		.byte	0x55
 3925 024f 00000000 		.4byte	0
 3926 0253 00000000 		.4byte	0
 3927              	.LLST20:
 3928 0257 1E000000 		.4byte	.LVL59
 3929 025b 50000000 		.4byte	.LVL60
 3930 025f 0100     		.2byte	0x1
 3931 0261 53       		.byte	0x53
 3932 0262 50000000 		.4byte	.LVL60
 3933 0266 52000000 		.4byte	.LVL61
 3934 026a 0300     		.2byte	0x3
 3935 026c 75       		.byte	0x75
 3936 026d F400     		.sleb128 116
 3937 026f 00000000 		.4byte	0
 3938 0273 00000000 		.4byte	0
 3939              	.LLST21:
 3940 0277 00000000 		.4byte	.LVL65
 3941 027b 24000000 		.4byte	.LVL68
 3942 027f 0100     		.2byte	0x1
 3943 0281 50       		.byte	0x50
 3944 0282 24000000 		.4byte	.LVL68
 3945 0286 34000000 		.4byte	.LFE71
 3946 028a 0400     		.2byte	0x4
 3947 028c F3       		.byte	0xf3
 3948 028d 01       		.uleb128 0x1
 3949 028e 50       		.byte	0x50
 3950 028f 9F       		.byte	0x9f
 3951 0290 00000000 		.4byte	0
 3952 0294 00000000 		.4byte	0
 3953              	.LLST22:
 3954 0298 0C000000 		.4byte	.LVL66
 3955 029c 1C000000 		.4byte	.LVL67
 3956 02a0 0100     		.2byte	0x1
 3957 02a2 51       		.byte	0x51
 3958 02a3 1C000000 		.4byte	.LVL67
 3959 02a7 24000000 		.4byte	.LVL68
 3960 02ab 0300     		.2byte	0x3
 3961 02ad 70       		.byte	0x70
 3962 02ae F400     		.sleb128 116
 3963 02b0 24000000 		.4byte	.LVL68
 3964 02b4 2D000000 		.4byte	.LVL69-1
 3965 02b8 0500     		.2byte	0x5
 3966 02ba F3       		.byte	0xf3
 3967 02bb 01       		.uleb128 0x1
 3968 02bc 50       		.byte	0x50
 3969 02bd 23       		.byte	0x23
 3970 02be 74       		.uleb128 0x74
 3971 02bf 00000000 		.4byte	0
 3972 02c3 00000000 		.4byte	0
 3973              		.section	.debug_aranges,"",%progbits
 3974 0000 3C000000 		.4byte	0x3c
 3975 0004 0200     		.2byte	0x2
 3976 0006 00000000 		.4byte	.Ldebug_info0
 3977 000a 04       		.byte	0x4
 3978 000b 00       		.byte	0
ARM GAS  /tmp/cctPMLcj.s 			page 71


 3979 000c 0000     		.2byte	0
 3980 000e 0000     		.2byte	0
 3981 0010 00000000 		.4byte	.LFB67
 3982 0014 14000000 		.4byte	.LFE67-.LFB67
 3983 0018 00000000 		.4byte	.LFB68
 3984 001c 54010000 		.4byte	.LFE68-.LFB68
 3985 0020 00000000 		.4byte	.LFB69
 3986 0024 26000000 		.4byte	.LFE69-.LFB69
 3987 0028 00000000 		.4byte	.LFB70
 3988 002c 7C000000 		.4byte	.LFE70-.LFB70
 3989 0030 00000000 		.4byte	.LFB71
 3990 0034 34000000 		.4byte	.LFE71-.LFB71
 3991 0038 00000000 		.4byte	0
 3992 003c 00000000 		.4byte	0
 3993              		.section	.debug_ranges,"",%progbits
 3994              	.Ldebug_ranges0:
 3995 0000 02000000 		.4byte	.LBB26
 3996 0004 04000000 		.4byte	.LBE26
 3997 0008 08000000 		.4byte	.LBB41
 3998 000c D6000000 		.4byte	.LBE41
 3999 0010 E2000000 		.4byte	.LBB42
 4000 0014 54010000 		.4byte	.LBE42
 4001 0018 00000000 		.4byte	0
 4002 001c 00000000 		.4byte	0
 4003 0020 02000000 		.4byte	.LBB27
 4004 0024 04000000 		.4byte	.LBE27
 4005 0028 08000000 		.4byte	.LBB39
 4006 002c D6000000 		.4byte	.LBE39
 4007 0030 E2000000 		.4byte	.LBB40
 4008 0034 54010000 		.4byte	.LBE40
 4009 0038 00000000 		.4byte	0
 4010 003c 00000000 		.4byte	0
 4011 0040 0C000000 		.4byte	.LBB47
 4012 0044 0E000000 		.4byte	.LBE47
 4013 0048 10000000 		.4byte	.LBB50
 4014 004c 16000000 		.4byte	.LBE50
 4015 0050 00000000 		.4byte	0
 4016 0054 00000000 		.4byte	0
 4017 0058 00000000 		.4byte	.LFB67
 4018 005c 14000000 		.4byte	.LFE67
 4019 0060 00000000 		.4byte	.LFB68
 4020 0064 54010000 		.4byte	.LFE68
 4021 0068 00000000 		.4byte	.LFB69
 4022 006c 26000000 		.4byte	.LFE69
 4023 0070 00000000 		.4byte	.LFB70
 4024 0074 7C000000 		.4byte	.LFE70
 4025 0078 00000000 		.4byte	.LFB71
 4026 007c 34000000 		.4byte	.LFE71
 4027 0080 00000000 		.4byte	0
 4028 0084 00000000 		.4byte	0
 4029              		.section	.debug_line,"",%progbits
 4030              	.Ldebug_line0:
 4031 0000 23030000 		.section	.debug_str,"MS",%progbits,1
 4031      02003A02 
 4031      00000201 
 4031      FB0E0D00 
 4031      01010101 
ARM GAS  /tmp/cctPMLcj.s 			page 72


 4032              	.LASF206:
 4033 0000 6E766963 		.ascii	"nvicEnableVector\000"
 4033      456E6162 
 4033      6C655665 
 4033      63746F72 
 4033      00
 4034              	.LASF90:
 4035 0011 5056445F 		.ascii	"PVD_IRQn\000"
 4035      4952516E 
 4035      00
 4036              	.LASF146:
 4037 001a 43414E32 		.ascii	"CAN2_RX0_IRQn\000"
 4037      5F525830 
 4037      5F495251 
 4037      6E00
 4038              	.LASF44:
 4039 0028 705F7265 		.ascii	"p_realprio\000"
 4039      616C7072 
 4039      696F00
 4040              	.LASF2:
 4041 0033 73697A65 		.ascii	"size_t\000"
 4041      5F7400
 4042              	.LASF112:
 4043 003a 45585449 		.ascii	"EXTI9_5_IRQn\000"
 4043      395F355F 
 4043      4952516E 
 4043      00
 4044              	.LASF64:
 4045 0047 7264796D 		.ascii	"rdymsg\000"
 4045      736700
 4046              	.LASF13:
 4047 004e 75696E74 		.ascii	"uint64_t\000"
 4047      36345F74 
 4047      00
 4048              	.LASF80:
 4049 0057 4F757470 		.ascii	"OutputQueue\000"
 4049      75745175 
 4049      65756500 
 4050              	.LASF120:
 4051 0063 49324331 		.ascii	"I2C1_EV_IRQn\000"
 4051      5F45565F 
 4051      4952516E 
 4051      00
 4052              	.LASF130:
 4053 0070 5254435F 		.ascii	"RTC_Alarm_IRQn\000"
 4053      416C6172 
 4053      6D5F4952 
 4053      516E00
 4054              	.LASF190:
 4055 007f 7365745F 		.ascii	"set_error\000"
 4055      6572726F 
 4055      7200
 4056              	.LASF114:
 4057 0089 54494D31 		.ascii	"TIM1_UP_IRQn\000"
 4057      5F55505F 
 4057      4952516E 
 4057      00
ARM GAS  /tmp/cctPMLcj.s 			page 73


 4058              	.LASF110:
 4059 0096 43414E31 		.ascii	"CAN1_RX1_IRQn\000"
 4059      5F525831 
 4059      5F495251 
 4059      6E00
 4060              	.LASF14:
 4061 00a4 6C6F6E67 		.ascii	"long long unsigned int\000"
 4061      206C6F6E 
 4061      6720756E 
 4061      7369676E 
 4061      65642069 
 4062              	.LASF138:
 4063 00bb 444D4132 		.ascii	"DMA2_Channel1_IRQn\000"
 4063      5F436861 
 4063      6E6E656C 
 4063      315F4952 
 4063      516E00
 4064              	.LASF23:
 4065 00ce 666C6167 		.ascii	"flagsmask_t\000"
 4065      736D6173 
 4065      6B5F7400 
 4066              	.LASF65:
 4067 00da 65786974 		.ascii	"exitcode\000"
 4067      636F6465 
 4067      00
 4068              	.LASF123:
 4069 00e3 49324332 		.ascii	"I2C2_ER_IRQn\000"
 4069      5F45525F 
 4069      4952516E 
 4069      00
 4070              	.LASF119:
 4071 00f0 54494D34 		.ascii	"TIM4_IRQn\000"
 4071      5F495251 
 4071      6E00
 4072              	.LASF197:
 4073 00fa 49544D5F 		.ascii	"ITM_RxBuffer\000"
 4073      52784275 
 4073      66666572 
 4073      00
 4074              	.LASF89:
 4075 0107 57574447 		.ascii	"WWDG_IRQn\000"
 4075      5F495251 
 4075      6E00
 4076              	.LASF205:
 4077 0111 73644F62 		.ascii	"sdObjectInit\000"
 4077      6A656374 
 4077      496E6974 
 4077      00
 4078              	.LASF187:
 4079 011e 72656164 		.ascii	"readt\000"
 4079      7400
 4080              	.LASF70:
 4081 0124 715F7761 		.ascii	"q_waiting\000"
 4081      6974696E 
 4081      6700
 4082              	.LASF12:
 4083 012e 6C6F6E67 		.ascii	"long long int\000"
ARM GAS  /tmp/cctPMLcj.s 			page 74


 4083      206C6F6E 
 4083      6720696E 
 4083      7400
 4084              	.LASF1:
 4085 013c 7369676E 		.ascii	"signed char\000"
 4085      65642063 
 4085      68617200 
 4086              	.LASF147:
 4087 0148 43414E32 		.ascii	"CAN2_RX1_IRQn\000"
 4087      5F525831 
 4087      5F495251 
 4087      6E00
 4088              	.LASF166:
 4089 0156 47545052 		.ascii	"GTPR\000"
 4089      00
 4090              	.LASF34:
 4091 015b 705F7374 		.ascii	"p_state\000"
 4091      61746500 
 4092              	.LASF45:
 4093 0163 705F6D70 		.ascii	"p_mpool\000"
 4093      6F6F6C00 
 4094              	.LASF54:
 4095 016b 6D5F7175 		.ascii	"m_queue\000"
 4095      65756500 
 4096              	.LASF19:
 4097 0173 74736C69 		.ascii	"tslices_t\000"
 4097      6365735F 
 4097      7400
 4098              	.LASF207:
 4099 017d 474E5520 		.ascii	"GNU C 4.7.4 20130913 (release) [ARM/embedded-4_7-br"
 4099      4320342E 
 4099      372E3420 
 4099      32303133 
 4099      30393133 
 4100 01b0 616E6368 		.ascii	"anch revision 202601]\000"
 4100      20726576 
 4100      6973696F 
 4100      6E203230 
 4100      32363031 
 4101              	.LASF212:
 4102 01c6 64656661 		.ascii	"default_config\000"
 4102      756C745F 
 4102      636F6E66 
 4102      696700
 4103              	.LASF175:
 4104 01d5 73746174 		.ascii	"state\000"
 4104      6500
 4105              	.LASF9:
 4106 01db 6C6F6E67 		.ascii	"long int\000"
 4106      20696E74 
 4106      00
 4107              	.LASF151:
 4108 01e4 41504232 		.ascii	"APB2RSTR\000"
 4108      52535452 
 4108      00
 4109              	.LASF17:
 4110 01ed 74737461 		.ascii	"tstate_t\000"
ARM GAS  /tmp/cctPMLcj.s 			page 75


 4110      74655F74 
 4110      00
 4111              	.LASF213:
 4112 01f6 63684F51 		.ascii	"chOQGetI\000"
 4112      47657449 
 4112      00
 4113              	.LASF36:
 4114 01ff 705F7265 		.ascii	"p_refs\000"
 4114      667300
 4115              	.LASF72:
 4116 0206 715F6275 		.ascii	"q_buffer\000"
 4116      66666572 
 4116      00
 4117              	.LASF144:
 4118 020f 4554485F 		.ascii	"ETH_WKUP_IRQn\000"
 4118      574B5550 
 4118      5F495251 
 4118      6E00
 4119              	.LASF74:
 4120 021d 715F7772 		.ascii	"q_wrptr\000"
 4120      70747200 
 4121              	.LASF200:
 4122 0225 63684576 		.ascii	"chEvtBroadcastFlagsI\000"
 4122      7442726F 
 4122      61646361 
 4122      7374466C 
 4122      61677349 
 4123              	.LASF107:
 4124 023a 41444331 		.ascii	"ADC1_2_IRQn\000"
 4124      5F325F49 
 4124      52516E00 
 4125              	.LASF30:
 4126 0246 705F6E65 		.ascii	"p_newer\000"
 4126      77657200 
 4127              	.LASF69:
 4128 024e 47656E65 		.ascii	"GenericQueue\000"
 4128      72696351 
 4128      75657565 
 4128      00
 4129              	.LASF134:
 4130 025b 55415254 		.ascii	"UART4_IRQn\000"
 4130      345F4952 
 4130      516E00
 4131              	.LASF131:
 4132 0266 4F54475F 		.ascii	"OTG_FS_WKUP_IRQn\000"
 4132      46535F57 
 4132      4B55505F 
 4132      4952516E 
 4132      00
 4133              	.LASF87:
 4134 0277 50656E64 		.ascii	"PendSV_IRQn\000"
 4134      53565F49 
 4134      52516E00 
 4135              	.LASF209:
 4136 0283 2F686F6D 		.ascii	"/home/ondra6ak/Documents/ARM/mlab-ChibiOSRT/demos/S"
 4136      652F6F6E 
 4136      64726136 
ARM GAS  /tmp/cctPMLcj.s 			page 76


 4136      616B2F44 
 4136      6F63756D 
 4137 02b6 544D3332 		.ascii	"TM32F107RxT01A--MAG01A\000"
 4137      46313037 
 4137      52785430 
 4137      31412D2D 
 4137      4D414730 
 4138              	.LASF48:
 4139 02cd 72656761 		.ascii	"regarm_t\000"
 4139      726D5F74 
 4139      00
 4140              	.LASF78:
 4141 02d6 716E6F74 		.ascii	"qnotify_t\000"
 4141      6966795F 
 4141      7400
 4142              	.LASF188:
 4143 02e0 75736172 		.ascii	"usart_deinit\000"
 4143      745F6465 
 4143      696E6974 
 4143      00
 4144              	.LASF62:
 4145 02ed 4576656E 		.ascii	"EventSource\000"
 4145      74536F75 
 4145      72636500 
 4146              	.LASF109:
 4147 02f9 43414E31 		.ascii	"CAN1_RX0_IRQn\000"
 4147      5F525830 
 4147      5F495251 
 4147      6E00
 4148              	.LASF178:
 4149 0307 75736172 		.ascii	"usart\000"
 4149      7400
 4150              	.LASF0:
 4151 030d 756E7369 		.ascii	"unsigned int\000"
 4151      676E6564 
 4151      20696E74 
 4151      00
 4152              	.LASF6:
 4153 031a 75696E74 		.ascii	"uint16_t\000"
 4153      31365F74 
 4153      00
 4154              	.LASF181:
 4155 0323 53657269 		.ascii	"SerialDriverVMT\000"
 4155      616C4472 
 4155      69766572 
 4155      564D5400 
 4156              	.LASF38:
 4157 0333 705F7469 		.ascii	"p_time\000"
 4157      6D6500
 4158              	.LASF82:
 4159 033a 4D656D6F 		.ascii	"MemoryManagement_IRQn\000"
 4159      72794D61 
 4159      6E616765 
 4159      6D656E74 
 4159      5F495251 
 4160              	.LASF176:
 4161 0350 69717565 		.ascii	"iqueue\000"
ARM GAS  /tmp/cctPMLcj.s 			page 77


 4161      756500
 4162              	.LASF40:
 4163 0357 705F6D73 		.ascii	"p_msgqueue\000"
 4163      67717565 
 4163      756500
 4164              	.LASF192:
 4165 0362 73645F6C 		.ascii	"sd_lld_init\000"
 4165      6C645F69 
 4165      6E697400 
 4166              	.LASF204:
 4167 036e 5F706F72 		.ascii	"_port_irq_epilogue\000"
 4167      745F6972 
 4167      715F6570 
 4167      696C6F67 
 4167      756500
 4168              	.LASF185:
 4169 0381 67657474 		.ascii	"gett\000"
 4169      00
 4170              	.LASF174:
 4171 0386 6576656E 		.ascii	"event\000"
 4171      7400
 4172              	.LASF104:
 4173 038c 444D4131 		.ascii	"DMA1_Channel5_IRQn\000"
 4173      5F436861 
 4173      6E6E656C 
 4173      355F4952 
 4173      516E00
 4174              	.LASF7:
 4175 039f 73686F72 		.ascii	"short unsigned int\000"
 4175      7420756E 
 4175      7369676E 
 4175      65642069 
 4175      6E7400
 4176              	.LASF115:
 4177 03b2 54494D31 		.ascii	"TIM1_TRG_COM_IRQn\000"
 4177      5F545247 
 4177      5F434F4D 
 4177      5F495251 
 4177      6E00
 4178              	.LASF108:
 4179 03c4 43414E31 		.ascii	"CAN1_TX_IRQn\000"
 4179      5F54585F 
 4179      4952516E 
 4179      00
 4180              	.LASF21:
 4181 03d1 6D73675F 		.ascii	"msg_t\000"
 4181      7400
 4182              	.LASF177:
 4183 03d7 6F717565 		.ascii	"oqueue\000"
 4183      756500
 4184              	.LASF129:
 4185 03de 45585449 		.ascii	"EXTI15_10_IRQn\000"
 4185      31355F31 
 4185      305F4952 
 4185      516E00
 4186              	.LASF124:
 4187 03ed 53504931 		.ascii	"SPI1_IRQn\000"
ARM GAS  /tmp/cctPMLcj.s 			page 78


 4187      5F495251 
 4187      6E00
 4188              	.LASF168:
 4189 03f7 55534152 		.ascii	"USART_TypeDef\000"
 4189      545F5479 
 4189      70654465 
 4189      6600
 4190              	.LASF186:
 4191 0405 77726974 		.ascii	"writet\000"
 4191      657400
 4192              	.LASF16:
 4193 040c 746D6F64 		.ascii	"tmode_t\000"
 4193      655F7400 
 4194              	.LASF47:
 4195 0414 54687265 		.ascii	"ThreadsList\000"
 4195      6164734C 
 4195      69737400 
 4196              	.LASF22:
 4197 0420 6576656E 		.ascii	"eventmask_t\000"
 4197      746D6173 
 4197      6B5F7400 
 4198              	.LASF79:
 4199 042c 496E7075 		.ascii	"InputQueue\000"
 4199      74517565 
 4199      756500
 4200              	.LASF179:
 4201 0437 73706565 		.ascii	"speed\000"
 4201      6400
 4202              	.LASF191:
 4203 043d 56656374 		.ascii	"VectorD8\000"
 4203      6F724438 
 4203      00
 4204              	.LASF103:
 4205 0446 444D4131 		.ascii	"DMA1_Channel4_IRQn\000"
 4205      5F436861 
 4205      6E6E656C 
 4205      345F4952 
 4205      516E00
 4206              	.LASF88:
 4207 0459 53797354 		.ascii	"SysTick_IRQn\000"
 4207      69636B5F 
 4207      4952516E 
 4207      00
 4208              	.LASF116:
 4209 0466 54494D31 		.ascii	"TIM1_CC_IRQn\000"
 4209      5F43435F 
 4209      4952516E 
 4209      00
 4210              	.LASF49:
 4211 0473 73746B61 		.ascii	"stkalign_t\000"
 4211      6C69676E 
 4211      5F7400
 4212              	.LASF182:
 4213 047e 77726974 		.ascii	"write\000"
 4213      6500
 4214              	.LASF210:
 4215 0484 4952516E 		.ascii	"IRQn\000"
ARM GAS  /tmp/cctPMLcj.s 			page 79


 4215      00
 4216              	.LASF184:
 4217 0489 70757474 		.ascii	"putt\000"
 4217      00
 4218              	.LASF193:
 4219 048e 75736172 		.ascii	"usart_init\000"
 4219      745F696E 
 4219      697400
 4220              	.LASF101:
 4221 0499 444D4131 		.ascii	"DMA1_Channel2_IRQn\000"
 4221      5F436861 
 4221      6E6E656C 
 4221      325F4952 
 4221      516E00
 4222              	.LASF52:
 4223 04ac 73697A65 		.ascii	"sizetype\000"
 4223      74797065 
 4223      00
 4224              	.LASF143:
 4225 04b5 4554485F 		.ascii	"ETH_IRQn\000"
 4225      4952516E 
 4225      00
 4226              	.LASF71:
 4227 04be 715F636F 		.ascii	"q_counter\000"
 4227      756E7465 
 4227      7200
 4228              	.LASF53:
 4229 04c8 4D757465 		.ascii	"Mutex\000"
 4229      7800
 4230              	.LASF139:
 4231 04ce 444D4132 		.ascii	"DMA2_Channel2_IRQn\000"
 4231      5F436861 
 4231      6E6E656C 
 4231      325F4952 
 4231      516E00
 4232              	.LASF142:
 4233 04e1 444D4132 		.ascii	"DMA2_Channel5_IRQn\000"
 4233      5F436861 
 4233      6E6E656C 
 4233      355F4952 
 4233      516E00
 4234              	.LASF26:
 4235 04f4 705F6E65 		.ascii	"p_next\000"
 4235      787400
 4236              	.LASF132:
 4237 04fb 54494D35 		.ascii	"TIM5_IRQn\000"
 4237      5F495251 
 4237      6E00
 4238              	.LASF86:
 4239 0505 44656275 		.ascii	"DebugMonitor_IRQn\000"
 4239      674D6F6E 
 4239      69746F72 
 4239      5F495251 
 4239      6E00
 4240              	.LASF125:
 4241 0517 53504932 		.ascii	"SPI2_IRQn\000"
 4241      5F495251 
ARM GAS  /tmp/cctPMLcj.s 			page 80


 4241      6E00
 4242              	.LASF145:
 4243 0521 43414E32 		.ascii	"CAN2_TX_IRQn\000"
 4243      5F54585F 
 4243      4952516E 
 4243      00
 4244              	.LASF46:
 4245 052e 54687265 		.ascii	"ThreadsQueue\000"
 4245      61647351 
 4245      75657565 
 4245      00
 4246              	.LASF149:
 4247 053b 4F54475F 		.ascii	"OTG_FS_IRQn\000"
 4247      46535F49 
 4247      52516E00 
 4248              	.LASF140:
 4249 0547 444D4132 		.ascii	"DMA2_Channel3_IRQn\000"
 4249      5F436861 
 4249      6E6E656C 
 4249      335F4952 
 4249      516E00
 4250              	.LASF157:
 4251 055a 41484252 		.ascii	"AHBRSTR\000"
 4251      53545200 
 4252              	.LASF152:
 4253 0562 41504231 		.ascii	"APB1RSTR\000"
 4253      52535452 
 4253      00
 4254              	.LASF60:
 4255 056b 656C5F6D 		.ascii	"el_mask\000"
 4255      61736B00 
 4256              	.LASF180:
 4257 0573 53657269 		.ascii	"SerialConfig\000"
 4257      616C436F 
 4257      6E666967 
 4257      00
 4258              	.LASF211:
 4259 0580 6E6F7469 		.ascii	"notify2\000"
 4259      66793200 
 4260              	.LASF100:
 4261 0588 444D4131 		.ascii	"DMA1_Channel1_IRQn\000"
 4261      5F436861 
 4261      6E6E656C 
 4261      315F4952 
 4261      516E00
 4262              	.LASF18:
 4263 059b 74726566 		.ascii	"trefs_t\000"
 4263      735F7400 
 4264              	.LASF160:
 4265 05a3 52455345 		.ascii	"RESERVED0\000"
 4265      52564544 
 4265      3000
 4266              	.LASF161:
 4267 05ad 52455345 		.ascii	"RESERVED1\000"
 4267      52564544 
 4267      3100
 4268              	.LASF162:
ARM GAS  /tmp/cctPMLcj.s 			page 81


 4269 05b7 52455345 		.ascii	"RESERVED2\000"
 4269      52564544 
 4269      3200
 4270              	.LASF163:
 4271 05c1 52455345 		.ascii	"RESERVED3\000"
 4271      52564544 
 4271      3300
 4272              	.LASF164:
 4273 05cb 52455345 		.ascii	"RESERVED4\000"
 4273      52564544 
 4273      3400
 4274              	.LASF27:
 4275 05d5 705F7072 		.ascii	"p_prev\000"
 4275      657600
 4276              	.LASF167:
 4277 05dc 52455345 		.ascii	"RESERVED6\000"
 4277      52564544 
 4277      3600
 4278              	.LASF20:
 4279 05e6 74707269 		.ascii	"tprio_t\000"
 4279      6F5F7400 
 4280              	.LASF75:
 4281 05ee 715F7264 		.ascii	"q_rdptr\000"
 4281      70747200 
 4282              	.LASF85:
 4283 05f6 53564361 		.ascii	"SVCall_IRQn\000"
 4283      6C6C5F49 
 4283      52516E00 
 4284              	.LASF15:
 4285 0602 5F426F6F 		.ascii	"_Bool\000"
 4285      6C00
 4286              	.LASF8:
 4287 0608 696E7433 		.ascii	"int32_t\000"
 4287      325F7400 
 4288              	.LASF4:
 4289 0610 756E7369 		.ascii	"unsigned char\000"
 4289      676E6564 
 4289      20636861 
 4289      7200
 4290              	.LASF195:
 4291 061e 73645F6C 		.ascii	"sd_lld_start\000"
 4291      6C645F73 
 4291      74617274 
 4291      00
 4292              	.LASF59:
 4293 062b 656C5F6C 		.ascii	"el_listener\000"
 4293      69737465 
 4293      6E657200 
 4294              	.LASF61:
 4295 0637 656C5F66 		.ascii	"el_flags\000"
 4295      6C616773 
 4295      00
 4296              	.LASF159:
 4297 0640 5243435F 		.ascii	"RCC_TypeDef\000"
 4297      54797065 
 4297      44656600 
 4298              	.LASF43:
ARM GAS  /tmp/cctPMLcj.s 			page 82


 4299 064c 705F6D74 		.ascii	"p_mtxlist\000"
 4299      786C6973 
 4299      7400
 4300              	.LASF5:
 4301 0656 73686F72 		.ascii	"short int\000"
 4301      7420696E 
 4301      7400
 4302              	.LASF99:
 4303 0660 45585449 		.ascii	"EXTI4_IRQn\000"
 4303      345F4952 
 4303      516E00
 4304              	.LASF37:
 4305 066b 705F7072 		.ascii	"p_preempt\000"
 4305      65656D70 
 4305      7400
 4306              	.LASF31:
 4307 0675 705F6F6C 		.ascii	"p_older\000"
 4307      64657200 
 4308              	.LASF135:
 4309 067d 55415254 		.ascii	"UART5_IRQn\000"
 4309      355F4952 
 4309      516E00
 4310              	.LASF102:
 4311 0688 444D4131 		.ascii	"DMA1_Channel3_IRQn\000"
 4311      5F436861 
 4311      6E6E656C 
 4311      335F4952 
 4311      516E00
 4312              	.LASF67:
 4313 069b 65776D61 		.ascii	"ewmask\000"
 4313      736B00
 4314              	.LASF35:
 4315 06a2 705F666C 		.ascii	"p_flags\000"
 4315      61677300 
 4316              	.LASF58:
 4317 06aa 656C5F6E 		.ascii	"el_next\000"
 4317      65787400 
 4318              	.LASF97:
 4319 06b2 45585449 		.ascii	"EXTI2_IRQn\000"
 4319      325F4952 
 4319      516E00
 4320              	.LASF170:
 4321 06bd 53445F53 		.ascii	"SD_STOP\000"
 4321      544F5000 
 4322              	.LASF154:
 4323 06c5 41504232 		.ascii	"APB2ENR\000"
 4323      454E5200 
 4324              	.LASF25:
 4325 06cd 54687265 		.ascii	"Thread\000"
 4325      616400
 4326              	.LASF189:
 4327 06d4 73657276 		.ascii	"serve_interrupt\000"
 4327      655F696E 
 4327      74657272 
 4327      75707400 
 4328              	.LASF93:
 4329 06e4 464C4153 		.ascii	"FLASH_IRQn\000"
ARM GAS  /tmp/cctPMLcj.s 			page 83


 4329      485F4952 
 4329      516E00
 4330              	.LASF42:
 4331 06ef 705F6570 		.ascii	"p_epending\000"
 4331      656E6469 
 4331      6E6700
 4332              	.LASF169:
 4333 06fa 53445F55 		.ascii	"SD_UNINIT\000"
 4333      4E494E49 
 4333      5400
 4334              	.LASF165:
 4335 0704 52455345 		.ascii	"RESERVED5\000"
 4335      52564544 
 4335      3500
 4336              	.LASF10:
 4337 070e 75696E74 		.ascii	"uint32_t\000"
 4337      33325F74 
 4337      00
 4338              	.LASF127:
 4339 0717 55534152 		.ascii	"USART2_IRQn\000"
 4339      54325F49 
 4339      52516E00 
 4340              	.LASF84:
 4341 0723 55736167 		.ascii	"UsageFault_IRQn\000"
 4341      65466175 
 4341      6C745F49 
 4341      52516E00 
 4342              	.LASF173:
 4343 0733 53657269 		.ascii	"SerialDriver\000"
 4343      616C4472 
 4343      69766572 
 4343      00
 4344              	.LASF214:
 4345 0740 6E766963 		.ascii	"nvicDisableVector\000"
 4345      44697361 
 4345      626C6556 
 4345      6563746F 
 4345      7200
 4346              	.LASF11:
 4347 0752 6C6F6E67 		.ascii	"long unsigned int\000"
 4347      20756E73 
 4347      69676E65 
 4347      6420696E 
 4347      7400
 4348              	.LASF183:
 4349 0764 72656164 		.ascii	"read\000"
 4349      00
 4350              	.LASF68:
 4351 0769 63686172 		.ascii	"char\000"
 4351      00
 4352              	.LASF141:
 4353 076e 444D4132 		.ascii	"DMA2_Channel4_IRQn\000"
 4353      5F436861 
 4353      6E6E656C 
 4353      345F4952 
 4353      516E00
 4354              	.LASF201:
ARM GAS  /tmp/cctPMLcj.s 			page 84


 4355 0781 7364496E 		.ascii	"sdIncomingDataI\000"
 4355      636F6D69 
 4355      6E674461 
 4355      74614900 
 4356              	.LASF83:
 4357 0791 42757346 		.ascii	"BusFault_IRQn\000"
 4357      61756C74 
 4357      5F495251 
 4357      6E00
 4358              	.LASF136:
 4359 079f 54494D36 		.ascii	"TIM6_IRQn\000"
 4359      5F495251 
 4359      6E00
 4360              	.LASF194:
 4361 07a9 636F6E66 		.ascii	"config\000"
 4361      696700
 4362              	.LASF113:
 4363 07b0 54494D31 		.ascii	"TIM1_BRK_IRQn\000"
 4363      5F42524B 
 4363      5F495251 
 4363      6E00
 4364              	.LASF137:
 4365 07be 54494D37 		.ascii	"TIM7_IRQn\000"
 4365      5F495251 
 4365      6E00
 4366              	.LASF111:
 4367 07c8 43414E31 		.ascii	"CAN1_SCE_IRQn\000"
 4367      5F534345 
 4367      5F495251 
 4367      6E00
 4368              	.LASF56:
 4369 07d6 6D5F6E65 		.ascii	"m_next\000"
 4369      787400
 4370              	.LASF24:
 4371 07dd 73797374 		.ascii	"systime_t\000"
 4371      696D655F 
 4371      7400
 4372              	.LASF81:
 4373 07e7 4E6F6E4D 		.ascii	"NonMaskableInt_IRQn\000"
 4373      61736B61 
 4373      626C6549 
 4373      6E745F49 
 4373      52516E00 
 4374              	.LASF33:
 4375 07fb 705F7374 		.ascii	"p_stklimit\000"
 4375      6B6C696D 
 4375      697400
 4376              	.LASF105:
 4377 0806 444D4131 		.ascii	"DMA1_Channel6_IRQn\000"
 4377      5F436861 
 4377      6E6E656C 
 4377      365F4952 
 4377      516E00
 4378              	.LASF32:
 4379 0819 705F6E61 		.ascii	"p_name\000"
 4379      6D6500
 4380              	.LASF155:
ARM GAS  /tmp/cctPMLcj.s 			page 85


 4381 0820 41504231 		.ascii	"APB1ENR\000"
 4381      454E5200 
 4382              	.LASF91:
 4383 0828 54414D50 		.ascii	"TAMPER_IRQn\000"
 4383      45525F49 
 4383      52516E00 
 4384              	.LASF51:
 4385 0834 636F6E74 		.ascii	"context\000"
 4385      65787400 
 4386              	.LASF199:
 4387 083c 6462675F 		.ascii	"dbg_check_unlock_from_isr\000"
 4387      63686563 
 4387      6B5F756E 
 4387      6C6F636B 
 4387      5F66726F 
 4388              	.LASF203:
 4389 0856 6462675F 		.ascii	"dbg_check_leave_isr\000"
 4389      63686563 
 4389      6B5F6C65 
 4389      6176655F 
 4389      69737200 
 4390              	.LASF50:
 4391 086a 696E7463 		.ascii	"intctx\000"
 4391      747800
 4392              	.LASF171:
 4393 0871 53445F52 		.ascii	"SD_READY\000"
 4393      45414459 
 4393      00
 4394              	.LASF122:
 4395 087a 49324332 		.ascii	"I2C2_EV_IRQn\000"
 4395      5F45565F 
 4395      4952516E 
 4395      00
 4396              	.LASF128:
 4397 0887 55534152 		.ascii	"USART3_IRQn\000"
 4397      54335F49 
 4397      52516E00 
 4398              	.LASF172:
 4399 0893 73647374 		.ascii	"sdstate_t\000"
 4399      6174655F 
 4399      7400
 4400              	.LASF117:
 4401 089d 54494D32 		.ascii	"TIM2_IRQn\000"
 4401      5F495251 
 4401      6E00
 4402              	.LASF73:
 4403 08a7 715F746F 		.ascii	"q_top\000"
 4403      7000
 4404              	.LASF95:
 4405 08ad 45585449 		.ascii	"EXTI0_IRQn\000"
 4405      305F4952 
 4405      516E00
 4406              	.LASF63:
 4407 08b8 65735F6E 		.ascii	"es_next\000"
 4407      65787400 
 4408              	.LASF126:
 4409 08c0 55534152 		.ascii	"USART1_IRQn\000"
ARM GAS  /tmp/cctPMLcj.s 			page 86


 4409      54315F49 
 4409      52516E00 
 4410              	.LASF156:
 4411 08cc 42444352 		.ascii	"BDCR\000"
 4411      00
 4412              	.LASF76:
 4413 08d1 715F6E6F 		.ascii	"q_notify\000"
 4413      74696679 
 4413      00
 4414              	.LASF98:
 4415 08da 45585449 		.ascii	"EXTI3_IRQn\000"
 4415      335F4952 
 4415      516E00
 4416              	.LASF202:
 4417 08e5 6462675F 		.ascii	"dbg_check_enter_isr\000"
 4417      63686563 
 4417      6B5F656E 
 4417      7465725F 
 4417      69737200 
 4418              	.LASF41:
 4419 08f9 705F6D73 		.ascii	"p_msg\000"
 4419      6700
 4420              	.LASF158:
 4421 08ff 43464752 		.ascii	"CFGR2\000"
 4421      3200
 4422              	.LASF3:
 4423 0905 75696E74 		.ascii	"uint8_t\000"
 4423      385F7400 
 4424              	.LASF94:
 4425 090d 5243435F 		.ascii	"RCC_IRQn\000"
 4425      4952516E 
 4425      00
 4426              	.LASF198:
 4427 0916 6462675F 		.ascii	"dbg_check_lock_from_isr\000"
 4427      63686563 
 4427      6B5F6C6F 
 4427      636B5F66 
 4427      726F6D5F 
 4428              	.LASF28:
 4429 092e 705F7072 		.ascii	"p_prio\000"
 4429      696F00
 4430              	.LASF57:
 4431 0935 4576656E 		.ascii	"EventListener\000"
 4431      744C6973 
 4431      74656E65 
 4431      7200
 4432              	.LASF66:
 4433 0943 77746F62 		.ascii	"wtobjp\000"
 4433      6A7000
 4434              	.LASF106:
 4435 094a 444D4131 		.ascii	"DMA1_Channel7_IRQn\000"
 4435      5F436861 
 4435      6E6E656C 
 4435      375F4952 
 4435      516E00
 4436              	.LASF196:
 4437 095d 73645F6C 		.ascii	"sd_lld_stop\000"
ARM GAS  /tmp/cctPMLcj.s 			page 87


 4437      6C645F73 
 4437      746F7000 
 4438              	.LASF150:
 4439 0969 43464752 		.ascii	"CFGR\000"
 4439      00
 4440              	.LASF208:
 4441 096e 2E2E2F2E 		.ascii	"../../os/hal/platforms/STM32/USARTv1/serial_lld.c\000"
 4441      2E2F6F73 
 4441      2F68616C 
 4441      2F706C61 
 4441      74666F72 
 4442              	.LASF121:
 4443 09a0 49324331 		.ascii	"I2C1_ER_IRQn\000"
 4443      5F45525F 
 4443      4952516E 
 4443      00
 4444              	.LASF92:
 4445 09ad 5254435F 		.ascii	"RTC_IRQn\000"
 4445      4952516E 
 4445      00
 4446              	.LASF133:
 4447 09b6 53504933 		.ascii	"SPI3_IRQn\000"
 4447      5F495251 
 4447      6E00
 4448              	.LASF77:
 4449 09c0 715F6C69 		.ascii	"q_link\000"
 4449      6E6B00
 4450              	.LASF118:
 4451 09c7 54494D33 		.ascii	"TIM3_IRQn\000"
 4451      5F495251 
 4451      6E00
 4452              	.LASF55:
 4453 09d1 6D5F6F77 		.ascii	"m_owner\000"
 4453      6E657200 
 4454              	.LASF148:
 4455 09d9 43414E32 		.ascii	"CAN2_SCE_IRQn\000"
 4455      5F534345 
 4455      5F495251 
 4455      6E00
 4456              	.LASF29:
 4457 09e7 705F6374 		.ascii	"p_ctx\000"
 4457      7800
 4458              	.LASF39:
 4459 09ed 705F7761 		.ascii	"p_waiting\000"
 4459      6974696E 
 4459      6700
 4460              	.LASF153:
 4461 09f7 41484245 		.ascii	"AHBENR\000"
 4461      4E5200
 4462              	.LASF96:
 4463 09fe 45585449 		.ascii	"EXTI1_IRQn\000"
 4463      315F4952 
 4463      516E00
 4464              		.ident	"GCC: (GNU Tools for ARM Embedded Processors) 4.7.4 20130913 (release) [ARM/embedded-4_7-br
ARM GAS  /tmp/cctPMLcj.s 			page 88


DEFINED SYMBOLS
                            *ABS*:00000000 serial_lld.c
     /tmp/cctPMLcj.s:19     .text.notify2:00000000 $t
     /tmp/cctPMLcj.s:24     .text.notify2:00000000 notify2
     /tmp/cctPMLcj.s:46     .text.VectorD8:00000000 $t
     /tmp/cctPMLcj.s:52     .text.VectorD8:00000000 VectorD8
     /tmp/cctPMLcj.s:358    .text.VectorD8:00000148 $d
     /tmp/cctPMLcj.s:368    .text.sd_lld_init:00000000 $t
     /tmp/cctPMLcj.s:374    .text.sd_lld_init:00000000 sd_lld_init
     /tmp/cctPMLcj.s:601    .bss.SD2:00000000 .LANCHOR0
     /tmp/cctPMLcj.s:403    .text.sd_lld_start:00000000 $t
     /tmp/cctPMLcj.s:409    .text.sd_lld_start:00000000 sd_lld_start
     /tmp/cctPMLcj.s:513    .text.sd_lld_start:00000074 $d
     /tmp/cctPMLcj.s:519    .text.sd_lld_stop:00000000 $t
     /tmp/cctPMLcj.s:525    .text.sd_lld_stop:00000000 sd_lld_stop
     /tmp/cctPMLcj.s:583    .text.sd_lld_stop:00000030 $d
     /tmp/cctPMLcj.s:604    .bss.SD2:00000000 SD2
     /tmp/cctPMLcj.s:589    .rodata.default_config:00000000 $d
     /tmp/cctPMLcj.s:593    .rodata.default_config:00000000 default_config
     /tmp/cctPMLcj.s:600    .bss.SD2:00000000 $d
                     .debug_frame:00000010 $d
     /tmp/cctPMLcj.s:367    .text.VectorD8:00000154 $t
     /tmp/cctPMLcj.s:518    .text.sd_lld_start:0000007c $t
     /tmp/cctPMLcj.s:588    .text.sd_lld_stop:00000034 $t

UNDEFINED SYMBOLS
dbg_check_enter_isr
dbg_check_lock_from_isr
sdIncomingDataI
chEvtBroadcastFlagsI
dbg_check_unlock_from_isr
dbg_check_leave_isr
_port_irq_epilogue
chOQGetI
sdObjectInit
nvicEnableVector
nvicDisableVector
