ARM GAS  /tmp/cctPMLcj.s 			page 1


   1              		.syntax unified
   2              		.cpu cortex-m3
   3              		.fpu softvfp
   4              		.eabi_attribute 20, 1
   5              		.eabi_attribute 21, 1
   6              		.eabi_attribute 23, 3
   7              		.eabi_attribute 24, 1
   8              		.eabi_attribute 25, 1
   9              		.eabi_attribute 26, 1
  10              		.eabi_attribute 30, 2
  11              		.eabi_attribute 34, 1
  12              		.eabi_attribute 18, 4
  13              		.thumb
  14              		.file	"serial_lld.c"
  15              		.text
  16              	.Ltext0:
  17              		.cfi_sections	.debug_frame
  18              		.section	.text.notify2,"ax",%progbits
  19              		.align	2
  20              		.p2align 4,,15
  21              		.thumb
  22              		.thumb_func
  23              		.type	notify2, %function
  24              	notify2:
  25              	.LFB67:
  26              		.file 1 "../../os/hal/platforms/STM32/USARTv1/serial_lld.c"
  27              		.loc 1 211 0
  28              		.cfi_startproc
  29              		@ args = 0, pretend = 0, frame = 0
  30              		@ frame_needed = 0, uses_anonymous_args = 0
  31              		@ link register save eliminated.
  32              	.LVL0:
  33              		.loc 1 214 0
  34 0000 4FF48843 		mov	r3, #17408
  35 0004 C4F20003 		movt	r3, 16384
  36 0008 9A89     		ldrh	r2, [r3, #12]
  37 000a 90B2     		uxth	r0, r2
  38              	.LVL1:
  39 000c 40F08001 		orr	r1, r0, #128
  40 0010 9981     		strh	r1, [r3, #12]	@ movhi
  41 0012 7047     		bx	lr
  42              		.cfi_endproc
  43              	.LFE67:
  44              		.size	notify2, .-notify2
  45 0014 AFF30080 		.section	.text.VectorD8,"ax",%progbits
  45      AFF30080 
  45      AFF30080 
  46              		.align	2
  47              		.p2align 4,,15
  48              		.global	VectorD8
  49              		.thumb
  50              		.thumb_func
  51              		.type	VectorD8, %function
  52              	VectorD8:
  53              	.LFB68:
  54              		.loc 1 282 0
  55              		.cfi_startproc
ARM GAS  /tmp/cctPMLcj.s 			page 2


  56              		@ args = 0, pretend = 0, frame = 0
  57              		@ frame_needed = 0, uses_anonymous_args = 0
  58 0000 F8B5     		push	{r3, r4, r5, r6, r7, lr}
  59              	.LCFI0:
  60              		.cfi_def_cfa_offset 24
  61              		.cfi_offset 3, -24
  62              		.cfi_offset 4, -20
  63              		.cfi_offset 5, -16
  64              		.cfi_offset 6, -12
  65              		.cfi_offset 7, -8
  66              		.cfi_offset 14, -4
  67              	.LBB26:
  68              	.LBB27:
  69              		.loc 1 155 0
  70 0002 514F     		ldr	r7, .L49
  71              	.LBE27:
  72              	.LBE26:
  73              		.loc 1 284 0
  74 0004 FFF7FEFF 		bl	dbg_check_enter_isr
  75              	.LVL2:
  76              	.LBB41:
  77              	.LBB39:
  78              		.loc 1 155 0
  79 0008 7D6F     		ldr	r5, [r7, #116]
  80              	.LVL3:
  81              		.loc 1 156 0
  82 000a AE89     		ldrh	r6, [r5, #12]
  83              		.loc 1 157 0
  84 000c 2C88     		ldrh	r4, [r5, #0]
  85              		.loc 1 156 0
  86 000e B6B2     		uxth	r6, r6
  87              	.LVL4:
  88              		.loc 1 157 0
  89 0010 A4B2     		uxth	r4, r4
  90              	.LVL5:
  91              		.loc 1 160 0
  92 0012 04F48073 		and	r3, r4, #256
  93 0016 98B2     		uxth	r0, r3
  94 0018 0028     		cmp	r0, #0
  95 001a 62D1     		bne	.L46
  96              	.L3:
  97              	.LBB28:
  98              		.loc 1 168 0
  99 001c 2023     		movs	r3, #32
 100              	.LVL6:
 101              	@ 168 "../../os/hal/platforms/STM32/USARTv1/serial_lld.c" 1
 102 001e 83F31188 		msr     BASEPRI, r3
 103              	@ 0 "" 2
 104              	.LVL7:
 105              		.thumb
 106              	.LBE28:
 107 0022 FFF7FEFF 		bl	dbg_check_lock_from_isr
 108              	.LVL8:
 109              		.loc 1 169 0
 110 0026 04F02001 		and	r1, r4, #32
 111 002a 8AB2     		uxth	r2, r1
 112 002c 5AB9     		cbnz	r2, .L34
ARM GAS  /tmp/cctPMLcj.s 			page 3


 113 002e 28E0     		b	.L4
 114              	.LVL9:
 115              	.L5:
 116              		.loc 1 173 0
 117 0030 A988     		ldrh	r1, [r5, #4]
 118 0032 4548     		ldr	r0, .L49
 119 0034 C9B2     		uxtb	r1, r1
 120 0036 FFF7FEFF 		bl	sdIncomingDataI
 121              	.LVL10:
 122              		.loc 1 174 0
 123 003a 2888     		ldrh	r0, [r5, #0]
 124 003c 84B2     		uxth	r4, r0
 125              	.LVL11:
 126              		.loc 1 169 0
 127 003e 04F02003 		and	r3, r4, #32
 128 0042 9AB2     		uxth	r2, r3
 129 0044 EAB1     		cbz	r2, .L4
 130              	.LVL12:
 131              	.L34:
 132              		.loc 1 171 0
 133 0046 2307     		lsls	r3, r4, #28
 134 0048 F2D0     		beq	.L5
 135              	.LVL13:
 136              	.LBB29:
 137              	.LBB30:
 138              		.loc 1 138 0
 139 004a 04F00803 		and	r3, r4, #8
 140 004e 98B2     		uxth	r0, r3
 141              		.loc 1 142 0
 142 0050 04F00202 		and	r2, r4, #2
 143              		.loc 1 139 0
 144 0054 0028     		cmp	r0, #0
 145 0056 14BF     		ite	ne
 146 0058 8021     		movne	r1, #128
 147 005a 0021     		moveq	r1, #0
 148              	.LVL14:
 149              		.loc 1 142 0
 150 005c 93B2     		uxth	r3, r2
 151              		.loc 1 140 0
 152 005e 14F0010F 		tst	r4, #1
 153              		.loc 1 144 0
 154 0062 04F00404 		and	r4, r4, #4
 155              	.LVL15:
 156              		.loc 1 146 0
 157 0066 3948     		ldr	r0, .L49+4
 158              		.loc 1 141 0
 159 0068 18BF     		it	ne
 160 006a 41F02001 		orrne	r1, r1, #32
 161              	.LVL16:
 162              		.loc 1 144 0
 163 006e A2B2     		uxth	r2, r4
 164              		.loc 1 142 0
 165 0070 0BB1     		cbz	r3, .L8
 166              		.loc 1 143 0
 167 0072 41F04001 		orr	r1, r1, #64
 168              	.LVL17:
 169              	.L8:
ARM GAS  /tmp/cctPMLcj.s 			page 4


 170              		.loc 1 144 0
 171 0076 0AB1     		cbz	r2, .L9
 172              		.loc 1 145 0
 173 0078 41F48071 		orr	r1, r1, #256
 174              	.LVL18:
 175              	.L9:
 176              		.loc 1 146 0
 177 007c FFF7FEFF 		bl	chEvtBroadcastFlagsI
 178              	.LVL19:
 179 0080 D6E7     		b	.L5
 180              	.LVL20:
 181              	.L4:
 182              	.LBE30:
 183              	.LBE29:
 184              		.loc 1 176 0
 185 0082 FFF7FEFF 		bl	dbg_check_unlock_from_isr
 186              	.LVL21:
 187              	.LBB31:
 188 0086 0023     		movs	r3, #0
 189              	.LVL22:
 190              	@ 176 "../../os/hal/platforms/STM32/USARTv1/serial_lld.c" 1
 191 0088 83F31188 		msr     BASEPRI, r3
 192              	@ 0 "" 2
 193              	.LVL23:
 194              		.thumb
 195              	.LBE31:
 196              		.loc 1 179 0
 197 008c 06F08001 		and	r1, r6, #128
 198 0090 88B2     		uxth	r0, r1
 199 0092 20B1     		cbz	r0, .L11
 200 0094 04F08003 		and	r3, r4, #128
 201              	.LVL24:
 202 0098 9AB2     		uxth	r2, r3
 203 009a 002A     		cmp	r2, #0
 204 009c 37D1     		bne	.L47
 205              	.LVL25:
 206              	.L11:
 207              		.loc 1 193 0
 208 009e 04F04004 		and	r4, r4, #64
 209 00a2 A4B2     		uxth	r4, r4
 210 00a4 BCB1     		cbz	r4, .L14
 211              	.LBB32:
 212              		.loc 1 194 0
 213 00a6 2023     		movs	r3, #32
 214              	.LVL26:
 215              	@ 194 "../../os/hal/platforms/STM32/USARTv1/serial_lld.c" 1
 216 00a8 83F31188 		msr     BASEPRI, r3
 217              	@ 0 "" 2
 218              	.LVL27:
 219              		.thumb
 220              	.LBE32:
 221 00ac FFF7FEFF 		bl	dbg_check_lock_from_isr
 222              	.LVL28:
 223              		.loc 1 195 0
 224 00b0 2648     		ldr	r0, .L49+4
 225 00b2 1021     		movs	r1, #16
 226 00b4 FFF7FEFF 		bl	chEvtBroadcastFlagsI
ARM GAS  /tmp/cctPMLcj.s 			page 5


 227              	.LVL29:
 228              		.loc 1 196 0
 229 00b8 FFF7FEFF 		bl	dbg_check_unlock_from_isr
 230              	.LVL30:
 231              	.LBB33:
 232 00bc 0023     		movs	r3, #0
 233              	.LVL31:
 234              	@ 196 "../../os/hal/platforms/STM32/USARTv1/serial_lld.c" 1
 235 00be 83F31188 		msr     BASEPRI, r3
 236              	@ 0 "" 2
 237              	.LVL32:
 238              		.thumb
 239              	.LBE33:
 240              		.loc 1 197 0
 241 00c2 4FF6BF72 		movw	r2, #65471
 242 00c6 3240     		ands	r2, r2, r6
 243 00c8 AA81     		strh	r2, [r5, #12]	@ movhi
 244              		.loc 1 198 0
 245 00ca 2988     		ldrh	r1, [r5, #0]
 246 00cc 21F04000 		bic	r0, r1, #64
 247 00d0 0304     		lsls	r3, r0, #16
 248              	.LVL33:
 249 00d2 1A0C     		lsrs	r2, r3, #16
 250 00d4 2A80     		strh	r2, [r5, #0]	@ movhi
 251              	.LVL34:
 252              	.L14:
 253              	.LBE39:
 254              	.LBE41:
 255              		.loc 1 288 0
 256 00d6 FFF7FEFF 		bl	dbg_check_leave_isr
 257              	.LVL35:
 258              		.loc 1 289 0
 259 00da BDE8F840 		pop	{r3, r4, r5, r6, r7, lr}
 260              		.loc 1 288 0
 261 00de FFF7FEBF 		b	_port_irq_epilogue
 262              	.LVL36:
 263              	.L46:
 264              	.LBB42:
 265              	.LBB40:
 266              	.LBB34:
 267              		.loc 1 161 0
 268 00e2 2023     		movs	r3, #32
 269              	.LVL37:
 270              	@ 161 "../../os/hal/platforms/STM32/USARTv1/serial_lld.c" 1
 271 00e4 83F31188 		msr     BASEPRI, r3
 272              	@ 0 "" 2
 273              	.LVL38:
 274              		.thumb
 275              	.LBE34:
 276 00e8 FFF7FEFF 		bl	dbg_check_lock_from_isr
 277              	.LVL39:
 278              		.loc 1 162 0
 279 00ec 381D     		adds	r0, r7, #4
 280 00ee 4FF40071 		mov	r1, #512
 281 00f2 FFF7FEFF 		bl	chEvtBroadcastFlagsI
 282              	.LVL40:
 283              		.loc 1 163 0
ARM GAS  /tmp/cctPMLcj.s 			page 6


 284 00f6 FFF7FEFF 		bl	dbg_check_unlock_from_isr
 285              	.LVL41:
 286              	.LBB35:
 287 00fa 0023     		movs	r3, #0
 288              	.LVL42:
 289              	@ 163 "../../os/hal/platforms/STM32/USARTv1/serial_lld.c" 1
 290 00fc 83F31188 		msr     BASEPRI, r3
 291              	@ 0 "" 2
 292              	.LVL43:
 293              		.thumb
 294              	.LBE35:
 295              		.loc 1 164 0
 296 0100 2988     		ldrh	r1, [r5, #0]
 297 0102 21F48072 		bic	r2, r1, #256
 298 0106 1304     		lsls	r3, r2, #16
 299              	.LVL44:
 300 0108 180C     		lsrs	r0, r3, #16
 301 010a 2880     		strh	r0, [r5, #0]	@ movhi
 302 010c 86E7     		b	.L3
 303              	.LVL45:
 304              	.L47:
 305              	.LBB36:
 306              	.LBB37:
 307              		.loc 1 181 0
 308 010e 2023     		movs	r3, #32
 309              	.LVL46:
 310              	@ 181 "../../os/hal/platforms/STM32/USARTv1/serial_lld.c" 1
 311 0110 83F31188 		msr     BASEPRI, r3
 312              	@ 0 "" 2
 313              	.LVL47:
 314              		.thumb
 315              	.LBE37:
 316 0114 FFF7FEFF 		bl	dbg_check_lock_from_isr
 317              	.LVL48:
 318              		.loc 1 182 0
 319 0118 0D48     		ldr	r0, .L49+8
 320 011a FFF7FEFF 		bl	chOQGetI
 321              	.LVL49:
 322              		.loc 1 183 0
 323 011e 0028     		cmp	r0, #0
 324 0120 07DB     		blt	.L48
 325              		.loc 1 188 0
 326 0122 81B2     		uxth	r1, r0
 327 0124 A980     		strh	r1, [r5, #4]	@ movhi
 328              	.LVL50:
 329              	.L13:
 330              		.loc 1 189 0
 331 0126 FFF7FEFF 		bl	dbg_check_unlock_from_isr
 332              	.LVL51:
 333              	.LBB38:
 334 012a 0023     		movs	r3, #0
 335              	@ 189 "../../os/hal/platforms/STM32/USARTv1/serial_lld.c" 1
 336 012c 83F31188 		msr     BASEPRI, r3
 337              	@ 0 "" 2
 338              	.LVL52:
 339              		.thumb
 340 0130 B5E7     		b	.L11
ARM GAS  /tmp/cctPMLcj.s 			page 7


 341              	.LVL53:
 342              	.L48:
 343              	.LBE38:
 344              		.loc 1 184 0
 345 0132 0648     		ldr	r0, .L49+4
 346              	.LVL54:
 347 0134 0821     		movs	r1, #8
 348 0136 FFF7FEFF 		bl	chEvtBroadcastFlagsI
 349              	.LVL55:
 350              		.loc 1 185 0
 351 013a 26F0C000 		bic	r0, r6, #192
 352 013e 40F04003 		orr	r3, r0, #64
 353 0142 AB81     		strh	r3, [r5, #12]	@ movhi
 354 0144 EFE7     		b	.L13
 355              	.L50:
 356 0146 00BF     		.align	2
 357              	.L49:
 358 0148 00000000 		.word	.LANCHOR0
 359 014c 04000000 		.word	.LANCHOR0+4
 360 0150 30000000 		.word	.LANCHOR0+48
 361              	.LBE36:
 362              	.LBE40:
 363              	.LBE42:
 364              		.cfi_endproc
 365              	.LFE68:
 366              		.size	VectorD8, .-VectorD8
 367 0154 AFF30080 		.section	.text.sd_lld_init,"ax",%progbits
 367      AFF30080 
 367      AFF30080 
 368              		.align	2
 369              		.p2align 4,,15
 370              		.global	sd_lld_init
 371              		.thumb
 372              		.thumb_func
 373              		.type	sd_lld_init, %function
 374              	sd_lld_init:
 375              	.LFB69:
 376              		.loc 1 377 0
 377              		.cfi_startproc
 378              		@ args = 0, pretend = 0, frame = 0
 379              		@ frame_needed = 0, uses_anonymous_args = 0
 380 0000 10B5     		push	{r4, lr}
 381              	.LCFI1:
 382              		.cfi_def_cfa_offset 8
 383              		.cfi_offset 4, -8
 384              		.cfi_offset 14, -4
 385              		.loc 1 385 0
 386 0002 40F20004 		movw	r4, #:lower16:.LANCHOR0
 387 0006 C0F20004 		movt	r4, #:upper16:.LANCHOR0
 388 000a 40F20002 		movw	r2, #:lower16:notify2
 389 000e 2046     		mov	r0, r4
 390 0010 0021     		movs	r1, #0
 391 0012 C0F20002 		movt	r2, #:upper16:notify2
 392 0016 FFF7FEFF 		bl	sdObjectInit
 393              	.LVL56:
 394              		.loc 1 386 0
 395 001a 4FF48843 		mov	r3, #17408
ARM GAS  /tmp/cctPMLcj.s 			page 8


 396 001e C4F20003 		movt	r3, 16384
 397 0022 6367     		str	r3, [r4, #116]
 398 0024 10BD     		pop	{r4, pc}
 399              		.cfi_endproc
 400              	.LFE69:
 401              		.size	sd_lld_init, .-sd_lld_init
 402 0026 00BFAFF3 		.section	.text.sd_lld_start,"ax",%progbits
 402      0080AFF3 
 402      0080
 403              		.align	2
 404              		.p2align 4,,15
 405              		.global	sd_lld_start
 406              		.thumb
 407              		.thumb_func
 408              		.type	sd_lld_start, %function
 409              	sd_lld_start:
 410              	.LFB70:
 411              		.loc 1 420 0
 412              		.cfi_startproc
 413              		@ args = 0, pretend = 0, frame = 0
 414              		@ frame_needed = 0, uses_anonymous_args = 0
 415              	.LVL57:
 416 0000 38B5     		push	{r3, r4, r5, lr}
 417              	.LCFI2:
 418              		.cfi_def_cfa_offset 16
 419              		.cfi_offset 3, -16
 420              		.cfi_offset 4, -12
 421              		.cfi_offset 5, -8
 422              		.cfi_offset 14, -4
 423              		.loc 1 425 0
 424 0002 037A     		ldrb	r3, [r0, #8]	@ zero_extendqisi2
 425              		.loc 1 423 0
 426 0004 1B4C     		ldr	r4, .L59
 427              		.loc 1 420 0
 428 0006 0546     		mov	r5, r0
 429              		.loc 1 423 0
 430 0008 0029     		cmp	r1, #0
 431 000a 18BF     		it	ne
 432 000c 0C46     		movne	r4, r1
 433              		.loc 1 425 0
 434 000e 012B     		cmp	r3, #1
 435 0010 1FD0     		beq	.L58
 436              	.LVL58:
 437              	.L54:
 438              	.LBB45:
 439              	.LBB46:
 440              		.loc 1 101 0
 441 0012 2068     		ldr	r0, [r4, #0]
 442 0014 4AF68001 		movw	r1, #43136
 443 0018 C0F21211 		movt	r1, 274
 444              		.loc 1 93 0
 445 001c 6B6F     		ldr	r3, [r5, #116]
 446              	.LVL59:
 447              		.loc 1 101 0
 448 001e B1FBF0F2 		udiv	r2, r1, r0
 449 0022 90B2     		uxth	r0, r2
 450 0024 1881     		strh	r0, [r3, #8]	@ movhi
ARM GAS  /tmp/cctPMLcj.s 			page 9


 451              		.loc 1 108 0
 452 0026 A288     		ldrh	r2, [r4, #4]
 453              		.loc 1 106 0
 454 0028 E088     		ldrh	r0, [r4, #6]
 455              		.loc 1 107 0
 456 002a 2189     		ldrh	r1, [r4, #8]
 457              		.loc 1 108 0
 458 002c 42F40452 		orr	r2, r2, #8448
 459              		.loc 1 106 0
 460 0030 40F04000 		orr	r0, r0, #64
 461 0034 80B2     		uxth	r0, r0
 462              		.loc 1 107 0
 463 0036 41F00101 		orr	r1, r1, #1
 464              		.loc 1 108 0
 465 003a 42F02C02 		orr	r2, r2, #44
 466              		.loc 1 106 0
 467 003e 1882     		strh	r0, [r3, #16]	@ movhi
 468              		.loc 1 108 0
 469 0040 92B2     		uxth	r2, r2
 470              		.loc 1 107 0
 471 0042 89B2     		uxth	r1, r1
 472              		.loc 1 111 0
 473 0044 0020     		movs	r0, #0
 474              		.loc 1 107 0
 475 0046 9982     		strh	r1, [r3, #20]	@ movhi
 476              		.loc 1 108 0
 477 0048 9A81     		strh	r2, [r3, #12]	@ movhi
 478              		.loc 1 111 0
 479 004a 1880     		strh	r0, [r3, #0]	@ movhi
 480              		.loc 1 112 0
 481 004c 1A88     		ldrh	r2, [r3, #0]
 482              		.loc 1 113 0
 483 004e 9B88     		ldrh	r3, [r3, #4]
 484              	.LVL60:
 485 0050 38BD     		pop	{r3, r4, r5, pc}
 486              	.LVL61:
 487              	.L58:
 488              	.LBE46:
 489              	.LBE45:
 490              		.loc 1 434 0
 491 0052 0948     		ldr	r0, .L59+4
 492              	.LVL62:
 493 0054 8542     		cmp	r5, r0
 494 0056 DCD1     		bne	.L54
 495              		.loc 1 435 0
 496 0058 4FF48051 		mov	r1, #4096
 497              	.LVL63:
 498 005c C4F20201 		movt	r1, 16386
 499 0060 CA69     		ldr	r2, [r1, #28]
 500              		.loc 1 436 0
 501 0062 2620     		movs	r0, #38
 502              		.loc 1 435 0
 503 0064 42F40033 		orr	r3, r2, #131072
 504 0068 CB61     		str	r3, [r1, #28]
 505              		.loc 1 436 0
 506 006a C021     		movs	r1, #192
 507 006c FFF7FEFF 		bl	nvicEnableVector
ARM GAS  /tmp/cctPMLcj.s 			page 10


 508              	.LVL64:
 509 0070 CFE7     		b	.L54
 510              	.L60:
 511 0072 00BF     		.align	2
 512              	.L59:
 513 0074 00000000 		.word	.LANCHOR1
 514 0078 00000000 		.word	.LANCHOR0
 515              		.cfi_endproc
 516              	.LFE70:
 517              		.size	sd_lld_start, .-sd_lld_start
 518 007c AFF30080 		.section	.text.sd_lld_stop,"ax",%progbits
 519              		.align	2
 520              		.p2align 4,,15
 521              		.global	sd_lld_stop
 522              		.thumb
 523              		.thumb_func
 524              		.type	sd_lld_stop, %function
 525              	sd_lld_stop:
 526              	.LFB71:
 527              		.loc 1 481 0
 528              		.cfi_startproc
 529              		@ args = 0, pretend = 0, frame = 0
 530              		@ frame_needed = 0, uses_anonymous_args = 0
 531              		@ link register save eliminated.
 532              	.LVL65:
 533              		.loc 1 483 0
 534 0000 037A     		ldrb	r3, [r0, #8]	@ zero_extendqisi2
 535 0002 022B     		cmp	r3, #2
 536 0004 00D0     		beq	.L65
 537              	.L61:
 538 0006 7047     		bx	lr
 539              	.L65:
 540              		.loc 1 493 0
 541 0008 094B     		ldr	r3, .L66
 542              		.loc 1 484 0
 543 000a 416F     		ldr	r1, [r0, #116]
 544              	.LVL66:
 545              	.LBB47:
 546              	.LBB48:
 547              		.loc 1 124 0
 548 000c 0022     		movs	r2, #0
 549              	.LBE48:
 550              	.LBE47:
 551              		.loc 1 493 0
 552 000e 9842     		cmp	r0, r3
 553              	.LBB50:
 554              	.LBB49:
 555              		.loc 1 124 0
 556 0010 8A81     		strh	r2, [r1, #12]	@ movhi
 557              		.loc 1 125 0
 558 0012 0A82     		strh	r2, [r1, #16]	@ movhi
 559              		.loc 1 126 0
 560 0014 8A82     		strh	r2, [r1, #20]	@ movhi
 561              	.LBE49:
 562              	.LBE50:
 563              		.loc 1 493 0
 564 0016 F6D1     		bne	.L61
ARM GAS  /tmp/cctPMLcj.s 			page 11


 565              		.loc 1 494 0
 566 0018 4FF48051 		mov	r1, #4096
 567              	.LVL67:
 568 001c C4F20201 		movt	r1, 16386
 569 0020 CA69     		ldr	r2, [r1, #28]
 570              		.loc 1 495 0
 571 0022 2620     		movs	r0, #38
 572              	.LVL68:
 573              		.loc 1 494 0
 574 0024 22F40033 		bic	r3, r2, #131072
 575 0028 CB61     		str	r3, [r1, #28]
 576              		.loc 1 528 0
 577              		.loc 1 495 0
 578 002a FFF7FEBF 		b	nvicDisableVector
 579              	.LVL69:
 580              	.L67:
 581 002e 00BF     		.align	2
 582              	.L66:
 583 0030 00000000 		.word	.LANCHOR0
 584              		.cfi_endproc
 585              	.LFE71:
 586              		.size	sd_lld_stop, .-sd_lld_stop
 587              		.global	SD2
 588 0034 AFF30080 		.section	.rodata.default_config,"a",%progbits
 588      AFF30080 
 588      AFF30080 
 589              		.align	2
 590              		.set	.LANCHOR1,. + 0
 591              		.type	default_config, %object
 592              		.size	default_config, 12
 593              	default_config:
 594 0000 00960000 		.word	38400
 595 0004 0000     		.short	0
 596 0006 0040     		.short	16384
 597 0008 0000     		.short	0
 598 000a 0000     		.space	2
 599              		.section	.bss.SD2,"aw",%nobits
 600              		.align	2
 601              		.set	.LANCHOR0,. + 0
 602              		.type	SD2, %object
 603              		.size	SD2, 120
 604              	SD2:
 605 0000 00000000 		.space	120
 605      00000000 
 605      00000000 
 605      00000000 
 605      00000000 
 606              		.text
 607              	.Letext0:
 608              		.file 2 "/usr/bin/../lib/gcc/arm-none-eabi/4.7.4/include/stddef.h"
 609              		.file 3 "/usr/bin/../lib/gcc/arm-none-eabi/4.7.4/../../../../arm-none-eabi/include/stdint.h"
 610              		.file 4 "../../os/ports/GCC/ARMCMx/chtypes.h"
 611              		.file 5 "../../os/kernel/include/chlists.h"
 612              		.file 6 "../../os/kernel/include/chthreads.h"
 613              		.file 7 "../../os/ports/GCC/ARMCMx/chcore_v7m.h"
 614              		.file 8 "../../os/kernel/include/chmtx.h"
 615              		.file 9 "../../os/kernel/include/chevents.h"
ARM GAS  /tmp/cctPMLcj.s 			page 12


 616              		.file 10 "../../os/kernel/include/chqueues.h"
 617              		.file 11 "../../os/hal/platforms/STM32F1xx/stm32f10x.h"
 618              		.file 12 "../../os/hal/include/serial.h"
 619              		.file 13 "../../os/hal/platforms/STM32/USARTv1/serial_lld.h"
 620              		.file 14 "../../os/kernel/include/chdebug.h"
 621              		.file 15 "../../os/ports/common/ARMCMx/nvic.h"
 622              		.file 16 "../../os/ports/common/ARMCMx/CMSIS/include/core_cm3.h"