ARM GAS  /tmp/ccWUSqAh.s 			page 1


   1              		.syntax unified
   2              		.cpu cortex-m3
   3              		.fpu softvfp
   4              		.eabi_attribute 20, 1
   5              		.eabi_attribute 21, 1
   6              		.eabi_attribute 23, 3
   7              		.eabi_attribute 24, 1
   8              		.eabi_attribute 25, 1
   9              		.eabi_attribute 26, 1
  10              		.eabi_attribute 30, 2
  11              		.eabi_attribute 34, 1
  12              		.eabi_attribute 18, 4
  13              		.thumb
  14              		.file	"chprintf.c"
  15              		.text
  16              	.Ltext0:
  17              		.cfi_sections	.debug_frame
  18              		.section	.text.long_to_string_with_divisor.constprop.0,"ax",%progbits
  19              		.align	2
  20              		.p2align 4,,15
  21              		.thumb
  22              		.thumb_func
  23              		.type	long_to_string_with_divisor.constprop.0, %function
  24              	long_to_string_with_divisor.constprop.0:
  25              	.LFB11:
  26              		.file 1 "../../os/various/chprintf.c"
  27              		.loc 1 36 0
  28              		.cfi_startproc
  29              		@ args = 0, pretend = 0, frame = 0
  30              		@ frame_needed = 0, uses_anonymous_args = 0
  31              		@ link register save eliminated.
  32              	.LVL0:
  33 0000 F0B4     		push	{r4, r5, r6, r7}
  34              	.LCFI0:
  35              		.cfi_def_cfa_offset 16
  36              		.cfi_offset 4, -16
  37              		.cfi_offset 5, -12
  38              		.cfi_offset 6, -8
  39              		.cfi_offset 7, -4
  40              		.loc 1 51 0
  41 0002 00F10B0C 		add	ip, r0, #11
  42              		.loc 1 36 0
  43 0006 0746     		mov	r7, r0
  44              	.LVL1:
  45 0008 00F10A05 		add	r5, r0, #10
  46 000c 0C46     		mov	r4, r1
  47              	.LVL2:
  48              	.L3:
  49              		.loc 1 53 0
  50 000e B1FBF2F6 		udiv	r6, r1, r2
  51 0012 02FB1611 		mls	r1, r2, r6, r1
  52              	.LVL3:
  53              		.loc 1 54 0
  54 0016 01F13003 		add	r3, r1, #48
  55              	.LVL4:
  56              		.loc 1 55 0
  57 001a 392B     		cmp	r3, #57
ARM GAS  /tmp/ccWUSqAh.s 			page 2


  58              		.loc 1 56 0
  59 001c C8BF     		it	gt
  60 001e 01F13703 		addgt	r3, r1, #55
  61              	.LVL5:
  62              		.loc 1 57 0
  63 0022 DBB2     		uxtb	r3, r3
  64              	.LVL6:
  65              		.loc 1 59 0
  66 0024 B4FBF2F4 		udiv	r4, r4, r2
  67              	.LVL7:
  68              		.loc 1 57 0
  69 0028 2846     		mov	r0, r5
  70              	.LVL8:
  71              		.loc 1 58 0
  72 002a 3146     		mov	r1, r6
  73              	.LVL9:
  74              		.loc 1 57 0
  75 002c 05F80139 		strb	r3, [r5], #-1
  76              	.LVL10:
  77              		.loc 1 59 0
  78 0030 002C     		cmp	r4, #0
  79 0032 ECD1     		bne	.L3
  80              	.LVL11:
  81              		.loc 1 61 0
  82 0034 C0EB0C02 		rsb	r2, r0, ip
  83              	.LVL12:
  84 0038 0146     		mov	r1, r0
  85              	.LVL13:
  86              		.loc 1 36 0
  87 003a B818     		adds	r0, r7, r2
  88              	.LVL14:
  89 003c FA43     		mvns	r2, r7
  90              	.LVL15:
  91 003e 8218     		adds	r2, r0, r2
  92 0040 D207     		lsls	r2, r2, #31
  93 0042 0AD5     		bpl	.L5
  94              	.LVL16:
  95              		.loc 1 63 0
  96 0044 07F8013B 		strb	r3, [r7], #1
  97              	.LVL17:
  98 0048 11F8013F 		ldrb	r3, [r1, #1]!	@ zero_extendqisi2
  99 004c 05E0     		b	.L5
 100              	.L15:
 101 004e 11F8013F 		ldrb	r3, [r1, #1]!	@ zero_extendqisi2
 102              	.LVL18:
 103 0052 7B70     		strb	r3, [r7, #1]
 104 0054 11F8013F 		ldrb	r3, [r1, #1]!	@ zero_extendqisi2
 105 0058 571C     		adds	r7, r2, #1
 106              	.LVL19:
 107              	.L5:
 108 005a 3A46     		mov	r2, r7
 109 005c 02F8013B 		strb	r3, [r2], #1
 110              		.loc 1 64 0
 111 0060 8242     		cmp	r2, r0
 112 0062 F4D1     		bne	.L15
 113              		.loc 1 67 0
 114 0064 F0BC     		pop	{r4, r5, r6, r7}
ARM GAS  /tmp/ccWUSqAh.s 			page 3


 115 0066 7047     		bx	lr
 116              		.cfi_endproc
 117              	.LFE11:
 118              		.size	long_to_string_with_divisor.constprop.0, .-long_to_string_with_divisor.constprop.0
 119 0068 AFF30080 		.section	.text.chvprintf,"ax",%progbits
 119      AFF30080 
 120              		.align	2
 121              		.p2align 4,,15
 122              		.global	chvprintf
 123              		.thumb
 124              		.thumb_func
 125              		.type	chvprintf, %function
 126              	chvprintf:
 127              	.LFB10:
 128              		.loc 1 111 0
 129              		.cfi_startproc
 130              		@ args = 0, pretend = 0, frame = 32
 131              		@ frame_needed = 0, uses_anonymous_args = 0
 132              	.LVL20:
 133 0000 2DE9F04F 		push	{r4, r5, r6, r7, r8, r9, sl, fp, lr}
 134              	.LCFI1:
 135              		.cfi_def_cfa_offset 36
 136              		.cfi_offset 4, -36
 137              		.cfi_offset 5, -32
 138              		.cfi_offset 6, -28
 139              		.cfi_offset 7, -24
 140              		.cfi_offset 8, -20
 141              		.cfi_offset 9, -16
 142              		.cfi_offset 10, -12
 143              		.cfi_offset 11, -8
 144              		.cfi_offset 14, -4
 145 0004 89B0     		sub	sp, sp, #36
 146              	.LCFI2:
 147              		.cfi_def_cfa_offset 72
 148              		.loc 1 131 0
 149 0006 05AB     		add	r3, sp, #20
 150              		.loc 1 235 0
 151 0008 0DF1150C 		add	ip, sp, #21
 152              		.loc 1 111 0
 153 000c 0546     		mov	r5, r0
 154 000e C3EB0C00 		rsb	r0, r3, ip
 155              	.LVL21:
 156              		.loc 1 131 0
 157 0012 0293     		str	r3, [sp, #8]
 158              		.loc 1 235 0
 159 0014 CDF804C0 		str	ip, [sp, #4]
 160              		.loc 1 111 0
 161 0018 0C46     		mov	r4, r1
 162 001a 9346     		mov	fp, r2
 163 001c 0390     		str	r0, [sp, #12]
 164              	.LVL22:
 165              	.L112:
 166              		.loc 1 124 0
 167 001e 2646     		mov	r6, r4
 168 0020 16F8011B 		ldrb	r1, [r6], #1	@ zero_extendqisi2
 169              	.LVL23:
 170              		.loc 1 125 0
ARM GAS  /tmp/ccWUSqAh.s 			page 4


 171 0024 59B1     		cbz	r1, .L16
 172              	.LVL24:
 173              	.L126:
 174              		.loc 1 127 0
 175 0026 2529     		cmp	r1, #37
 176 0028 0CD0     		beq	.L19
 177              		.loc 1 128 0
 178 002a 2C68     		ldr	r4, [r5, #0]
 179 002c 2846     		mov	r0, r5
 180 002e A368     		ldr	r3, [r4, #8]
 181              		.loc 1 124 0
 182 0030 3446     		mov	r4, r6
 183 0032 2646     		mov	r6, r4
 184              	.LVL25:
 185              		.loc 1 128 0
 186 0034 9847     		blx	r3
 187              	.LVL26:
 188              		.loc 1 124 0
 189 0036 16F8011B 		ldrb	r1, [r6], #1	@ zero_extendqisi2
 190              	.LVL27:
 191              		.loc 1 125 0
 192 003a 0029     		cmp	r1, #0
 193 003c F3D1     		bne	.L126
 194              	.LVL28:
 195              	.L16:
 196              		.loc 1 260 0
 197 003e 09B0     		add	sp, sp, #36
 198 0040 BDE8F08F 		pop	{r4, r5, r6, r7, r8, r9, sl, fp, pc}
 199              	.L19:
 200              	.LVL29:
 201              		.loc 1 134 0
 202 0044 6378     		ldrb	r3, [r4, #1]	@ zero_extendqisi2
 203 0046 2D2B     		cmp	r3, #45
 204 0048 00F08481 		beq	.L127
 205              		.loc 1 133 0
 206 004c 4FF00008 		mov	r8, #0
 207              	.LVL30:
 208              	.L21:
 209              		.loc 1 139 0
 210 0050 2E2B     		cmp	r3, #46
 211 0052 00F06581 		beq	.L22
 212              		.loc 1 139 0 is_stmt 0 discriminator 1
 213 0056 302B     		cmp	r3, #48
 214 0058 00F06281 		beq	.L22
 215              		.loc 1 138 0 is_stmt 1
 216 005c 2027     		movs	r7, #32
 217              	.LVL31:
 218              	.L23:
 219              		.loc 1 141 0
 220 005e 3446     		mov	r4, r6
 221              		.loc 1 143 0
 222 0060 0026     		movs	r6, #0
 223              	.LVL32:
 224 0062 08E0     		b	.L26
 225              	.LVL33:
 226              	.L128:
 227              		.loc 1 149 0
ARM GAS  /tmp/ccWUSqAh.s 			page 5


 228 0064 9BF80010 		ldrb	r1, [fp, #0]	@ zero_extendqisi2
 229              	.LVL34:
 230 0068 0BF1040B 		add	fp, fp, #4
 231              	.LVL35:
 232              	.L24:
 233              		.loc 1 152 0
 234 006c 06EB8606 		add	r6, r6, r6, lsl #2
 235              	.LVL36:
 236 0070 2378     		ldrb	r3, [r4, #0]	@ zero_extendqisi2
 237 0072 01EB4606 		add	r6, r1, r6, lsl #1
 238              	.LVL37:
 239              	.L26:
 240              		.loc 1 146 0
 241 0076 A3F13002 		sub	r2, r3, #48
 242              	.LVL38:
 243 007a D1B2     		uxtb	r1, r2
 244              		.loc 1 145 0
 245 007c 0134     		adds	r4, r4, #1
 246              	.LVL39:
 247              		.loc 1 146 0
 248 007e 0929     		cmp	r1, #9
 249 0080 F4D9     		bls	.L24
 250              	.LVL40:
 251              		.loc 1 148 0
 252 0082 2A2B     		cmp	r3, #42
 253 0084 EED0     		beq	.L128
 254              	.LVL41:
 255              		.loc 1 155 0
 256 0086 2E2B     		cmp	r3, #46
 257 0088 00F04E81 		beq	.L129
 258              		.loc 1 154 0
 259 008c 0021     		movs	r1, #0
 260              	.LVL42:
 261              	.L27:
 262              		.loc 1 169 0
 263 008e 6C2B     		cmp	r3, #108
 264 0090 00F03F81 		beq	.L30
 265              		.loc 1 169 0 is_stmt 0 discriminator 1
 266 0094 4C2B     		cmp	r3, #76
 267 0096 00F03C81 		beq	.L30
 268              	.LVL43:
 269              	.L32:
 270              		.loc 1 178 0 is_stmt 1
 271 009a A3F14400 		sub	r0, r3, #68
 272 009e 3428     		cmp	r0, #52
 273 00a0 00F23081 		bhi	.L33
 274 00a4 DFE810F0 		tbh	[pc, r0, lsl #1]
 275              	.L40:
 276 00a8 1E01     		.2byte	(.L34-.L40)/2
 277 00aa 2E01     		.2byte	(.L33-.L40)/2
 278 00ac 2E01     		.2byte	(.L33-.L40)/2
 279 00ae 2E01     		.2byte	(.L33-.L40)/2
 280 00b0 2E01     		.2byte	(.L33-.L40)/2
 281 00b2 1E01     		.2byte	(.L34-.L40)/2
 282 00b4 2E01     		.2byte	(.L33-.L40)/2
 283 00b6 2E01     		.2byte	(.L33-.L40)/2
 284 00b8 2E01     		.2byte	(.L33-.L40)/2
ARM GAS  /tmp/ccWUSqAh.s 			page 6


 285 00ba 2E01     		.2byte	(.L33-.L40)/2
 286 00bc 2E01     		.2byte	(.L33-.L40)/2
 287 00be 1C01     		.2byte	(.L35-.L40)/2
 288 00c0 2E01     		.2byte	(.L33-.L40)/2
 289 00c2 2E01     		.2byte	(.L33-.L40)/2
 290 00c4 2E01     		.2byte	(.L33-.L40)/2
 291 00c6 2E01     		.2byte	(.L33-.L40)/2
 292 00c8 2E01     		.2byte	(.L33-.L40)/2
 293 00ca 1A01     		.2byte	(.L63-.L40)/2
 294 00cc 2E01     		.2byte	(.L33-.L40)/2
 295 00ce 2E01     		.2byte	(.L33-.L40)/2
 296 00d0 0B01     		.2byte	(.L37-.L40)/2
 297 00d2 2E01     		.2byte	(.L33-.L40)/2
 298 00d4 2E01     		.2byte	(.L33-.L40)/2
 299 00d6 2E01     		.2byte	(.L33-.L40)/2
 300 00d8 2E01     		.2byte	(.L33-.L40)/2
 301 00da 2E01     		.2byte	(.L33-.L40)/2
 302 00dc 2E01     		.2byte	(.L33-.L40)/2
 303 00de 2E01     		.2byte	(.L33-.L40)/2
 304 00e0 2E01     		.2byte	(.L33-.L40)/2
 305 00e2 2E01     		.2byte	(.L33-.L40)/2
 306 00e4 2E01     		.2byte	(.L33-.L40)/2
 307 00e6 CE00     		.2byte	(.L38-.L40)/2
 308 00e8 1E01     		.2byte	(.L34-.L40)/2
 309 00ea 2E01     		.2byte	(.L33-.L40)/2
 310 00ec 2E01     		.2byte	(.L33-.L40)/2
 311 00ee 2E01     		.2byte	(.L33-.L40)/2
 312 00f0 2E01     		.2byte	(.L33-.L40)/2
 313 00f2 1E01     		.2byte	(.L34-.L40)/2
 314 00f4 2E01     		.2byte	(.L33-.L40)/2
 315 00f6 2E01     		.2byte	(.L33-.L40)/2
 316 00f8 2E01     		.2byte	(.L33-.L40)/2
 317 00fa 2E01     		.2byte	(.L33-.L40)/2
 318 00fc 2E01     		.2byte	(.L33-.L40)/2
 319 00fe 1C01     		.2byte	(.L35-.L40)/2
 320 0100 2E01     		.2byte	(.L33-.L40)/2
 321 0102 2E01     		.2byte	(.L33-.L40)/2
 322 0104 2E01     		.2byte	(.L33-.L40)/2
 323 0106 3500     		.2byte	(.L39-.L40)/2
 324 0108 2E01     		.2byte	(.L33-.L40)/2
 325 010a 1A01     		.2byte	(.L63-.L40)/2
 326 010c 2E01     		.2byte	(.L33-.L40)/2
 327 010e 2E01     		.2byte	(.L33-.L40)/2
 328 0110 0B01     		.2byte	(.L37-.L40)/2
 329              	.L39:
 330              	.LVL44:
 331              		.loc 1 185 0
 332 0112 DBF80070 		ldr	r7, [fp, #0]
 333              		.loc 1 186 0
 334 0116 40F20009 		movw	r9, #:lower16:.LC0
 335 011a C0F20009 		movt	r9, #:upper16:.LC0
 336 011e 002F     		cmp	r7, #0
 337 0120 18BF     		it	ne
 338 0122 B946     		movne	r9, r7
 339              		.loc 1 189 0
 340 0124 99F80030 		ldrb	r3, [r9, #0]	@ zero_extendqisi2
 341              	.LVL45:
ARM GAS  /tmp/ccWUSqAh.s 			page 7


 342              		.loc 1 188 0
 343 0128 47F6FF72 		movw	r2, #32767
 344              		.loc 1 185 0
 345 012c 0BF1040B 		add	fp, fp, #4
 346              	.LVL46:
 347              		.loc 1 188 0
 348 0130 0029     		cmp	r1, #0
 349 0132 08BF     		it	eq
 350 0134 1146     		moveq	r1, r2
 351              	.LVL47:
 352              		.loc 1 189 0
 353 0136 002B     		cmp	r3, #0
 354 0138 00F02381 		beq	.L66
 355              		.loc 1 111 0
 356 013c 09EB0100 		add	r0, r9, r1
 357              	.LVL48:
 358              		.loc 1 189 0
 359 0140 99F80170 		ldrb	r7, [r9, #1]	@ zero_extendqisi2
 360 0144 6FEA0901 		mvn	r1, r9
 361 0148 0B18     		adds	r3, r1, r0
 362 014a 03F00102 		and	r2, r3, #1
 363              		.loc 1 111 0
 364 014e 09F1010A 		add	sl, r9, #1
 365              	.LVL49:
 366              		.loc 1 189 0
 367 0152 D7B1     		cbz	r7, .L114
 368 0154 8245     		cmp	sl, r0
 369 0156 5346     		mov	r3, sl
 370 0158 17D0     		beq	.L114
 371 015a 7AB1     		cbz	r2, .L45
 372 015c 9AF80110 		ldrb	r1, [sl, #1]	@ zero_extendqisi2
 373              		.loc 1 111 0
 374 0160 0AF1010A 		add	sl, sl, #1
 375              	.LVL50:
 376              		.loc 1 189 0
 377 0164 89B1     		cbz	r1, .L114
 378 0166 8245     		cmp	sl, r0
 379 0168 5346     		mov	r3, sl
 380 016a 07D1     		bne	.L45
 381 016c 0DE0     		b	.L114
 382              	.LVL51:
 383              	.L44:
 384              		.loc 1 189 0 is_stmt 0 discriminator 2
 385 016e 9AF80110 		ldrb	r1, [sl, #1]	@ zero_extendqisi2
 386              		.loc 1 111 0 is_stmt 1 discriminator 2
 387 0172 0AF1010A 		add	sl, sl, #1
 388              	.LVL52:
 389              		.loc 1 189 0 discriminator 2
 390 0176 41B1     		cbz	r1, .L114
 391              		.loc 1 189 0 is_stmt 0
 392 0178 8245     		cmp	sl, r0
 393 017a 06D0     		beq	.L114
 394              	.L45:
 395              		.loc 1 111 0 is_stmt 1 discriminator 1
 396 017c 03F1010A 		add	sl, r3, #1
 397              	.LVL53:
 398              		.loc 1 189 0 discriminator 1
ARM GAS  /tmp/ccWUSqAh.s 			page 8


 399 0180 5F78     		ldrb	r7, [r3, #1]	@ zero_extendqisi2
 400 0182 5246     		mov	r2, sl
 401 0184 531C     		adds	r3, r2, #1
 402 0186 002F     		cmp	r7, #0
 403 0188 F1D1     		bne	.L44
 404              	.L114:
 405 018a C9EB0A0A 		rsb	sl, r9, sl
 406              	.LVL54:
 407              		.loc 1 239 0
 408 018e CAEB0606 		rsb	r6, sl, r6
 409              	.LVL55:
 410              		.loc 1 184 0
 411 0192 2027     		movs	r7, #32
 412              	.LVL56:
 413 0194 26EAE676 		bic	r6, r6, r6, asr #31
 414              	.LVL57:
 415              		.loc 1 241 0
 416 0198 B8F1000F 		cmp	r8, #0
 417 019c 64D0     		beq	.L130
 418              	.LVL58:
 419              	.L51:
 420              		.loc 1 252 0 discriminator 1
 421 019e BAF1000F 		cmp	sl, #0
 422 01a2 27DD     		ble	.L57
 423              		.loc 1 253 0
 424 01a4 C846     		mov	r8, r9
 425 01a6 2868     		ldr	r0, [r5, #0]
 426 01a8 18F8011B 		ldrb	r1, [r8], #1	@ zero_extendqisi2
 427              		.loc 1 111 0
 428 01ac CA44     		add	sl, r9, sl
 429              	.LVL59:
 430 01ae 6FEA090E 		mvn	lr, r9
 431              		.loc 1 253 0
 432 01b2 8368     		ldr	r3, [r0, #8]
 433 01b4 2846     		mov	r0, r5
 434 01b6 0AEB0E09 		add	r9, sl, lr
 435              	.LVL60:
 436 01ba 9847     		blx	r3
 437              	.LVL61:
 438              		.loc 1 252 0
 439 01bc D045     		cmp	r8, sl
 440 01be 09F00109 		and	r9, r9, #1
 441              	.LVL62:
 442 01c2 17D0     		beq	.L57
 443 01c4 B9F1000F 		cmp	r9, #0
 444 01c8 03D0     		beq	.L56
 445              	.LVL63:
 446              		.loc 1 253 0
 447 01ca 2A68     		ldr	r2, [r5, #0]
 448 01cc 18F8011B 		ldrb	r1, [r8], #1	@ zero_extendqisi2
 449 01d0 0BE0     		b	.L125
 450              	.L56:
 451 01d2 2868     		ldr	r0, [r5, #0]
 452 01d4 C146     		mov	r9, r8
 453 01d6 19F8011B 		ldrb	r1, [r9], #1	@ zero_extendqisi2
 454 01da 8268     		ldr	r2, [r0, #8]
 455 01dc 2846     		mov	r0, r5
ARM GAS  /tmp/ccWUSqAh.s 			page 9


 456 01de 9047     		blx	r2
 457              	.LVL64:
 458 01e0 2A68     		ldr	r2, [r5, #0]
 459 01e2 98F80110 		ldrb	r1, [r8, #1]	@ zero_extendqisi2
 460 01e6 09F10108 		add	r8, r9, #1
 461              	.L125:
 462 01ea 9368     		ldr	r3, [r2, #8]
 463 01ec 2846     		mov	r0, r5
 464 01ee 9847     		blx	r3
 465              	.LVL65:
 466              		.loc 1 252 0
 467 01f0 D045     		cmp	r8, sl
 468 01f2 EED1     		bne	.L56
 469              	.L57:
 470              	.LVL66:
 471              		.loc 1 255 0
 472 01f4 002E     		cmp	r6, #0
 473 01f6 3FF412AF 		beq	.L112
 474              		.loc 1 256 0
 475 01fa 2968     		ldr	r1, [r5, #0]
 476 01fc 731E     		subs	r3, r6, #1
 477 01fe 8A68     		ldr	r2, [r1, #8]
 478              		.loc 1 255 0
 479 0200 1E46     		mov	r6, r3
 480              	.LVL67:
 481              		.loc 1 256 0
 482 0202 2846     		mov	r0, r5
 483 0204 3946     		mov	r1, r7
 484 0206 03F00108 		and	r8, r3, #1
 485 020a 9047     		blx	r2
 486              	.LVL68:
 487              		.loc 1 255 0
 488 020c 002E     		cmp	r6, #0
 489 020e 3FF406AF 		beq	.L112
 490 0212 B8F1000F 		cmp	r8, #0
 491 0216 07D0     		beq	.L74
 492              		.loc 1 256 0
 493 0218 2968     		ldr	r1, [r5, #0]
 494 021a 2846     		mov	r0, r5
 495 021c 8B68     		ldr	r3, [r1, #8]
 496 021e 3946     		mov	r1, r7
 497 0220 9847     		blx	r3
 498              	.LVL69:
 499              		.loc 1 255 0
 500 0222 013E     		subs	r6, r6, #1
 501 0224 3FF4FBAE 		beq	.L112
 502              	.L74:
 503              		.loc 1 256 0
 504 0228 2868     		ldr	r0, [r5, #0]
 505 022a 3946     		mov	r1, r7
 506 022c 8268     		ldr	r2, [r0, #8]
 507 022e 2846     		mov	r0, r5
 508 0230 9047     		blx	r2
 509              	.LVL70:
 510 0232 2968     		ldr	r1, [r5, #0]
 511              		.loc 1 257 0
 512 0234 013E     		subs	r6, r6, #1
ARM GAS  /tmp/ccWUSqAh.s 			page 10


 513              		.loc 1 256 0
 514 0236 8B68     		ldr	r3, [r1, #8]
 515 0238 2846     		mov	r0, r5
 516 023a 3946     		mov	r1, r7
 517 023c 9847     		blx	r3
 518              	.LVL71:
 519              		.loc 1 255 0
 520 023e 013E     		subs	r6, r6, #1
 521 0240 F2D1     		bne	.L74
 522 0242 ECE6     		b	.L112
 523              	.LVL72:
 524              	.L38:
 525              		.loc 1 181 0
 526 0244 DBF80000 		ldr	r0, [fp, #0]
 527 0248 DDF80CA0 		ldr	sl, [sp, #12]
 528 024c 8DF81400 		strb	r0, [sp, #20]
 529              	.LVL73:
 530 0250 0BF1040B 		add	fp, fp, #4
 531              	.LVL74:
 532              		.loc 1 180 0
 533 0254 2027     		movs	r7, #32
 534              		.loc 1 132 0
 535 0256 0DF11409 		add	r9, sp, #20
 536              	.LVL75:
 537              	.L41:
 538              		.loc 1 239 0
 539 025a CAEB0606 		rsb	r6, sl, r6
 540              	.LVL76:
 541 025e 26EAE676 		bic	r6, r6, r6, asr #31
 542              	.LVL77:
 543              		.loc 1 241 0
 544 0262 B8F1000F 		cmp	r8, #0
 545 0266 9AD1     		bne	.L51
 546              	.LVL78:
 547              	.L130:
 548              		.loc 1 242 0
 549 0268 7642     		negs	r6, r6
 550              	.LVL79:
 551              		.loc 1 243 0
 552 026a 002E     		cmp	r6, #0
 553 026c 97D0     		beq	.L51
 554              		.loc 1 244 0
 555 026e 99F80010 		ldrb	r1, [r9, #0]	@ zero_extendqisi2
 556 0272 2D29     		cmp	r1, #45
 557 0274 73D0     		beq	.L131
 558              	.L99:
 559              		.loc 1 249 0
 560 0276 2968     		ldr	r1, [r5, #0]
 561 0278 2846     		mov	r0, r5
 562 027a 8A68     		ldr	r2, [r1, #8]
 563 027c 3946     		mov	r1, r7
 564 027e 6FEA0608 		mvn	r8, r6
 565              	.LVL80:
 566 0282 9047     		blx	r2
 567              	.LVL81:
 568              		.loc 1 250 0
 569 0284 0136     		adds	r6, r6, #1
ARM GAS  /tmp/ccWUSqAh.s 			page 11


 570              	.LVL82:
 571 0286 08F00108 		and	r8, r8, #1
 572              	.LVL83:
 573 028a 88D0     		beq	.L51
 574 028c B8F1000F 		cmp	r8, #0
 575 0290 07D0     		beq	.L75
 576              	.LVL84:
 577              		.loc 1 249 0
 578 0292 2B68     		ldr	r3, [r5, #0]
 579 0294 2846     		mov	r0, r5
 580 0296 9A68     		ldr	r2, [r3, #8]
 581 0298 3946     		mov	r1, r7
 582 029a 9047     		blx	r2
 583              	.LVL85:
 584              		.loc 1 250 0
 585 029c 0136     		adds	r6, r6, #1
 586              	.LVL86:
 587 029e 3FF47EAF 		beq	.L51
 588              	.LVL87:
 589              	.L75:
 590              		.loc 1 249 0 discriminator 1
 591 02a2 2868     		ldr	r0, [r5, #0]
 592 02a4 3946     		mov	r1, r7
 593 02a6 8368     		ldr	r3, [r0, #8]
 594 02a8 2846     		mov	r0, r5
 595 02aa 9847     		blx	r3
 596              	.LVL88:
 597 02ac 2968     		ldr	r1, [r5, #0]
 598              		.loc 1 250 0 discriminator 1
 599 02ae 0136     		adds	r6, r6, #1
 600              	.LVL89:
 601              		.loc 1 249 0 discriminator 1
 602 02b0 8A68     		ldr	r2, [r1, #8]
 603 02b2 2846     		mov	r0, r5
 604 02b4 3946     		mov	r1, r7
 605 02b6 9047     		blx	r2
 606              	.LVL90:
 607              		.loc 1 250 0 discriminator 1
 608 02b8 0136     		adds	r6, r6, #1
 609              	.LVL91:
 610 02ba F2D1     		bne	.L75
 611 02bc 6FE7     		b	.L51
 612              	.LVL92:
 613              	.L37:
 614              		.loc 1 178 0
 615 02be 1022     		movs	r2, #16
 616              	.LVL93:
 617              	.L36:
 618              		.loc 1 229 0
 619 02c0 DBF80010 		ldr	r1, [fp, #0]
 620              	.LVL94:
 621              	.LBB6:
 622              	.LBB7:
 623              		.loc 1 71 0
 624 02c4 05A8     		add	r0, sp, #20
 625 02c6 FFF7FEFF 		bl	long_to_string_with_divisor.constprop.0
 626              	.LVL95:
ARM GAS  /tmp/ccWUSqAh.s 			page 12


 627 02ca DDF808C0 		ldr	ip, [sp, #8]
 628              	.LBE7:
 629              	.LBE6:
 630              		.loc 1 229 0
 631 02ce 0BF1040B 		add	fp, fp, #4
 632              	.LVL96:
 633              		.loc 1 132 0
 634 02d2 0DF11409 		add	r9, sp, #20
 635 02d6 CCEB000A 		rsb	sl, ip, r0
 636              		.loc 1 233 0
 637 02da BEE7     		b	.L41
 638              	.LVL97:
 639              	.L63:
 640              		.loc 1 178 0
 641 02dc 0A22     		movs	r2, #10
 642 02de EFE7     		b	.L36
 643              	.L35:
 644              	.LVL98:
 645 02e0 0822     		movs	r2, #8
 646 02e2 EDE7     		b	.L36
 647              	.LVL99:
 648              	.L34:
 649              		.loc 1 197 0
 650 02e4 DBF80010 		ldr	r1, [fp, #0]
 651              	.LVL100:
 652 02e8 0BF1040B 		add	fp, fp, #4
 653              	.LVL101:
 654              		.loc 1 200 0
 655 02ec 0029     		cmp	r1, #0
 656 02ee 41DB     		blt	.L132
 657              		.loc 1 131 0
 658 02f0 05A8     		add	r0, sp, #20
 659              	.LVL102:
 660              	.L48:
 661              	.LBB8:
 662              	.LBB9:
 663              		.loc 1 71 0
 664 02f2 0A22     		movs	r2, #10
 665 02f4 FFF7FEFF 		bl	long_to_string_with_divisor.constprop.0
 666              	.LVL103:
 667 02f8 029B     		ldr	r3, [sp, #8]
 668              	.LBE9:
 669              	.LBE8:
 670              		.loc 1 132 0
 671 02fa 0DF11409 		add	r9, sp, #20
 672 02fe C3EB000A 		rsb	sl, r3, r0
 673              		.loc 1 205 0
 674 0302 AAE7     		b	.L41
 675              	.LVL104:
 676              	.L33:
 677              		.loc 1 235 0
 678 0304 8DF81430 		strb	r3, [sp, #20]
 679              	.LVL105:
 680 0308 DDF80CA0 		ldr	sl, [sp, #12]
 681              		.loc 1 132 0
 682 030c 0DF11409 		add	r9, sp, #20
 683              		.loc 1 236 0
ARM GAS  /tmp/ccWUSqAh.s 			page 13


 684 0310 A3E7     		b	.L41
 685              	.LVL106:
 686              	.L30:
 687              		.loc 1 171 0
 688 0312 2278     		ldrb	r2, [r4, #0]	@ zero_extendqisi2
 689 0314 002A     		cmp	r2, #0
 690 0316 3FF4C0AE 		beq	.L32
 691              	.LVL107:
 692              		.loc 1 172 0
 693 031a 0134     		adds	r4, r4, #1
 694              	.LVL108:
 695 031c 1346     		mov	r3, r2
 696 031e BCE6     		b	.L32
 697              	.LVL109:
 698              	.L22:
 699 0320 7378     		ldrb	r3, [r6, #1]	@ zero_extendqisi2
 700              		.loc 1 141 0
 701 0322 3027     		movs	r7, #48
 702              		.loc 1 140 0
 703 0324 0136     		adds	r6, r6, #1
 704              	.LVL110:
 705 0326 9AE6     		b	.L23
 706              	.LVL111:
 707              	.L129:
 708 0328 2046     		mov	r0, r4
 709              		.loc 1 155 0
 710 032a 0021     		movs	r1, #0
 711 032c 05E0     		b	.L29
 712              	.LVL112:
 713              	.L133:
 714              		.loc 1 161 0
 715 032e 9BF80020 		ldrb	r2, [fp, #0]	@ zero_extendqisi2
 716              	.LVL113:
 717 0332 0BF1040B 		add	fp, fp, #4
 718              	.LVL114:
 719              	.L28:
 720              		.loc 1 165 0
 721 0336 02EB4901 		add	r1, r2, r9, lsl #1
 722              	.LVL115:
 723              	.L29:
 724              		.loc 1 157 0
 725 033a 10F8013B 		ldrb	r3, [r0], #1	@ zero_extendqisi2
 726              	.LVL116:
 727              		.loc 1 164 0
 728 033e 01EB8109 		add	r9, r1, r1, lsl #2
 729              		.loc 1 158 0
 730 0342 A3F13004 		sub	r4, r3, #48
 731              	.LVL117:
 732 0346 E2B2     		uxtb	r2, r4
 733 0348 092A     		cmp	r2, #9
 734              		.loc 1 157 0
 735 034a 0446     		mov	r4, r0
 736              	.LVL118:
 737              		.loc 1 158 0
 738 034c F3D9     		bls	.L28
 739              		.loc 1 160 0
 740 034e 2A2B     		cmp	r3, #42
ARM GAS  /tmp/ccWUSqAh.s 			page 14


 741 0350 EDD0     		beq	.L133
 742 0352 9CE6     		b	.L27
 743              	.LVL119:
 744              	.L127:
 745              		.loc 1 135 0
 746 0354 A61C     		adds	r6, r4, #2
 747              	.LVL120:
 748 0356 A378     		ldrb	r3, [r4, #2]	@ zero_extendqisi2
 749              		.loc 1 136 0
 750 0358 4FF00108 		mov	r8, #1
 751 035c 78E6     		b	.L21
 752              	.LVL121:
 753              	.L131:
 754              		.loc 1 244 0 discriminator 1
 755 035e 302F     		cmp	r7, #48
 756 0360 89D1     		bne	.L99
 757              		.loc 1 245 0
 758 0362 2A68     		ldr	r2, [r5, #0]
 759 0364 2846     		mov	r0, r5
 760 0366 9368     		ldr	r3, [r2, #8]
 761 0368 9847     		blx	r3
 762              	.LVL122:
 763 036a 09F10109 		add	r9, r9, #1
 764              	.LVL123:
 765              		.loc 1 246 0
 766 036e 0AF1FF3A 		add	sl, sl, #-1
 767              	.LVL124:
 768 0372 80E7     		b	.L99
 769              	.LVL125:
 770              	.L132:
 771              		.loc 1 201 0
 772 0374 2D22     		movs	r2, #45
 773 0376 8DF81420 		strb	r2, [sp, #20]
 774              	.LVL126:
 775              		.loc 1 202 0
 776 037a 4942     		negs	r1, r1
 777              	.LVL127:
 778              		.loc 1 201 0
 779 037c 0DF11500 		add	r0, sp, #21
 780 0380 B7E7     		b	.L48
 781              	.LVL128:
 782              	.L66:
 783              		.loc 1 189 0
 784 0382 9A46     		mov	sl, r3
 785              		.loc 1 184 0
 786 0384 2027     		movs	r7, #32
 787 0386 68E7     		b	.L41
 788              		.cfi_endproc
 789              	.LFE10:
 790              		.size	chvprintf, .-chvprintf
 791 0388 AFF30080 		.section	.rodata.str1.4,"aMS",%progbits,1
 791      AFF30080 
 792              		.align	2
 793              	.LC0:
 794 0000 286E756C 		.ascii	"(null)\000"
 794      6C2900
 795 0007 00       		.text
ARM GAS  /tmp/ccWUSqAh.s 			page 15


 796              	.Letext0:
 797              		.file 2 "/usr/bin/../lib/gcc/arm-none-eabi/4.7.4/include/stddef.h"
 798              		.file 3 "/usr/bin/../lib/gcc/arm-none-eabi/4.7.4/../../../../arm-none-eabi/include/stdint.h"
 799              		.file 4 "../../os/ports/GCC/ARMCMx/chtypes.h"
 800              		.file 5 "../../os/kernel/include/chstreams.h"
 801              		.file 6 "/usr/bin/../lib/gcc/arm-none-eabi/4.7.4/include/stdarg.h"
 802              		.file 7 "<built-in>"
 803              		.section	.debug_info,"",%progbits
 804              	.Ldebug_info0:
 805 0000 4D050000 		.4byte	0x54d
 806 0004 0200     		.2byte	0x2
 807 0006 00000000 		.4byte	.Ldebug_abbrev0
 808 000a 04       		.byte	0x4
 809 000b 01       		.uleb128 0x1
 810 000c E3000000 		.4byte	.LASF34
 811 0010 01       		.byte	0x1
 812 0011 51010000 		.4byte	.LASF35
 813 0015 7D000000 		.4byte	.LASF36
 814 0019 00000000 		.4byte	.Ldebug_ranges0+0
 815 001d 00000000 		.4byte	0
 816 0021 00000000 		.4byte	0
 817 0025 00000000 		.4byte	.Ldebug_line0
 818 0029 02       		.uleb128 0x2
 819 002a 04       		.byte	0x4
 820 002b 05       		.byte	0x5
 821 002c 696E7400 		.ascii	"int\000"
 822 0030 03       		.uleb128 0x3
 823 0031 00000000 		.4byte	.LASF2
 824 0035 02       		.byte	0x2
 825 0036 D5       		.byte	0xd5
 826 0037 3B000000 		.4byte	0x3b
 827 003b 04       		.uleb128 0x4
 828 003c 04       		.byte	0x4
 829 003d 07       		.byte	0x7
 830 003e 1A000000 		.4byte	.LASF0
 831 0042 04       		.uleb128 0x4
 832 0043 01       		.byte	0x1
 833 0044 06       		.byte	0x6
 834 0045 05020000 		.4byte	.LASF1
 835 0049 03       		.uleb128 0x3
 836 004a 4A000000 		.4byte	.LASF3
 837 004e 03       		.byte	0x3
 838 004f 2A       		.byte	0x2a
 839 0050 54000000 		.4byte	0x54
 840 0054 04       		.uleb128 0x4
 841 0055 01       		.byte	0x1
 842 0056 08       		.byte	0x8
 843 0057 6F000000 		.4byte	.LASF4
 844 005b 04       		.uleb128 0x4
 845 005c 02       		.byte	0x2
 846 005d 05       		.byte	0x5
 847 005e E2010000 		.4byte	.LASF5
 848 0062 04       		.uleb128 0x4
 849 0063 02       		.byte	0x2
 850 0064 07       		.byte	0x7
 851 0065 CA000000 		.4byte	.LASF6
 852 0069 03       		.uleb128 0x3
ARM GAS  /tmp/ccWUSqAh.s 			page 16


 853 006a 98010000 		.4byte	.LASF7
 854 006e 03       		.byte	0x3
 855 006f 4F       		.byte	0x4f
 856 0070 74000000 		.4byte	0x74
 857 0074 04       		.uleb128 0x4
 858 0075 04       		.byte	0x4
 859 0076 05       		.byte	0x5
 860 0077 FC010000 		.4byte	.LASF8
 861 007b 04       		.uleb128 0x4
 862 007c 04       		.byte	0x4
 863 007d 07       		.byte	0x7
 864 007e B8000000 		.4byte	.LASF9
 865 0082 04       		.uleb128 0x4
 866 0083 08       		.byte	0x8
 867 0084 05       		.byte	0x5
 868 0085 BA010000 		.4byte	.LASF10
 869 0089 04       		.uleb128 0x4
 870 008a 08       		.byte	0x8
 871 008b 07       		.byte	0x7
 872 008c 6D010000 		.4byte	.LASF11
 873 0090 03       		.uleb128 0x3
 874 0091 27000000 		.4byte	.LASF12
 875 0095 04       		.byte	0x4
 876 0096 24       		.byte	0x24
 877 0097 9B000000 		.4byte	0x9b
 878 009b 04       		.uleb128 0x4
 879 009c 01       		.byte	0x1
 880 009d 02       		.byte	0x2
 881 009e 16020000 		.4byte	.LASF13
 882 00a2 03       		.uleb128 0x3
 883 00a3 92010000 		.4byte	.LASF14
 884 00a7 04       		.byte	0x4
 885 00a8 2A       		.byte	0x2a
 886 00a9 69000000 		.4byte	0x69
 887 00ad 05       		.uleb128 0x5
 888 00ae 04       		.byte	0x4
 889 00af 04       		.uleb128 0x4
 890 00b0 04       		.byte	0x4
 891 00b1 07       		.byte	0x7
 892 00b2 A0010000 		.4byte	.LASF15
 893 00b6 06       		.uleb128 0x6
 894 00b7 04       		.byte	0x4
 895 00b8 BC000000 		.4byte	0xbc
 896 00bc 07       		.uleb128 0x7
 897 00bd C1000000 		.4byte	0xc1
 898 00c1 04       		.uleb128 0x4
 899 00c2 01       		.byte	0x1
 900 00c3 08       		.byte	0x8
 901 00c4 D2010000 		.4byte	.LASF16
 902 00c8 06       		.uleb128 0x6
 903 00c9 04       		.byte	0x4
 904 00ca CE000000 		.4byte	0xce
 905 00ce 08       		.uleb128 0x8
 906 00cf 01       		.byte	0x1
 907 00d0 A2000000 		.4byte	0xa2
 908 00d4 DE000000 		.4byte	0xde
 909 00d8 09       		.uleb128 0x9
ARM GAS  /tmp/ccWUSqAh.s 			page 17


 910 00d9 AD000000 		.4byte	0xad
 911 00dd 00       		.byte	0
 912 00de 06       		.uleb128 0x6
 913 00df 04       		.byte	0x4
 914 00e0 49000000 		.4byte	0x49
 915 00e4 0A       		.uleb128 0xa
 916 00e5 1C020000 		.4byte	.LASF21
 917 00e9 10       		.byte	0x10
 918 00ea 05       		.byte	0x5
 919 00eb 41       		.byte	0x41
 920 00ec 29010000 		.4byte	0x129
 921 00f0 0B       		.uleb128 0xb
 922 00f1 DD000000 		.4byte	.LASF17
 923 00f5 05       		.byte	0x5
 924 00f6 42       		.byte	0x42
 925 00f7 4E010000 		.4byte	0x14e
 926 00fb 02       		.byte	0x2
 927 00fc 23       		.byte	0x23
 928 00fd 00       		.uleb128 0
 929 00fe 0B       		.uleb128 0xb
 930 00ff 3B010000 		.4byte	.LASF18
 931 0103 05       		.byte	0x5
 932 0104 42       		.byte	0x42
 933 0105 6E010000 		.4byte	0x16e
 934 0109 02       		.byte	0x2
 935 010a 23       		.byte	0x23
 936 010b 04       		.uleb128 0x4
 937 010c 0C       		.uleb128 0xc
 938 010d 70757400 		.ascii	"put\000"
 939 0111 05       		.byte	0x5
 940 0112 42       		.byte	0x42
 941 0113 89010000 		.4byte	0x189
 942 0117 02       		.byte	0x2
 943 0118 23       		.byte	0x23
 944 0119 08       		.uleb128 0x8
 945 011a 0C       		.uleb128 0xc
 946 011b 67657400 		.ascii	"get\000"
 947 011f 05       		.byte	0x5
 948 0120 42       		.byte	0x42
 949 0121 C8000000 		.4byte	0xc8
 950 0125 02       		.byte	0x2
 951 0126 23       		.byte	0x23
 952 0127 0C       		.uleb128 0xc
 953 0128 00       		.byte	0
 954 0129 08       		.uleb128 0x8
 955 012a 01       		.byte	0x1
 956 012b 30000000 		.4byte	0x30
 957 012f 43010000 		.4byte	0x143
 958 0133 09       		.uleb128 0x9
 959 0134 AD000000 		.4byte	0xad
 960 0138 09       		.uleb128 0x9
 961 0139 43010000 		.4byte	0x143
 962 013d 09       		.uleb128 0x9
 963 013e 30000000 		.4byte	0x30
 964 0142 00       		.byte	0
 965 0143 06       		.uleb128 0x6
 966 0144 04       		.byte	0x4
ARM GAS  /tmp/ccWUSqAh.s 			page 18


 967 0145 49010000 		.4byte	0x149
 968 0149 07       		.uleb128 0x7
 969 014a 49000000 		.4byte	0x49
 970 014e 06       		.uleb128 0x6
 971 014f 04       		.byte	0x4
 972 0150 29010000 		.4byte	0x129
 973 0154 08       		.uleb128 0x8
 974 0155 01       		.byte	0x1
 975 0156 30000000 		.4byte	0x30
 976 015a 6E010000 		.4byte	0x16e
 977 015e 09       		.uleb128 0x9
 978 015f AD000000 		.4byte	0xad
 979 0163 09       		.uleb128 0x9
 980 0164 DE000000 		.4byte	0xde
 981 0168 09       		.uleb128 0x9
 982 0169 30000000 		.4byte	0x30
 983 016d 00       		.byte	0
 984 016e 06       		.uleb128 0x6
 985 016f 04       		.byte	0x4
 986 0170 54010000 		.4byte	0x154
 987 0174 08       		.uleb128 0x8
 988 0175 01       		.byte	0x1
 989 0176 A2000000 		.4byte	0xa2
 990 017a 89010000 		.4byte	0x189
 991 017e 09       		.uleb128 0x9
 992 017f AD000000 		.4byte	0xad
 993 0183 09       		.uleb128 0x9
 994 0184 49000000 		.4byte	0x49
 995 0188 00       		.byte	0
 996 0189 06       		.uleb128 0x6
 997 018a 04       		.byte	0x4
 998 018b 74010000 		.4byte	0x174
 999 018f 0D       		.uleb128 0xd
 1000 0190 04       		.byte	0x4
 1001 0191 05       		.byte	0x5
 1002 0192 4A       		.byte	0x4a
 1003 0193 A6010000 		.4byte	0x1a6
 1004 0197 0C       		.uleb128 0xc
 1005 0198 766D7400 		.ascii	"vmt\000"
 1006 019c 05       		.byte	0x5
 1007 019d 4C       		.byte	0x4c
 1008 019e A6010000 		.4byte	0x1a6
 1009 01a2 02       		.byte	0x2
 1010 01a3 23       		.byte	0x23
 1011 01a4 00       		.uleb128 0
 1012 01a5 00       		.byte	0
 1013 01a6 06       		.uleb128 0x6
 1014 01a7 04       		.byte	0x4
 1015 01a8 AC010000 		.4byte	0x1ac
 1016 01ac 07       		.uleb128 0x7
 1017 01ad E4000000 		.4byte	0xe4
 1018 01b1 03       		.uleb128 0x3
 1019 01b2 5A000000 		.4byte	.LASF19
 1020 01b6 05       		.byte	0x5
 1021 01b7 4E       		.byte	0x4e
 1022 01b8 8F010000 		.4byte	0x18f
 1023 01bc 03       		.uleb128 0x3
ARM GAS  /tmp/ccWUSqAh.s 			page 19


 1024 01bd 2C010000 		.4byte	.LASF20
 1025 01c1 06       		.byte	0x6
 1026 01c2 28       		.byte	0x28
 1027 01c3 C7010000 		.4byte	0x1c7
 1028 01c7 0A       		.uleb128 0xa
 1029 01c8 B0010000 		.4byte	.LASF22
 1030 01cc 04       		.byte	0x4
 1031 01cd 07       		.byte	0x7
 1032 01ce 00       		.byte	0
 1033 01cf E1010000 		.4byte	0x1e1
 1034 01d3 0E       		.uleb128 0xe
 1035 01d4 0D000000 		.4byte	.LASF37
 1036 01d8 AD000000 		.4byte	0xad
 1037 01dc 02       		.byte	0x2
 1038 01dd 23       		.byte	0x23
 1039 01de 00       		.uleb128 0
 1040 01df 01       		.byte	0x1
 1041 01e0 00       		.byte	0
 1042 01e1 03       		.uleb128 0x3
 1043 01e2 52000000 		.4byte	.LASF23
 1044 01e6 06       		.byte	0x6
 1045 01e7 66       		.byte	0x66
 1046 01e8 BC010000 		.4byte	0x1bc
 1047 01ec 0F       		.uleb128 0xf
 1048 01ed 2E000000 		.4byte	.LASF26
 1049 01f1 01       		.byte	0x1
 1050 01f2 24       		.byte	0x24
 1051 01f3 01       		.byte	0x1
 1052 01f4 4D020000 		.4byte	0x24d
 1053 01f8 01       		.byte	0x1
 1054 01f9 4D020000 		.4byte	0x24d
 1055 01fd 10       		.uleb128 0x10
 1056 01fe 7000     		.ascii	"p\000"
 1057 0200 01       		.byte	0x1
 1058 0201 24       		.byte	0x24
 1059 0202 4D020000 		.4byte	0x24d
 1060 0206 10       		.uleb128 0x10
 1061 0207 6E756D00 		.ascii	"num\000"
 1062 020b 01       		.byte	0x1
 1063 020c 25       		.byte	0x25
 1064 020d 74000000 		.4byte	0x74
 1065 0211 11       		.uleb128 0x11
 1066 0212 8C010000 		.4byte	.LASF24
 1067 0216 01       		.byte	0x1
 1068 0217 26       		.byte	0x26
 1069 0218 3B000000 		.4byte	0x3b
 1070 021c 11       		.uleb128 0x11
 1071 021d 84010000 		.4byte	.LASF25
 1072 0221 01       		.byte	0x1
 1073 0222 27       		.byte	0x27
 1074 0223 74000000 		.4byte	0x74
 1075 0227 12       		.uleb128 0x12
 1076 0228 6900     		.ascii	"i\000"
 1077 022a 01       		.byte	0x1
 1078 022b 28       		.byte	0x28
 1079 022c 29000000 		.4byte	0x29
 1080 0230 12       		.uleb128 0x12
ARM GAS  /tmp/ccWUSqAh.s 			page 20


 1081 0231 7100     		.ascii	"q\000"
 1082 0233 01       		.byte	0x1
 1083 0234 29       		.byte	0x29
 1084 0235 4D020000 		.4byte	0x24d
 1085 0239 12       		.uleb128 0x12
 1086 023a 6C00     		.ascii	"l\000"
 1087 023c 01       		.byte	0x1
 1088 023d 2A       		.byte	0x2a
 1089 023e 74000000 		.4byte	0x74
 1090 0242 12       		.uleb128 0x12
 1091 0243 6C6C00   		.ascii	"ll\000"
 1092 0246 01       		.byte	0x1
 1093 0247 2A       		.byte	0x2a
 1094 0248 74000000 		.4byte	0x74
 1095 024c 00       		.byte	0
 1096 024d 06       		.uleb128 0x6
 1097 024e 04       		.byte	0x4
 1098 024f C1000000 		.4byte	0xc1
 1099 0253 13       		.uleb128 0x13
 1100 0254 EC010000 		.4byte	0x1ec
 1101 0258 00000000 		.4byte	.LFB11
 1102 025c 68000000 		.4byte	.LFE11
 1103 0260 00000000 		.4byte	.LLST0
 1104 0264 01       		.byte	0x1
 1105 0265 AF020000 		.4byte	0x2af
 1106 0269 14       		.uleb128 0x14
 1107 026a FD010000 		.4byte	0x1fd
 1108 026e 20000000 		.4byte	.LLST1
 1109 0272 14       		.uleb128 0x14
 1110 0273 06020000 		.4byte	0x206
 1111 0277 49000000 		.4byte	.LLST2
 1112 027b 14       		.uleb128 0x14
 1113 027c 11020000 		.4byte	0x211
 1114 0280 6A000000 		.4byte	.LLST3
 1115 0284 15       		.uleb128 0x15
 1116 0285 27020000 		.4byte	0x227
 1117 0289 8B000000 		.4byte	.LLST4
 1118 028d 15       		.uleb128 0x15
 1119 028e 30020000 		.4byte	0x230
 1120 0292 D4000000 		.4byte	.LLST5
 1121 0296 15       		.uleb128 0x15
 1122 0297 39020000 		.4byte	0x239
 1123 029b FD000000 		.4byte	.LLST6
 1124 029f 15       		.uleb128 0x15
 1125 02a0 42020000 		.4byte	0x242
 1126 02a4 26010000 		.4byte	.LLST7
 1127 02a8 16       		.uleb128 0x16
 1128 02a9 1C020000 		.4byte	0x21c
 1129 02ad 00       		.byte	0
 1130 02ae 00       		.byte	0
 1131 02af 0F       		.uleb128 0xf
 1132 02b0 11020000 		.4byte	.LASF27
 1133 02b4 01       		.byte	0x1
 1134 02b5 45       		.byte	0x45
 1135 02b6 01       		.byte	0x1
 1136 02b7 4D020000 		.4byte	0x24d
 1137 02bb 01       		.byte	0x1
ARM GAS  /tmp/ccWUSqAh.s 			page 21


 1138 02bc E0020000 		.4byte	0x2e0
 1139 02c0 10       		.uleb128 0x10
 1140 02c1 7000     		.ascii	"p\000"
 1141 02c3 01       		.byte	0x1
 1142 02c4 45       		.byte	0x45
 1143 02c5 4D020000 		.4byte	0x24d
 1144 02c9 10       		.uleb128 0x10
 1145 02ca 6E756D00 		.ascii	"num\000"
 1146 02ce 01       		.byte	0x1
 1147 02cf 45       		.byte	0x45
 1148 02d0 74000000 		.4byte	0x74
 1149 02d4 11       		.uleb128 0x11
 1150 02d5 8C010000 		.4byte	.LASF24
 1151 02d9 01       		.byte	0x1
 1152 02da 45       		.byte	0x45
 1153 02db 3B000000 		.4byte	0x3b
 1154 02df 00       		.byte	0
 1155 02e0 17       		.uleb128 0x17
 1156 02e1 01       		.byte	0x1
 1157 02e2 40010000 		.4byte	.LASF38
 1158 02e6 01       		.byte	0x1
 1159 02e7 6F       		.byte	0x6f
 1160 02e8 01       		.byte	0x1
 1161 02e9 00000000 		.4byte	.LFB10
 1162 02ed 88030000 		.4byte	.LFE10
 1163 02f1 4F010000 		.4byte	.LLST8
 1164 02f5 01       		.byte	0x1
 1165 02f6 3E050000 		.4byte	0x53e
 1166 02fa 18       		.uleb128 0x18
 1167 02fb 63687000 		.ascii	"chp\000"
 1168 02ff 01       		.byte	0x1
 1169 0300 6F       		.byte	0x6f
 1170 0301 3E050000 		.4byte	0x53e
 1171 0305 7C010000 		.4byte	.LLST9
 1172 0309 18       		.uleb128 0x18
 1173 030a 666D7400 		.ascii	"fmt\000"
 1174 030e 01       		.byte	0x1
 1175 030f 6F       		.byte	0x6f
 1176 0310 B6000000 		.4byte	0xb6
 1177 0314 9A010000 		.4byte	.LLST10
 1178 0318 18       		.uleb128 0x18
 1179 0319 617000   		.ascii	"ap\000"
 1180 031c 01       		.byte	0x1
 1181 031d 6F       		.byte	0x6f
 1182 031e E1010000 		.4byte	0x1e1
 1183 0322 33020000 		.4byte	.LLST11
 1184 0326 19       		.uleb128 0x19
 1185 0327 7000     		.ascii	"p\000"
 1186 0329 01       		.byte	0x1
 1187 032a 70       		.byte	0x70
 1188 032b 4D020000 		.4byte	0x24d
 1189 032f 49030000 		.4byte	.LLST12
 1190 0333 19       		.uleb128 0x19
 1191 0334 7300     		.ascii	"s\000"
 1192 0336 01       		.byte	0x1
 1193 0337 70       		.byte	0x70
 1194 0338 4D020000 		.4byte	0x24d
ARM GAS  /tmp/ccWUSqAh.s 			page 22


 1195 033c 0E040000 		.4byte	.LLST13
 1196 0340 19       		.uleb128 0x19
 1197 0341 6300     		.ascii	"c\000"
 1198 0343 01       		.byte	0x1
 1199 0344 70       		.byte	0x70
 1200 0345 C1000000 		.4byte	0xc1
 1201 0349 8D040000 		.4byte	.LLST14
 1202 034d 1A       		.uleb128 0x1a
 1203 034e 4A010000 		.4byte	.LASF28
 1204 0352 01       		.byte	0x1
 1205 0353 70       		.byte	0x70
 1206 0354 C1000000 		.4byte	0xc1
 1207 0358 A2050000 		.4byte	.LLST15
 1208 035c 19       		.uleb128 0x19
 1209 035d 6900     		.ascii	"i\000"
 1210 035f 01       		.byte	0x1
 1211 0360 71       		.byte	0x71
 1212 0361 29000000 		.4byte	0x29
 1213 0365 2D060000 		.4byte	.LLST16
 1214 0369 1A       		.uleb128 0x1a
 1215 036a C8010000 		.4byte	.LASF29
 1216 036e 01       		.byte	0x1
 1217 036f 71       		.byte	0x71
 1218 0370 29000000 		.4byte	0x29
 1219 0374 63060000 		.4byte	.LLST17
 1220 0378 1A       		.uleb128 0x1a
 1221 0379 07000000 		.4byte	.LASF30
 1222 037d 01       		.byte	0x1
 1223 037e 71       		.byte	0x71
 1224 037f 29000000 		.4byte	0x29
 1225 0383 DF060000 		.4byte	.LLST18
 1226 0387 1A       		.uleb128 0x1a
 1227 0388 12000000 		.4byte	.LASF31
 1228 038c 01       		.byte	0x1
 1229 038d 72       		.byte	0x72
 1230 038e 90000000 		.4byte	0x90
 1231 0392 A2070000 		.4byte	.LLST19
 1232 0396 1A       		.uleb128 0x1a
 1233 0397 D7010000 		.4byte	.LASF32
 1234 039b 01       		.byte	0x1
 1235 039c 72       		.byte	0x72
 1236 039d 90000000 		.4byte	0x90
 1237 03a1 B6070000 		.4byte	.LLST20
 1238 03a5 19       		.uleb128 0x19
 1239 03a6 6C00     		.ascii	"l\000"
 1240 03a8 01       		.byte	0x1
 1241 03a9 73       		.byte	0x73
 1242 03aa 74000000 		.4byte	0x74
 1243 03ae 0E080000 		.4byte	.LLST21
 1244 03b2 1B       		.uleb128 0x1b
 1245 03b3 A9010000 		.4byte	.LASF33
 1246 03b7 01       		.byte	0x1
 1247 03b8 78       		.byte	0x78
 1248 03b9 44050000 		.4byte	0x544
 1249 03bd 02       		.byte	0x2
 1250 03be 91       		.byte	0x91
 1251 03bf 4C       		.sleb128 -52
ARM GAS  /tmp/ccWUSqAh.s 			page 23


 1252 03c0 1C       		.uleb128 0x1c
 1253 03c1 EC010000 		.4byte	.LASF39
 1254 03c5 01       		.byte	0x1
 1255 03c6 E3       		.byte	0xe3
 1256 03c7 C0020000 		.4byte	.L36
 1257 03cb 1D       		.uleb128 0x1d
 1258 03cc AF020000 		.4byte	0x2af
 1259 03d0 C4020000 		.4byte	.LBB6
 1260 03d4 CE020000 		.4byte	.LBE6
 1261 03d8 01       		.byte	0x1
 1262 03d9 E8       		.byte	0xe8
 1263 03da 03040000 		.4byte	0x403
 1264 03de 1E       		.uleb128 0x1e
 1265 03df D4020000 		.4byte	0x2d4
 1266 03e3 1E       		.uleb128 0x1e
 1267 03e4 C9020000 		.4byte	0x2c9
 1268 03e8 14       		.uleb128 0x14
 1269 03e9 C0020000 		.4byte	0x2c0
 1270 03ed 37080000 		.4byte	.LLST22
 1271 03f1 1F       		.uleb128 0x1f
 1272 03f2 CA020000 		.4byte	.LVL95
 1273 03f6 53020000 		.4byte	0x253
 1274 03fa 20       		.uleb128 0x20
 1275 03fb 01       		.byte	0x1
 1276 03fc 50       		.byte	0x50
 1277 03fd 03       		.byte	0x3
 1278 03fe 91       		.byte	0x91
 1279 03ff 40       		.sleb128 -64
 1280 0400 06       		.byte	0x6
 1281 0401 00       		.byte	0
 1282 0402 00       		.byte	0
 1283 0403 1D       		.uleb128 0x1d
 1284 0404 AF020000 		.4byte	0x2af
 1285 0408 F2020000 		.4byte	.LBB8
 1286 040c FA020000 		.4byte	.LBE8
 1287 0410 01       		.byte	0x1
 1288 0411 CC       		.byte	0xcc
 1289 0412 41040000 		.4byte	0x441
 1290 0416 14       		.uleb128 0x14
 1291 0417 D4020000 		.4byte	0x2d4
 1292 041b 4B080000 		.4byte	.LLST23
 1293 041f 14       		.uleb128 0x14
 1294 0420 C9020000 		.4byte	0x2c9
 1295 0424 5F080000 		.4byte	.LLST24
 1296 0428 14       		.uleb128 0x14
 1297 0429 C0020000 		.4byte	0x2c0
 1298 042d 72080000 		.4byte	.LLST25
 1299 0431 1F       		.uleb128 0x1f
 1300 0432 F8020000 		.4byte	.LVL103
 1301 0436 53020000 		.4byte	0x253
 1302 043a 20       		.uleb128 0x20
 1303 043b 01       		.byte	0x1
 1304 043c 52       		.byte	0x52
 1305 043d 01       		.byte	0x1
 1306 043e 3A       		.byte	0x3a
 1307 043f 00       		.byte	0
 1308 0440 00       		.byte	0
ARM GAS  /tmp/ccWUSqAh.s 			page 24


 1309 0441 21       		.uleb128 0x21
 1310 0442 36000000 		.4byte	.LVL26
 1311 0446 51040000 		.4byte	0x451
 1312 044a 20       		.uleb128 0x20
 1313 044b 01       		.byte	0x1
 1314 044c 50       		.byte	0x50
 1315 044d 02       		.byte	0x2
 1316 044e 75       		.byte	0x75
 1317 044f 00       		.sleb128 0
 1318 0450 00       		.byte	0
 1319 0451 21       		.uleb128 0x21
 1320 0452 BC010000 		.4byte	.LVL61
 1321 0456 61040000 		.4byte	0x461
 1322 045a 20       		.uleb128 0x20
 1323 045b 01       		.byte	0x1
 1324 045c 50       		.byte	0x50
 1325 045d 02       		.byte	0x2
 1326 045e 75       		.byte	0x75
 1327 045f 00       		.sleb128 0
 1328 0460 00       		.byte	0
 1329 0461 21       		.uleb128 0x21
 1330 0462 E0010000 		.4byte	.LVL64
 1331 0466 71040000 		.4byte	0x471
 1332 046a 20       		.uleb128 0x20
 1333 046b 01       		.byte	0x1
 1334 046c 50       		.byte	0x50
 1335 046d 02       		.byte	0x2
 1336 046e 75       		.byte	0x75
 1337 046f 00       		.sleb128 0
 1338 0470 00       		.byte	0
 1339 0471 21       		.uleb128 0x21
 1340 0472 F0010000 		.4byte	.LVL65
 1341 0476 81040000 		.4byte	0x481
 1342 047a 20       		.uleb128 0x20
 1343 047b 01       		.byte	0x1
 1344 047c 50       		.byte	0x50
 1345 047d 02       		.byte	0x2
 1346 047e 75       		.byte	0x75
 1347 047f 00       		.sleb128 0
 1348 0480 00       		.byte	0
 1349 0481 21       		.uleb128 0x21
 1350 0482 0C020000 		.4byte	.LVL68
 1351 0486 97040000 		.4byte	0x497
 1352 048a 20       		.uleb128 0x20
 1353 048b 01       		.byte	0x1
 1354 048c 51       		.byte	0x51
 1355 048d 02       		.byte	0x2
 1356 048e 77       		.byte	0x77
 1357 048f 00       		.sleb128 0
 1358 0490 20       		.uleb128 0x20
 1359 0491 01       		.byte	0x1
 1360 0492 50       		.byte	0x50
 1361 0493 02       		.byte	0x2
 1362 0494 75       		.byte	0x75
 1363 0495 00       		.sleb128 0
 1364 0496 00       		.byte	0
 1365 0497 21       		.uleb128 0x21
ARM GAS  /tmp/ccWUSqAh.s 			page 25


 1366 0498 22020000 		.4byte	.LVL69
 1367 049c AD040000 		.4byte	0x4ad
 1368 04a0 20       		.uleb128 0x20
 1369 04a1 01       		.byte	0x1
 1370 04a2 51       		.byte	0x51
 1371 04a3 02       		.byte	0x2
 1372 04a4 77       		.byte	0x77
 1373 04a5 00       		.sleb128 0
 1374 04a6 20       		.uleb128 0x20
 1375 04a7 01       		.byte	0x1
 1376 04a8 50       		.byte	0x50
 1377 04a9 02       		.byte	0x2
 1378 04aa 75       		.byte	0x75
 1379 04ab 00       		.sleb128 0
 1380 04ac 00       		.byte	0
 1381 04ad 21       		.uleb128 0x21
 1382 04ae 32020000 		.4byte	.LVL70
 1383 04b2 C3040000 		.4byte	0x4c3
 1384 04b6 20       		.uleb128 0x20
 1385 04b7 01       		.byte	0x1
 1386 04b8 51       		.byte	0x51
 1387 04b9 02       		.byte	0x2
 1388 04ba 77       		.byte	0x77
 1389 04bb 00       		.sleb128 0
 1390 04bc 20       		.uleb128 0x20
 1391 04bd 01       		.byte	0x1
 1392 04be 50       		.byte	0x50
 1393 04bf 02       		.byte	0x2
 1394 04c0 75       		.byte	0x75
 1395 04c1 00       		.sleb128 0
 1396 04c2 00       		.byte	0
 1397 04c3 21       		.uleb128 0x21
 1398 04c4 3E020000 		.4byte	.LVL71
 1399 04c8 D9040000 		.4byte	0x4d9
 1400 04cc 20       		.uleb128 0x20
 1401 04cd 01       		.byte	0x1
 1402 04ce 51       		.byte	0x51
 1403 04cf 02       		.byte	0x2
 1404 04d0 77       		.byte	0x77
 1405 04d1 00       		.sleb128 0
 1406 04d2 20       		.uleb128 0x20
 1407 04d3 01       		.byte	0x1
 1408 04d4 50       		.byte	0x50
 1409 04d5 02       		.byte	0x2
 1410 04d6 75       		.byte	0x75
 1411 04d7 00       		.sleb128 0
 1412 04d8 00       		.byte	0
 1413 04d9 21       		.uleb128 0x21
 1414 04da 84020000 		.4byte	.LVL81
 1415 04de EF040000 		.4byte	0x4ef
 1416 04e2 20       		.uleb128 0x20
 1417 04e3 01       		.byte	0x1
 1418 04e4 51       		.byte	0x51
 1419 04e5 02       		.byte	0x2
 1420 04e6 77       		.byte	0x77
 1421 04e7 00       		.sleb128 0
 1422 04e8 20       		.uleb128 0x20
ARM GAS  /tmp/ccWUSqAh.s 			page 26


 1423 04e9 01       		.byte	0x1
 1424 04ea 50       		.byte	0x50
 1425 04eb 02       		.byte	0x2
 1426 04ec 75       		.byte	0x75
 1427 04ed 00       		.sleb128 0
 1428 04ee 00       		.byte	0
 1429 04ef 21       		.uleb128 0x21
 1430 04f0 9C020000 		.4byte	.LVL85
 1431 04f4 05050000 		.4byte	0x505
 1432 04f8 20       		.uleb128 0x20
 1433 04f9 01       		.byte	0x1
 1434 04fa 51       		.byte	0x51
 1435 04fb 02       		.byte	0x2
 1436 04fc 77       		.byte	0x77
 1437 04fd 00       		.sleb128 0
 1438 04fe 20       		.uleb128 0x20
 1439 04ff 01       		.byte	0x1
 1440 0500 50       		.byte	0x50
 1441 0501 02       		.byte	0x2
 1442 0502 75       		.byte	0x75
 1443 0503 00       		.sleb128 0
 1444 0504 00       		.byte	0
 1445 0505 21       		.uleb128 0x21
 1446 0506 AC020000 		.4byte	.LVL88
 1447 050a 1B050000 		.4byte	0x51b
 1448 050e 20       		.uleb128 0x20
 1449 050f 01       		.byte	0x1
 1450 0510 51       		.byte	0x51
 1451 0511 02       		.byte	0x2
 1452 0512 77       		.byte	0x77
 1453 0513 00       		.sleb128 0
 1454 0514 20       		.uleb128 0x20
 1455 0515 01       		.byte	0x1
 1456 0516 50       		.byte	0x50
 1457 0517 02       		.byte	0x2
 1458 0518 75       		.byte	0x75
 1459 0519 00       		.sleb128 0
 1460 051a 00       		.byte	0
 1461 051b 21       		.uleb128 0x21
 1462 051c B8020000 		.4byte	.LVL90
 1463 0520 31050000 		.4byte	0x531
 1464 0524 20       		.uleb128 0x20
 1465 0525 01       		.byte	0x1
 1466 0526 51       		.byte	0x51
 1467 0527 02       		.byte	0x2
 1468 0528 77       		.byte	0x77
 1469 0529 00       		.sleb128 0
 1470 052a 20       		.uleb128 0x20
 1471 052b 01       		.byte	0x1
 1472 052c 50       		.byte	0x50
 1473 052d 02       		.byte	0x2
 1474 052e 75       		.byte	0x75
 1475 052f 00       		.sleb128 0
 1476 0530 00       		.byte	0
 1477 0531 22       		.uleb128 0x22
 1478 0532 6A030000 		.4byte	.LVL122
 1479 0536 20       		.uleb128 0x20
ARM GAS  /tmp/ccWUSqAh.s 			page 27


 1480 0537 01       		.byte	0x1
 1481 0538 50       		.byte	0x50
 1482 0539 02       		.byte	0x2
 1483 053a 75       		.byte	0x75
 1484 053b 00       		.sleb128 0
 1485 053c 00       		.byte	0
 1486 053d 00       		.byte	0
 1487 053e 06       		.uleb128 0x6
 1488 053f 04       		.byte	0x4
 1489 0540 B1010000 		.4byte	0x1b1
 1490 0544 23       		.uleb128 0x23
 1491 0545 C1000000 		.4byte	0xc1
 1492 0549 24       		.uleb128 0x24
 1493 054a AF000000 		.4byte	0xaf
 1494 054e 0B       		.byte	0xb
 1495 054f 00       		.byte	0
 1496 0550 00       		.byte	0
 1497              		.section	.debug_abbrev,"",%progbits
 1498              	.Ldebug_abbrev0:
 1499 0000 01       		.uleb128 0x1
 1500 0001 11       		.uleb128 0x11
 1501 0002 01       		.byte	0x1
 1502 0003 25       		.uleb128 0x25
 1503 0004 0E       		.uleb128 0xe
 1504 0005 13       		.uleb128 0x13
 1505 0006 0B       		.uleb128 0xb
 1506 0007 03       		.uleb128 0x3
 1507 0008 0E       		.uleb128 0xe
 1508 0009 1B       		.uleb128 0x1b
 1509 000a 0E       		.uleb128 0xe
 1510 000b 55       		.uleb128 0x55
 1511 000c 06       		.uleb128 0x6
 1512 000d 11       		.uleb128 0x11
 1513 000e 01       		.uleb128 0x1
 1514 000f 52       		.uleb128 0x52
 1515 0010 01       		.uleb128 0x1
 1516 0011 10       		.uleb128 0x10
 1517 0012 06       		.uleb128 0x6
 1518 0013 00       		.byte	0
 1519 0014 00       		.byte	0
 1520 0015 02       		.uleb128 0x2
 1521 0016 24       		.uleb128 0x24
 1522 0017 00       		.byte	0
 1523 0018 0B       		.uleb128 0xb
 1524 0019 0B       		.uleb128 0xb
 1525 001a 3E       		.uleb128 0x3e
 1526 001b 0B       		.uleb128 0xb
 1527 001c 03       		.uleb128 0x3
 1528 001d 08       		.uleb128 0x8
 1529 001e 00       		.byte	0
 1530 001f 00       		.byte	0
 1531 0020 03       		.uleb128 0x3
 1532 0021 16       		.uleb128 0x16
 1533 0022 00       		.byte	0
 1534 0023 03       		.uleb128 0x3
 1535 0024 0E       		.uleb128 0xe
 1536 0025 3A       		.uleb128 0x3a
ARM GAS  /tmp/ccWUSqAh.s 			page 28


 1537 0026 0B       		.uleb128 0xb
 1538 0027 3B       		.uleb128 0x3b
 1539 0028 0B       		.uleb128 0xb
 1540 0029 49       		.uleb128 0x49
 1541 002a 13       		.uleb128 0x13
 1542 002b 00       		.byte	0
 1543 002c 00       		.byte	0
 1544 002d 04       		.uleb128 0x4
 1545 002e 24       		.uleb128 0x24
 1546 002f 00       		.byte	0
 1547 0030 0B       		.uleb128 0xb
 1548 0031 0B       		.uleb128 0xb
 1549 0032 3E       		.uleb128 0x3e
 1550 0033 0B       		.uleb128 0xb
 1551 0034 03       		.uleb128 0x3
 1552 0035 0E       		.uleb128 0xe
 1553 0036 00       		.byte	0
 1554 0037 00       		.byte	0
 1555 0038 05       		.uleb128 0x5
 1556 0039 0F       		.uleb128 0xf
 1557 003a 00       		.byte	0
 1558 003b 0B       		.uleb128 0xb
 1559 003c 0B       		.uleb128 0xb
 1560 003d 00       		.byte	0
 1561 003e 00       		.byte	0
 1562 003f 06       		.uleb128 0x6
 1563 0040 0F       		.uleb128 0xf
 1564 0041 00       		.byte	0
 1565 0042 0B       		.uleb128 0xb
 1566 0043 0B       		.uleb128 0xb
 1567 0044 49       		.uleb128 0x49
 1568 0045 13       		.uleb128 0x13
 1569 0046 00       		.byte	0
 1570 0047 00       		.byte	0
 1571 0048 07       		.uleb128 0x7
 1572 0049 26       		.uleb128 0x26
 1573 004a 00       		.byte	0
 1574 004b 49       		.uleb128 0x49
 1575 004c 13       		.uleb128 0x13
 1576 004d 00       		.byte	0
 1577 004e 00       		.byte	0
 1578 004f 08       		.uleb128 0x8
 1579 0050 15       		.uleb128 0x15
 1580 0051 01       		.byte	0x1
 1581 0052 27       		.uleb128 0x27
 1582 0053 0C       		.uleb128 0xc
 1583 0054 49       		.uleb128 0x49
 1584 0055 13       		.uleb128 0x13
 1585 0056 01       		.uleb128 0x1
 1586 0057 13       		.uleb128 0x13
 1587 0058 00       		.byte	0
 1588 0059 00       		.byte	0
 1589 005a 09       		.uleb128 0x9
 1590 005b 05       		.uleb128 0x5
 1591 005c 00       		.byte	0
 1592 005d 49       		.uleb128 0x49
 1593 005e 13       		.uleb128 0x13
ARM GAS  /tmp/ccWUSqAh.s 			page 29


 1594 005f 00       		.byte	0
 1595 0060 00       		.byte	0
 1596 0061 0A       		.uleb128 0xa
 1597 0062 13       		.uleb128 0x13
 1598 0063 01       		.byte	0x1
 1599 0064 03       		.uleb128 0x3
 1600 0065 0E       		.uleb128 0xe
 1601 0066 0B       		.uleb128 0xb
 1602 0067 0B       		.uleb128 0xb
 1603 0068 3A       		.uleb128 0x3a
 1604 0069 0B       		.uleb128 0xb
 1605 006a 3B       		.uleb128 0x3b
 1606 006b 0B       		.uleb128 0xb
 1607 006c 01       		.uleb128 0x1
 1608 006d 13       		.uleb128 0x13
 1609 006e 00       		.byte	0
 1610 006f 00       		.byte	0
 1611 0070 0B       		.uleb128 0xb
 1612 0071 0D       		.uleb128 0xd
 1613 0072 00       		.byte	0
 1614 0073 03       		.uleb128 0x3
 1615 0074 0E       		.uleb128 0xe
 1616 0075 3A       		.uleb128 0x3a
 1617 0076 0B       		.uleb128 0xb
 1618 0077 3B       		.uleb128 0x3b
 1619 0078 0B       		.uleb128 0xb
 1620 0079 49       		.uleb128 0x49
 1621 007a 13       		.uleb128 0x13
 1622 007b 38       		.uleb128 0x38
 1623 007c 0A       		.uleb128 0xa
 1624 007d 00       		.byte	0
 1625 007e 00       		.byte	0
 1626 007f 0C       		.uleb128 0xc
 1627 0080 0D       		.uleb128 0xd
 1628 0081 00       		.byte	0
 1629 0082 03       		.uleb128 0x3
 1630 0083 08       		.uleb128 0x8
 1631 0084 3A       		.uleb128 0x3a
 1632 0085 0B       		.uleb128 0xb
 1633 0086 3B       		.uleb128 0x3b
 1634 0087 0B       		.uleb128 0xb
 1635 0088 49       		.uleb128 0x49
 1636 0089 13       		.uleb128 0x13
 1637 008a 38       		.uleb128 0x38
 1638 008b 0A       		.uleb128 0xa
 1639 008c 00       		.byte	0
 1640 008d 00       		.byte	0
 1641 008e 0D       		.uleb128 0xd
 1642 008f 13       		.uleb128 0x13
 1643 0090 01       		.byte	0x1
 1644 0091 0B       		.uleb128 0xb
 1645 0092 0B       		.uleb128 0xb
 1646 0093 3A       		.uleb128 0x3a
 1647 0094 0B       		.uleb128 0xb
 1648 0095 3B       		.uleb128 0x3b
 1649 0096 0B       		.uleb128 0xb
 1650 0097 01       		.uleb128 0x1
ARM GAS  /tmp/ccWUSqAh.s 			page 30


 1651 0098 13       		.uleb128 0x13
 1652 0099 00       		.byte	0
 1653 009a 00       		.byte	0
 1654 009b 0E       		.uleb128 0xe
 1655 009c 0D       		.uleb128 0xd
 1656 009d 00       		.byte	0
 1657 009e 03       		.uleb128 0x3
 1658 009f 0E       		.uleb128 0xe
 1659 00a0 49       		.uleb128 0x49
 1660 00a1 13       		.uleb128 0x13
 1661 00a2 38       		.uleb128 0x38
 1662 00a3 0A       		.uleb128 0xa
 1663 00a4 34       		.uleb128 0x34
 1664 00a5 0C       		.uleb128 0xc
 1665 00a6 00       		.byte	0
 1666 00a7 00       		.byte	0
 1667 00a8 0F       		.uleb128 0xf
 1668 00a9 2E       		.uleb128 0x2e
 1669 00aa 01       		.byte	0x1
 1670 00ab 03       		.uleb128 0x3
 1671 00ac 0E       		.uleb128 0xe
 1672 00ad 3A       		.uleb128 0x3a
 1673 00ae 0B       		.uleb128 0xb
 1674 00af 3B       		.uleb128 0x3b
 1675 00b0 0B       		.uleb128 0xb
 1676 00b1 27       		.uleb128 0x27
 1677 00b2 0C       		.uleb128 0xc
 1678 00b3 49       		.uleb128 0x49
 1679 00b4 13       		.uleb128 0x13
 1680 00b5 20       		.uleb128 0x20
 1681 00b6 0B       		.uleb128 0xb
 1682 00b7 01       		.uleb128 0x1
 1683 00b8 13       		.uleb128 0x13
 1684 00b9 00       		.byte	0
 1685 00ba 00       		.byte	0
 1686 00bb 10       		.uleb128 0x10
 1687 00bc 05       		.uleb128 0x5
 1688 00bd 00       		.byte	0
 1689 00be 03       		.uleb128 0x3
 1690 00bf 08       		.uleb128 0x8
 1691 00c0 3A       		.uleb128 0x3a
 1692 00c1 0B       		.uleb128 0xb
 1693 00c2 3B       		.uleb128 0x3b
 1694 00c3 0B       		.uleb128 0xb
 1695 00c4 49       		.uleb128 0x49
 1696 00c5 13       		.uleb128 0x13
 1697 00c6 00       		.byte	0
 1698 00c7 00       		.byte	0
 1699 00c8 11       		.uleb128 0x11
 1700 00c9 05       		.uleb128 0x5
 1701 00ca 00       		.byte	0
 1702 00cb 03       		.uleb128 0x3
 1703 00cc 0E       		.uleb128 0xe
 1704 00cd 3A       		.uleb128 0x3a
 1705 00ce 0B       		.uleb128 0xb
 1706 00cf 3B       		.uleb128 0x3b
 1707 00d0 0B       		.uleb128 0xb
ARM GAS  /tmp/ccWUSqAh.s 			page 31


 1708 00d1 49       		.uleb128 0x49
 1709 00d2 13       		.uleb128 0x13
 1710 00d3 00       		.byte	0
 1711 00d4 00       		.byte	0
 1712 00d5 12       		.uleb128 0x12
 1713 00d6 34       		.uleb128 0x34
 1714 00d7 00       		.byte	0
 1715 00d8 03       		.uleb128 0x3
 1716 00d9 08       		.uleb128 0x8
 1717 00da 3A       		.uleb128 0x3a
 1718 00db 0B       		.uleb128 0xb
 1719 00dc 3B       		.uleb128 0x3b
 1720 00dd 0B       		.uleb128 0xb
 1721 00de 49       		.uleb128 0x49
 1722 00df 13       		.uleb128 0x13
 1723 00e0 00       		.byte	0
 1724 00e1 00       		.byte	0
 1725 00e2 13       		.uleb128 0x13
 1726 00e3 2E       		.uleb128 0x2e
 1727 00e4 01       		.byte	0x1
 1728 00e5 31       		.uleb128 0x31
 1729 00e6 13       		.uleb128 0x13
 1730 00e7 11       		.uleb128 0x11
 1731 00e8 01       		.uleb128 0x1
 1732 00e9 12       		.uleb128 0x12
 1733 00ea 01       		.uleb128 0x1
 1734 00eb 40       		.uleb128 0x40
 1735 00ec 06       		.uleb128 0x6
 1736 00ed 9742     		.uleb128 0x2117
 1737 00ef 0C       		.uleb128 0xc
 1738 00f0 01       		.uleb128 0x1
 1739 00f1 13       		.uleb128 0x13
 1740 00f2 00       		.byte	0
 1741 00f3 00       		.byte	0
 1742 00f4 14       		.uleb128 0x14
 1743 00f5 05       		.uleb128 0x5
 1744 00f6 00       		.byte	0
 1745 00f7 31       		.uleb128 0x31
 1746 00f8 13       		.uleb128 0x13
 1747 00f9 02       		.uleb128 0x2
 1748 00fa 06       		.uleb128 0x6
 1749 00fb 00       		.byte	0
 1750 00fc 00       		.byte	0
 1751 00fd 15       		.uleb128 0x15
 1752 00fe 34       		.uleb128 0x34
 1753 00ff 00       		.byte	0
 1754 0100 31       		.uleb128 0x31
 1755 0101 13       		.uleb128 0x13
 1756 0102 02       		.uleb128 0x2
 1757 0103 06       		.uleb128 0x6
 1758 0104 00       		.byte	0
 1759 0105 00       		.byte	0
 1760 0106 16       		.uleb128 0x16
 1761 0107 05       		.uleb128 0x5
 1762 0108 00       		.byte	0
 1763 0109 31       		.uleb128 0x31
 1764 010a 13       		.uleb128 0x13
ARM GAS  /tmp/ccWUSqAh.s 			page 32


 1765 010b 1C       		.uleb128 0x1c
 1766 010c 0B       		.uleb128 0xb
 1767 010d 00       		.byte	0
 1768 010e 00       		.byte	0
 1769 010f 17       		.uleb128 0x17
 1770 0110 2E       		.uleb128 0x2e
 1771 0111 01       		.byte	0x1
 1772 0112 3F       		.uleb128 0x3f
 1773 0113 0C       		.uleb128 0xc
 1774 0114 03       		.uleb128 0x3
 1775 0115 0E       		.uleb128 0xe
 1776 0116 3A       		.uleb128 0x3a
 1777 0117 0B       		.uleb128 0xb
 1778 0118 3B       		.uleb128 0x3b
 1779 0119 0B       		.uleb128 0xb
 1780 011a 27       		.uleb128 0x27
 1781 011b 0C       		.uleb128 0xc
 1782 011c 11       		.uleb128 0x11
 1783 011d 01       		.uleb128 0x1
 1784 011e 12       		.uleb128 0x12
 1785 011f 01       		.uleb128 0x1
 1786 0120 40       		.uleb128 0x40
 1787 0121 06       		.uleb128 0x6
 1788 0122 9742     		.uleb128 0x2117
 1789 0124 0C       		.uleb128 0xc
 1790 0125 01       		.uleb128 0x1
 1791 0126 13       		.uleb128 0x13
 1792 0127 00       		.byte	0
 1793 0128 00       		.byte	0
 1794 0129 18       		.uleb128 0x18
 1795 012a 05       		.uleb128 0x5
 1796 012b 00       		.byte	0
 1797 012c 03       		.uleb128 0x3
 1798 012d 08       		.uleb128 0x8
 1799 012e 3A       		.uleb128 0x3a
 1800 012f 0B       		.uleb128 0xb
 1801 0130 3B       		.uleb128 0x3b
 1802 0131 0B       		.uleb128 0xb
 1803 0132 49       		.uleb128 0x49
 1804 0133 13       		.uleb128 0x13
 1805 0134 02       		.uleb128 0x2
 1806 0135 06       		.uleb128 0x6
 1807 0136 00       		.byte	0
 1808 0137 00       		.byte	0
 1809 0138 19       		.uleb128 0x19
 1810 0139 34       		.uleb128 0x34
 1811 013a 00       		.byte	0
 1812 013b 03       		.uleb128 0x3
 1813 013c 08       		.uleb128 0x8
 1814 013d 3A       		.uleb128 0x3a
 1815 013e 0B       		.uleb128 0xb
 1816 013f 3B       		.uleb128 0x3b
 1817 0140 0B       		.uleb128 0xb
 1818 0141 49       		.uleb128 0x49
 1819 0142 13       		.uleb128 0x13
 1820 0143 02       		.uleb128 0x2
 1821 0144 06       		.uleb128 0x6
ARM GAS  /tmp/ccWUSqAh.s 			page 33


 1822 0145 00       		.byte	0
 1823 0146 00       		.byte	0
 1824 0147 1A       		.uleb128 0x1a
 1825 0148 34       		.uleb128 0x34
 1826 0149 00       		.byte	0
 1827 014a 03       		.uleb128 0x3
 1828 014b 0E       		.uleb128 0xe
 1829 014c 3A       		.uleb128 0x3a
 1830 014d 0B       		.uleb128 0xb
 1831 014e 3B       		.uleb128 0x3b
 1832 014f 0B       		.uleb128 0xb
 1833 0150 49       		.uleb128 0x49
 1834 0151 13       		.uleb128 0x13
 1835 0152 02       		.uleb128 0x2
 1836 0153 06       		.uleb128 0x6
 1837 0154 00       		.byte	0
 1838 0155 00       		.byte	0
 1839 0156 1B       		.uleb128 0x1b
 1840 0157 34       		.uleb128 0x34
 1841 0158 00       		.byte	0
 1842 0159 03       		.uleb128 0x3
 1843 015a 0E       		.uleb128 0xe
 1844 015b 3A       		.uleb128 0x3a
 1845 015c 0B       		.uleb128 0xb
 1846 015d 3B       		.uleb128 0x3b
 1847 015e 0B       		.uleb128 0xb
 1848 015f 49       		.uleb128 0x49
 1849 0160 13       		.uleb128 0x13
 1850 0161 02       		.uleb128 0x2
 1851 0162 0A       		.uleb128 0xa
 1852 0163 00       		.byte	0
 1853 0164 00       		.byte	0
 1854 0165 1C       		.uleb128 0x1c
 1855 0166 0A       		.uleb128 0xa
 1856 0167 00       		.byte	0
 1857 0168 03       		.uleb128 0x3
 1858 0169 0E       		.uleb128 0xe
 1859 016a 3A       		.uleb128 0x3a
 1860 016b 0B       		.uleb128 0xb
 1861 016c 3B       		.uleb128 0x3b
 1862 016d 0B       		.uleb128 0xb
 1863 016e 11       		.uleb128 0x11
 1864 016f 01       		.uleb128 0x1
 1865 0170 00       		.byte	0
 1866 0171 00       		.byte	0
 1867 0172 1D       		.uleb128 0x1d
 1868 0173 1D       		.uleb128 0x1d
 1869 0174 01       		.byte	0x1
 1870 0175 31       		.uleb128 0x31
 1871 0176 13       		.uleb128 0x13
 1872 0177 11       		.uleb128 0x11
 1873 0178 01       		.uleb128 0x1
 1874 0179 12       		.uleb128 0x12
 1875 017a 01       		.uleb128 0x1
 1876 017b 58       		.uleb128 0x58
 1877 017c 0B       		.uleb128 0xb
 1878 017d 59       		.uleb128 0x59
ARM GAS  /tmp/ccWUSqAh.s 			page 34


 1879 017e 0B       		.uleb128 0xb
 1880 017f 01       		.uleb128 0x1
 1881 0180 13       		.uleb128 0x13
 1882 0181 00       		.byte	0
 1883 0182 00       		.byte	0
 1884 0183 1E       		.uleb128 0x1e
 1885 0184 05       		.uleb128 0x5
 1886 0185 00       		.byte	0
 1887 0186 31       		.uleb128 0x31
 1888 0187 13       		.uleb128 0x13
 1889 0188 00       		.byte	0
 1890 0189 00       		.byte	0
 1891 018a 1F       		.uleb128 0x1f
 1892 018b 898201   		.uleb128 0x4109
 1893 018e 01       		.byte	0x1
 1894 018f 11       		.uleb128 0x11
 1895 0190 01       		.uleb128 0x1
 1896 0191 31       		.uleb128 0x31
 1897 0192 13       		.uleb128 0x13
 1898 0193 00       		.byte	0
 1899 0194 00       		.byte	0
 1900 0195 20       		.uleb128 0x20
 1901 0196 8A8201   		.uleb128 0x410a
 1902 0199 00       		.byte	0
 1903 019a 02       		.uleb128 0x2
 1904 019b 0A       		.uleb128 0xa
 1905 019c 9142     		.uleb128 0x2111
 1906 019e 0A       		.uleb128 0xa
 1907 019f 00       		.byte	0
 1908 01a0 00       		.byte	0
 1909 01a1 21       		.uleb128 0x21
 1910 01a2 898201   		.uleb128 0x4109
 1911 01a5 01       		.byte	0x1
 1912 01a6 11       		.uleb128 0x11
 1913 01a7 01       		.uleb128 0x1
 1914 01a8 01       		.uleb128 0x1
 1915 01a9 13       		.uleb128 0x13
 1916 01aa 00       		.byte	0
 1917 01ab 00       		.byte	0
 1918 01ac 22       		.uleb128 0x22
 1919 01ad 898201   		.uleb128 0x4109
 1920 01b0 01       		.byte	0x1
 1921 01b1 11       		.uleb128 0x11
 1922 01b2 01       		.uleb128 0x1
 1923 01b3 00       		.byte	0
 1924 01b4 00       		.byte	0
 1925 01b5 23       		.uleb128 0x23
 1926 01b6 01       		.uleb128 0x1
 1927 01b7 01       		.byte	0x1
 1928 01b8 49       		.uleb128 0x49
 1929 01b9 13       		.uleb128 0x13
 1930 01ba 00       		.byte	0
 1931 01bb 00       		.byte	0
 1932 01bc 24       		.uleb128 0x24
 1933 01bd 21       		.uleb128 0x21
 1934 01be 00       		.byte	0
 1935 01bf 49       		.uleb128 0x49
ARM GAS  /tmp/ccWUSqAh.s 			page 35


 1936 01c0 13       		.uleb128 0x13
 1937 01c1 2F       		.uleb128 0x2f
 1938 01c2 0B       		.uleb128 0xb
 1939 01c3 00       		.byte	0
 1940 01c4 00       		.byte	0
 1941 01c5 00       		.byte	0
 1942              		.section	.debug_loc,"",%progbits
 1943              	.Ldebug_loc0:
 1944              	.LLST0:
 1945 0000 00000000 		.4byte	.LFB11
 1946 0004 02000000 		.4byte	.LCFI0
 1947 0008 0200     		.2byte	0x2
 1948 000a 7D       		.byte	0x7d
 1949 000b 00       		.sleb128 0
 1950 000c 02000000 		.4byte	.LCFI0
 1951 0010 68000000 		.4byte	.LFE11
 1952 0014 0200     		.2byte	0x2
 1953 0016 7D       		.byte	0x7d
 1954 0017 10       		.sleb128 16
 1955 0018 00000000 		.4byte	0
 1956 001c 00000000 		.4byte	0
 1957              	.LLST1:
 1958 0020 00000000 		.4byte	.LVL0
 1959 0024 0E000000 		.4byte	.LVL2
 1960 0028 0100     		.2byte	0x1
 1961 002a 50       		.byte	0x50
 1962 002b 0E000000 		.4byte	.LVL2
 1963 002f 52000000 		.4byte	.LVL18
 1964 0033 0100     		.2byte	0x1
 1965 0035 57       		.byte	0x57
 1966 0036 5A000000 		.4byte	.LVL19
 1967 003a 68000000 		.4byte	.LFE11
 1968 003e 0100     		.2byte	0x1
 1969 0040 57       		.byte	0x57
 1970 0041 00000000 		.4byte	0
 1971 0045 00000000 		.4byte	0
 1972              	.LLST2:
 1973 0049 00000000 		.4byte	.LVL0
 1974 004d 0E000000 		.4byte	.LVL2
 1975 0051 0100     		.2byte	0x1
 1976 0053 51       		.byte	0x51
 1977 0054 0E000000 		.4byte	.LVL2
 1978 0058 68000000 		.4byte	.LFE11
 1979 005c 0400     		.2byte	0x4
 1980 005e F3       		.byte	0xf3
 1981 005f 01       		.uleb128 0x1
 1982 0060 51       		.byte	0x51
 1983 0061 9F       		.byte	0x9f
 1984 0062 00000000 		.4byte	0
 1985 0066 00000000 		.4byte	0
 1986              	.LLST3:
 1987 006a 00000000 		.4byte	.LVL0
 1988 006e 38000000 		.4byte	.LVL12
 1989 0072 0100     		.2byte	0x1
 1990 0074 52       		.byte	0x52
 1991 0075 38000000 		.4byte	.LVL12
 1992 0079 68000000 		.4byte	.LFE11
ARM GAS  /tmp/ccWUSqAh.s 			page 36


 1993 007d 0400     		.2byte	0x4
 1994 007f F3       		.byte	0xf3
 1995 0080 01       		.uleb128 0x1
 1996 0081 52       		.byte	0x52
 1997 0082 9F       		.byte	0x9f
 1998 0083 00000000 		.4byte	0
 1999 0087 00000000 		.4byte	0
 2000              	.LLST4:
 2001 008b 16000000 		.4byte	.LVL3
 2002 008f 1A000000 		.4byte	.LVL4
 2003 0093 0100     		.2byte	0x1
 2004 0095 51       		.byte	0x51
 2005 0096 1A000000 		.4byte	.LVL4
 2006 009a 24000000 		.4byte	.LVL6
 2007 009e 0100     		.2byte	0x1
 2008 00a0 53       		.byte	0x53
 2009 00a1 34000000 		.4byte	.LVL11
 2010 00a5 38000000 		.4byte	.LVL12
 2011 00a9 0600     		.2byte	0x6
 2012 00ab 7C       		.byte	0x7c
 2013 00ac 00       		.sleb128 0
 2014 00ad 70       		.byte	0x70
 2015 00ae 00       		.sleb128 0
 2016 00af 1C       		.byte	0x1c
 2017 00b0 9F       		.byte	0x9f
 2018 00b1 38000000 		.4byte	.LVL12
 2019 00b5 3E000000 		.4byte	.LVL15
 2020 00b9 0100     		.2byte	0x1
 2021 00bb 52       		.byte	0x52
 2022 00bc 3E000000 		.4byte	.LVL15
 2023 00c0 44000000 		.4byte	.LVL16
 2024 00c4 0600     		.2byte	0x6
 2025 00c6 7C       		.byte	0x7c
 2026 00c7 00       		.sleb128 0
 2027 00c8 71       		.byte	0x71
 2028 00c9 00       		.sleb128 0
 2029 00ca 1C       		.byte	0x1c
 2030 00cb 9F       		.byte	0x9f
 2031 00cc 00000000 		.4byte	0
 2032 00d0 00000000 		.4byte	0
 2033              	.LLST5:
 2034 00d4 08000000 		.4byte	.LVL1
 2035 00d8 0E000000 		.4byte	.LVL2
 2036 00dc 0100     		.2byte	0x1
 2037 00de 5C       		.byte	0x5c
 2038 00df 2A000000 		.4byte	.LVL8
 2039 00e3 3C000000 		.4byte	.LVL14
 2040 00e7 0100     		.2byte	0x1
 2041 00e9 50       		.byte	0x50
 2042 00ea 3C000000 		.4byte	.LVL14
 2043 00ee 44000000 		.4byte	.LVL16
 2044 00f2 0100     		.2byte	0x1
 2045 00f4 51       		.byte	0x51
 2046 00f5 00000000 		.4byte	0
 2047 00f9 00000000 		.4byte	0
 2048              	.LLST6:
 2049 00fd 08000000 		.4byte	.LVL1
ARM GAS  /tmp/ccWUSqAh.s 			page 37


 2050 0101 16000000 		.4byte	.LVL3
 2051 0105 0100     		.2byte	0x1
 2052 0107 51       		.byte	0x51
 2053 0108 30000000 		.4byte	.LVL10
 2054 010c 3A000000 		.4byte	.LVL13
 2055 0110 0100     		.2byte	0x1
 2056 0112 51       		.byte	0x51
 2057 0113 3A000000 		.4byte	.LVL13
 2058 0117 68000000 		.4byte	.LFE11
 2059 011b 0100     		.2byte	0x1
 2060 011d 56       		.byte	0x56
 2061 011e 00000000 		.4byte	0
 2062 0122 00000000 		.4byte	0
 2063              	.LLST7:
 2064 0126 08000000 		.4byte	.LVL1
 2065 012a 0E000000 		.4byte	.LVL2
 2066 012e 0100     		.2byte	0x1
 2067 0130 51       		.byte	0x51
 2068 0131 0E000000 		.4byte	.LVL2
 2069 0135 28000000 		.4byte	.LVL7
 2070 0139 0100     		.2byte	0x1
 2071 013b 54       		.byte	0x54
 2072 013c 30000000 		.4byte	.LVL10
 2073 0140 68000000 		.4byte	.LFE11
 2074 0144 0100     		.2byte	0x1
 2075 0146 54       		.byte	0x54
 2076 0147 00000000 		.4byte	0
 2077 014b 00000000 		.4byte	0
 2078              	.LLST8:
 2079 014f 00000000 		.4byte	.LFB10
 2080 0153 04000000 		.4byte	.LCFI1
 2081 0157 0200     		.2byte	0x2
 2082 0159 7D       		.byte	0x7d
 2083 015a 00       		.sleb128 0
 2084 015b 04000000 		.4byte	.LCFI1
 2085 015f 06000000 		.4byte	.LCFI2
 2086 0163 0200     		.2byte	0x2
 2087 0165 7D       		.byte	0x7d
 2088 0166 24       		.sleb128 36
 2089 0167 06000000 		.4byte	.LCFI2
 2090 016b 88030000 		.4byte	.LFE10
 2091 016f 0300     		.2byte	0x3
 2092 0171 7D       		.byte	0x7d
 2093 0172 C800     		.sleb128 72
 2094 0174 00000000 		.4byte	0
 2095 0178 00000000 		.4byte	0
 2096              	.LLST9:
 2097 017c 00000000 		.4byte	.LVL20
 2098 0180 12000000 		.4byte	.LVL21
 2099 0184 0100     		.2byte	0x1
 2100 0186 50       		.byte	0x50
 2101 0187 12000000 		.4byte	.LVL21
 2102 018b 88030000 		.4byte	.LFE10
 2103 018f 0100     		.2byte	0x1
 2104 0191 55       		.byte	0x55
 2105 0192 00000000 		.4byte	0
 2106 0196 00000000 		.4byte	0
ARM GAS  /tmp/ccWUSqAh.s 			page 38


 2107              	.LLST10:
 2108 019a 00000000 		.4byte	.LVL20
 2109 019e 1E000000 		.4byte	.LVL22
 2110 01a2 0100     		.2byte	0x1
 2111 01a4 51       		.byte	0x51
 2112 01a5 1E000000 		.4byte	.LVL22
 2113 01a9 24000000 		.4byte	.LVL23
 2114 01ad 0100     		.2byte	0x1
 2115 01af 54       		.byte	0x54
 2116 01b0 24000000 		.4byte	.LVL23
 2117 01b4 34000000 		.4byte	.LVL25
 2118 01b8 0100     		.2byte	0x1
 2119 01ba 56       		.byte	0x56
 2120 01bb 34000000 		.4byte	.LVL25
 2121 01bf 3A000000 		.4byte	.LVL27
 2122 01c3 0100     		.2byte	0x1
 2123 01c5 54       		.byte	0x54
 2124 01c6 3A000000 		.4byte	.LVL27
 2125 01ca 62000000 		.4byte	.LVL32
 2126 01ce 0100     		.2byte	0x1
 2127 01d0 56       		.byte	0x56
 2128 01d1 62000000 		.4byte	.LVL32
 2129 01d5 20030000 		.4byte	.LVL109
 2130 01d9 0100     		.2byte	0x1
 2131 01db 54       		.byte	0x54
 2132 01dc 20030000 		.4byte	.LVL109
 2133 01e0 26030000 		.4byte	.LVL110
 2134 01e4 0300     		.2byte	0x3
 2135 01e6 76       		.byte	0x76
 2136 01e7 01       		.sleb128 1
 2137 01e8 9F       		.byte	0x9f
 2138 01e9 26030000 		.4byte	.LVL110
 2139 01ed 28030000 		.4byte	.LVL111
 2140 01f1 0100     		.2byte	0x1
 2141 01f3 56       		.byte	0x56
 2142 01f4 28030000 		.4byte	.LVL111
 2143 01f8 2E030000 		.4byte	.LVL112
 2144 01fc 0100     		.2byte	0x1
 2145 01fe 54       		.byte	0x54
 2146 01ff 2E030000 		.4byte	.LVL112
 2147 0203 3A030000 		.4byte	.LVL115
 2148 0207 0100     		.2byte	0x1
 2149 0209 50       		.byte	0x50
 2150 020a 4C030000 		.4byte	.LVL118
 2151 020e 54030000 		.4byte	.LVL119
 2152 0212 0100     		.2byte	0x1
 2153 0214 50       		.byte	0x50
 2154 0215 54030000 		.4byte	.LVL119
 2155 0219 5E030000 		.4byte	.LVL121
 2156 021d 0100     		.2byte	0x1
 2157 021f 56       		.byte	0x56
 2158 0220 5E030000 		.4byte	.LVL121
 2159 0224 88030000 		.4byte	.LFE10
 2160 0228 0100     		.2byte	0x1
 2161 022a 54       		.byte	0x54
 2162 022b 00000000 		.4byte	0
 2163 022f 00000000 		.4byte	0
ARM GAS  /tmp/ccWUSqAh.s 			page 39


 2164              	.LLST11:
 2165 0233 00000000 		.4byte	.LVL20
 2166 0237 1E000000 		.4byte	.LVL22
 2167 023b 0100     		.2byte	0x1
 2168 023d 52       		.byte	0x52
 2169 023e 1E000000 		.4byte	.LVL22
 2170 0242 35000000 		.4byte	.LVL26-1
 2171 0246 0300     		.2byte	0x3
 2172 0248 5B       		.byte	0x5b
 2173 0249 93       		.byte	0x93
 2174 024a 04       		.uleb128 0x4
 2175 024b 36000000 		.4byte	.LVL26
 2176 024f 3E000000 		.4byte	.LVL28
 2177 0253 0300     		.2byte	0x3
 2178 0255 5B       		.byte	0x5b
 2179 0256 93       		.byte	0x93
 2180 0257 04       		.uleb128 0x4
 2181 0258 3E000000 		.4byte	.LVL28
 2182 025c 64000000 		.4byte	.LVL33
 2183 0260 0300     		.2byte	0x3
 2184 0262 5B       		.byte	0x5b
 2185 0263 93       		.byte	0x93
 2186 0264 04       		.uleb128 0x4
 2187 0265 64000000 		.4byte	.LVL33
 2188 0269 6C000000 		.4byte	.LVL35
 2189 026d 0500     		.2byte	0x5
 2190 026f 7B       		.byte	0x7b
 2191 0270 04       		.sleb128 4
 2192 0271 9F       		.byte	0x9f
 2193 0272 93       		.byte	0x93
 2194 0273 04       		.uleb128 0x4
 2195 0274 6C000000 		.4byte	.LVL35
 2196 0278 76000000 		.4byte	.LVL37
 2197 027c 0300     		.2byte	0x3
 2198 027e 5B       		.byte	0x5b
 2199 027f 93       		.byte	0x93
 2200 0280 04       		.uleb128 0x4
 2201 0281 76000000 		.4byte	.LVL37
 2202 0285 7A000000 		.4byte	.LVL38
 2203 0289 0500     		.2byte	0x5
 2204 028b 7B       		.byte	0x7b
 2205 028c 04       		.sleb128 4
 2206 028d 9F       		.byte	0x9f
 2207 028e 93       		.byte	0x93
 2208 028f 04       		.uleb128 0x4
 2209 0290 82000000 		.4byte	.LVL40
 2210 0294 8E000000 		.4byte	.LVL42
 2211 0298 0500     		.2byte	0x5
 2212 029a 7B       		.byte	0x7b
 2213 029b 04       		.sleb128 4
 2214 029c 9F       		.byte	0x9f
 2215 029d 93       		.byte	0x93
 2216 029e 04       		.uleb128 0x4
 2217 029f 8E000000 		.4byte	.LVL42
 2218 02a3 30010000 		.4byte	.LVL46
 2219 02a7 0300     		.2byte	0x3
 2220 02a9 5B       		.byte	0x5b
ARM GAS  /tmp/ccWUSqAh.s 			page 40


 2221 02aa 93       		.byte	0x93
 2222 02ab 04       		.uleb128 0x4
 2223 02ac 30010000 		.4byte	.LVL46
 2224 02b0 44020000 		.4byte	.LVL72
 2225 02b4 0300     		.2byte	0x3
 2226 02b6 5B       		.byte	0x5b
 2227 02b7 93       		.byte	0x93
 2228 02b8 04       		.uleb128 0x4
 2229 02b9 44020000 		.4byte	.LVL72
 2230 02bd 54020000 		.4byte	.LVL74
 2231 02c1 0500     		.2byte	0x5
 2232 02c3 7B       		.byte	0x7b
 2233 02c4 04       		.sleb128 4
 2234 02c5 9F       		.byte	0x9f
 2235 02c6 93       		.byte	0x93
 2236 02c7 04       		.uleb128 0x4
 2237 02c8 54020000 		.4byte	.LVL74
 2238 02cc D2020000 		.4byte	.LVL96
 2239 02d0 0300     		.2byte	0x3
 2240 02d2 5B       		.byte	0x5b
 2241 02d3 93       		.byte	0x93
 2242 02d4 04       		.uleb128 0x4
 2243 02d5 D2020000 		.4byte	.LVL96
 2244 02d9 EC020000 		.4byte	.LVL101
 2245 02dd 0300     		.2byte	0x3
 2246 02df 5B       		.byte	0x5b
 2247 02e0 93       		.byte	0x93
 2248 02e1 04       		.uleb128 0x4
 2249 02e2 EC020000 		.4byte	.LVL101
 2250 02e6 20030000 		.4byte	.LVL109
 2251 02ea 0300     		.2byte	0x3
 2252 02ec 5B       		.byte	0x5b
 2253 02ed 93       		.byte	0x93
 2254 02ee 04       		.uleb128 0x4
 2255 02ef 20030000 		.4byte	.LVL109
 2256 02f3 28030000 		.4byte	.LVL111
 2257 02f7 0300     		.2byte	0x3
 2258 02f9 5B       		.byte	0x5b
 2259 02fa 93       		.byte	0x93
 2260 02fb 04       		.uleb128 0x4
 2261 02fc 28030000 		.4byte	.LVL111
 2262 0300 36030000 		.4byte	.LVL114
 2263 0304 0500     		.2byte	0x5
 2264 0306 7B       		.byte	0x7b
 2265 0307 04       		.sleb128 4
 2266 0308 9F       		.byte	0x9f
 2267 0309 93       		.byte	0x93
 2268 030a 04       		.uleb128 0x4
 2269 030b 36030000 		.4byte	.LVL114
 2270 030f 3A030000 		.4byte	.LVL115
 2271 0313 0300     		.2byte	0x3
 2272 0315 5B       		.byte	0x5b
 2273 0316 93       		.byte	0x93
 2274 0317 04       		.uleb128 0x4
 2275 0318 3A030000 		.4byte	.LVL115
 2276 031c 54030000 		.4byte	.LVL119
 2277 0320 0500     		.2byte	0x5
ARM GAS  /tmp/ccWUSqAh.s 			page 41


 2278 0322 7B       		.byte	0x7b
 2279 0323 04       		.sleb128 4
 2280 0324 9F       		.byte	0x9f
 2281 0325 93       		.byte	0x93
 2282 0326 04       		.uleb128 0x4
 2283 0327 54030000 		.4byte	.LVL119
 2284 032b 5E030000 		.4byte	.LVL121
 2285 032f 0300     		.2byte	0x3
 2286 0331 5B       		.byte	0x5b
 2287 0332 93       		.byte	0x93
 2288 0333 04       		.uleb128 0x4
 2289 0334 5E030000 		.4byte	.LVL121
 2290 0338 88030000 		.4byte	.LFE10
 2291 033c 0300     		.2byte	0x3
 2292 033e 5B       		.byte	0x5b
 2293 033f 93       		.byte	0x93
 2294 0340 04       		.uleb128 0x4
 2295 0341 00000000 		.4byte	0
 2296 0345 00000000 		.4byte	0
 2297              	.LLST12:
 2298 0349 44000000 		.4byte	.LVL29
 2299 034d 36010000 		.4byte	.LVL47
 2300 0351 0200     		.2byte	0x2
 2301 0353 91       		.byte	0x91
 2302 0354 40       		.sleb128 -64
 2303 0355 36010000 		.4byte	.LVL47
 2304 0359 52010000 		.4byte	.LVL49
 2305 035d 0100     		.2byte	0x1
 2306 035f 59       		.byte	0x59
 2307 0360 52010000 		.4byte	.LVL49
 2308 0364 6E010000 		.4byte	.LVL51
 2309 0368 0100     		.2byte	0x1
 2310 036a 5A       		.byte	0x5a
 2311 036b 6E010000 		.4byte	.LVL51
 2312 036f 76010000 		.4byte	.LVL52
 2313 0373 0100     		.2byte	0x1
 2314 0375 52       		.byte	0x52
 2315 0376 76010000 		.4byte	.LVL52
 2316 037a 8E010000 		.4byte	.LVL54
 2317 037e 0100     		.2byte	0x1
 2318 0380 5A       		.byte	0x5a
 2319 0381 44020000 		.4byte	.LVL72
 2320 0385 50020000 		.4byte	.LVL73
 2321 0389 0200     		.2byte	0x2
 2322 038b 91       		.byte	0x91
 2323 038c 40       		.sleb128 -64
 2324 038d 50020000 		.4byte	.LVL73
 2325 0391 5A020000 		.4byte	.LVL75
 2326 0395 0300     		.2byte	0x3
 2327 0397 91       		.byte	0x91
 2328 0398 BC7F     		.sleb128 -68
 2329 039a BE020000 		.4byte	.LVL92
 2330 039e D2020000 		.4byte	.LVL96
 2331 03a2 0200     		.2byte	0x2
 2332 03a4 91       		.byte	0x91
 2333 03a5 40       		.sleb128 -64
 2334 03a6 DC020000 		.4byte	.LVL97
ARM GAS  /tmp/ccWUSqAh.s 			page 42


 2335 03aa F2020000 		.4byte	.LVL102
 2336 03ae 0200     		.2byte	0x2
 2337 03b0 91       		.byte	0x91
 2338 03b1 40       		.sleb128 -64
 2339 03b2 F2020000 		.4byte	.LVL102
 2340 03b6 F7020000 		.4byte	.LVL103-1
 2341 03ba 0100     		.2byte	0x1
 2342 03bc 50       		.byte	0x50
 2343 03bd 04030000 		.4byte	.LVL104
 2344 03c1 08030000 		.4byte	.LVL105
 2345 03c5 0200     		.2byte	0x2
 2346 03c7 91       		.byte	0x91
 2347 03c8 40       		.sleb128 -64
 2348 03c9 08030000 		.4byte	.LVL105
 2349 03cd 12030000 		.4byte	.LVL106
 2350 03d1 0300     		.2byte	0x3
 2351 03d3 91       		.byte	0x91
 2352 03d4 BC7F     		.sleb128 -68
 2353 03d6 12030000 		.4byte	.LVL106
 2354 03da 5E030000 		.4byte	.LVL121
 2355 03de 0200     		.2byte	0x2
 2356 03e0 91       		.byte	0x91
 2357 03e1 40       		.sleb128 -64
 2358 03e2 74030000 		.4byte	.LVL125
 2359 03e6 7A030000 		.4byte	.LVL126
 2360 03ea 0200     		.2byte	0x2
 2361 03ec 91       		.byte	0x91
 2362 03ed 40       		.sleb128 -64
 2363 03ee 7A030000 		.4byte	.LVL126
 2364 03f2 82030000 		.4byte	.LVL128
 2365 03f6 0300     		.2byte	0x3
 2366 03f8 91       		.byte	0x91
 2367 03f9 BC7F     		.sleb128 -68
 2368 03fb 82030000 		.4byte	.LVL128
 2369 03ff 88030000 		.4byte	.LFE10
 2370 0403 0100     		.2byte	0x1
 2371 0405 59       		.byte	0x59
 2372 0406 00000000 		.4byte	0
 2373 040a 00000000 		.4byte	0
 2374              	.LLST13:
 2375 040e 44000000 		.4byte	.LVL29
 2376 0412 30010000 		.4byte	.LVL46
 2377 0416 0200     		.2byte	0x2
 2378 0418 91       		.byte	0x91
 2379 0419 40       		.sleb128 -64
 2380 041a 30010000 		.4byte	.LVL46
 2381 041e BA010000 		.4byte	.LVL60
 2382 0422 0100     		.2byte	0x1
 2383 0424 59       		.byte	0x59
 2384 0425 BA010000 		.4byte	.LVL60
 2385 0429 BB010000 		.4byte	.LVL61-1
 2386 042d 0400     		.2byte	0x4
 2387 042f 7E       		.byte	0x7e
 2388 0430 00       		.sleb128 0
 2389 0431 20       		.byte	0x20
 2390 0432 9F       		.byte	0x9f
 2391 0433 BB010000 		.4byte	.LVL61-1
ARM GAS  /tmp/ccWUSqAh.s 			page 43


 2392 0437 CA010000 		.4byte	.LVL63
 2393 043b 0300     		.2byte	0x3
 2394 043d 78       		.byte	0x78
 2395 043e 7F       		.sleb128 -1
 2396 043f 9F       		.byte	0x9f
 2397 0440 44020000 		.4byte	.LVL72
 2398 0444 5A020000 		.4byte	.LVL75
 2399 0448 0200     		.2byte	0x2
 2400 044a 91       		.byte	0x91
 2401 044b 40       		.sleb128 -64
 2402 044c 5A020000 		.4byte	.LVL75
 2403 0450 8A020000 		.4byte	.LVL83
 2404 0454 0100     		.2byte	0x1
 2405 0456 59       		.byte	0x59
 2406 0457 BE020000 		.4byte	.LVL92
 2407 045b 5E030000 		.4byte	.LVL121
 2408 045f 0200     		.2byte	0x2
 2409 0461 91       		.byte	0x91
 2410 0462 40       		.sleb128 -64
 2411 0463 5E030000 		.4byte	.LVL121
 2412 0467 74030000 		.4byte	.LVL125
 2413 046b 0100     		.2byte	0x1
 2414 046d 59       		.byte	0x59
 2415 046e 74030000 		.4byte	.LVL125
 2416 0472 82030000 		.4byte	.LVL128
 2417 0476 0200     		.2byte	0x2
 2418 0478 91       		.byte	0x91
 2419 0479 40       		.sleb128 -64
 2420 047a 82030000 		.4byte	.LVL128
 2421 047e 88030000 		.4byte	.LFE10
 2422 0482 0100     		.2byte	0x1
 2423 0484 59       		.byte	0x59
 2424 0485 00000000 		.4byte	0
 2425 0489 00000000 		.4byte	0
 2426              	.LLST14:
 2427 048d 24000000 		.4byte	.LVL23
 2428 0491 26000000 		.4byte	.LVL24
 2429 0495 0200     		.2byte	0x2
 2430 0497 74       		.byte	0x74
 2431 0498 00       		.sleb128 0
 2432 0499 3A000000 		.4byte	.LVL27
 2433 049d 3E000000 		.4byte	.LVL28
 2434 04a1 0200     		.2byte	0x2
 2435 04a3 74       		.byte	0x74
 2436 04a4 00       		.sleb128 0
 2437 04a5 64000000 		.4byte	.LVL33
 2438 04a9 68000000 		.4byte	.LVL34
 2439 04ad 0100     		.2byte	0x1
 2440 04af 53       		.byte	0x53
 2441 04b0 68000000 		.4byte	.LVL34
 2442 04b4 6C000000 		.4byte	.LVL35
 2443 04b8 0200     		.2byte	0x2
 2444 04ba 7B       		.byte	0x7b
 2445 04bb 00       		.sleb128 0
 2446 04bc 6C000000 		.4byte	.LVL35
 2447 04c0 76000000 		.4byte	.LVL37
 2448 04c4 0100     		.2byte	0x1
ARM GAS  /tmp/ccWUSqAh.s 			page 44


 2449 04c6 51       		.byte	0x51
 2450 04c7 76000000 		.4byte	.LVL37
 2451 04cb 28010000 		.4byte	.LVL45
 2452 04cf 0100     		.2byte	0x1
 2453 04d1 53       		.byte	0x53
 2454 04d2 28010000 		.4byte	.LVL45
 2455 04d6 40010000 		.4byte	.LVL48
 2456 04da 0400     		.2byte	0x4
 2457 04dc 70       		.byte	0x70
 2458 04dd C400     		.sleb128 68
 2459 04df 9F       		.byte	0x9f
 2460 04e0 44020000 		.4byte	.LVL72
 2461 04e4 5A020000 		.4byte	.LVL75
 2462 04e8 0100     		.2byte	0x1
 2463 04ea 53       		.byte	0x53
 2464 04eb BE020000 		.4byte	.LVL92
 2465 04ef C0020000 		.4byte	.LVL93
 2466 04f3 0100     		.2byte	0x1
 2467 04f5 53       		.byte	0x53
 2468 04f6 DC020000 		.4byte	.LVL97
 2469 04fa E0020000 		.4byte	.LVL98
 2470 04fe 0100     		.2byte	0x1
 2471 0500 53       		.byte	0x53
 2472 0501 E0020000 		.4byte	.LVL98
 2473 0505 E4020000 		.4byte	.LVL99
 2474 0509 0200     		.2byte	0x2
 2475 050b 38       		.byte	0x38
 2476 050c 9F       		.byte	0x9f
 2477 050d E4020000 		.4byte	.LVL99
 2478 0511 F7020000 		.4byte	.LVL103-1
 2479 0515 0100     		.2byte	0x1
 2480 0517 53       		.byte	0x53
 2481 0518 04030000 		.4byte	.LVL104
 2482 051c 1A030000 		.4byte	.LVL107
 2483 0520 0100     		.2byte	0x1
 2484 0522 53       		.byte	0x53
 2485 0523 1A030000 		.4byte	.LVL107
 2486 0527 1C030000 		.4byte	.LVL108
 2487 052b 0200     		.2byte	0x2
 2488 052d 74       		.byte	0x74
 2489 052e 00       		.sleb128 0
 2490 052f 1C030000 		.4byte	.LVL108
 2491 0533 20030000 		.4byte	.LVL109
 2492 0537 0200     		.2byte	0x2
 2493 0539 74       		.byte	0x74
 2494 053a 7F       		.sleb128 -1
 2495 053b 28030000 		.4byte	.LVL111
 2496 053f 2E030000 		.4byte	.LVL112
 2497 0543 0100     		.2byte	0x1
 2498 0545 53       		.byte	0x53
 2499 0546 2E030000 		.4byte	.LVL112
 2500 054a 32030000 		.4byte	.LVL113
 2501 054e 0200     		.2byte	0x2
 2502 0550 70       		.byte	0x70
 2503 0551 7F       		.sleb128 -1
 2504 0552 32030000 		.4byte	.LVL113
 2505 0556 36030000 		.4byte	.LVL114
ARM GAS  /tmp/ccWUSqAh.s 			page 45


 2506 055a 0200     		.2byte	0x2
 2507 055c 7B       		.byte	0x7b
 2508 055d 00       		.sleb128 0
 2509 055e 36030000 		.4byte	.LVL114
 2510 0562 3A030000 		.4byte	.LVL115
 2511 0566 0100     		.2byte	0x1
 2512 0568 52       		.byte	0x52
 2513 0569 3E030000 		.4byte	.LVL116
 2514 056d 46030000 		.4byte	.LVL117
 2515 0571 0200     		.2byte	0x2
 2516 0573 74       		.byte	0x74
 2517 0574 00       		.sleb128 0
 2518 0575 46030000 		.4byte	.LVL117
 2519 0579 54030000 		.4byte	.LVL119
 2520 057d 0200     		.2byte	0x2
 2521 057f 70       		.byte	0x70
 2522 0580 7F       		.sleb128 -1
 2523 0581 74030000 		.4byte	.LVL125
 2524 0585 82030000 		.4byte	.LVL128
 2525 0589 0100     		.2byte	0x1
 2526 058b 53       		.byte	0x53
 2527 058c 82030000 		.4byte	.LVL128
 2528 0590 88030000 		.4byte	.LFE10
 2529 0594 0400     		.2byte	0x4
 2530 0596 70       		.byte	0x70
 2531 0597 C400     		.sleb128 68
 2532 0599 9F       		.byte	0x9f
 2533 059a 00000000 		.4byte	0
 2534 059e 00000000 		.4byte	0
 2535              	.LLST15:
 2536 05a2 50000000 		.4byte	.LVL30
 2537 05a6 5E000000 		.4byte	.LVL31
 2538 05aa 0300     		.2byte	0x3
 2539 05ac 08       		.byte	0x8
 2540 05ad 20       		.byte	0x20
 2541 05ae 9F       		.byte	0x9f
 2542 05af 5E000000 		.4byte	.LVL31
 2543 05b3 12010000 		.4byte	.LVL44
 2544 05b7 0100     		.2byte	0x1
 2545 05b9 57       		.byte	0x57
 2546 05ba 12010000 		.4byte	.LVL44
 2547 05be 94010000 		.4byte	.LVL56
 2548 05c2 0300     		.2byte	0x3
 2549 05c4 08       		.byte	0x8
 2550 05c5 20       		.byte	0x20
 2551 05c6 9F       		.byte	0x9f
 2552 05c7 94010000 		.4byte	.LVL56
 2553 05cb 9E010000 		.4byte	.LVL58
 2554 05cf 0100     		.2byte	0x1
 2555 05d1 57       		.byte	0x57
 2556 05d2 44020000 		.4byte	.LVL72
 2557 05d6 5A020000 		.4byte	.LVL75
 2558 05da 0300     		.2byte	0x3
 2559 05dc 08       		.byte	0x8
 2560 05dd 20       		.byte	0x20
 2561 05de 9F       		.byte	0x9f
 2562 05df 5A020000 		.4byte	.LVL75
ARM GAS  /tmp/ccWUSqAh.s 			page 46


 2563 05e3 68020000 		.4byte	.LVL78
 2564 05e7 0100     		.2byte	0x1
 2565 05e9 57       		.byte	0x57
 2566 05ea BE020000 		.4byte	.LVL92
 2567 05ee 20030000 		.4byte	.LVL109
 2568 05f2 0100     		.2byte	0x1
 2569 05f4 57       		.byte	0x57
 2570 05f5 20030000 		.4byte	.LVL109
 2571 05f9 28030000 		.4byte	.LVL111
 2572 05fd 0300     		.2byte	0x3
 2573 05ff 08       		.byte	0x8
 2574 0600 30       		.byte	0x30
 2575 0601 9F       		.byte	0x9f
 2576 0602 28030000 		.4byte	.LVL111
 2577 0606 54030000 		.4byte	.LVL119
 2578 060a 0100     		.2byte	0x1
 2579 060c 57       		.byte	0x57
 2580 060d 74030000 		.4byte	.LVL125
 2581 0611 82030000 		.4byte	.LVL128
 2582 0615 0100     		.2byte	0x1
 2583 0617 57       		.byte	0x57
 2584 0618 82030000 		.4byte	.LVL128
 2585 061c 88030000 		.4byte	.LFE10
 2586 0620 0300     		.2byte	0x3
 2587 0622 08       		.byte	0x8
 2588 0623 20       		.byte	0x20
 2589 0624 9F       		.byte	0x9f
 2590 0625 00000000 		.4byte	0
 2591 0629 00000000 		.4byte	0
 2592              	.LLST16:
 2593 062d 94010000 		.4byte	.LVL56
 2594 0631 9E010000 		.4byte	.LVL58
 2595 0635 0100     		.2byte	0x1
 2596 0637 5A       		.byte	0x5a
 2597 0638 9E010000 		.4byte	.LVL58
 2598 063c AE010000 		.4byte	.LVL59
 2599 0640 0300     		.2byte	0x3
 2600 0642 7A       		.byte	0x7a
 2601 0643 7F       		.sleb128 -1
 2602 0644 9F       		.byte	0x9f
 2603 0645 5A020000 		.4byte	.LVL75
 2604 0649 8A020000 		.4byte	.LVL83
 2605 064d 0100     		.2byte	0x1
 2606 064f 5A       		.byte	0x5a
 2607 0650 5E030000 		.4byte	.LVL121
 2608 0654 74030000 		.4byte	.LVL125
 2609 0658 0100     		.2byte	0x1
 2610 065a 5A       		.byte	0x5a
 2611 065b 00000000 		.4byte	0
 2612 065f 00000000 		.4byte	0
 2613              	.LLST17:
 2614 0663 86000000 		.4byte	.LVL41
 2615 0667 8E000000 		.4byte	.LVL42
 2616 066b 0200     		.2byte	0x2
 2617 066d 30       		.byte	0x30
 2618 066e 9F       		.byte	0x9f
 2619 066f 8E000000 		.4byte	.LVL42
ARM GAS  /tmp/ccWUSqAh.s 			page 47


 2620 0673 36010000 		.4byte	.LVL47
 2621 0677 0100     		.2byte	0x1
 2622 0679 51       		.byte	0x51
 2623 067a 44020000 		.4byte	.LVL72
 2624 067e 5A020000 		.4byte	.LVL75
 2625 0682 0100     		.2byte	0x1
 2626 0684 51       		.byte	0x51
 2627 0685 BE020000 		.4byte	.LVL92
 2628 0689 C4020000 		.4byte	.LVL94
 2629 068d 0100     		.2byte	0x1
 2630 068f 51       		.byte	0x51
 2631 0690 DC020000 		.4byte	.LVL97
 2632 0694 E8020000 		.4byte	.LVL100
 2633 0698 0100     		.2byte	0x1
 2634 069a 51       		.byte	0x51
 2635 069b 04030000 		.4byte	.LVL104
 2636 069f 20030000 		.4byte	.LVL109
 2637 06a3 0100     		.2byte	0x1
 2638 06a5 51       		.byte	0x51
 2639 06a6 28030000 		.4byte	.LVL111
 2640 06aa 2E030000 		.4byte	.LVL112
 2641 06ae 0200     		.2byte	0x2
 2642 06b0 30       		.byte	0x30
 2643 06b1 9F       		.byte	0x9f
 2644 06b2 2E030000 		.4byte	.LVL112
 2645 06b6 36030000 		.4byte	.LVL114
 2646 06ba 0100     		.2byte	0x1
 2647 06bc 51       		.byte	0x51
 2648 06bd 36030000 		.4byte	.LVL114
 2649 06c1 3A030000 		.4byte	.LVL115
 2650 06c5 0500     		.2byte	0x5
 2651 06c7 79       		.byte	0x79
 2652 06c8 00       		.sleb128 0
 2653 06c9 31       		.byte	0x31
 2654 06ca 24       		.byte	0x24
 2655 06cb 9F       		.byte	0x9f
 2656 06cc 3A030000 		.4byte	.LVL115
 2657 06d0 54030000 		.4byte	.LVL119
 2658 06d4 0100     		.2byte	0x1
 2659 06d6 51       		.byte	0x51
 2660 06d7 00000000 		.4byte	0
 2661 06db 00000000 		.4byte	0
 2662              	.LLST18:
 2663 06df 5E000000 		.4byte	.LVL31
 2664 06e3 64000000 		.4byte	.LVL33
 2665 06e7 0200     		.2byte	0x2
 2666 06e9 30       		.byte	0x30
 2667 06ea 9F       		.byte	0x9f
 2668 06eb 64000000 		.4byte	.LVL33
 2669 06ef 70000000 		.4byte	.LVL36
 2670 06f3 0100     		.2byte	0x1
 2671 06f5 56       		.byte	0x56
 2672 06f6 76000000 		.4byte	.LVL37
 2673 06fa 92010000 		.4byte	.LVL55
 2674 06fe 0100     		.2byte	0x1
 2675 0700 56       		.byte	0x56
 2676 0701 94010000 		.4byte	.LVL56
ARM GAS  /tmp/ccWUSqAh.s 			page 48


 2677 0705 C2010000 		.4byte	.LVL62
 2678 0709 0100     		.2byte	0x1
 2679 070b 56       		.byte	0x56
 2680 070c F4010000 		.4byte	.LVL66
 2681 0710 02020000 		.4byte	.LVL67
 2682 0714 0100     		.2byte	0x1
 2683 0716 56       		.byte	0x56
 2684 0717 02020000 		.4byte	.LVL67
 2685 071b 0B020000 		.4byte	.LVL68-1
 2686 071f 0300     		.2byte	0x3
 2687 0721 73       		.byte	0x73
 2688 0722 01       		.sleb128 1
 2689 0723 9F       		.byte	0x9f
 2690 0724 0B020000 		.4byte	.LVL68-1
 2691 0728 22020000 		.4byte	.LVL69
 2692 072c 0300     		.2byte	0x3
 2693 072e 76       		.byte	0x76
 2694 072f 01       		.sleb128 1
 2695 0730 9F       		.byte	0x9f
 2696 0731 44020000 		.4byte	.LVL72
 2697 0735 86020000 		.4byte	.LVL82
 2698 0739 0100     		.2byte	0x1
 2699 073b 56       		.byte	0x56
 2700 073c 86020000 		.4byte	.LVL82
 2701 0740 8A020000 		.4byte	.LVL83
 2702 0744 0300     		.2byte	0x3
 2703 0746 76       		.byte	0x76
 2704 0747 7F       		.sleb128 -1
 2705 0748 9F       		.byte	0x9f
 2706 0749 92020000 		.4byte	.LVL84
 2707 074d 9C020000 		.4byte	.LVL85
 2708 0751 0100     		.2byte	0x1
 2709 0753 56       		.byte	0x56
 2710 0754 9C020000 		.4byte	.LVL85
 2711 0758 9E020000 		.4byte	.LVL86
 2712 075c 0300     		.2byte	0x3
 2713 075e 76       		.byte	0x76
 2714 075f 01       		.sleb128 1
 2715 0760 9F       		.byte	0x9f
 2716 0761 9E020000 		.4byte	.LVL86
 2717 0765 B0020000 		.4byte	.LVL89
 2718 0769 0100     		.2byte	0x1
 2719 076b 56       		.byte	0x56
 2720 076c B8020000 		.4byte	.LVL90
 2721 0770 BA020000 		.4byte	.LVL91
 2722 0774 0300     		.2byte	0x3
 2723 0776 76       		.byte	0x76
 2724 0777 01       		.sleb128 1
 2725 0778 9F       		.byte	0x9f
 2726 0779 BA020000 		.4byte	.LVL91
 2727 077d 20030000 		.4byte	.LVL109
 2728 0781 0100     		.2byte	0x1
 2729 0783 56       		.byte	0x56
 2730 0784 28030000 		.4byte	.LVL111
 2731 0788 54030000 		.4byte	.LVL119
 2732 078c 0100     		.2byte	0x1
 2733 078e 56       		.byte	0x56
ARM GAS  /tmp/ccWUSqAh.s 			page 49


 2734 078f 5E030000 		.4byte	.LVL121
 2735 0793 88030000 		.4byte	.LFE10
 2736 0797 0100     		.2byte	0x1
 2737 0799 56       		.byte	0x56
 2738 079a 00000000 		.4byte	0
 2739 079e 00000000 		.4byte	0
 2740              	.LLST19:
 2741 07a2 12030000 		.4byte	.LVL106
 2742 07a6 20030000 		.4byte	.LVL109
 2743 07aa 0200     		.2byte	0x2
 2744 07ac 31       		.byte	0x31
 2745 07ad 9F       		.byte	0x9f
 2746 07ae 00000000 		.4byte	0
 2747 07b2 00000000 		.4byte	0
 2748              	.LLST20:
 2749 07b6 44000000 		.4byte	.LVL29
 2750 07ba 50000000 		.4byte	.LVL30
 2751 07be 0200     		.2byte	0x2
 2752 07c0 30       		.byte	0x30
 2753 07c1 9F       		.byte	0x9f
 2754 07c2 50000000 		.4byte	.LVL30
 2755 07c6 9E010000 		.4byte	.LVL58
 2756 07ca 0100     		.2byte	0x1
 2757 07cc 58       		.byte	0x58
 2758 07cd 44020000 		.4byte	.LVL72
 2759 07d1 82020000 		.4byte	.LVL80
 2760 07d5 0100     		.2byte	0x1
 2761 07d7 58       		.byte	0x58
 2762 07d8 BE020000 		.4byte	.LVL92
 2763 07dc 54030000 		.4byte	.LVL119
 2764 07e0 0100     		.2byte	0x1
 2765 07e2 58       		.byte	0x58
 2766 07e3 54030000 		.4byte	.LVL119
 2767 07e7 56030000 		.4byte	.LVL120
 2768 07eb 0200     		.2byte	0x2
 2769 07ed 30       		.byte	0x30
 2770 07ee 9F       		.byte	0x9f
 2771 07ef 56030000 		.4byte	.LVL120
 2772 07f3 5E030000 		.4byte	.LVL121
 2773 07f7 0200     		.2byte	0x2
 2774 07f9 31       		.byte	0x31
 2775 07fa 9F       		.byte	0x9f
 2776 07fb 5E030000 		.4byte	.LVL121
 2777 07ff 88030000 		.4byte	.LFE10
 2778 0803 0100     		.2byte	0x1
 2779 0805 58       		.byte	0x58
 2780 0806 00000000 		.4byte	0
 2781 080a 00000000 		.4byte	0
 2782              	.LLST21:
 2783 080e C4020000 		.4byte	.LVL94
 2784 0812 C9020000 		.4byte	.LVL95-1
 2785 0816 0100     		.2byte	0x1
 2786 0818 51       		.byte	0x51
 2787 0819 E8020000 		.4byte	.LVL100
 2788 081d F7020000 		.4byte	.LVL103-1
 2789 0821 0100     		.2byte	0x1
 2790 0823 51       		.byte	0x51
ARM GAS  /tmp/ccWUSqAh.s 			page 50


 2791 0824 74030000 		.4byte	.LVL125
 2792 0828 82030000 		.4byte	.LVL128
 2793 082c 0100     		.2byte	0x1
 2794 082e 51       		.byte	0x51
 2795 082f 00000000 		.4byte	0
 2796 0833 00000000 		.4byte	0
 2797              	.LLST22:
 2798 0837 D2020000 		.4byte	.LVL96
 2799 083b DC020000 		.4byte	.LVL97
 2800 083f 0200     		.2byte	0x2
 2801 0841 91       		.byte	0x91
 2802 0842 40       		.sleb128 -64
 2803 0843 00000000 		.4byte	0
 2804 0847 00000000 		.4byte	0
 2805              	.LLST23:
 2806 084b F2020000 		.4byte	.LVL102
 2807 084f 04030000 		.4byte	.LVL104
 2808 0853 0200     		.2byte	0x2
 2809 0855 3A       		.byte	0x3a
 2810 0856 9F       		.byte	0x9f
 2811 0857 00000000 		.4byte	0
 2812 085b 00000000 		.4byte	0
 2813              	.LLST24:
 2814 085f F2020000 		.4byte	.LVL102
 2815 0863 F7020000 		.4byte	.LVL103-1
 2816 0867 0100     		.2byte	0x1
 2817 0869 51       		.byte	0x51
 2818 086a 00000000 		.4byte	0
 2819 086e 00000000 		.4byte	0
 2820              	.LLST25:
 2821 0872 F2020000 		.4byte	.LVL102
 2822 0876 F7020000 		.4byte	.LVL103-1
 2823 087a 0100     		.2byte	0x1
 2824 087c 50       		.byte	0x50
 2825 087d 00000000 		.4byte	0
 2826 0881 00000000 		.4byte	0
 2827              		.section	.debug_aranges,"",%progbits
 2828 0000 24000000 		.4byte	0x24
 2829 0004 0200     		.2byte	0x2
 2830 0006 00000000 		.4byte	.Ldebug_info0
 2831 000a 04       		.byte	0x4
 2832 000b 00       		.byte	0
 2833 000c 0000     		.2byte	0
 2834 000e 0000     		.2byte	0
 2835 0010 00000000 		.4byte	.LFB11
 2836 0014 68000000 		.4byte	.LFE11-.LFB11
 2837 0018 00000000 		.4byte	.LFB10
 2838 001c 88030000 		.4byte	.LFE10-.LFB10
 2839 0020 00000000 		.4byte	0
 2840 0024 00000000 		.4byte	0
 2841              		.section	.debug_ranges,"",%progbits
 2842              	.Ldebug_ranges0:
 2843 0000 00000000 		.4byte	.LFB11
 2844 0004 68000000 		.4byte	.LFE11
 2845 0008 00000000 		.4byte	.LFB10
 2846 000c 88030000 		.4byte	.LFE10
 2847 0010 00000000 		.4byte	0
ARM GAS  /tmp/ccWUSqAh.s 			page 51


 2848 0014 00000000 		.4byte	0
 2849              		.section	.debug_line,"",%progbits
 2850              	.Ldebug_line0:
 2851 0000 B8020000 		.section	.debug_str,"MS",%progbits,1
 2851      02002C01 
 2851      00000201 
 2851      FB0E0D00 
 2851      01010101 
 2852              	.LASF2:
 2853 0000 73697A65 		.ascii	"size_t\000"
 2853      5F7400
 2854              	.LASF30:
 2855 0007 77696474 		.ascii	"width\000"
 2855      6800
 2856              	.LASF37:
 2857 000d 5F5F6170 		.ascii	"__ap\000"
 2857      00
 2858              	.LASF31:
 2859 0012 69735F6C 		.ascii	"is_long\000"
 2859      6F6E6700 
 2860              	.LASF0:
 2861 001a 756E7369 		.ascii	"unsigned int\000"
 2861      676E6564 
 2861      20696E74 
 2861      00
 2862              	.LASF12:
 2863 0027 626F6F6C 		.ascii	"bool_t\000"
 2863      5F7400
 2864              	.LASF26:
 2865 002e 6C6F6E67 		.ascii	"long_to_string_with_divisor\000"
 2865      5F746F5F 
 2865      73747269 
 2865      6E675F77 
 2865      6974685F 
 2866              	.LASF3:
 2867 004a 75696E74 		.ascii	"uint8_t\000"
 2867      385F7400 
 2868              	.LASF23:
 2869 0052 76615F6C 		.ascii	"va_list\000"
 2869      69737400 
 2870              	.LASF19:
 2871 005a 42617365 		.ascii	"BaseSequentialStream\000"
 2871      53657175 
 2871      656E7469 
 2871      616C5374 
 2871      7265616D 
 2872              	.LASF4:
 2873 006f 756E7369 		.ascii	"unsigned char\000"
 2873      676E6564 
 2873      20636861 
 2873      7200
 2874              	.LASF36:
 2875 007d 2F686F6D 		.ascii	"/home/ondra6ak/Documents/ARM/mlab-ChibiOS-RT/demos/"
 2875      652F6F6E 
 2875      64726136 
 2875      616B2F44 
 2875      6F63756D 
ARM GAS  /tmp/ccWUSqAh.s 			page 52


 2876 00b0 6D616744 		.ascii	"magDemo\000"
 2876      656D6F00 
 2877              	.LASF9:
 2878 00b8 6C6F6E67 		.ascii	"long unsigned int\000"
 2878      20756E73 
 2878      69676E65 
 2878      6420696E 
 2878      7400
 2879              	.LASF6:
 2880 00ca 73686F72 		.ascii	"short unsigned int\000"
 2880      7420756E 
 2880      7369676E 
 2880      65642069 
 2880      6E7400
 2881              	.LASF17:
 2882 00dd 77726974 		.ascii	"write\000"
 2882      6500
 2883              	.LASF34:
 2884 00e3 474E5520 		.ascii	"GNU C 4.7.4 20130913 (release) [ARM/embedded-4_7-br"
 2884      4320342E 
 2884      372E3420 
 2884      32303133 
 2884      30393133 
 2885 0116 616E6368 		.ascii	"anch revision 202601]\000"
 2885      20726576 
 2885      6973696F 
 2885      6E203230 
 2885      32363031 
 2886              	.LASF20:
 2887 012c 5F5F676E 		.ascii	"__gnuc_va_list\000"
 2887      75635F76 
 2887      615F6C69 
 2887      737400
 2888              	.LASF18:
 2889 013b 72656164 		.ascii	"read\000"
 2889      00
 2890              	.LASF38:
 2891 0140 63687670 		.ascii	"chvprintf\000"
 2891      72696E74 
 2891      6600
 2892              	.LASF28:
 2893 014a 66696C6C 		.ascii	"filler\000"
 2893      657200
 2894              	.LASF35:
 2895 0151 2E2E2F2E 		.ascii	"../../os/various/chprintf.c\000"
 2895      2E2F6F73 
 2895      2F766172 
 2895      696F7573 
 2895      2F636870 
 2896              	.LASF11:
 2897 016d 6C6F6E67 		.ascii	"long long unsigned int\000"
 2897      206C6F6E 
 2897      6720756E 
 2897      7369676E 
 2897      65642069 
 2898              	.LASF25:
 2899 0184 64697669 		.ascii	"divisor\000"
ARM GAS  /tmp/ccWUSqAh.s 			page 53


 2899      736F7200 
 2900              	.LASF24:
 2901 018c 72616469 		.ascii	"radix\000"
 2901      7800
 2902              	.LASF14:
 2903 0192 6D73675F 		.ascii	"msg_t\000"
 2903      7400
 2904              	.LASF7:
 2905 0198 696E7433 		.ascii	"int32_t\000"
 2905      325F7400 
 2906              	.LASF15:
 2907 01a0 73697A65 		.ascii	"sizetype\000"
 2907      74797065 
 2907      00
 2908              	.LASF33:
 2909 01a9 746D7062 		.ascii	"tmpbuf\000"
 2909      756600
 2910              	.LASF22:
 2911 01b0 5F5F7661 		.ascii	"__va_list\000"
 2911      5F6C6973 
 2911      7400
 2912              	.LASF10:
 2913 01ba 6C6F6E67 		.ascii	"long long int\000"
 2913      206C6F6E 
 2913      6720696E 
 2913      7400
 2914              	.LASF29:
 2915 01c8 70726563 		.ascii	"precision\000"
 2915      6973696F 
 2915      6E00
 2916              	.LASF16:
 2917 01d2 63686172 		.ascii	"char\000"
 2917      00
 2918              	.LASF32:
 2919 01d7 6C656674 		.ascii	"left_align\000"
 2919      5F616C69 
 2919      676E00
 2920              	.LASF5:
 2921 01e2 73686F72 		.ascii	"short int\000"
 2921      7420696E 
 2921      7400
 2922              	.LASF39:
 2923 01ec 756E7369 		.ascii	"unsigned_common\000"
 2923      676E6564 
 2923      5F636F6D 
 2923      6D6F6E00 
 2924              	.LASF8:
 2925 01fc 6C6F6E67 		.ascii	"long int\000"
 2925      20696E74 
 2925      00
 2926              	.LASF1:
 2927 0205 7369676E 		.ascii	"signed char\000"
 2927      65642063 
 2927      68617200 
 2928              	.LASF27:
 2929 0211 6C746F61 		.ascii	"ltoa\000"
 2929      00
ARM GAS  /tmp/ccWUSqAh.s 			page 54


 2930              	.LASF13:
 2931 0216 5F426F6F 		.ascii	"_Bool\000"
 2931      6C00
 2932              	.LASF21:
 2933 021c 42617365 		.ascii	"BaseSequentialStreamVMT\000"
 2933      53657175 
 2933      656E7469 
 2933      616C5374 
 2933      7265616D 
 2934              		.ident	"GCC: (GNU Tools for ARM Embedded Processors) 4.7.4 20130913 (release) [ARM/embedded-4_7-br
ARM GAS  /tmp/ccWUSqAh.s 			page 55


DEFINED SYMBOLS
                            *ABS*:00000000 chprintf.c
     /tmp/ccWUSqAh.s:19     .text.long_to_string_with_divisor.constprop.0:00000000 $t
     /tmp/ccWUSqAh.s:24     .text.long_to_string_with_divisor.constprop.0:00000000 long_to_string_with_divisor.constprop.0
     /tmp/ccWUSqAh.s:120    .text.chvprintf:00000000 $t
     /tmp/ccWUSqAh.s:126    .text.chvprintf:00000000 chvprintf
     /tmp/ccWUSqAh.s:276    .text.chvprintf:000000a8 $d
     /tmp/ccWUSqAh.s:332    .text.chvprintf:00000112 $t
     /tmp/ccWUSqAh.s:793    .rodata.str1.4:00000000 .LC0
     /tmp/ccWUSqAh.s:792    .rodata.str1.4:00000000 $d
                     .debug_frame:00000010 $d

NO UNDEFINED SYMBOLS
