ARM GAS  /tmp/ccWUSqAh.s 			page 1


   1              		.syntax unified
   2              		.cpu cortex-m3
   3              		.fpu softvfp
   4              		.eabi_attribute 20, 1
   5              		.eabi_attribute 21, 1
   6              		.eabi_attribute 23, 3
   7              		.eabi_attribute 24, 1
   8              		.eabi_attribute 25, 1
   9              		.eabi_attribute 26, 1
  10              		.eabi_attribute 30, 2
  11              		.eabi_attribute 34, 1
  12              		.eabi_attribute 18, 4
  13              		.thumb
  14              		.file	"chprintf.c"
  15              		.text
  16              	.Ltext0:
  17              		.cfi_sections	.debug_frame
  18              		.section	.text.long_to_string_with_divisor.constprop.0,"ax",%progbits
  19              		.align	2
  20              		.p2align 4,,15
  21              		.thumb
  22              		.thumb_func
  23              		.type	long_to_string_with_divisor.constprop.0, %function
  24              	long_to_string_with_divisor.constprop.0:
  25              	.LFB11:
  26              		.file 1 "../../os/various/chprintf.c"
  27              		.loc 1 36 0
  28              		.cfi_startproc
  29              		@ args = 0, pretend = 0, frame = 0
  30              		@ frame_needed = 0, uses_anonymous_args = 0
  31              		@ link register save eliminated.
  32              	.LVL0:
  33 0000 F0B4     		push	{r4, r5, r6, r7}
  34              	.LCFI0:
  35              		.cfi_def_cfa_offset 16
  36              		.cfi_offset 4, -16
  37              		.cfi_offset 5, -12
  38              		.cfi_offset 6, -8
  39              		.cfi_offset 7, -4
  40              		.loc 1 51 0
  41 0002 00F10B0C 		add	ip, r0, #11
  42              		.loc 1 36 0
  43 0006 0746     		mov	r7, r0
  44              	.LVL1:
  45 0008 00F10A05 		add	r5, r0, #10
  46 000c 0C46     		mov	r4, r1
  47              	.LVL2:
  48              	.L3:
  49              		.loc 1 53 0
  50 000e B1FBF2F6 		udiv	r6, r1, r2
  51 0012 02FB1611 		mls	r1, r2, r6, r1
  52              	.LVL3:
  53              		.loc 1 54 0
  54 0016 01F13003 		add	r3, r1, #48
  55              	.LVL4:
  56              		.loc 1 55 0
  57 001a 392B     		cmp	r3, #57
ARM GAS  /tmp/ccWUSqAh.s 			page 2


  58              		.loc 1 56 0
  59 001c C8BF     		it	gt
  60 001e 01F13703 		addgt	r3, r1, #55
  61              	.LVL5:
  62              		.loc 1 57 0
  63 0022 DBB2     		uxtb	r3, r3
  64              	.LVL6:
  65              		.loc 1 59 0
  66 0024 B4FBF2F4 		udiv	r4, r4, r2
  67              	.LVL7:
  68              		.loc 1 57 0
  69 0028 2846     		mov	r0, r5
  70              	.LVL8:
  71              		.loc 1 58 0
  72 002a 3146     		mov	r1, r6
  73              	.LVL9:
  74              		.loc 1 57 0
  75 002c 05F80139 		strb	r3, [r5], #-1
  76              	.LVL10:
  77              		.loc 1 59 0
  78 0030 002C     		cmp	r4, #0
  79 0032 ECD1     		bne	.L3
  80              	.LVL11:
  81              		.loc 1 61 0
  82 0034 C0EB0C02 		rsb	r2, r0, ip
  83              	.LVL12:
  84 0038 0146     		mov	r1, r0
  85              	.LVL13:
  86              		.loc 1 36 0
  87 003a B818     		adds	r0, r7, r2
  88              	.LVL14:
  89 003c FA43     		mvns	r2, r7
  90              	.LVL15:
  91 003e 8218     		adds	r2, r0, r2
  92 0040 D207     		lsls	r2, r2, #31
  93 0042 0AD5     		bpl	.L5
  94              	.LVL16:
  95              		.loc 1 63 0
  96 0044 07F8013B 		strb	r3, [r7], #1
  97              	.LVL17:
  98 0048 11F8013F 		ldrb	r3, [r1, #1]!	@ zero_extendqisi2
  99 004c 05E0     		b	.L5
 100              	.L15:
 101 004e 11F8013F 		ldrb	r3, [r1, #1]!	@ zero_extendqisi2
 102              	.LVL18:
 103 0052 7B70     		strb	r3, [r7, #1]
 104 0054 11F8013F 		ldrb	r3, [r1, #1]!	@ zero_extendqisi2
 105 0058 571C     		adds	r7, r2, #1
 106              	.LVL19:
 107              	.L5:
 108 005a 3A46     		mov	r2, r7
 109 005c 02F8013B 		strb	r3, [r2], #1
 110              		.loc 1 64 0
 111 0060 8242     		cmp	r2, r0
 112 0062 F4D1     		bne	.L15
 113              		.loc 1 67 0
 114 0064 F0BC     		pop	{r4, r5, r6, r7}
ARM GAS  /tmp/ccWUSqAh.s 			page 3


 115 0066 7047     		bx	lr
 116              		.cfi_endproc
 117              	.LFE11:
 118              		.size	long_to_string_with_divisor.constprop.0, .-long_to_string_with_divisor.constprop.0
 119 0068 AFF30080 		.section	.text.chvprintf,"ax",%progbits
 119      AFF30080 
 120              		.align	2
 121              		.p2align 4,,15
 122              		.global	chvprintf
 123              		.thumb
 124              		.thumb_func
 125              		.type	chvprintf, %function
 126              	chvprintf:
 127              	.LFB10:
 128              		.loc 1 111 0
 129              		.cfi_startproc
 130              		@ args = 0, pretend = 0, frame = 32
 131              		@ frame_needed = 0, uses_anonymous_args = 0
 132              	.LVL20:
 133 0000 2DE9F04F 		push	{r4, r5, r6, r7, r8, r9, sl, fp, lr}
 134              	.LCFI1:
 135              		.cfi_def_cfa_offset 36
 136              		.cfi_offset 4, -36
 137              		.cfi_offset 5, -32
 138              		.cfi_offset 6, -28
 139              		.cfi_offset 7, -24
 140              		.cfi_offset 8, -20
 141              		.cfi_offset 9, -16
 142              		.cfi_offset 10, -12
 143              		.cfi_offset 11, -8
 144              		.cfi_offset 14, -4
 145 0004 89B0     		sub	sp, sp, #36
 146              	.LCFI2:
 147              		.cfi_def_cfa_offset 72
 148              		.loc 1 131 0
 149 0006 05AB     		add	r3, sp, #20
 150              		.loc 1 235 0
 151 0008 0DF1150C 		add	ip, sp, #21
 152              		.loc 1 111 0
 153 000c 0546     		mov	r5, r0
 154 000e C3EB0C00 		rsb	r0, r3, ip
 155              	.LVL21:
 156              		.loc 1 131 0
 157 0012 0293     		str	r3, [sp, #8]
 158              		.loc 1 235 0
 159 0014 CDF804C0 		str	ip, [sp, #4]
 160              		.loc 1 111 0
 161 0018 0C46     		mov	r4, r1
 162 001a 9346     		mov	fp, r2
 163 001c 0390     		str	r0, [sp, #12]
 164              	.LVL22:
 165              	.L112:
 166              		.loc 1 124 0
 167 001e 2646     		mov	r6, r4
 168 0020 16F8011B 		ldrb	r1, [r6], #1	@ zero_extendqisi2
 169              	.LVL23:
 170              		.loc 1 125 0
ARM GAS  /tmp/ccWUSqAh.s 			page 4


 171 0024 59B1     		cbz	r1, .L16
 172              	.LVL24:
 173              	.L126:
 174              		.loc 1 127 0
 175 0026 2529     		cmp	r1, #37
 176 0028 0CD0     		beq	.L19
 177              		.loc 1 128 0
 178 002a 2C68     		ldr	r4, [r5, #0]
 179 002c 2846     		mov	r0, r5
 180 002e A368     		ldr	r3, [r4, #8]
 181              		.loc 1 124 0
 182 0030 3446     		mov	r4, r6
 183 0032 2646     		mov	r6, r4
 184              	.LVL25:
 185              		.loc 1 128 0
 186 0034 9847     		blx	r3
 187              	.LVL26:
 188              		.loc 1 124 0
 189 0036 16F8011B 		ldrb	r1, [r6], #1	@ zero_extendqisi2
 190              	.LVL27:
 191              		.loc 1 125 0
 192 003a 0029     		cmp	r1, #0
 193 003c F3D1     		bne	.L126
 194              	.LVL28:
 195              	.L16:
 196              		.loc 1 260 0
 197 003e 09B0     		add	sp, sp, #36
 198 0040 BDE8F08F 		pop	{r4, r5, r6, r7, r8, r9, sl, fp, pc}
 199              	.L19:
 200              	.LVL29:
 201              		.loc 1 134 0
 202 0044 6378     		ldrb	r3, [r4, #1]	@ zero_extendqisi2
 203 0046 2D2B     		cmp	r3, #45
 204 0048 00F08481 		beq	.L127
 205              		.loc 1 133 0
 206 004c 4FF00008 		mov	r8, #0
 207              	.LVL30:
 208              	.L21:
 209              		.loc 1 139 0
 210 0050 2E2B     		cmp	r3, #46
 211 0052 00F06581 		beq	.L22
 212              		.loc 1 139 0 is_stmt 0 discriminator 1
 213 0056 302B     		cmp	r3, #48
 214 0058 00F06281 		beq	.L22
 215              		.loc 1 138 0 is_stmt 1
 216 005c 2027     		movs	r7, #32
 217              	.LVL31:
 218              	.L23:
 219              		.loc 1 141 0
 220 005e 3446     		mov	r4, r6
 221              		.loc 1 143 0
 222 0060 0026     		movs	r6, #0
 223              	.LVL32:
 224 0062 08E0     		b	.L26
 225              	.LVL33:
 226              	.L128:
 227              		.loc 1 149 0
ARM GAS  /tmp/ccWUSqAh.s 			page 5


 228 0064 9BF80010 		ldrb	r1, [fp, #0]	@ zero_extendqisi2
 229              	.LVL34:
 230 0068 0BF1040B 		add	fp, fp, #4
 231              	.LVL35:
 232              	.L24:
 233              		.loc 1 152 0
 234 006c 06EB8606 		add	r6, r6, r6, lsl #2
 235              	.LVL36:
 236 0070 2378     		ldrb	r3, [r4, #0]	@ zero_extendqisi2
 237 0072 01EB4606 		add	r6, r1, r6, lsl #1
 238              	.LVL37:
 239              	.L26:
 240              		.loc 1 146 0
 241 0076 A3F13002 		sub	r2, r3, #48
 242              	.LVL38:
 243 007a D1B2     		uxtb	r1, r2
 244              		.loc 1 145 0
 245 007c 0134     		adds	r4, r4, #1
 246              	.LVL39:
 247              		.loc 1 146 0
 248 007e 0929     		cmp	r1, #9
 249 0080 F4D9     		bls	.L24
 250              	.LVL40:
 251              		.loc 1 148 0
 252 0082 2A2B     		cmp	r3, #42
 253 0084 EED0     		beq	.L128
 254              	.LVL41:
 255              		.loc 1 155 0
 256 0086 2E2B     		cmp	r3, #46
 257 0088 00F04E81 		beq	.L129
 258              		.loc 1 154 0
 259 008c 0021     		movs	r1, #0
 260              	.LVL42:
 261              	.L27:
 262              		.loc 1 169 0
 263 008e 6C2B     		cmp	r3, #108
 264 0090 00F03F81 		beq	.L30
 265              		.loc 1 169 0 is_stmt 0 discriminator 1
 266 0094 4C2B     		cmp	r3, #76
 267 0096 00F03C81 		beq	.L30
 268              	.LVL43:
 269              	.L32:
 270              		.loc 1 178 0 is_stmt 1
 271 009a A3F14400 		sub	r0, r3, #68
 272 009e 3428     		cmp	r0, #52
 273 00a0 00F23081 		bhi	.L33
 274 00a4 DFE810F0 		tbh	[pc, r0, lsl #1]
 275              	.L40:
 276 00a8 1E01     		.2byte	(.L34-.L40)/2
 277 00aa 2E01     		.2byte	(.L33-.L40)/2
 278 00ac 2E01     		.2byte	(.L33-.L40)/2
 279 00ae 2E01     		.2byte	(.L33-.L40)/2
 280 00b0 2E01     		.2byte	(.L33-.L40)/2
 281 00b2 1E01     		.2byte	(.L34-.L40)/2
 282 00b4 2E01     		.2byte	(.L33-.L40)/2
 283 00b6 2E01     		.2byte	(.L33-.L40)/2
 284 00b8 2E01     		.2byte	(.L33-.L40)/2
ARM GAS  /tmp/ccWUSqAh.s 			page 6


 285 00ba 2E01     		.2byte	(.L33-.L40)/2
 286 00bc 2E01     		.2byte	(.L33-.L40)/2
 287 00be 1C01     		.2byte	(.L35-.L40)/2
 288 00c0 2E01     		.2byte	(.L33-.L40)/2
 289 00c2 2E01     		.2byte	(.L33-.L40)/2
 290 00c4 2E01     		.2byte	(.L33-.L40)/2
 291 00c6 2E01     		.2byte	(.L33-.L40)/2
 292 00c8 2E01     		.2byte	(.L33-.L40)/2
 293 00ca 1A01     		.2byte	(.L63-.L40)/2
 294 00cc 2E01     		.2byte	(.L33-.L40)/2
 295 00ce 2E01     		.2byte	(.L33-.L40)/2
 296 00d0 0B01     		.2byte	(.L37-.L40)/2
 297 00d2 2E01     		.2byte	(.L33-.L40)/2
 298 00d4 2E01     		.2byte	(.L33-.L40)/2
 299 00d6 2E01     		.2byte	(.L33-.L40)/2
 300 00d8 2E01     		.2byte	(.L33-.L40)/2
 301 00da 2E01     		.2byte	(.L33-.L40)/2
 302 00dc 2E01     		.2byte	(.L33-.L40)/2
 303 00de 2E01     		.2byte	(.L33-.L40)/2
 304 00e0 2E01     		.2byte	(.L33-.L40)/2
 305 00e2 2E01     		.2byte	(.L33-.L40)/2
 306 00e4 2E01     		.2byte	(.L33-.L40)/2
 307 00e6 CE00     		.2byte	(.L38-.L40)/2
 308 00e8 1E01     		.2byte	(.L34-.L40)/2
 309 00ea 2E01     		.2byte	(.L33-.L40)/2
 310 00ec 2E01     		.2byte	(.L33-.L40)/2
 311 00ee 2E01     		.2byte	(.L33-.L40)/2
 312 00f0 2E01     		.2byte	(.L33-.L40)/2
 313 00f2 1E01     		.2byte	(.L34-.L40)/2
 314 00f4 2E01     		.2byte	(.L33-.L40)/2
 315 00f6 2E01     		.2byte	(.L33-.L40)/2
 316 00f8 2E01     		.2byte	(.L33-.L40)/2
 317 00fa 2E01     		.2byte	(.L33-.L40)/2
 318 00fc 2E01     		.2byte	(.L33-.L40)/2
 319 00fe 1C01     		.2byte	(.L35-.L40)/2
 320 0100 2E01     		.2byte	(.L33-.L40)/2
 321 0102 2E01     		.2byte	(.L33-.L40)/2
 322 0104 2E01     		.2byte	(.L33-.L40)/2
 323 0106 3500     		.2byte	(.L39-.L40)/2
 324 0108 2E01     		.2byte	(.L33-.L40)/2
 325 010a 1A01     		.2byte	(.L63-.L40)/2
 326 010c 2E01     		.2byte	(.L33-.L40)/2
 327 010e 2E01     		.2byte	(.L33-.L40)/2
 328 0110 0B01     		.2byte	(.L37-.L40)/2
 329              	.L39:
 330              	.LVL44:
 331              		.loc 1 185 0
 332 0112 DBF80070 		ldr	r7, [fp, #0]
 333              		.loc 1 186 0
 334 0116 40F20009 		movw	r9, #:lower16:.LC0
 335 011a C0F20009 		movt	r9, #:upper16:.LC0
 336 011e 002F     		cmp	r7, #0
 337 0120 18BF     		it	ne
 338 0122 B946     		movne	r9, r7
 339              		.loc 1 189 0
 340 0124 99F80030 		ldrb	r3, [r9, #0]	@ zero_extendqisi2
 341              	.LVL45:
ARM GAS  /tmp/ccWUSqAh.s 			page 7


 342              		.loc 1 188 0
 343 0128 47F6FF72 		movw	r2, #32767
 344              		.loc 1 185 0
 345 012c 0BF1040B 		add	fp, fp, #4
 346              	.LVL46:
 347              		.loc 1 188 0
 348 0130 0029     		cmp	r1, #0
 349 0132 08BF     		it	eq
 350 0134 1146     		moveq	r1, r2
 351              	.LVL47:
 352              		.loc 1 189 0
 353 0136 002B     		cmp	r3, #0
 354 0138 00F02381 		beq	.L66
 355              		.loc 1 111 0
 356 013c 09EB0100 		add	r0, r9, r1
 357              	.LVL48:
 358              		.loc 1 189 0
 359 0140 99F80170 		ldrb	r7, [r9, #1]	@ zero_extendqisi2
 360 0144 6FEA0901 		mvn	r1, r9
 361 0148 0B18     		adds	r3, r1, r0
 362 014a 03F00102 		and	r2, r3, #1
 363              		.loc 1 111 0
 364 014e 09F1010A 		add	sl, r9, #1
 365              	.LVL49:
 366              		.loc 1 189 0
 367 0152 D7B1     		cbz	r7, .L114
 368 0154 8245     		cmp	sl, r0
 369 0156 5346     		mov	r3, sl
 370 0158 17D0     		beq	.L114
 371 015a 7AB1     		cbz	r2, .L45
 372 015c 9AF80110 		ldrb	r1, [sl, #1]	@ zero_extendqisi2
 373              		.loc 1 111 0
 374 0160 0AF1010A 		add	sl, sl, #1
 375              	.LVL50:
 376              		.loc 1 189 0
 377 0164 89B1     		cbz	r1, .L114
 378 0166 8245     		cmp	sl, r0
 379 0168 5346     		mov	r3, sl
 380 016a 07D1     		bne	.L45
 381 016c 0DE0     		b	.L114
 382              	.LVL51:
 383              	.L44:
 384              		.loc 1 189 0 is_stmt 0 discriminator 2
 385 016e 9AF80110 		ldrb	r1, [sl, #1]	@ zero_extendqisi2
 386              		.loc 1 111 0 is_stmt 1 discriminator 2
 387 0172 0AF1010A 		add	sl, sl, #1
 388              	.LVL52:
 389              		.loc 1 189 0 discriminator 2
 390 0176 41B1     		cbz	r1, .L114
 391              		.loc 1 189 0 is_stmt 0
 392 0178 8245     		cmp	sl, r0
 393 017a 06D0     		beq	.L114
 394              	.L45:
 395              		.loc 1 111 0 is_stmt 1 discriminator 1
 396 017c 03F1010A 		add	sl, r3, #1
 397              	.LVL53:
 398              		.loc 1 189 0 discriminator 1
ARM GAS  /tmp/ccWUSqAh.s 			page 8


 399 0180 5F78     		ldrb	r7, [r3, #1]	@ zero_extendqisi2
 400 0182 5246     		mov	r2, sl
 401 0184 531C     		adds	r3, r2, #1
 402 0186 002F     		cmp	r7, #0
 403 0188 F1D1     		bne	.L44
 404              	.L114:
 405 018a C9EB0A0A 		rsb	sl, r9, sl
 406              	.LVL54:
 407              		.loc 1 239 0
 408 018e CAEB0606 		rsb	r6, sl, r6
 409              	.LVL55:
 410              		.loc 1 184 0
 411 0192 2027     		movs	r7, #32
 412              	.LVL56:
 413 0194 26EAE676 		bic	r6, r6, r6, asr #31
 414              	.LVL57:
 415              		.loc 1 241 0
 416 0198 B8F1000F 		cmp	r8, #0
 417 019c 64D0     		beq	.L130
 418              	.LVL58:
 419              	.L51:
 420              		.loc 1 252 0 discriminator 1
 421 019e BAF1000F 		cmp	sl, #0
 422 01a2 27DD     		ble	.L57
 423              		.loc 1 253 0
 424 01a4 C846     		mov	r8, r9
 425 01a6 2868     		ldr	r0, [r5, #0]
 426 01a8 18F8011B 		ldrb	r1, [r8], #1	@ zero_extendqisi2
 427              		.loc 1 111 0
 428 01ac CA44     		add	sl, r9, sl
 429              	.LVL59:
 430 01ae 6FEA090E 		mvn	lr, r9
 431              		.loc 1 253 0
 432 01b2 8368     		ldr	r3, [r0, #8]
 433 01b4 2846     		mov	r0, r5
 434 01b6 0AEB0E09 		add	r9, sl, lr
 435              	.LVL60:
 436 01ba 9847     		blx	r3
 437              	.LVL61:
 438              		.loc 1 252 0
 439 01bc D045     		cmp	r8, sl
 440 01be 09F00109 		and	r9, r9, #1
 441              	.LVL62:
 442 01c2 17D0     		beq	.L57
 443 01c4 B9F1000F 		cmp	r9, #0
 444 01c8 03D0     		beq	.L56
 445              	.LVL63:
 446              		.loc 1 253 0
 447 01ca 2A68     		ldr	r2, [r5, #0]
 448 01cc 18F8011B 		ldrb	r1, [r8], #1	@ zero_extendqisi2
 449 01d0 0BE0     		b	.L125
 450              	.L56:
 451 01d2 2868     		ldr	r0, [r5, #0]
 452 01d4 C146     		mov	r9, r8
 453 01d6 19F8011B 		ldrb	r1, [r9], #1	@ zero_extendqisi2
 454 01da 8268     		ldr	r2, [r0, #8]
 455 01dc 2846     		mov	r0, r5
ARM GAS  /tmp/ccWUSqAh.s 			page 9


 456 01de 9047     		blx	r2
 457              	.LVL64:
 458 01e0 2A68     		ldr	r2, [r5, #0]
 459 01e2 98F80110 		ldrb	r1, [r8, #1]	@ zero_extendqisi2
 460 01e6 09F10108 		add	r8, r9, #1
 461              	.L125:
 462 01ea 9368     		ldr	r3, [r2, #8]
 463 01ec 2846     		mov	r0, r5
 464 01ee 9847     		blx	r3
 465              	.LVL65:
 466              		.loc 1 252 0
 467 01f0 D045     		cmp	r8, sl
 468 01f2 EED1     		bne	.L56
 469              	.L57:
 470              	.LVL66:
 471              		.loc 1 255 0
 472 01f4 002E     		cmp	r6, #0
 473 01f6 3FF412AF 		beq	.L112
 474              		.loc 1 256 0
 475 01fa 2968     		ldr	r1, [r5, #0]
 476 01fc 731E     		subs	r3, r6, #1
 477 01fe 8A68     		ldr	r2, [r1, #8]
 478              		.loc 1 255 0
 479 0200 1E46     		mov	r6, r3
 480              	.LVL67:
 481              		.loc 1 256 0
 482 0202 2846     		mov	r0, r5
 483 0204 3946     		mov	r1, r7
 484 0206 03F00108 		and	r8, r3, #1
 485 020a 9047     		blx	r2
 486              	.LVL68:
 487              		.loc 1 255 0
 488 020c 002E     		cmp	r6, #0
 489 020e 3FF406AF 		beq	.L112
 490 0212 B8F1000F 		cmp	r8, #0
 491 0216 07D0     		beq	.L74
 492              		.loc 1 256 0
 493 0218 2968     		ldr	r1, [r5, #0]
 494 021a 2846     		mov	r0, r5
 495 021c 8B68     		ldr	r3, [r1, #8]
 496 021e 3946     		mov	r1, r7
 497 0220 9847     		blx	r3
 498              	.LVL69:
 499              		.loc 1 255 0
 500 0222 013E     		subs	r6, r6, #1
 501 0224 3FF4FBAE 		beq	.L112
 502              	.L74:
 503              		.loc 1 256 0
 504 0228 2868     		ldr	r0, [r5, #0]
 505 022a 3946     		mov	r1, r7
 506 022c 8268     		ldr	r2, [r0, #8]
 507 022e 2846     		mov	r0, r5
 508 0230 9047     		blx	r2
 509              	.LVL70:
 510 0232 2968     		ldr	r1, [r5, #0]
 511              		.loc 1 257 0
 512 0234 013E     		subs	r6, r6, #1
ARM GAS  /tmp/ccWUSqAh.s 			page 10


 513              		.loc 1 256 0
 514 0236 8B68     		ldr	r3, [r1, #8]
 515 0238 2846     		mov	r0, r5
 516 023a 3946     		mov	r1, r7
 517 023c 9847     		blx	r3
 518              	.LVL71:
 519              		.loc 1 255 0
 520 023e 013E     		subs	r6, r6, #1
 521 0240 F2D1     		bne	.L74
 522 0242 ECE6     		b	.L112
 523              	.LVL72:
 524              	.L38:
 525              		.loc 1 181 0
 526 0244 DBF80000 		ldr	r0, [fp, #0]
 527 0248 DDF80CA0 		ldr	sl, [sp, #12]
 528 024c 8DF81400 		strb	r0, [sp, #20]
 529              	.LVL73:
 530 0250 0BF1040B 		add	fp, fp, #4
 531              	.LVL74:
 532              		.loc 1 180 0
 533 0254 2027     		movs	r7, #32
 534              		.loc 1 132 0
 535 0256 0DF11409 		add	r9, sp, #20
 536              	.LVL75:
 537              	.L41:
 538              		.loc 1 239 0
 539 025a CAEB0606 		rsb	r6, sl, r6
 540              	.LVL76:
 541 025e 26EAE676 		bic	r6, r6, r6, asr #31
 542              	.LVL77:
 543              		.loc 1 241 0
 544 0262 B8F1000F 		cmp	r8, #0
 545 0266 9AD1     		bne	.L51
 546              	.LVL78:
 547              	.L130:
 548              		.loc 1 242 0
 549 0268 7642     		negs	r6, r6
 550              	.LVL79:
 551              		.loc 1 243 0
 552 026a 002E     		cmp	r6, #0
 553 026c 97D0     		beq	.L51
 554              		.loc 1 244 0
 555 026e 99F80010 		ldrb	r1, [r9, #0]	@ zero_extendqisi2
 556 0272 2D29     		cmp	r1, #45
 557 0274 73D0     		beq	.L131
 558              	.L99:
 559              		.loc 1 249 0
 560 0276 2968     		ldr	r1, [r5, #0]
 561 0278 2846     		mov	r0, r5
 562 027a 8A68     		ldr	r2, [r1, #8]
 563 027c 3946     		mov	r1, r7
 564 027e 6FEA0608 		mvn	r8, r6
 565              	.LVL80:
 566 0282 9047     		blx	r2
 567              	.LVL81:
 568              		.loc 1 250 0
 569 0284 0136     		adds	r6, r6, #1
ARM GAS  /tmp/ccWUSqAh.s 			page 11


 570              	.LVL82:
 571 0286 08F00108 		and	r8, r8, #1
 572              	.LVL83:
 573 028a 88D0     		beq	.L51
 574 028c B8F1000F 		cmp	r8, #0
 575 0290 07D0     		beq	.L75
 576              	.LVL84:
 577              		.loc 1 249 0
 578 0292 2B68     		ldr	r3, [r5, #0]
 579 0294 2846     		mov	r0, r5
 580 0296 9A68     		ldr	r2, [r3, #8]
 581 0298 3946     		mov	r1, r7
 582 029a 9047     		blx	r2
 583              	.LVL85:
 584              		.loc 1 250 0
 585 029c 0136     		adds	r6, r6, #1
 586              	.LVL86:
 587 029e 3FF47EAF 		beq	.L51
 588              	.LVL87:
 589              	.L75:
 590              		.loc 1 249 0 discriminator 1
 591 02a2 2868     		ldr	r0, [r5, #0]
 592 02a4 3946     		mov	r1, r7
 593 02a6 8368     		ldr	r3, [r0, #8]
 594 02a8 2846     		mov	r0, r5
 595 02aa 9847     		blx	r3
 596              	.LVL88:
 597 02ac 2968     		ldr	r1, [r5, #0]
 598              		.loc 1 250 0 discriminator 1
 599 02ae 0136     		adds	r6, r6, #1
 600              	.LVL89:
 601              		.loc 1 249 0 discriminator 1
 602 02b0 8A68     		ldr	r2, [r1, #8]
 603 02b2 2846     		mov	r0, r5
 604 02b4 3946     		mov	r1, r7
 605 02b6 9047     		blx	r2
 606              	.LVL90:
 607              		.loc 1 250 0 discriminator 1
 608 02b8 0136     		adds	r6, r6, #1
 609              	.LVL91:
 610 02ba F2D1     		bne	.L75
 611 02bc 6FE7     		b	.L51
 612              	.LVL92:
 613              	.L37:
 614              		.loc 1 178 0
 615 02be 1022     		movs	r2, #16
 616              	.LVL93:
 617              	.L36:
 618              		.loc 1 229 0
 619 02c0 DBF80010 		ldr	r1, [fp, #0]
 620              	.LVL94:
 621              	.LBB6:
 622              	.LBB7:
 623              		.loc 1 71 0
 624 02c4 05A8     		add	r0, sp, #20
 625 02c6 FFF7FEFF 		bl	long_to_string_with_divisor.constprop.0
 626              	.LVL95:
ARM GAS  /tmp/ccWUSqAh.s 			page 12


 627 02ca DDF808C0 		ldr	ip, [sp, #8]
 628              	.LBE7:
 629              	.LBE6:
 630              		.loc 1 229 0
 631 02ce 0BF1040B 		add	fp, fp, #4
 632              	.LVL96:
 633              		.loc 1 132 0
 634 02d2 0DF11409 		add	r9, sp, #20
 635 02d6 CCEB000A 		rsb	sl, ip, r0
 636              		.loc 1 233 0
 637 02da BEE7     		b	.L41
 638              	.LVL97:
 639              	.L63:
 640              		.loc 1 178 0
 641 02dc 0A22     		movs	r2, #10
 642 02de EFE7     		b	.L36
 643              	.L35:
 644              	.LVL98:
 645 02e0 0822     		movs	r2, #8
 646 02e2 EDE7     		b	.L36
 647              	.LVL99:
 648              	.L34:
 649              		.loc 1 197 0
 650 02e4 DBF80010 		ldr	r1, [fp, #0]
 651              	.LVL100:
 652 02e8 0BF1040B 		add	fp, fp, #4
 653              	.LVL101:
 654              		.loc 1 200 0
 655 02ec 0029     		cmp	r1, #0
 656 02ee 41DB     		blt	.L132
 657              		.loc 1 131 0
 658 02f0 05A8     		add	r0, sp, #20
 659              	.LVL102:
 660              	.L48:
 661              	.LBB8:
 662              	.LBB9:
 663              		.loc 1 71 0
 664 02f2 0A22     		movs	r2, #10
 665 02f4 FFF7FEFF 		bl	long_to_string_with_divisor.constprop.0
 666              	.LVL103:
 667 02f8 029B     		ldr	r3, [sp, #8]
 668              	.LBE9:
 669              	.LBE8:
 670              		.loc 1 132 0
 671 02fa 0DF11409 		add	r9, sp, #20
 672 02fe C3EB000A 		rsb	sl, r3, r0
 673              		.loc 1 205 0
 674 0302 AAE7     		b	.L41
 675              	.LVL104:
 676              	.L33:
 677              		.loc 1 235 0
 678 0304 8DF81430 		strb	r3, [sp, #20]
 679              	.LVL105:
 680 0308 DDF80CA0 		ldr	sl, [sp, #12]
 681              		.loc 1 132 0
 682 030c 0DF11409 		add	r9, sp, #20
 683              		.loc 1 236 0
ARM GAS  /tmp/ccWUSqAh.s 			page 13


 684 0310 A3E7     		b	.L41
 685              	.LVL106:
 686              	.L30:
 687              		.loc 1 171 0
 688 0312 2278     		ldrb	r2, [r4, #0]	@ zero_extendqisi2
 689 0314 002A     		cmp	r2, #0
 690 0316 3FF4C0AE 		beq	.L32
 691              	.LVL107:
 692              		.loc 1 172 0
 693 031a 0134     		adds	r4, r4, #1
 694              	.LVL108:
 695 031c 1346     		mov	r3, r2
 696 031e BCE6     		b	.L32
 697              	.LVL109:
 698              	.L22:
 699 0320 7378     		ldrb	r3, [r6, #1]	@ zero_extendqisi2
 700              		.loc 1 141 0
 701 0322 3027     		movs	r7, #48
 702              		.loc 1 140 0
 703 0324 0136     		adds	r6, r6, #1
 704              	.LVL110:
 705 0326 9AE6     		b	.L23
 706              	.LVL111:
 707              	.L129:
 708 0328 2046     		mov	r0, r4
 709              		.loc 1 155 0
 710 032a 0021     		movs	r1, #0
 711 032c 05E0     		b	.L29
 712              	.LVL112:
 713              	.L133:
 714              		.loc 1 161 0
 715 032e 9BF80020 		ldrb	r2, [fp, #0]	@ zero_extendqisi2
 716              	.LVL113:
 717 0332 0BF1040B 		add	fp, fp, #4
 718              	.LVL114:
 719              	.L28:
 720              		.loc 1 165 0
 721 0336 02EB4901 		add	r1, r2, r9, lsl #1
 722              	.LVL115:
 723              	.L29:
 724              		.loc 1 157 0
 725 033a 10F8013B 		ldrb	r3, [r0], #1	@ zero_extendqisi2
 726              	.LVL116:
 727              		.loc 1 164 0
 728 033e 01EB8109 		add	r9, r1, r1, lsl #2
 729              		.loc 1 158 0
 730 0342 A3F13004 		sub	r4, r3, #48
 731              	.LVL117:
 732 0346 E2B2     		uxtb	r2, r4
 733 0348 092A     		cmp	r2, #9
 734              		.loc 1 157 0
 735 034a 0446     		mov	r4, r0
 736              	.LVL118:
 737              		.loc 1 158 0
 738 034c F3D9     		bls	.L28
 739              		.loc 1 160 0
 740 034e 2A2B     		cmp	r3, #42
ARM GAS  /tmp/ccWUSqAh.s 			page 14


 741 0350 EDD0     		beq	.L133
 742 0352 9CE6     		b	.L27
 743              	.LVL119:
 744              	.L127:
 745              		.loc 1 135 0
 746 0354 A61C     		adds	r6, r4, #2
 747              	.LVL120:
 748 0356 A378     		ldrb	r3, [r4, #2]	@ zero_extendqisi2
 749              		.loc 1 136 0
 750 0358 4FF00108 		mov	r8, #1
 751 035c 78E6     		b	.L21
 752              	.LVL121:
 753              	.L131:
 754              		.loc 1 244 0 discriminator 1
 755 035e 302F     		cmp	r7, #48
 756 0360 89D1     		bne	.L99
 757              		.loc 1 245 0
 758 0362 2A68     		ldr	r2, [r5, #0]
 759 0364 2846     		mov	r0, r5
 760 0366 9368     		ldr	r3, [r2, #8]
 761 0368 9847     		blx	r3
 762              	.LVL122:
 763 036a 09F10109 		add	r9, r9, #1
 764              	.LVL123:
 765              		.loc 1 246 0
 766 036e 0AF1FF3A 		add	sl, sl, #-1
 767              	.LVL124:
 768 0372 80E7     		b	.L99
 769              	.LVL125:
 770              	.L132:
 771              		.loc 1 201 0
 772 0374 2D22     		movs	r2, #45
 773 0376 8DF81420 		strb	r2, [sp, #20]
 774              	.LVL126:
 775              		.loc 1 202 0
 776 037a 4942     		negs	r1, r1
 777              	.LVL127:
 778              		.loc 1 201 0
 779 037c 0DF11500 		add	r0, sp, #21
 780 0380 B7E7     		b	.L48
 781              	.LVL128:
 782              	.L66:
 783              		.loc 1 189 0
 784 0382 9A46     		mov	sl, r3
 785              		.loc 1 184 0
 786 0384 2027     		movs	r7, #32
 787 0386 68E7     		b	.L41
 788              		.cfi_endproc
 789              	.LFE10:
 790              		.size	chvprintf, .-chvprintf
 791 0388 AFF30080 		.section	.rodata.str1.4,"aMS",%progbits,1
 791      AFF30080 
 792              		.align	2
 793              	.LC0:
 794 0000 286E756C 		.ascii	"(null)\000"
 794      6C2900
 795 0007 00       		.text
ARM GAS  /tmp/ccWUSqAh.s 			page 15


 796              	.Letext0:
 797              		.file 2 "/usr/bin/../lib/gcc/arm-none-eabi/4.7.4/include/stddef.h"
 798              		.file 3 "/usr/bin/../lib/gcc/arm-none-eabi/4.7.4/../../../../arm-none-eabi/include/stdint.h"
 799              		.file 4 "../../os/ports/GCC/ARMCMx/chtypes.h"
 800              		.file 5 "../../os/kernel/include/chstreams.h"
 801              		.file 6 "/usr/bin/../lib/gcc/arm-none-eabi/4.7.4/include/stdarg.h"
 802              		.file 7 "<built-in>"