ARM GAS  /tmp/ccq6zppQ.s 			page 1


   1              		.syntax unified
   2              		.cpu cortex-m3
   3              		.fpu softvfp
   4              		.eabi_attribute 20, 1
   5              		.eabi_attribute 21, 1
   6              		.eabi_attribute 23, 3
   7              		.eabi_attribute 24, 1
   8              		.eabi_attribute 25, 1
   9              		.eabi_attribute 26, 1
  10              		.eabi_attribute 30, 2
  11              		.eabi_attribute 34, 1
  12              		.eabi_attribute 18, 4
  13              		.thumb
  14              		.file	"i2cGetErr.c"
  15              		.text
  16              	.Ltext0:
  17              		.cfi_sections	.debug_frame
  18              		.section	.text.chprintf.constprop.0,"ax",%progbits
  19              		.align	2
  20              		.p2align 4,,15
  21              		.thumb
  22              		.thumb_func
  23              		.type	chprintf.constprop.0, %function
  24              	chprintf.constprop.0:
  25              	.LFB65:
  26              		.file 1 "../../os/various/chprintf.h"
  27              		.loc 1 68 0
  28              		.cfi_startproc
  29              		@ args = 4, pretend = 12, frame = 8
  30              		@ frame_needed = 0, uses_anonymous_args = 1
  31              	.LVL0:
  32 0000 0EB4     		push	{r1, r2, r3}
  33              	.LCFI0:
  34              		.cfi_def_cfa_offset 12
  35              		.cfi_offset 1, -12
  36              		.cfi_offset 2, -8
  37              		.cfi_offset 3, -4
  38 0002 00B5     		push	{lr}
  39              	.LCFI1:
  40              		.cfi_def_cfa_offset 16
  41              		.cfi_offset 14, -16
  42 0004 82B0     		sub	sp, sp, #8
  43              	.LCFI2:
  44              		.cfi_def_cfa_offset 24
  45              		.loc 1 68 0
  46 0006 03AB     		add	r3, sp, #12
  47 0008 53F8041B 		ldr	r1, [r3], #4
  48              		.loc 1 72 0
  49 000c 40F20000 		movw	r0, #:lower16:SD2
  50              	.LVL1:
  51 0010 C0F20000 		movt	r0, #:upper16:SD2
  52 0014 1A46     		mov	r2, r3
  53              		.loc 1 71 0
  54 0016 0193     		str	r3, [sp, #4]
  55              		.loc 1 72 0
  56 0018 FFF7FEFF 		bl	chvprintf
  57              	.LVL2:
ARM GAS  /tmp/ccq6zppQ.s 			page 2


  58              		.loc 1 74 0
  59 001c 02B0     		add	sp, sp, #8
  60 001e 5DF804EB 		pop	{lr}
  61 0022 03B0     		add	sp, sp, #12
  62 0024 7047     		bx	lr
  63              		.cfi_endproc
  64              	.LFE65:
  65              		.size	chprintf.constprop.0, .-chprintf.constprop.0
  66              		.section	.text.i2cGetErr,"ax",%progbits
  67              		.align	2
  68              		.p2align 4,,15
  69              		.global	i2cGetErr
  70              		.thumb
  71              		.thumb_func
  72              		.type	i2cGetErr, %function
  73              	i2cGetErr:
  74              	.LFB64:
  75              		.file 2 "i2cGetErr.c"
  76              		.loc 2 6 0
  77              		.cfi_startproc
  78              		@ args = 0, pretend = 0, frame = 0
  79              		@ frame_needed = 0, uses_anonymous_args = 0
  80              	.LVL3:
  81 0000 10B5     		push	{r4, lr}
  82              	.LCFI3:
  83              		.cfi_def_cfa_offset 8
  84              		.cfi_offset 4, -8
  85              		.cfi_offset 14, -4
  86              		.loc 2 7 0
  87 0002 3049     		ldr	r1, .L15
  88              		.loc 2 6 0
  89 0004 0446     		mov	r4, r0
  90              		.loc 2 7 0
  91 0006 3048     		ldr	r0, .L15+4
  92              	.LVL4:
  93 0008 FFF7FEFF 		bl	chprintf.constprop.0
  94              	.LVL5:
  95              		.loc 2 9 0
  96 000c 2046     		mov	r0, r4
  97 000e FFF7FEFF 		bl	i2cGetErrors
  98              	.LVL6:
  99              		.loc 2 11 0
 100 0012 0138     		subs	r0, r0, #1
 101              	.LVL7:
 102 0014 3F28     		cmp	r0, #63
 103 0016 21D8     		bhi	.L3
 104 0018 DFE800F0 		tbb	[pc, r0]
 105              	.L11:
 106 001c 4F       		.byte	(.L4-.L11)/2
 107 001d 4A       		.byte	(.L5-.L11)/2
 108 001e 20       		.byte	(.L3-.L11)/2
 109 001f 45       		.byte	(.L6-.L11)/2
 110 0020 20       		.byte	(.L3-.L11)/2
 111 0021 20       		.byte	(.L3-.L11)/2
 112 0022 20       		.byte	(.L3-.L11)/2
 113 0023 40       		.byte	(.L7-.L11)/2
 114 0024 20       		.byte	(.L3-.L11)/2
ARM GAS  /tmp/ccq6zppQ.s 			page 3


 115 0025 20       		.byte	(.L3-.L11)/2
 116 0026 20       		.byte	(.L3-.L11)/2
 117 0027 20       		.byte	(.L3-.L11)/2
 118 0028 20       		.byte	(.L3-.L11)/2
 119 0029 20       		.byte	(.L3-.L11)/2
 120 002a 20       		.byte	(.L3-.L11)/2
 121 002b 3B       		.byte	(.L8-.L11)/2
 122 002c 20       		.byte	(.L3-.L11)/2
 123 002d 20       		.byte	(.L3-.L11)/2
 124 002e 20       		.byte	(.L3-.L11)/2
 125 002f 20       		.byte	(.L3-.L11)/2
 126 0030 20       		.byte	(.L3-.L11)/2
 127 0031 20       		.byte	(.L3-.L11)/2
 128 0032 20       		.byte	(.L3-.L11)/2
 129 0033 20       		.byte	(.L3-.L11)/2
 130 0034 20       		.byte	(.L3-.L11)/2
 131 0035 20       		.byte	(.L3-.L11)/2
 132 0036 20       		.byte	(.L3-.L11)/2
 133 0037 20       		.byte	(.L3-.L11)/2
 134 0038 20       		.byte	(.L3-.L11)/2
 135 0039 20       		.byte	(.L3-.L11)/2
 136 003a 20       		.byte	(.L3-.L11)/2
 137 003b 36       		.byte	(.L9-.L11)/2
 138 003c 20       		.byte	(.L3-.L11)/2
 139 003d 20       		.byte	(.L3-.L11)/2
 140 003e 20       		.byte	(.L3-.L11)/2
 141 003f 20       		.byte	(.L3-.L11)/2
 142 0040 20       		.byte	(.L3-.L11)/2
 143 0041 20       		.byte	(.L3-.L11)/2
 144 0042 20       		.byte	(.L3-.L11)/2
 145 0043 20       		.byte	(.L3-.L11)/2
 146 0044 20       		.byte	(.L3-.L11)/2
 147 0045 20       		.byte	(.L3-.L11)/2
 148 0046 20       		.byte	(.L3-.L11)/2
 149 0047 20       		.byte	(.L3-.L11)/2
 150 0048 20       		.byte	(.L3-.L11)/2
 151 0049 20       		.byte	(.L3-.L11)/2
 152 004a 20       		.byte	(.L3-.L11)/2
 153 004b 20       		.byte	(.L3-.L11)/2
 154 004c 20       		.byte	(.L3-.L11)/2
 155 004d 20       		.byte	(.L3-.L11)/2
 156 004e 20       		.byte	(.L3-.L11)/2
 157 004f 20       		.byte	(.L3-.L11)/2
 158 0050 20       		.byte	(.L3-.L11)/2
 159 0051 20       		.byte	(.L3-.L11)/2
 160 0052 20       		.byte	(.L3-.L11)/2
 161 0053 20       		.byte	(.L3-.L11)/2
 162 0054 20       		.byte	(.L3-.L11)/2
 163 0055 20       		.byte	(.L3-.L11)/2
 164 0056 20       		.byte	(.L3-.L11)/2
 165 0057 20       		.byte	(.L3-.L11)/2
 166 0058 20       		.byte	(.L3-.L11)/2
 167 0059 20       		.byte	(.L3-.L11)/2
 168 005a 20       		.byte	(.L3-.L11)/2
 169 005b 31       		.byte	(.L10-.L11)/2
 170              		.align	1
 171              	.L3:
ARM GAS  /tmp/ccq6zppQ.s 			page 4


 172              		.loc 2 42 0
 173 005c 1A48     		ldr	r0, .L15+4
 174              	.LVL8:
 175 005e 1B49     		ldr	r1, .L15+8
 176 0060 FFF7FEFF 		bl	chprintf.constprop.0
 177              	.LVL9:
 178              	.L12:
 179              		.loc 2 46 0
 180 0064 1A49     		ldr	r1, .L15+12
 181 0066 1848     		ldr	r0, .L15+4
 182 0068 FFF7FEFF 		bl	chprintf.constprop.0
 183              	.LVL10:
 184              		.loc 2 47 0
 185 006c 4FF47A70 		mov	r0, #1000
 186 0070 FFF7FEFF 		bl	chThdSleep
 187              	.LVL11:
 188              		.loc 2 48 0
 189 0074 1448     		ldr	r0, .L15+4
 190 0076 1749     		ldr	r1, .L15+16
 191 0078 FFF7FEFF 		bl	chprintf.constprop.0
 192              	.LVL12:
 193              	.L13:
 194 007c FEE7     		b	.L13
 195              	.LVL13:
 196              	.L10:
 197              		.loc 2 38 0
 198 007e 1248     		ldr	r0, .L15+4
 199              	.LVL14:
 200 0080 1549     		ldr	r1, .L15+20
 201 0082 FFF7FEFF 		bl	chprintf.constprop.0
 202              	.LVL15:
 203              		.loc 2 39 0
 204 0086 EDE7     		b	.L12
 205              	.LVL16:
 206              	.L9:
 207              		.loc 2 34 0
 208 0088 0F48     		ldr	r0, .L15+4
 209              	.LVL17:
 210 008a 1449     		ldr	r1, .L15+24
 211 008c FFF7FEFF 		bl	chprintf.constprop.0
 212              	.LVL18:
 213              		.loc 2 35 0
 214 0090 E8E7     		b	.L12
 215              	.LVL19:
 216              	.L8:
 217              		.loc 2 30 0
 218 0092 0D48     		ldr	r0, .L15+4
 219              	.LVL20:
 220 0094 1249     		ldr	r1, .L15+28
 221 0096 FFF7FEFF 		bl	chprintf.constprop.0
 222              	.LVL21:
 223              		.loc 2 31 0
 224 009a E3E7     		b	.L12
 225              	.LVL22:
 226              	.L7:
 227              		.loc 2 26 0
 228 009c 0A48     		ldr	r0, .L15+4
ARM GAS  /tmp/ccq6zppQ.s 			page 5


 229              	.LVL23:
 230 009e 1149     		ldr	r1, .L15+32
 231 00a0 FFF7FEFF 		bl	chprintf.constprop.0
 232              	.LVL24:
 233              		.loc 2 27 0
 234 00a4 DEE7     		b	.L12
 235              	.LVL25:
 236              	.L6:
 237              		.loc 2 22 0
 238 00a6 0848     		ldr	r0, .L15+4
 239              	.LVL26:
 240 00a8 0F49     		ldr	r1, .L15+36
 241 00aa FFF7FEFF 		bl	chprintf.constprop.0
 242              	.LVL27:
 243              		.loc 2 23 0
 244 00ae D9E7     		b	.L12
 245              	.LVL28:
 246              	.L5:
 247              		.loc 2 18 0
 248 00b0 0548     		ldr	r0, .L15+4
 249              	.LVL29:
 250 00b2 0E49     		ldr	r1, .L15+40
 251 00b4 FFF7FEFF 		bl	chprintf.constprop.0
 252              	.LVL30:
 253              		.loc 2 19 0
 254 00b8 D4E7     		b	.L12
 255              	.LVL31:
 256              	.L4:
 257              		.loc 2 14 0
 258 00ba 0348     		ldr	r0, .L15+4
 259              	.LVL32:
 260 00bc 0C49     		ldr	r1, .L15+44
 261 00be FFF7FEFF 		bl	chprintf.constprop.0
 262              	.LVL33:
 263              		.loc 2 15 0
 264 00c2 CFE7     		b	.L12
 265              	.L16:
 266              		.align	2
 267              	.L15:
 268 00c4 00000000 		.word	.LC0
 269 00c8 00000000 		.word	SD2
 270 00cc AC000000 		.word	.LC8
 271 00d0 B4000000 		.word	.LC9
 272 00d4 E0000000 		.word	.LC10
 273 00d8 9C000000 		.word	.LC7
 274 00dc 88000000 		.word	.LC6
 275 00e0 6C000000 		.word	.LC5
 276 00e4 58000000 		.word	.LC4
 277 00e8 40000000 		.word	.LC3
 278 00ec 2C000000 		.word	.LC2
 279 00f0 20000000 		.word	.LC1
 280              		.cfi_endproc
 281              	.LFE64:
 282              		.size	i2cGetErr, .-i2cGetErr
 283 00f4 AFF30080 		.section	.rodata.str1.4,"aMS",%progbits,1
 283      AFF30080 
 283      AFF30080 
ARM GAS  /tmp/ccq6zppQ.s 			page 6


 284              		.align	2
 285              	.LC0:
 286 0000 57656C6C 		.ascii	"Well, this is embarassing :'(\015\012\000"
 286      2C207468 
 286      69732069 
 286      7320656D 
 286      62617261 
 287              	.LC1:
 288 0020 42757320 		.ascii	"Bus error\015\012\000"
 288      6572726F 
 288      720D0A00 
 289              	.LC2:
 290 002c 41726269 		.ascii	"Arbitration lost\015\012\000"
 290      74726174 
 290      696F6E20 
 290      6C6F7374 
 290      0D0A00
 291 003f 00       		.space	1
 292              	.LC3:
 293 0040 41636B6E 		.ascii	"Acknowledge failure\015\012\000"
 293      6F776C65 
 293      64676520 
 293      6661696C 
 293      7572650D 
 294 0056 0000     		.space	2
 295              	.LC4:
 296 0058 4F766572 		.ascii	"Overrun/Underrun\015\012\000"
 296      72756E2F 
 296      556E6465 
 296      7272756E 
 296      0D0A00
 297 006b 00       		.space	1
 298              	.LC5:
 299 006c 50454320 		.ascii	"PEC error in reception\015\012\000"
 299      6572726F 
 299      7220696E 
 299      20726563 
 299      65707469 
 300 0085 000000   		.space	3
 301              	.LC6:
 302 0088 48617264 		.ascii	"Hardware timeout\015\012\000"
 302      77617265 
 302      2074696D 
 302      656F7574 
 302      0D0A00
 303 009b 00       		.space	1
 304              	.LC7:
 305 009c 534D4275 		.ascii	"SMBus altert\015\012\000"
 305      7320616C 
 305      74657274 
 305      0D0A00
 306 00ab 00       		.space	1
 307              	.LC8:
 308 00ac 5754463F 		.ascii	"WTF?\015\012\000"
 308      0D0A00
 309 00b3 00       		.space	1
 310              	.LC9:
ARM GAS  /tmp/ccq6zppQ.s 			page 7


 311 00b4 446F2079 		.ascii	"Do you have everthig connected correctly?\015\012\000"
 311      6F752068 
 311      61766520 
 311      65766572 
 311      74686967 
 312              	.LC10:
 313 00e0 41726520 		.ascii	"Are you sure that you haven't the data and clock pi"
 313      796F7520 
 313      73757265 
 313      20746861 
 313      7420796F 
 314 0113 6E732073 		.ascii	"ns set as outputs? :)\015\012\000"
 314      65742061 
 314      73206F75 
 314      74707574 
 314      733F203A 
 315 012b 00       		.text
 316              	.Letext0:
 317              		.file 3 "/usr/bin/../lib/gcc/arm-none-eabi/4.7.4/include/stddef.h"
 318              		.file 4 "/usr/bin/../lib/gcc/arm-none-eabi/4.7.4/../../../../arm-none-eabi/include/stdint.h"
 319              		.file 5 "../../os/ports/GCC/ARMCMx/chtypes.h"
 320              		.file 6 "../../os/kernel/include/chlists.h"
 321              		.file 7 "../../os/kernel/include/chthreads.h"
 322              		.file 8 "../../os/ports/GCC/ARMCMx/chcore_v7m.h"
 323              		.file 9 "../../os/kernel/include/chmtx.h"
 324              		.file 10 "../../os/kernel/include/chevents.h"
 325              		.file 11 "../../os/kernel/include/chqueues.h"
 326              		.file 12 "../../os/kernel/include/chstreams.h"
 327              		.file 13 "../../os/hal/platforms/STM32F1xx/stm32f10x.h"
 328              		.file 14 "../../os/hal/platforms/STM32F1xx/stm32_dma.h"
 329              		.file 15 "../../os/hal/include/io_channel.h"
 330              		.file 16 "../../os/hal/include/i2c.h"
 331              		.file 17 "../../os/hal/platforms/STM32/I2Cv1/i2c_lld.h"
 332              		.file 18 "../../os/hal/include/serial.h"
 333              		.file 19 "/usr/bin/../lib/gcc/arm-none-eabi/4.7.4/include/stdarg.h"
 334              		.file 20 "<built-in>"
 335              		.file 21 "../../os/ports/common/ARMCMx/CMSIS/include/core_cm3.h"
 336              		.file 22 "../../os/hal/platforms/STM32/USARTv1/serial_lld.h"