ARM GAS  /tmp/ccq6zppQ.s 			page 1


   1              		.syntax unified
   2              		.cpu cortex-m3
   3              		.fpu softvfp
   4              		.eabi_attribute 20, 1
   5              		.eabi_attribute 21, 1
   6              		.eabi_attribute 23, 3
   7              		.eabi_attribute 24, 1
   8              		.eabi_attribute 25, 1
   9              		.eabi_attribute 26, 1
  10              		.eabi_attribute 30, 2
  11              		.eabi_attribute 34, 1
  12              		.eabi_attribute 18, 4
  13              		.thumb
  14              		.file	"i2cGetErr.c"
  15              		.text
  16              	.Ltext0:
  17              		.cfi_sections	.debug_frame
  18              		.section	.text.chprintf.constprop.0,"ax",%progbits
  19              		.align	2
  20              		.p2align 4,,15
  21              		.thumb
  22              		.thumb_func
  23              		.type	chprintf.constprop.0, %function
  24              	chprintf.constprop.0:
  25              	.LFB65:
  26              		.file 1 "../../os/various/chprintf.h"
  27              		.loc 1 68 0
  28              		.cfi_startproc
  29              		@ args = 4, pretend = 12, frame = 8
  30              		@ frame_needed = 0, uses_anonymous_args = 1
  31              	.LVL0:
  32 0000 0EB4     		push	{r1, r2, r3}
  33              	.LCFI0:
  34              		.cfi_def_cfa_offset 12
  35              		.cfi_offset 1, -12
  36              		.cfi_offset 2, -8
  37              		.cfi_offset 3, -4
  38 0002 00B5     		push	{lr}
  39              	.LCFI1:
  40              		.cfi_def_cfa_offset 16
  41              		.cfi_offset 14, -16
  42 0004 82B0     		sub	sp, sp, #8
  43              	.LCFI2:
  44              		.cfi_def_cfa_offset 24
  45              		.loc 1 68 0
  46 0006 03AB     		add	r3, sp, #12
  47 0008 53F8041B 		ldr	r1, [r3], #4
  48              		.loc 1 72 0
  49 000c 40F20000 		movw	r0, #:lower16:SD2
  50              	.LVL1:
  51 0010 C0F20000 		movt	r0, #:upper16:SD2
  52 0014 1A46     		mov	r2, r3
  53              		.loc 1 71 0
  54 0016 0193     		str	r3, [sp, #4]
  55              		.loc 1 72 0
  56 0018 FFF7FEFF 		bl	chvprintf
  57              	.LVL2:
ARM GAS  /tmp/ccq6zppQ.s 			page 2


  58              		.loc 1 74 0
  59 001c 02B0     		add	sp, sp, #8
  60 001e 5DF804EB 		pop	{lr}
  61 0022 03B0     		add	sp, sp, #12
  62 0024 7047     		bx	lr
  63              		.cfi_endproc
  64              	.LFE65:
  65              		.size	chprintf.constprop.0, .-chprintf.constprop.0
  66              		.section	.text.i2cGetErr,"ax",%progbits
  67              		.align	2
  68              		.p2align 4,,15
  69              		.global	i2cGetErr
  70              		.thumb
  71              		.thumb_func
  72              		.type	i2cGetErr, %function
  73              	i2cGetErr:
  74              	.LFB64:
  75              		.file 2 "i2cGetErr.c"
  76              		.loc 2 6 0
  77              		.cfi_startproc
  78              		@ args = 0, pretend = 0, frame = 0
  79              		@ frame_needed = 0, uses_anonymous_args = 0
  80              	.LVL3:
  81 0000 10B5     		push	{r4, lr}
  82              	.LCFI3:
  83              		.cfi_def_cfa_offset 8
  84              		.cfi_offset 4, -8
  85              		.cfi_offset 14, -4
  86              		.loc 2 7 0
  87 0002 3049     		ldr	r1, .L15
  88              		.loc 2 6 0
  89 0004 0446     		mov	r4, r0
  90              		.loc 2 7 0
  91 0006 3048     		ldr	r0, .L15+4
  92              	.LVL4:
  93 0008 FFF7FEFF 		bl	chprintf.constprop.0
  94              	.LVL5:
  95              		.loc 2 9 0
  96 000c 2046     		mov	r0, r4
  97 000e FFF7FEFF 		bl	i2cGetErrors
  98              	.LVL6:
  99              		.loc 2 11 0
 100 0012 0138     		subs	r0, r0, #1
 101              	.LVL7:
 102 0014 3F28     		cmp	r0, #63
 103 0016 21D8     		bhi	.L3
 104 0018 DFE800F0 		tbb	[pc, r0]
 105              	.L11:
 106 001c 4F       		.byte	(.L4-.L11)/2
 107 001d 4A       		.byte	(.L5-.L11)/2
 108 001e 20       		.byte	(.L3-.L11)/2
 109 001f 45       		.byte	(.L6-.L11)/2
 110 0020 20       		.byte	(.L3-.L11)/2
 111 0021 20       		.byte	(.L3-.L11)/2
 112 0022 20       		.byte	(.L3-.L11)/2
 113 0023 40       		.byte	(.L7-.L11)/2
 114 0024 20       		.byte	(.L3-.L11)/2
ARM GAS  /tmp/ccq6zppQ.s 			page 3


 115 0025 20       		.byte	(.L3-.L11)/2
 116 0026 20       		.byte	(.L3-.L11)/2
 117 0027 20       		.byte	(.L3-.L11)/2
 118 0028 20       		.byte	(.L3-.L11)/2
 119 0029 20       		.byte	(.L3-.L11)/2
 120 002a 20       		.byte	(.L3-.L11)/2
 121 002b 3B       		.byte	(.L8-.L11)/2
 122 002c 20       		.byte	(.L3-.L11)/2
 123 002d 20       		.byte	(.L3-.L11)/2
 124 002e 20       		.byte	(.L3-.L11)/2
 125 002f 20       		.byte	(.L3-.L11)/2
 126 0030 20       		.byte	(.L3-.L11)/2
 127 0031 20       		.byte	(.L3-.L11)/2
 128 0032 20       		.byte	(.L3-.L11)/2
 129 0033 20       		.byte	(.L3-.L11)/2
 130 0034 20       		.byte	(.L3-.L11)/2
 131 0035 20       		.byte	(.L3-.L11)/2
 132 0036 20       		.byte	(.L3-.L11)/2
 133 0037 20       		.byte	(.L3-.L11)/2
 134 0038 20       		.byte	(.L3-.L11)/2
 135 0039 20       		.byte	(.L3-.L11)/2
 136 003a 20       		.byte	(.L3-.L11)/2
 137 003b 36       		.byte	(.L9-.L11)/2
 138 003c 20       		.byte	(.L3-.L11)/2
 139 003d 20       		.byte	(.L3-.L11)/2
 140 003e 20       		.byte	(.L3-.L11)/2
 141 003f 20       		.byte	(.L3-.L11)/2
 142 0040 20       		.byte	(.L3-.L11)/2
 143 0041 20       		.byte	(.L3-.L11)/2
 144 0042 20       		.byte	(.L3-.L11)/2
 145 0043 20       		.byte	(.L3-.L11)/2
 146 0044 20       		.byte	(.L3-.L11)/2
 147 0045 20       		.byte	(.L3-.L11)/2
 148 0046 20       		.byte	(.L3-.L11)/2
 149 0047 20       		.byte	(.L3-.L11)/2
 150 0048 20       		.byte	(.L3-.L11)/2
 151 0049 20       		.byte	(.L3-.L11)/2
 152 004a 20       		.byte	(.L3-.L11)/2
 153 004b 20       		.byte	(.L3-.L11)/2
 154 004c 20       		.byte	(.L3-.L11)/2
 155 004d 20       		.byte	(.L3-.L11)/2
 156 004e 20       		.byte	(.L3-.L11)/2
 157 004f 20       		.byte	(.L3-.L11)/2
 158 0050 20       		.byte	(.L3-.L11)/2
 159 0051 20       		.byte	(.L3-.L11)/2
 160 0052 20       		.byte	(.L3-.L11)/2
 161 0053 20       		.byte	(.L3-.L11)/2
 162 0054 20       		.byte	(.L3-.L11)/2
 163 0055 20       		.byte	(.L3-.L11)/2
 164 0056 20       		.byte	(.L3-.L11)/2
 165 0057 20       		.byte	(.L3-.L11)/2
 166 0058 20       		.byte	(.L3-.L11)/2
 167 0059 20       		.byte	(.L3-.L11)/2
 168 005a 20       		.byte	(.L3-.L11)/2
 169 005b 31       		.byte	(.L10-.L11)/2
 170              		.align	1
 171              	.L3:
ARM GAS  /tmp/ccq6zppQ.s 			page 4


 172              		.loc 2 42 0
 173 005c 1A48     		ldr	r0, .L15+4
 174              	.LVL8:
 175 005e 1B49     		ldr	r1, .L15+8
 176 0060 FFF7FEFF 		bl	chprintf.constprop.0
 177              	.LVL9:
 178              	.L12:
 179              		.loc 2 46 0
 180 0064 1A49     		ldr	r1, .L15+12
 181 0066 1848     		ldr	r0, .L15+4
 182 0068 FFF7FEFF 		bl	chprintf.constprop.0
 183              	.LVL10:
 184              		.loc 2 47 0
 185 006c 4FF47A70 		mov	r0, #1000
 186 0070 FFF7FEFF 		bl	chThdSleep
 187              	.LVL11:
 188              		.loc 2 48 0
 189 0074 1448     		ldr	r0, .L15+4
 190 0076 1749     		ldr	r1, .L15+16
 191 0078 FFF7FEFF 		bl	chprintf.constprop.0
 192              	.LVL12:
 193              	.L13:
 194 007c FEE7     		b	.L13
 195              	.LVL13:
 196              	.L10:
 197              		.loc 2 38 0
 198 007e 1248     		ldr	r0, .L15+4
 199              	.LVL14:
 200 0080 1549     		ldr	r1, .L15+20
 201 0082 FFF7FEFF 		bl	chprintf.constprop.0
 202              	.LVL15:
 203              		.loc 2 39 0
 204 0086 EDE7     		b	.L12
 205              	.LVL16:
 206              	.L9:
 207              		.loc 2 34 0
 208 0088 0F48     		ldr	r0, .L15+4
 209              	.LVL17:
 210 008a 1449     		ldr	r1, .L15+24
 211 008c FFF7FEFF 		bl	chprintf.constprop.0
 212              	.LVL18:
 213              		.loc 2 35 0
 214 0090 E8E7     		b	.L12
 215              	.LVL19:
 216              	.L8:
 217              		.loc 2 30 0
 218 0092 0D48     		ldr	r0, .L15+4
 219              	.LVL20:
 220 0094 1249     		ldr	r1, .L15+28
 221 0096 FFF7FEFF 		bl	chprintf.constprop.0
 222              	.LVL21:
 223              		.loc 2 31 0
 224 009a E3E7     		b	.L12
 225              	.LVL22:
 226              	.L7:
 227              		.loc 2 26 0
 228 009c 0A48     		ldr	r0, .L15+4
ARM GAS  /tmp/ccq6zppQ.s 			page 5


 229              	.LVL23:
 230 009e 1149     		ldr	r1, .L15+32
 231 00a0 FFF7FEFF 		bl	chprintf.constprop.0
 232              	.LVL24:
 233              		.loc 2 27 0
 234 00a4 DEE7     		b	.L12
 235              	.LVL25:
 236              	.L6:
 237              		.loc 2 22 0
 238 00a6 0848     		ldr	r0, .L15+4
 239              	.LVL26:
 240 00a8 0F49     		ldr	r1, .L15+36
 241 00aa FFF7FEFF 		bl	chprintf.constprop.0
 242              	.LVL27:
 243              		.loc 2 23 0
 244 00ae D9E7     		b	.L12
 245              	.LVL28:
 246              	.L5:
 247              		.loc 2 18 0
 248 00b0 0548     		ldr	r0, .L15+4
 249              	.LVL29:
 250 00b2 0E49     		ldr	r1, .L15+40
 251 00b4 FFF7FEFF 		bl	chprintf.constprop.0
 252              	.LVL30:
 253              		.loc 2 19 0
 254 00b8 D4E7     		b	.L12
 255              	.LVL31:
 256              	.L4:
 257              		.loc 2 14 0
 258 00ba 0348     		ldr	r0, .L15+4
 259              	.LVL32:
 260 00bc 0C49     		ldr	r1, .L15+44
 261 00be FFF7FEFF 		bl	chprintf.constprop.0
 262              	.LVL33:
 263              		.loc 2 15 0
 264 00c2 CFE7     		b	.L12
 265              	.L16:
 266              		.align	2
 267              	.L15:
 268 00c4 00000000 		.word	.LC0
 269 00c8 00000000 		.word	SD2
 270 00cc AC000000 		.word	.LC8
 271 00d0 B4000000 		.word	.LC9
 272 00d4 E0000000 		.word	.LC10
 273 00d8 9C000000 		.word	.LC7
 274 00dc 88000000 		.word	.LC6
 275 00e0 6C000000 		.word	.LC5
 276 00e4 58000000 		.word	.LC4
 277 00e8 40000000 		.word	.LC3
 278 00ec 2C000000 		.word	.LC2
 279 00f0 20000000 		.word	.LC1
 280              		.cfi_endproc
 281              	.LFE64:
 282              		.size	i2cGetErr, .-i2cGetErr
 283 00f4 AFF30080 		.section	.rodata.str1.4,"aMS",%progbits,1
 283      AFF30080 
 283      AFF30080 
ARM GAS  /tmp/ccq6zppQ.s 			page 6


 284              		.align	2
 285              	.LC0:
 286 0000 57656C6C 		.ascii	"Well, this is embarassing :'(\015\012\000"
 286      2C207468 
 286      69732069 
 286      7320656D 
 286      62617261 
 287              	.LC1:
 288 0020 42757320 		.ascii	"Bus error\015\012\000"
 288      6572726F 
 288      720D0A00 
 289              	.LC2:
 290 002c 41726269 		.ascii	"Arbitration lost\015\012\000"
 290      74726174 
 290      696F6E20 
 290      6C6F7374 
 290      0D0A00
 291 003f 00       		.space	1
 292              	.LC3:
 293 0040 41636B6E 		.ascii	"Acknowledge failure\015\012\000"
 293      6F776C65 
 293      64676520 
 293      6661696C 
 293      7572650D 
 294 0056 0000     		.space	2
 295              	.LC4:
 296 0058 4F766572 		.ascii	"Overrun/Underrun\015\012\000"
 296      72756E2F 
 296      556E6465 
 296      7272756E 
 296      0D0A00
 297 006b 00       		.space	1
 298              	.LC5:
 299 006c 50454320 		.ascii	"PEC error in reception\015\012\000"
 299      6572726F 
 299      7220696E 
 299      20726563 
 299      65707469 
 300 0085 000000   		.space	3
 301              	.LC6:
 302 0088 48617264 		.ascii	"Hardware timeout\015\012\000"
 302      77617265 
 302      2074696D 
 302      656F7574 
 302      0D0A00
 303 009b 00       		.space	1
 304              	.LC7:
 305 009c 534D4275 		.ascii	"SMBus altert\015\012\000"
 305      7320616C 
 305      74657274 
 305      0D0A00
 306 00ab 00       		.space	1
 307              	.LC8:
 308 00ac 5754463F 		.ascii	"WTF?\015\012\000"
 308      0D0A00
 309 00b3 00       		.space	1
 310              	.LC9:
ARM GAS  /tmp/ccq6zppQ.s 			page 7


 311 00b4 446F2079 		.ascii	"Do you have everthig connected correctly?\015\012\000"
 311      6F752068 
 311      61766520 
 311      65766572 
 311      74686967 
 312              	.LC10:
 313 00e0 41726520 		.ascii	"Are you sure that you haven't the data and clock pi"
 313      796F7520 
 313      73757265 
 313      20746861 
 313      7420796F 
 314 0113 6E732073 		.ascii	"ns set as outputs? :)\015\012\000"
 314      65742061 
 314      73206F75 
 314      74707574 
 314      733F203A 
 315 012b 00       		.text
 316              	.Letext0:
 317              		.file 3 "/usr/bin/../lib/gcc/arm-none-eabi/4.7.4/include/stddef.h"
 318              		.file 4 "/usr/bin/../lib/gcc/arm-none-eabi/4.7.4/../../../../arm-none-eabi/include/stdint.h"
 319              		.file 5 "../../os/ports/GCC/ARMCMx/chtypes.h"
 320              		.file 6 "../../os/kernel/include/chlists.h"
 321              		.file 7 "../../os/kernel/include/chthreads.h"
 322              		.file 8 "../../os/ports/GCC/ARMCMx/chcore_v7m.h"
 323              		.file 9 "../../os/kernel/include/chmtx.h"
 324              		.file 10 "../../os/kernel/include/chevents.h"
 325              		.file 11 "../../os/kernel/include/chqueues.h"
 326              		.file 12 "../../os/kernel/include/chstreams.h"
 327              		.file 13 "../../os/hal/platforms/STM32F1xx/stm32f10x.h"
 328              		.file 14 "../../os/hal/platforms/STM32F1xx/stm32_dma.h"
 329              		.file 15 "../../os/hal/include/io_channel.h"
 330              		.file 16 "../../os/hal/include/i2c.h"
 331              		.file 17 "../../os/hal/platforms/STM32/I2Cv1/i2c_lld.h"
 332              		.file 18 "../../os/hal/include/serial.h"
 333              		.file 19 "/usr/bin/../lib/gcc/arm-none-eabi/4.7.4/include/stdarg.h"
 334              		.file 20 "<built-in>"
 335              		.file 21 "../../os/ports/common/ARMCMx/CMSIS/include/core_cm3.h"
 336              		.file 22 "../../os/hal/platforms/STM32/USARTv1/serial_lld.h"
 337              		.section	.debug_info,"",%progbits
 338              	.Ldebug_info0:
 339 0000 CC0F0000 		.4byte	0xfcc
 340 0004 0200     		.2byte	0x2
 341 0006 00000000 		.4byte	.Ldebug_abbrev0
 342 000a 04       		.byte	0x4
 343 000b 01       		.uleb128 0x1
 344 000c 13010000 		.4byte	.LASF163
 345 0010 01       		.byte	0x1
 346 0011 44030000 		.4byte	.LASF164
 347 0015 3D060000 		.4byte	.LASF165
 348 0019 00000000 		.4byte	.Ldebug_ranges0+0
 349 001d 00000000 		.4byte	0
 350 0021 00000000 		.4byte	0
 351 0025 00000000 		.4byte	.Ldebug_line0
 352 0029 02       		.uleb128 0x2
 353 002a 04       		.byte	0x4
 354 002b 05       		.byte	0x5
 355 002c 696E7400 		.ascii	"int\000"
ARM GAS  /tmp/ccq6zppQ.s 			page 8


 356 0030 03       		.uleb128 0x3
 357 0031 20000000 		.4byte	.LASF2
 358 0035 03       		.byte	0x3
 359 0036 D5       		.byte	0xd5
 360 0037 3B000000 		.4byte	0x3b
 361 003b 04       		.uleb128 0x4
 362 003c 04       		.byte	0x4
 363 003d 07       		.byte	0x7
 364 003e 2F020000 		.4byte	.LASF0
 365 0042 04       		.uleb128 0x4
 366 0043 01       		.byte	0x1
 367 0044 06       		.byte	0x6
 368 0045 E4000000 		.4byte	.LASF1
 369 0049 03       		.uleb128 0x3
 370 004a 35060000 		.4byte	.LASF3
 371 004e 04       		.byte	0x4
 372 004f 2A       		.byte	0x2a
 373 0050 54000000 		.4byte	0x54
 374 0054 04       		.uleb128 0x4
 375 0055 01       		.byte	0x1
 376 0056 08       		.byte	0x8
 377 0057 80040000 		.4byte	.LASF4
 378 005b 04       		.uleb128 0x4
 379 005c 02       		.byte	0x2
 380 005d 05       		.byte	0x5
 381 005e F1020000 		.4byte	.LASF5
 382 0062 03       		.uleb128 0x3
 383 0063 3C020000 		.4byte	.LASF6
 384 0067 04       		.byte	0x4
 385 0068 36       		.byte	0x36
 386 0069 6D000000 		.4byte	0x6d
 387 006d 04       		.uleb128 0x4
 388 006e 02       		.byte	0x2
 389 006f 07       		.byte	0x7
 390 0070 92020000 		.4byte	.LASF7
 391 0074 03       		.uleb128 0x3
 392 0075 78040000 		.4byte	.LASF8
 393 0079 04       		.byte	0x4
 394 007a 4F       		.byte	0x4f
 395 007b 7F000000 		.4byte	0x7f
 396 007f 04       		.uleb128 0x4
 397 0080 04       		.byte	0x4
 398 0081 05       		.byte	0x5
 399 0082 6C010000 		.4byte	.LASF9
 400 0086 03       		.uleb128 0x3
 401 0087 6C050000 		.4byte	.LASF10
 402 008b 04       		.byte	0x4
 403 008c 50       		.byte	0x50
 404 008d 91000000 		.4byte	0x91
 405 0091 04       		.uleb128 0x4
 406 0092 04       		.byte	0x4
 407 0093 07       		.byte	0x7
 408 0094 9A050000 		.4byte	.LASF11
 409 0098 04       		.uleb128 0x4
 410 0099 08       		.byte	0x8
 411 009a 05       		.byte	0x5
 412 009b D6000000 		.4byte	.LASF12
ARM GAS  /tmp/ccq6zppQ.s 			page 9


 413 009f 03       		.uleb128 0x3
 414 00a0 42000000 		.4byte	.LASF13
 415 00a4 04       		.byte	0x4
 416 00a5 78       		.byte	0x78
 417 00a6 AA000000 		.4byte	0xaa
 418 00aa 04       		.uleb128 0x4
 419 00ab 08       		.byte	0x8
 420 00ac 07       		.byte	0x7
 421 00ad 65000000 		.4byte	.LASF14
 422 00b1 04       		.uleb128 0x4
 423 00b2 01       		.byte	0x1
 424 00b3 02       		.byte	0x2
 425 00b4 72040000 		.4byte	.LASF15
 426 00b8 03       		.uleb128 0x3
 427 00b9 D1020000 		.4byte	.LASF16
 428 00bd 05       		.byte	0x5
 429 00be 25       		.byte	0x25
 430 00bf 49000000 		.4byte	0x49
 431 00c3 03       		.uleb128 0x3
 432 00c4 75010000 		.4byte	.LASF17
 433 00c8 05       		.byte	0x5
 434 00c9 26       		.byte	0x26
 435 00ca 49000000 		.4byte	0x49
 436 00ce 03       		.uleb128 0x3
 437 00cf F2030000 		.4byte	.LASF18
 438 00d3 05       		.byte	0x5
 439 00d4 27       		.byte	0x27
 440 00d5 49000000 		.4byte	0x49
 441 00d9 03       		.uleb128 0x3
 442 00da 09010000 		.4byte	.LASF19
 443 00de 05       		.byte	0x5
 444 00df 28       		.byte	0x28
 445 00e0 49000000 		.4byte	0x49
 446 00e4 03       		.uleb128 0x3
 447 00e5 51040000 		.4byte	.LASF20
 448 00e9 05       		.byte	0x5
 449 00ea 29       		.byte	0x29
 450 00eb 86000000 		.4byte	0x86
 451 00ef 03       		.uleb128 0x3
 452 00f0 AF020000 		.4byte	.LASF21
 453 00f4 05       		.byte	0x5
 454 00f5 2A       		.byte	0x2a
 455 00f6 74000000 		.4byte	0x74
 456 00fa 03       		.uleb128 0x3
 457 00fb E5020000 		.4byte	.LASF22
 458 00ff 05       		.byte	0x5
 459 0100 2C       		.byte	0x2c
 460 0101 86000000 		.4byte	0x86
 461 0105 03       		.uleb128 0x3
 462 0106 00060000 		.4byte	.LASF23
 463 010a 05       		.byte	0x5
 464 010b 2D       		.byte	0x2d
 465 010c 86000000 		.4byte	0x86
 466 0110 03       		.uleb128 0x3
 467 0111 C4050000 		.4byte	.LASF24
 468 0115 05       		.byte	0x5
 469 0116 2E       		.byte	0x2e
ARM GAS  /tmp/ccq6zppQ.s 			page 10


 470 0117 86000000 		.4byte	0x86
 471 011b 03       		.uleb128 0x3
 472 011c 01020000 		.4byte	.LASF25
 473 0120 06       		.byte	0x6
 474 0121 23       		.byte	0x23
 475 0122 26010000 		.4byte	0x126
 476 0126 05       		.uleb128 0x5
 477 0127 01020000 		.4byte	.LASF25
 478 012b 4C       		.byte	0x4c
 479 012c 07       		.byte	0x7
 480 012d 57       		.byte	0x57
 481 012e 59020000 		.4byte	0x259
 482 0132 06       		.uleb128 0x6
 483 0133 F1040000 		.4byte	.LASF26
 484 0137 07       		.byte	0x7
 485 0138 58       		.byte	0x58
 486 0139 7E020000 		.4byte	0x27e
 487 013d 02       		.byte	0x2
 488 013e 23       		.byte	0x23
 489 013f 00       		.uleb128 0
 490 0140 06       		.uleb128 0x6
 491 0141 2C040000 		.4byte	.LASF27
 492 0145 07       		.byte	0x7
 493 0146 5A       		.byte	0x5a
 494 0147 7E020000 		.4byte	0x27e
 495 014b 02       		.byte	0x2
 496 014c 23       		.byte	0x23
 497 014d 04       		.uleb128 0x4
 498 014e 06       		.uleb128 0x6
 499 014f BF000000 		.4byte	.LASF28
 500 0153 07       		.byte	0x7
 501 0154 5C       		.byte	0x5c
 502 0155 E4000000 		.4byte	0xe4
 503 0159 02       		.byte	0x2
 504 015a 23       		.byte	0x23
 505 015b 08       		.uleb128 0x8
 506 015c 06       		.uleb128 0x6
 507 015d EC060000 		.4byte	.LASF29
 508 0161 07       		.byte	0x7
 509 0162 5D       		.byte	0x5d
 510 0163 57030000 		.4byte	0x357
 511 0167 02       		.byte	0x2
 512 0168 23       		.byte	0x23
 513 0169 0C       		.uleb128 0xc
 514 016a 06       		.uleb128 0x6
 515 016b BC010000 		.4byte	.LASF30
 516 016f 07       		.byte	0x7
 517 0170 5F       		.byte	0x5f
 518 0171 7E020000 		.4byte	0x27e
 519 0175 02       		.byte	0x2
 520 0176 23       		.byte	0x23
 521 0177 10       		.uleb128 0x10
 522 0178 06       		.uleb128 0x6
 523 0179 7F030000 		.4byte	.LASF31
 524 017d 07       		.byte	0x7
 525 017e 60       		.byte	0x60
 526 017f 7E020000 		.4byte	0x27e
ARM GAS  /tmp/ccq6zppQ.s 			page 11


 527 0183 02       		.byte	0x2
 528 0184 23       		.byte	0x23
 529 0185 14       		.uleb128 0x14
 530 0186 06       		.uleb128 0x6
 531 0187 12060000 		.4byte	.LASF32
 532 018b 07       		.byte	0x7
 533 018c 67       		.byte	0x67
 534 018d 84040000 		.4byte	0x484
 535 0191 02       		.byte	0x2
 536 0192 23       		.byte	0x23
 537 0193 18       		.uleb128 0x18
 538 0194 06       		.uleb128 0x6
 539 0195 B7030000 		.4byte	.LASF33
 540 0199 07       		.byte	0x7
 541 019a 6D       		.byte	0x6d
 542 019b 96040000 		.4byte	0x496
 543 019f 02       		.byte	0x2
 544 01a0 23       		.byte	0x23
 545 01a1 1C       		.uleb128 0x1c
 546 01a2 06       		.uleb128 0x6
 547 01a3 CB040000 		.4byte	.LASF34
 548 01a7 07       		.byte	0x7
 549 01a8 72       		.byte	0x72
 550 01a9 C3000000 		.4byte	0xc3
 551 01ad 02       		.byte	0x2
 552 01ae 23       		.byte	0x23
 553 01af 20       		.uleb128 0x20
 554 01b0 06       		.uleb128 0x6
 555 01b1 10050000 		.4byte	.LASF35
 556 01b5 07       		.byte	0x7
 557 01b6 76       		.byte	0x76
 558 01b7 B8000000 		.4byte	0xb8
 559 01bb 02       		.byte	0x2
 560 01bc 23       		.byte	0x23
 561 01bd 21       		.uleb128 0x21
 562 01be 06       		.uleb128 0x6
 563 01bf 8F010000 		.4byte	.LASF36
 564 01c3 07       		.byte	0x7
 565 01c4 7B       		.byte	0x7b
 566 01c5 CE000000 		.4byte	0xce
 567 01c9 02       		.byte	0x2
 568 01ca 23       		.byte	0x23
 569 01cb 22       		.uleb128 0x22
 570 01cc 06       		.uleb128 0x6
 571 01cd D3040000 		.4byte	.LASF37
 572 01d1 07       		.byte	0x7
 573 01d2 81       		.byte	0x81
 574 01d3 D9000000 		.4byte	0xd9
 575 01d7 02       		.byte	0x2
 576 01d8 23       		.byte	0x23
 577 01d9 23       		.uleb128 0x23
 578 01da 06       		.uleb128 0x6
 579 01db A7010000 		.4byte	.LASF38
 580 01df 07       		.byte	0x7
 581 01e0 88       		.byte	0x88
 582 01e1 86030000 		.4byte	0x386
 583 01e5 02       		.byte	0x2
ARM GAS  /tmp/ccq6zppQ.s 			page 12


 584 01e6 23       		.byte	0x23
 585 01e7 24       		.uleb128 0x24
 586 01e8 07       		.uleb128 0x7
 587 01e9 705F7500 		.ascii	"p_u\000"
 588 01ed 07       		.byte	0x7
 589 01ee AD       		.byte	0xad
 590 01ef 4F040000 		.4byte	0x44f
 591 01f3 02       		.byte	0x2
 592 01f4 23       		.byte	0x23
 593 01f5 28       		.uleb128 0x28
 594 01f6 06       		.uleb128 0x6
 595 01f7 F2060000 		.4byte	.LASF39
 596 01fb 07       		.byte	0x7
 597 01fc B2       		.byte	0xb2
 598 01fd A6020000 		.4byte	0x2a6
 599 0201 02       		.byte	0x2
 600 0202 23       		.byte	0x23
 601 0203 2C       		.uleb128 0x2c
 602 0204 06       		.uleb128 0x6
 603 0205 61020000 		.4byte	.LASF40
 604 0209 07       		.byte	0x7
 605 020a B8       		.byte	0xb8
 606 020b 84020000 		.4byte	0x284
 607 020f 02       		.byte	0x2
 608 0210 23       		.byte	0x23
 609 0211 30       		.uleb128 0x30
 610 0212 06       		.uleb128 0x6
 611 0213 B3060000 		.4byte	.LASF41
 612 0217 07       		.byte	0x7
 613 0218 BC       		.byte	0xbc
 614 0219 EF000000 		.4byte	0xef
 615 021d 02       		.byte	0x2
 616 021e 23       		.byte	0x23
 617 021f 38       		.uleb128 0x38
 618 0220 06       		.uleb128 0x6
 619 0221 4D050000 		.4byte	.LASF42
 620 0225 07       		.byte	0x7
 621 0226 C2       		.byte	0xc2
 622 0227 FA000000 		.4byte	0xfa
 623 022b 02       		.byte	0x2
 624 022c 23       		.byte	0x23
 625 022d 3C       		.uleb128 0x3c
 626 022e 06       		.uleb128 0x6
 627 022f B6040000 		.4byte	.LASF43
 628 0233 07       		.byte	0x7
 629 0234 C9       		.byte	0xc9
 630 0235 9C040000 		.4byte	0x49c
 631 0239 02       		.byte	0x2
 632 023a 23       		.byte	0x23
 633 023b 40       		.uleb128 0x40
 634 023c 06       		.uleb128 0x6
 635 023d CE050000 		.4byte	.LASF44
 636 0241 07       		.byte	0x7
 637 0242 CD       		.byte	0xcd
 638 0243 E4000000 		.4byte	0xe4
 639 0247 02       		.byte	0x2
 640 0248 23       		.byte	0x23
ARM GAS  /tmp/ccq6zppQ.s 			page 13


 641 0249 44       		.uleb128 0x44
 642 024a 06       		.uleb128 0x6
 643 024b 01010000 		.4byte	.LASF45
 644 024f 07       		.byte	0x7
 645 0250 D3       		.byte	0xd3
 646 0251 BC020000 		.4byte	0x2bc
 647 0255 02       		.byte	0x2
 648 0256 23       		.byte	0x23
 649 0257 48       		.uleb128 0x48
 650 0258 00       		.byte	0
 651 0259 08       		.uleb128 0x8
 652 025a 08       		.byte	0x8
 653 025b 06       		.byte	0x6
 654 025c 5A       		.byte	0x5a
 655 025d 7E020000 		.4byte	0x27e
 656 0261 06       		.uleb128 0x6
 657 0262 F1040000 		.4byte	.LASF26
 658 0266 06       		.byte	0x6
 659 0267 5B       		.byte	0x5b
 660 0268 7E020000 		.4byte	0x27e
 661 026c 02       		.byte	0x2
 662 026d 23       		.byte	0x23
 663 026e 00       		.uleb128 0
 664 026f 06       		.uleb128 0x6
 665 0270 2C040000 		.4byte	.LASF27
 666 0274 06       		.byte	0x6
 667 0275 5D       		.byte	0x5d
 668 0276 7E020000 		.4byte	0x27e
 669 027a 02       		.byte	0x2
 670 027b 23       		.byte	0x23
 671 027c 04       		.uleb128 0x4
 672 027d 00       		.byte	0
 673 027e 09       		.uleb128 0x9
 674 027f 04       		.byte	0x4
 675 0280 1B010000 		.4byte	0x11b
 676 0284 03       		.uleb128 0x3
 677 0285 91030000 		.4byte	.LASF46
 678 0289 06       		.byte	0x6
 679 028a 5F       		.byte	0x5f
 680 028b 59020000 		.4byte	0x259
 681 028f 08       		.uleb128 0x8
 682 0290 04       		.byte	0x4
 683 0291 06       		.byte	0x6
 684 0292 64       		.byte	0x64
 685 0293 A6020000 		.4byte	0x2a6
 686 0297 06       		.uleb128 0x6
 687 0298 F1040000 		.4byte	.LASF26
 688 029c 06       		.byte	0x6
 689 029d 66       		.byte	0x66
 690 029e 7E020000 		.4byte	0x27e
 691 02a2 02       		.byte	0x2
 692 02a3 23       		.byte	0x23
 693 02a4 00       		.uleb128 0
 694 02a5 00       		.byte	0
 695 02a6 03       		.uleb128 0x3
 696 02a7 D9020000 		.4byte	.LASF47
 697 02ab 06       		.byte	0x6
ARM GAS  /tmp/ccq6zppQ.s 			page 14


 698 02ac 69       		.byte	0x69
 699 02ad 8F020000 		.4byte	0x28f
 700 02b1 03       		.uleb128 0x3
 701 02b2 E6010000 		.4byte	.LASF48
 702 02b6 08       		.byte	0x8
 703 02b7 DE       		.byte	0xde
 704 02b8 BC020000 		.4byte	0x2bc
 705 02bc 0A       		.uleb128 0xa
 706 02bd 04       		.byte	0x4
 707 02be 03       		.uleb128 0x3
 708 02bf 12030000 		.4byte	.LASF49
 709 02c3 08       		.byte	0x8
 710 02c4 E4       		.byte	0xe4
 711 02c5 9F000000 		.4byte	0x9f
 712 02c9 0B       		.uleb128 0xb
 713 02ca F0050000 		.4byte	.LASF50
 714 02ce 24       		.byte	0x24
 715 02cf 08       		.byte	0x8
 716 02d0 0501     		.2byte	0x105
 717 02d2 57030000 		.4byte	0x357
 718 02d6 0C       		.uleb128 0xc
 719 02d7 723400   		.ascii	"r4\000"
 720 02da 08       		.byte	0x8
 721 02db 1801     		.2byte	0x118
 722 02dd B1020000 		.4byte	0x2b1
 723 02e1 02       		.byte	0x2
 724 02e2 23       		.byte	0x23
 725 02e3 00       		.uleb128 0
 726 02e4 0C       		.uleb128 0xc
 727 02e5 723500   		.ascii	"r5\000"
 728 02e8 08       		.byte	0x8
 729 02e9 1901     		.2byte	0x119
 730 02eb B1020000 		.4byte	0x2b1
 731 02ef 02       		.byte	0x2
 732 02f0 23       		.byte	0x23
 733 02f1 04       		.uleb128 0x4
 734 02f2 0C       		.uleb128 0xc
 735 02f3 723600   		.ascii	"r6\000"
 736 02f6 08       		.byte	0x8
 737 02f7 1A01     		.2byte	0x11a
 738 02f9 B1020000 		.4byte	0x2b1
 739 02fd 02       		.byte	0x2
 740 02fe 23       		.byte	0x23
 741 02ff 08       		.uleb128 0x8
 742 0300 0C       		.uleb128 0xc
 743 0301 723700   		.ascii	"r7\000"
 744 0304 08       		.byte	0x8
 745 0305 1B01     		.2byte	0x11b
 746 0307 B1020000 		.4byte	0x2b1
 747 030b 02       		.byte	0x2
 748 030c 23       		.byte	0x23
 749 030d 0C       		.uleb128 0xc
 750 030e 0C       		.uleb128 0xc
 751 030f 723800   		.ascii	"r8\000"
 752 0312 08       		.byte	0x8
 753 0313 1C01     		.2byte	0x11c
 754 0315 B1020000 		.4byte	0x2b1
ARM GAS  /tmp/ccq6zppQ.s 			page 15


 755 0319 02       		.byte	0x2
 756 031a 23       		.byte	0x23
 757 031b 10       		.uleb128 0x10
 758 031c 0C       		.uleb128 0xc
 759 031d 723900   		.ascii	"r9\000"
 760 0320 08       		.byte	0x8
 761 0321 1D01     		.2byte	0x11d
 762 0323 B1020000 		.4byte	0x2b1
 763 0327 02       		.byte	0x2
 764 0328 23       		.byte	0x23
 765 0329 14       		.uleb128 0x14
 766 032a 0C       		.uleb128 0xc
 767 032b 72313000 		.ascii	"r10\000"
 768 032f 08       		.byte	0x8
 769 0330 1E01     		.2byte	0x11e
 770 0332 B1020000 		.4byte	0x2b1
 771 0336 02       		.byte	0x2
 772 0337 23       		.byte	0x23
 773 0338 18       		.uleb128 0x18
 774 0339 0C       		.uleb128 0xc
 775 033a 72313100 		.ascii	"r11\000"
 776 033e 08       		.byte	0x8
 777 033f 1F01     		.2byte	0x11f
 778 0341 B1020000 		.4byte	0x2b1
 779 0345 02       		.byte	0x2
 780 0346 23       		.byte	0x23
 781 0347 1C       		.uleb128 0x1c
 782 0348 0C       		.uleb128 0xc
 783 0349 6C7200   		.ascii	"lr\000"
 784 034c 08       		.byte	0x8
 785 034d 2001     		.2byte	0x120
 786 034f B1020000 		.4byte	0x2b1
 787 0353 02       		.byte	0x2
 788 0354 23       		.byte	0x23
 789 0355 20       		.uleb128 0x20
 790 0356 00       		.byte	0
 791 0357 0B       		.uleb128 0xb
 792 0358 E8050000 		.4byte	.LASF51
 793 035c 04       		.byte	0x4
 794 035d 08       		.byte	0x8
 795 035e 2A01     		.2byte	0x12a
 796 0360 74030000 		.4byte	0x374
 797 0364 0C       		.uleb128 0xc
 798 0365 72313300 		.ascii	"r13\000"
 799 0369 08       		.byte	0x8
 800 036a 2B01     		.2byte	0x12b
 801 036c 74030000 		.4byte	0x374
 802 0370 02       		.byte	0x2
 803 0371 23       		.byte	0x23
 804 0372 00       		.uleb128 0
 805 0373 00       		.byte	0
 806 0374 09       		.uleb128 0x9
 807 0375 04       		.byte	0x4
 808 0376 C9020000 		.4byte	0x2c9
 809 037a 0D       		.uleb128 0xd
 810 037b 86000000 		.4byte	0x86
 811 037f 04       		.uleb128 0x4
ARM GAS  /tmp/ccq6zppQ.s 			page 16


 812 0380 04       		.byte	0x4
 813 0381 07       		.byte	0x7
 814 0382 31030000 		.4byte	.LASF52
 815 0386 0D       		.uleb128 0xd
 816 0387 10010000 		.4byte	0x110
 817 038b 05       		.uleb128 0x5
 818 038c 50030000 		.4byte	.LASF53
 819 0390 10       		.byte	0x10
 820 0391 09       		.byte	0x9
 821 0392 25       		.byte	0x25
 822 0393 C2030000 		.4byte	0x3c2
 823 0397 06       		.uleb128 0x6
 824 0398 B7000000 		.4byte	.LASF54
 825 039c 09       		.byte	0x9
 826 039d 26       		.byte	0x26
 827 039e 84020000 		.4byte	0x284
 828 03a2 02       		.byte	0x2
 829 03a3 23       		.byte	0x23
 830 03a4 00       		.uleb128 0
 831 03a5 06       		.uleb128 0x6
 832 03a6 E4060000 		.4byte	.LASF55
 833 03aa 09       		.byte	0x9
 834 03ab 28       		.byte	0x28
 835 03ac 7E020000 		.4byte	0x27e
 836 03b0 02       		.byte	0x2
 837 03b1 23       		.byte	0x23
 838 03b2 08       		.uleb128 0x8
 839 03b3 06       		.uleb128 0x6
 840 03b4 BD050000 		.4byte	.LASF56
 841 03b8 09       		.byte	0x9
 842 03b9 2A       		.byte	0x2a
 843 03ba C2030000 		.4byte	0x3c2
 844 03be 02       		.byte	0x2
 845 03bf 23       		.byte	0x23
 846 03c0 0C       		.uleb128 0xc
 847 03c1 00       		.byte	0
 848 03c2 09       		.uleb128 0x9
 849 03c3 04       		.byte	0x4
 850 03c4 8B030000 		.4byte	0x38b
 851 03c8 03       		.uleb128 0x3
 852 03c9 50030000 		.4byte	.LASF53
 853 03cd 09       		.byte	0x9
 854 03ce 2C       		.byte	0x2c
 855 03cf 8B030000 		.4byte	0x38b
 856 03d3 03       		.uleb128 0x3
 857 03d4 97060000 		.4byte	.LASF57
 858 03d8 0A       		.byte	0xa
 859 03d9 25       		.byte	0x25
 860 03da DE030000 		.4byte	0x3de
 861 03de 05       		.uleb128 0x5
 862 03df 97060000 		.4byte	.LASF57
 863 03e3 10       		.byte	0x10
 864 03e4 0A       		.byte	0xa
 865 03e5 2A       		.byte	0x2a
 866 03e6 23040000 		.4byte	0x423
 867 03ea 06       		.uleb128 0x6
 868 03eb 18050000 		.4byte	.LASF58
ARM GAS  /tmp/ccq6zppQ.s 			page 17


 869 03ef 0A       		.byte	0xa
 870 03f0 2B       		.byte	0x2b
 871 03f1 23040000 		.4byte	0x423
 872 03f5 02       		.byte	0x2
 873 03f6 23       		.byte	0x23
 874 03f7 00       		.uleb128 0
 875 03f8 06       		.uleb128 0x6
 876 03f9 A1040000 		.4byte	.LASF59
 877 03fd 0A       		.byte	0xa
 878 03fe 2E       		.byte	0x2e
 879 03ff 7E020000 		.4byte	0x27e
 880 0403 02       		.byte	0x2
 881 0404 23       		.byte	0x23
 882 0405 04       		.uleb128 0x4
 883 0406 06       		.uleb128 0x6
 884 0407 77030000 		.4byte	.LASF60
 885 040b 0A       		.byte	0xa
 886 040c 30       		.byte	0x30
 887 040d FA000000 		.4byte	0xfa
 888 0411 02       		.byte	0x2
 889 0412 23       		.byte	0x23
 890 0413 08       		.uleb128 0x8
 891 0414 06       		.uleb128 0x6
 892 0415 AD040000 		.4byte	.LASF61
 893 0419 0A       		.byte	0xa
 894 041a 33       		.byte	0x33
 895 041b 05010000 		.4byte	0x105
 896 041f 02       		.byte	0x2
 897 0420 23       		.byte	0x23
 898 0421 0C       		.uleb128 0xc
 899 0422 00       		.byte	0
 900 0423 09       		.uleb128 0x9
 901 0424 04       		.byte	0x4
 902 0425 D3030000 		.4byte	0x3d3
 903 0429 05       		.uleb128 0x5
 904 042a 08020000 		.4byte	.LASF62
 905 042e 04       		.byte	0x4
 906 042f 0A       		.byte	0xa
 907 0430 3A       		.byte	0x3a
 908 0431 44040000 		.4byte	0x444
 909 0435 06       		.uleb128 0x6
 910 0436 19060000 		.4byte	.LASF63
 911 043a 0A       		.byte	0xa
 912 043b 3B       		.byte	0x3b
 913 043c 23040000 		.4byte	0x423
 914 0440 02       		.byte	0x2
 915 0441 23       		.byte	0x23
 916 0442 00       		.uleb128 0
 917 0443 00       		.byte	0
 918 0444 03       		.uleb128 0x3
 919 0445 08020000 		.4byte	.LASF62
 920 0449 0A       		.byte	0xa
 921 044a 3E       		.byte	0x3e
 922 044b 29040000 		.4byte	0x429
 923 044f 0E       		.uleb128 0xe
 924 0450 04       		.byte	0x4
 925 0451 07       		.byte	0x7
ARM GAS  /tmp/ccq6zppQ.s 			page 18


 926 0452 8F       		.byte	0x8f
 927 0453 84040000 		.4byte	0x484
 928 0457 0F       		.uleb128 0xf
 929 0458 3B000000 		.4byte	.LASF64
 930 045c 07       		.byte	0x7
 931 045d 96       		.byte	0x96
 932 045e EF000000 		.4byte	0xef
 933 0462 0F       		.uleb128 0xf
 934 0463 9A000000 		.4byte	.LASF65
 935 0467 07       		.byte	0x7
 936 0468 9D       		.byte	0x9d
 937 0469 EF000000 		.4byte	0xef
 938 046d 0F       		.uleb128 0xf
 939 046e A5060000 		.4byte	.LASF66
 940 0472 07       		.byte	0x7
 941 0473 A4       		.byte	0xa4
 942 0474 BC020000 		.4byte	0x2bc
 943 0478 0F       		.uleb128 0xf
 944 0479 EA040000 		.4byte	.LASF67
 945 047d 07       		.byte	0x7
 946 047e AB       		.byte	0xab
 947 047f FA000000 		.4byte	0xfa
 948 0483 00       		.byte	0
 949 0484 09       		.uleb128 0x9
 950 0485 04       		.byte	0x4
 951 0486 8A040000 		.4byte	0x48a
 952 048a 10       		.uleb128 0x10
 953 048b 8F040000 		.4byte	0x48f
 954 048f 04       		.uleb128 0x4
 955 0490 01       		.byte	0x1
 956 0491 08       		.byte	0x8
 957 0492 B1050000 		.4byte	.LASF68
 958 0496 09       		.uleb128 0x9
 959 0497 04       		.byte	0x4
 960 0498 BE020000 		.4byte	0x2be
 961 049c 09       		.uleb128 0x9
 962 049d 04       		.byte	0x4
 963 049e C8030000 		.4byte	0x3c8
 964 04a2 09       		.uleb128 0x9
 965 04a3 04       		.byte	0x4
 966 04a4 A8040000 		.4byte	0x4a8
 967 04a8 11       		.uleb128 0x11
 968 04a9 01       		.byte	0x1
 969 04aa EF000000 		.4byte	0xef
 970 04ae B8040000 		.4byte	0x4b8
 971 04b2 12       		.uleb128 0x12
 972 04b3 BC020000 		.4byte	0x2bc
 973 04b7 00       		.byte	0
 974 04b8 03       		.uleb128 0x3
 975 04b9 05030000 		.4byte	.LASF69
 976 04bd 0B       		.byte	0xb
 977 04be 30       		.byte	0x30
 978 04bf C3040000 		.4byte	0x4c3
 979 04c3 05       		.uleb128 0x5
 980 04c4 05030000 		.4byte	.LASF69
 981 04c8 24       		.byte	0x24
 982 04c9 0B       		.byte	0xb
ARM GAS  /tmp/ccq6zppQ.s 			page 19


 983 04ca 3E       		.byte	0x3e
 984 04cb 40050000 		.4byte	0x540
 985 04cf 06       		.uleb128 0x6
 986 04d0 CC000000 		.4byte	.LASF70
 987 04d4 0B       		.byte	0xb
 988 04d5 3F       		.byte	0x3f
 989 04d6 84020000 		.4byte	0x284
 990 04da 02       		.byte	0x2
 991 04db 23       		.byte	0x23
 992 04dc 00       		.uleb128 0
 993 04dd 06       		.uleb128 0x6
 994 04de 3A030000 		.4byte	.LASF71
 995 04e2 0B       		.byte	0xb
 996 04e3 40       		.byte	0x40
 997 04e4 30000000 		.4byte	0x30
 998 04e8 02       		.byte	0x2
 999 04e9 23       		.byte	0x23
 1000 04ea 08       		.uleb128 0x8
 1001 04eb 06       		.uleb128 0x6
 1002 04ec 96010000 		.4byte	.LASF72
 1003 04f0 0B       		.byte	0xb
 1004 04f1 41       		.byte	0x41
 1005 04f2 63050000 		.4byte	0x563
 1006 04f6 02       		.byte	0x2
 1007 04f7 23       		.byte	0x23
 1008 04f8 0C       		.uleb128 0xc
 1009 04f9 06       		.uleb128 0x6
 1010 04fa 0C060000 		.4byte	.LASF73
 1011 04fe 0B       		.byte	0xb
 1012 04ff 42       		.byte	0x42
 1013 0500 63050000 		.4byte	0x563
 1014 0504 02       		.byte	0x2
 1015 0505 23       		.byte	0x23
 1016 0506 10       		.uleb128 0x10
 1017 0507 06       		.uleb128 0x6
 1018 0508 9F010000 		.4byte	.LASF74
 1019 050c 0B       		.byte	0xb
 1020 050d 44       		.byte	0x44
 1021 050e 63050000 		.4byte	0x563
 1022 0512 02       		.byte	0x2
 1023 0513 23       		.byte	0x23
 1024 0514 14       		.uleb128 0x14
 1025 0515 06       		.uleb128 0x6
 1026 0516 59040000 		.4byte	.LASF75
 1027 051a 0B       		.byte	0xb
 1028 051b 45       		.byte	0x45
 1029 051c 63050000 		.4byte	0x563
 1030 0520 02       		.byte	0x2
 1031 0521 23       		.byte	0x23
 1032 0522 18       		.uleb128 0x18
 1033 0523 06       		.uleb128 0x6
 1034 0524 2C060000 		.4byte	.LASF76
 1035 0528 0B       		.byte	0xb
 1036 0529 46       		.byte	0x46
 1037 052a 40050000 		.4byte	0x540
 1038 052e 02       		.byte	0x2
 1039 052f 23       		.byte	0x23
ARM GAS  /tmp/ccq6zppQ.s 			page 20


 1040 0530 1C       		.uleb128 0x1c
 1041 0531 06       		.uleb128 0x6
 1042 0532 DD060000 		.4byte	.LASF77
 1043 0536 0B       		.byte	0xb
 1044 0537 47       		.byte	0x47
 1045 0538 BC020000 		.4byte	0x2bc
 1046 053c 02       		.byte	0x2
 1047 053d 23       		.byte	0x23
 1048 053e 20       		.uleb128 0x20
 1049 053f 00       		.byte	0
 1050 0540 03       		.uleb128 0x3
 1051 0541 FB020000 		.4byte	.LASF78
 1052 0545 0B       		.byte	0xb
 1053 0546 33       		.byte	0x33
 1054 0547 4B050000 		.4byte	0x54b
 1055 054b 09       		.uleb128 0x9
 1056 054c 04       		.byte	0x4
 1057 054d 51050000 		.4byte	0x551
 1058 0551 13       		.uleb128 0x13
 1059 0552 01       		.byte	0x1
 1060 0553 5D050000 		.4byte	0x55d
 1061 0557 12       		.uleb128 0x12
 1062 0558 5D050000 		.4byte	0x55d
 1063 055c 00       		.byte	0
 1064 055d 09       		.uleb128 0x9
 1065 055e 04       		.byte	0x4
 1066 055f B8040000 		.4byte	0x4b8
 1067 0563 09       		.uleb128 0x9
 1068 0564 04       		.byte	0x4
 1069 0565 49000000 		.4byte	0x49
 1070 0569 03       		.uleb128 0x3
 1071 056a 82060000 		.4byte	.LASF79
 1072 056e 0B       		.byte	0xb
 1073 056f 7B       		.byte	0x7b
 1074 0570 B8040000 		.4byte	0x4b8
 1075 0574 03       		.uleb128 0x3
 1076 0575 4B000000 		.4byte	.LASF80
 1077 0579 0B       		.byte	0xb
 1078 057a EE       		.byte	0xee
 1079 057b B8040000 		.4byte	0x4b8
 1080 057f 05       		.uleb128 0x5
 1081 0580 F8040000 		.4byte	.LASF81
 1082 0584 10       		.byte	0x10
 1083 0585 0C       		.byte	0xc
 1084 0586 41       		.byte	0x41
 1085 0587 C4050000 		.4byte	0x5c4
 1086 058b 06       		.uleb128 0x6
 1087 058c 1D030000 		.4byte	.LASF82
 1088 0590 0C       		.byte	0xc
 1089 0591 42       		.byte	0x42
 1090 0592 E9050000 		.4byte	0x5e9
 1091 0596 02       		.byte	0x2
 1092 0597 23       		.byte	0x23
 1093 0598 00       		.uleb128 0
 1094 0599 06       		.uleb128 0x6
 1095 059a AC050000 		.4byte	.LASF83
 1096 059e 0C       		.byte	0xc
ARM GAS  /tmp/ccq6zppQ.s 			page 21


 1097 059f 42       		.byte	0x42
 1098 05a0 09060000 		.4byte	0x609
 1099 05a4 02       		.byte	0x2
 1100 05a5 23       		.byte	0x23
 1101 05a6 04       		.uleb128 0x4
 1102 05a7 07       		.uleb128 0x7
 1103 05a8 70757400 		.ascii	"put\000"
 1104 05ac 0C       		.byte	0xc
 1105 05ad 42       		.byte	0x42
 1106 05ae 24060000 		.4byte	0x624
 1107 05b2 02       		.byte	0x2
 1108 05b3 23       		.byte	0x23
 1109 05b4 08       		.uleb128 0x8
 1110 05b5 07       		.uleb128 0x7
 1111 05b6 67657400 		.ascii	"get\000"
 1112 05ba 0C       		.byte	0xc
 1113 05bb 42       		.byte	0x42
 1114 05bc A2040000 		.4byte	0x4a2
 1115 05c0 02       		.byte	0x2
 1116 05c1 23       		.byte	0x23
 1117 05c2 0C       		.uleb128 0xc
 1118 05c3 00       		.byte	0
 1119 05c4 11       		.uleb128 0x11
 1120 05c5 01       		.byte	0x1
 1121 05c6 30000000 		.4byte	0x30
 1122 05ca DE050000 		.4byte	0x5de
 1123 05ce 12       		.uleb128 0x12
 1124 05cf BC020000 		.4byte	0x2bc
 1125 05d3 12       		.uleb128 0x12
 1126 05d4 DE050000 		.4byte	0x5de
 1127 05d8 12       		.uleb128 0x12
 1128 05d9 30000000 		.4byte	0x30
 1129 05dd 00       		.byte	0
 1130 05de 09       		.uleb128 0x9
 1131 05df 04       		.byte	0x4
 1132 05e0 E4050000 		.4byte	0x5e4
 1133 05e4 10       		.uleb128 0x10
 1134 05e5 49000000 		.4byte	0x49
 1135 05e9 09       		.uleb128 0x9
 1136 05ea 04       		.byte	0x4
 1137 05eb C4050000 		.4byte	0x5c4
 1138 05ef 11       		.uleb128 0x11
 1139 05f0 01       		.byte	0x1
 1140 05f1 30000000 		.4byte	0x30
 1141 05f5 09060000 		.4byte	0x609
 1142 05f9 12       		.uleb128 0x12
 1143 05fa BC020000 		.4byte	0x2bc
 1144 05fe 12       		.uleb128 0x12
 1145 05ff 63050000 		.4byte	0x563
 1146 0603 12       		.uleb128 0x12
 1147 0604 30000000 		.4byte	0x30
 1148 0608 00       		.byte	0
 1149 0609 09       		.uleb128 0x9
 1150 060a 04       		.byte	0x4
 1151 060b EF050000 		.4byte	0x5ef
 1152 060f 11       		.uleb128 0x11
 1153 0610 01       		.byte	0x1
ARM GAS  /tmp/ccq6zppQ.s 			page 22


 1154 0611 EF000000 		.4byte	0xef
 1155 0615 24060000 		.4byte	0x624
 1156 0619 12       		.uleb128 0x12
 1157 061a BC020000 		.4byte	0x2bc
 1158 061e 12       		.uleb128 0x12
 1159 061f 49000000 		.4byte	0x49
 1160 0623 00       		.byte	0
 1161 0624 09       		.uleb128 0x9
 1162 0625 04       		.byte	0x4
 1163 0626 0F060000 		.4byte	0x60f
 1164 062a 08       		.uleb128 0x8
 1165 062b 04       		.byte	0x4
 1166 062c 0C       		.byte	0xc
 1167 062d 4A       		.byte	0x4a
 1168 062e 41060000 		.4byte	0x641
 1169 0632 07       		.uleb128 0x7
 1170 0633 766D7400 		.ascii	"vmt\000"
 1171 0637 0C       		.byte	0xc
 1172 0638 4C       		.byte	0x4c
 1173 0639 41060000 		.4byte	0x641
 1174 063d 02       		.byte	0x2
 1175 063e 23       		.byte	0x23
 1176 063f 00       		.uleb128 0
 1177 0640 00       		.byte	0
 1178 0641 09       		.uleb128 0x9
 1179 0642 04       		.byte	0x4
 1180 0643 47060000 		.4byte	0x647
 1181 0647 10       		.uleb128 0x10
 1182 0648 7F050000 		.4byte	0x57f
 1183 064c 03       		.uleb128 0x3
 1184 064d 14020000 		.4byte	.LASF84
 1185 0651 0C       		.byte	0xc
 1186 0652 4E       		.byte	0x4e
 1187 0653 2A060000 		.4byte	0x62a
 1188 0657 0D       		.uleb128 0xd
 1189 0658 62000000 		.4byte	0x62
 1190 065c 0D       		.uleb128 0xd
 1191 065d 74000000 		.4byte	0x74
 1192 0661 14       		.uleb128 0x14
 1193 0662 10       		.byte	0x10
 1194 0663 0D       		.byte	0xd
 1195 0664 2D03     		.2byte	0x32d
 1196 0666 A7060000 		.4byte	0x6a7
 1197 066a 0C       		.uleb128 0xc
 1198 066b 43435200 		.ascii	"CCR\000"
 1199 066f 0D       		.byte	0xd
 1200 0670 2F03     		.2byte	0x32f
 1201 0672 7A030000 		.4byte	0x37a
 1202 0676 02       		.byte	0x2
 1203 0677 23       		.byte	0x23
 1204 0678 00       		.uleb128 0
 1205 0679 15       		.uleb128 0x15
 1206 067a 21060000 		.4byte	.LASF85
 1207 067e 0D       		.byte	0xd
 1208 067f 3003     		.2byte	0x330
 1209 0681 7A030000 		.4byte	0x37a
 1210 0685 02       		.byte	0x2
ARM GAS  /tmp/ccq6zppQ.s 			page 23


 1211 0686 23       		.byte	0x23
 1212 0687 04       		.uleb128 0x4
 1213 0688 15       		.uleb128 0x15
 1214 0689 55020000 		.4byte	.LASF86
 1215 068d 0D       		.byte	0xd
 1216 068e 3103     		.2byte	0x331
 1217 0690 7A030000 		.4byte	0x37a
 1218 0694 02       		.byte	0x2
 1219 0695 23       		.byte	0x23
 1220 0696 08       		.uleb128 0x8
 1221 0697 15       		.uleb128 0x15
 1222 0698 27060000 		.4byte	.LASF87
 1223 069c 0D       		.byte	0xd
 1224 069d 3203     		.2byte	0x332
 1225 069f 7A030000 		.4byte	0x37a
 1226 06a3 02       		.byte	0x2
 1227 06a4 23       		.byte	0x23
 1228 06a5 0C       		.uleb128 0xc
 1229 06a6 00       		.byte	0
 1230 06a7 16       		.uleb128 0x16
 1231 06a8 27000000 		.4byte	.LASF88
 1232 06ac 0D       		.byte	0xd
 1233 06ad 3303     		.2byte	0x333
 1234 06af 61060000 		.4byte	0x661
 1235 06b3 14       		.uleb128 0x14
 1236 06b4 24       		.byte	0x24
 1237 06b5 0D       		.byte	0xd
 1238 06b6 1304     		.2byte	0x413
 1239 06b8 CA070000 		.4byte	0x7ca
 1240 06bc 0C       		.uleb128 0xc
 1241 06bd 43523100 		.ascii	"CR1\000"
 1242 06c1 0D       		.byte	0xd
 1243 06c2 1504     		.2byte	0x415
 1244 06c4 57060000 		.4byte	0x657
 1245 06c8 02       		.byte	0x2
 1246 06c9 23       		.byte	0x23
 1247 06ca 00       		.uleb128 0
 1248 06cb 15       		.uleb128 0x15
 1249 06cc FA030000 		.4byte	.LASF89
 1250 06d0 0D       		.byte	0xd
 1251 06d1 1604     		.2byte	0x416
 1252 06d3 62000000 		.4byte	0x62
 1253 06d7 02       		.byte	0x2
 1254 06d8 23       		.byte	0x23
 1255 06d9 02       		.uleb128 0x2
 1256 06da 0C       		.uleb128 0xc
 1257 06db 43523200 		.ascii	"CR2\000"
 1258 06df 0D       		.byte	0xd
 1259 06e0 1704     		.2byte	0x417
 1260 06e2 57060000 		.4byte	0x657
 1261 06e6 02       		.byte	0x2
 1262 06e7 23       		.byte	0x23
 1263 06e8 04       		.uleb128 0x4
 1264 06e9 15       		.uleb128 0x15
 1265 06ea 04040000 		.4byte	.LASF90
 1266 06ee 0D       		.byte	0xd
 1267 06ef 1804     		.2byte	0x418
ARM GAS  /tmp/ccq6zppQ.s 			page 24


 1268 06f1 62000000 		.4byte	0x62
 1269 06f5 02       		.byte	0x2
 1270 06f6 23       		.byte	0x23
 1271 06f7 06       		.uleb128 0x6
 1272 06f8 15       		.uleb128 0x15
 1273 06f9 8D060000 		.4byte	.LASF91
 1274 06fd 0D       		.byte	0xd
 1275 06fe 1904     		.2byte	0x419
 1276 0700 57060000 		.4byte	0x657
 1277 0704 02       		.byte	0x2
 1278 0705 23       		.byte	0x23
 1279 0706 08       		.uleb128 0x8
 1280 0707 15       		.uleb128 0x15
 1281 0708 0E040000 		.4byte	.LASF92
 1282 070c 0D       		.byte	0xd
 1283 070d 1A04     		.2byte	0x41a
 1284 070f 62000000 		.4byte	0x62
 1285 0713 02       		.byte	0x2
 1286 0714 23       		.byte	0x23
 1287 0715 0A       		.uleb128 0xa
 1288 0716 15       		.uleb128 0x15
 1289 0717 92060000 		.4byte	.LASF93
 1290 071b 0D       		.byte	0xd
 1291 071c 1B04     		.2byte	0x41b
 1292 071e 57060000 		.4byte	0x657
 1293 0722 02       		.byte	0x2
 1294 0723 23       		.byte	0x23
 1295 0724 0C       		.uleb128 0xc
 1296 0725 15       		.uleb128 0x15
 1297 0726 18040000 		.4byte	.LASF94
 1298 072a 0D       		.byte	0xd
 1299 072b 1C04     		.2byte	0x41c
 1300 072d 62000000 		.4byte	0x62
 1301 0731 02       		.byte	0x2
 1302 0732 23       		.byte	0x23
 1303 0733 0E       		.uleb128 0xe
 1304 0734 0C       		.uleb128 0xc
 1305 0735 445200   		.ascii	"DR\000"
 1306 0738 0D       		.byte	0xd
 1307 0739 1D04     		.2byte	0x41d
 1308 073b 57060000 		.4byte	0x657
 1309 073f 02       		.byte	0x2
 1310 0740 23       		.byte	0x23
 1311 0741 10       		.uleb128 0x10
 1312 0742 15       		.uleb128 0x15
 1313 0743 22040000 		.4byte	.LASF95
 1314 0747 0D       		.byte	0xd
 1315 0748 1E04     		.2byte	0x41e
 1316 074a 62000000 		.4byte	0x62
 1317 074e 02       		.byte	0x2
 1318 074f 23       		.byte	0x23
 1319 0750 12       		.uleb128 0x12
 1320 0751 0C       		.uleb128 0xc
 1321 0752 53523100 		.ascii	"SR1\000"
 1322 0756 0D       		.byte	0xd
 1323 0757 1F04     		.2byte	0x41f
 1324 0759 57060000 		.4byte	0x657
ARM GAS  /tmp/ccq6zppQ.s 			page 25


 1325 075d 02       		.byte	0x2
 1326 075e 23       		.byte	0x23
 1327 075f 14       		.uleb128 0x14
 1328 0760 15       		.uleb128 0x15
 1329 0761 62050000 		.4byte	.LASF96
 1330 0765 0D       		.byte	0xd
 1331 0766 2004     		.2byte	0x420
 1332 0768 62000000 		.4byte	0x62
 1333 076c 02       		.byte	0x2
 1334 076d 23       		.byte	0x23
 1335 076e 16       		.uleb128 0x16
 1336 076f 0C       		.uleb128 0xc
 1337 0770 53523200 		.ascii	"SR2\000"
 1338 0774 0D       		.byte	0xd
 1339 0775 2104     		.2byte	0x421
 1340 0777 57060000 		.4byte	0x657
 1341 077b 02       		.byte	0x2
 1342 077c 23       		.byte	0x23
 1343 077d 18       		.uleb128 0x18
 1344 077e 15       		.uleb128 0x15
 1345 077f 33040000 		.4byte	.LASF97
 1346 0783 0D       		.byte	0xd
 1347 0784 2204     		.2byte	0x422
 1348 0786 62000000 		.4byte	0x62
 1349 078a 02       		.byte	0x2
 1350 078b 23       		.byte	0x23
 1351 078c 1A       		.uleb128 0x1a
 1352 078d 0C       		.uleb128 0xc
 1353 078e 43435200 		.ascii	"CCR\000"
 1354 0792 0D       		.byte	0xd
 1355 0793 2304     		.2byte	0x423
 1356 0795 57060000 		.4byte	0x657
 1357 0799 02       		.byte	0x2
 1358 079a 23       		.byte	0x23
 1359 079b 1C       		.uleb128 0x1c
 1360 079c 15       		.uleb128 0x15
 1361 079d 3D040000 		.4byte	.LASF98
 1362 07a1 0D       		.byte	0xd
 1363 07a2 2404     		.2byte	0x424
 1364 07a4 62000000 		.4byte	0x62
 1365 07a8 02       		.byte	0x2
 1366 07a9 23       		.byte	0x23
 1367 07aa 1E       		.uleb128 0x1e
 1368 07ab 15       		.uleb128 0x15
 1369 07ac 5F000000 		.4byte	.LASF99
 1370 07b0 0D       		.byte	0xd
 1371 07b1 2504     		.2byte	0x425
 1372 07b3 57060000 		.4byte	0x657
 1373 07b7 02       		.byte	0x2
 1374 07b8 23       		.byte	0x23
 1375 07b9 20       		.uleb128 0x20
 1376 07ba 15       		.uleb128 0x15
 1377 07bb 47040000 		.4byte	.LASF100
 1378 07bf 0D       		.byte	0xd
 1379 07c0 2604     		.2byte	0x426
 1380 07c2 62000000 		.4byte	0x62
 1381 07c6 02       		.byte	0x2
ARM GAS  /tmp/ccq6zppQ.s 			page 26


 1382 07c7 23       		.byte	0x23
 1383 07c8 22       		.uleb128 0x22
 1384 07c9 00       		.byte	0
 1385 07ca 16       		.uleb128 0x16
 1386 07cb B9060000 		.4byte	.LASF101
 1387 07cf 0D       		.byte	0xd
 1388 07d0 2704     		.2byte	0x427
 1389 07d2 B3060000 		.4byte	0x6b3
 1390 07d6 14       		.uleb128 0x14
 1391 07d7 1C       		.byte	0x1c
 1392 07d8 0D       		.byte	0xd
 1393 07d9 E104     		.2byte	0x4e1
 1394 07db B0080000 		.4byte	0x8b0
 1395 07df 0C       		.uleb128 0xc
 1396 07e0 535200   		.ascii	"SR\000"
 1397 07e3 0D       		.byte	0xd
 1398 07e4 E304     		.2byte	0x4e3
 1399 07e6 57060000 		.4byte	0x657
 1400 07ea 02       		.byte	0x2
 1401 07eb 23       		.byte	0x23
 1402 07ec 00       		.uleb128 0
 1403 07ed 15       		.uleb128 0x15
 1404 07ee FA030000 		.4byte	.LASF89
 1405 07f2 0D       		.byte	0xd
 1406 07f3 E404     		.2byte	0x4e4
 1407 07f5 62000000 		.4byte	0x62
 1408 07f9 02       		.byte	0x2
 1409 07fa 23       		.byte	0x23
 1410 07fb 02       		.uleb128 0x2
 1411 07fc 0C       		.uleb128 0xc
 1412 07fd 445200   		.ascii	"DR\000"
 1413 0800 0D       		.byte	0xd
 1414 0801 E504     		.2byte	0x4e5
 1415 0803 57060000 		.4byte	0x657
 1416 0807 02       		.byte	0x2
 1417 0808 23       		.byte	0x23
 1418 0809 04       		.uleb128 0x4
 1419 080a 15       		.uleb128 0x15
 1420 080b 04040000 		.4byte	.LASF90
 1421 080f 0D       		.byte	0xd
 1422 0810 E604     		.2byte	0x4e6
 1423 0812 62000000 		.4byte	0x62
 1424 0816 02       		.byte	0x2
 1425 0817 23       		.byte	0x23
 1426 0818 06       		.uleb128 0x6
 1427 0819 0C       		.uleb128 0xc
 1428 081a 42525200 		.ascii	"BRR\000"
 1429 081e 0D       		.byte	0xd
 1430 081f E704     		.2byte	0x4e7
 1431 0821 57060000 		.4byte	0x657
 1432 0825 02       		.byte	0x2
 1433 0826 23       		.byte	0x23
 1434 0827 08       		.uleb128 0x8
 1435 0828 15       		.uleb128 0x15
 1436 0829 0E040000 		.4byte	.LASF92
 1437 082d 0D       		.byte	0xd
 1438 082e E804     		.2byte	0x4e8
ARM GAS  /tmp/ccq6zppQ.s 			page 27


 1439 0830 62000000 		.4byte	0x62
 1440 0834 02       		.byte	0x2
 1441 0835 23       		.byte	0x23
 1442 0836 0A       		.uleb128 0xa
 1443 0837 0C       		.uleb128 0xc
 1444 0838 43523100 		.ascii	"CR1\000"
 1445 083c 0D       		.byte	0xd
 1446 083d E904     		.2byte	0x4e9
 1447 083f 57060000 		.4byte	0x657
 1448 0843 02       		.byte	0x2
 1449 0844 23       		.byte	0x23
 1450 0845 0C       		.uleb128 0xc
 1451 0846 15       		.uleb128 0x15
 1452 0847 18040000 		.4byte	.LASF94
 1453 084b 0D       		.byte	0xd
 1454 084c EA04     		.2byte	0x4ea
 1455 084e 62000000 		.4byte	0x62
 1456 0852 02       		.byte	0x2
 1457 0853 23       		.byte	0x23
 1458 0854 0E       		.uleb128 0xe
 1459 0855 0C       		.uleb128 0xc
 1460 0856 43523200 		.ascii	"CR2\000"
 1461 085a 0D       		.byte	0xd
 1462 085b EB04     		.2byte	0x4eb
 1463 085d 57060000 		.4byte	0x657
 1464 0861 02       		.byte	0x2
 1465 0862 23       		.byte	0x23
 1466 0863 10       		.uleb128 0x10
 1467 0864 15       		.uleb128 0x15
 1468 0865 22040000 		.4byte	.LASF95
 1469 0869 0D       		.byte	0xd
 1470 086a EC04     		.2byte	0x4ec
 1471 086c 62000000 		.4byte	0x62
 1472 0870 02       		.byte	0x2
 1473 0871 23       		.byte	0x23
 1474 0872 12       		.uleb128 0x12
 1475 0873 0C       		.uleb128 0xc
 1476 0874 43523300 		.ascii	"CR3\000"
 1477 0878 0D       		.byte	0xd
 1478 0879 ED04     		.2byte	0x4ed
 1479 087b 57060000 		.4byte	0x657
 1480 087f 02       		.byte	0x2
 1481 0880 23       		.byte	0x23
 1482 0881 14       		.uleb128 0x14
 1483 0882 15       		.uleb128 0x15
 1484 0883 62050000 		.4byte	.LASF96
 1485 0887 0D       		.byte	0xd
 1486 0888 EE04     		.2byte	0x4ee
 1487 088a 62000000 		.4byte	0x62
 1488 088e 02       		.byte	0x2
 1489 088f 23       		.byte	0x23
 1490 0890 16       		.uleb128 0x16
 1491 0891 15       		.uleb128 0x15
 1492 0892 FC000000 		.4byte	.LASF102
 1493 0896 0D       		.byte	0xd
 1494 0897 EF04     		.2byte	0x4ef
 1495 0899 57060000 		.4byte	0x657
ARM GAS  /tmp/ccq6zppQ.s 			page 28


 1496 089d 02       		.byte	0x2
 1497 089e 23       		.byte	0x23
 1498 089f 18       		.uleb128 0x18
 1499 08a0 15       		.uleb128 0x15
 1500 08a1 33040000 		.4byte	.LASF97
 1501 08a5 0D       		.byte	0xd
 1502 08a6 F004     		.2byte	0x4f0
 1503 08a8 62000000 		.4byte	0x62
 1504 08ac 02       		.byte	0x2
 1505 08ad 23       		.byte	0x23
 1506 08ae 1A       		.uleb128 0x1a
 1507 08af 00       		.byte	0
 1508 08b0 16       		.uleb128 0x16
 1509 08b1 BC020000 		.4byte	.LASF103
 1510 08b5 0D       		.byte	0xd
 1511 08b6 F104     		.2byte	0x4f1
 1512 08b8 D6070000 		.4byte	0x7d6
 1513 08bc 08       		.uleb128 0x8
 1514 08bd 0C       		.byte	0xc
 1515 08be 0E       		.byte	0xe
 1516 08bf C1       		.byte	0xc1
 1517 08c0 0B090000 		.4byte	0x90b
 1518 08c4 06       		.uleb128 0x6
 1519 08c5 3A050000 		.4byte	.LASF104
 1520 08c9 0E       		.byte	0xe
 1521 08ca C2       		.byte	0xc2
 1522 08cb 0B090000 		.4byte	0x90b
 1523 08cf 02       		.byte	0x2
 1524 08d0 23       		.byte	0x23
 1525 08d1 00       		.uleb128 0
 1526 08d2 06       		.uleb128 0x6
 1527 08d3 ED030000 		.4byte	.LASF105
 1528 08d7 0E       		.byte	0xe
 1529 08d8 C3       		.byte	0xc3
 1530 08d9 11090000 		.4byte	0x911
 1531 08dd 02       		.byte	0x2
 1532 08de 23       		.byte	0x23
 1533 08df 04       		.uleb128 0x4
 1534 08e0 06       		.uleb128 0x6
 1535 08e1 71020000 		.4byte	.LASF106
 1536 08e5 0E       		.byte	0xe
 1537 08e6 C4       		.byte	0xc4
 1538 08e7 49000000 		.4byte	0x49
 1539 08eb 02       		.byte	0x2
 1540 08ec 23       		.byte	0x23
 1541 08ed 08       		.uleb128 0x8
 1542 08ee 06       		.uleb128 0x6
 1543 08ef EF010000 		.4byte	.LASF107
 1544 08f3 0E       		.byte	0xe
 1545 08f4 C6       		.byte	0xc6
 1546 08f5 49000000 		.4byte	0x49
 1547 08f9 02       		.byte	0x2
 1548 08fa 23       		.byte	0x23
 1549 08fb 09       		.uleb128 0x9
 1550 08fc 06       		.uleb128 0x6
 1551 08fd A3000000 		.4byte	.LASF108
 1552 0901 0E       		.byte	0xe
ARM GAS  /tmp/ccq6zppQ.s 			page 29


 1553 0902 C7       		.byte	0xc7
 1554 0903 49000000 		.4byte	0x49
 1555 0907 02       		.byte	0x2
 1556 0908 23       		.byte	0x23
 1557 0909 0A       		.uleb128 0xa
 1558 090a 00       		.byte	0
 1559 090b 09       		.uleb128 0x9
 1560 090c 04       		.byte	0x4
 1561 090d A7060000 		.4byte	0x6a7
 1562 0911 09       		.uleb128 0x9
 1563 0912 04       		.byte	0x4
 1564 0913 7A030000 		.4byte	0x37a
 1565 0917 03       		.uleb128 0x3
 1566 0918 8E040000 		.4byte	.LASF109
 1567 091c 0E       		.byte	0xe
 1568 091d C8       		.byte	0xc8
 1569 091e BC080000 		.4byte	0x8bc
 1570 0922 05       		.uleb128 0x5
 1571 0923 7C000000 		.4byte	.LASF110
 1572 0927 20       		.byte	0x20
 1573 0928 0F       		.byte	0xf
 1574 0929 47       		.byte	0x47
 1575 092a 9F090000 		.4byte	0x99f
 1576 092e 06       		.uleb128 0x6
 1577 092f 1D030000 		.4byte	.LASF82
 1578 0933 0F       		.byte	0xf
 1579 0934 48       		.byte	0x48
 1580 0935 E9050000 		.4byte	0x5e9
 1581 0939 02       		.byte	0x2
 1582 093a 23       		.byte	0x23
 1583 093b 00       		.uleb128 0
 1584 093c 06       		.uleb128 0x6
 1585 093d AC050000 		.4byte	.LASF83
 1586 0941 0F       		.byte	0xf
 1587 0942 48       		.byte	0x48
 1588 0943 09060000 		.4byte	0x609
 1589 0947 02       		.byte	0x2
 1590 0948 23       		.byte	0x23
 1591 0949 04       		.uleb128 0x4
 1592 094a 07       		.uleb128 0x7
 1593 094b 70757400 		.ascii	"put\000"
 1594 094f 0F       		.byte	0xf
 1595 0950 48       		.byte	0x48
 1596 0951 24060000 		.4byte	0x624
 1597 0955 02       		.byte	0x2
 1598 0956 23       		.byte	0x23
 1599 0957 08       		.uleb128 0x8
 1600 0958 07       		.uleb128 0x7
 1601 0959 67657400 		.ascii	"get\000"
 1602 095d 0F       		.byte	0xf
 1603 095e 48       		.byte	0x48
 1604 095f A2040000 		.4byte	0x4a2
 1605 0963 02       		.byte	0x2
 1606 0964 23       		.byte	0x23
 1607 0965 0C       		.uleb128 0xc
 1608 0966 06       		.uleb128 0x6
 1609 0967 23030000 		.4byte	.LASF111
ARM GAS  /tmp/ccq6zppQ.s 			page 30


 1610 096b 0F       		.byte	0xf
 1611 096c 48       		.byte	0x48
 1612 096d B9090000 		.4byte	0x9b9
 1613 0971 02       		.byte	0x2
 1614 0972 23       		.byte	0x23
 1615 0973 10       		.uleb128 0x10
 1616 0974 06       		.uleb128 0x6
 1617 0975 6C020000 		.4byte	.LASF112
 1618 0979 0F       		.byte	0xf
 1619 097a 48       		.byte	0x48
 1620 097b D4090000 		.4byte	0x9d4
 1621 097f 02       		.byte	0x2
 1622 0980 23       		.byte	0x23
 1623 0981 14       		.uleb128 0x14
 1624 0982 06       		.uleb128 0x6
 1625 0983 CA020000 		.4byte	.LASF113
 1626 0987 0F       		.byte	0xf
 1627 0988 48       		.byte	0x48
 1628 0989 F9090000 		.4byte	0x9f9
 1629 098d 02       		.byte	0x2
 1630 098e 23       		.byte	0x23
 1631 098f 18       		.uleb128 0x18
 1632 0990 06       		.uleb128 0x6
 1633 0991 C6000000 		.4byte	.LASF114
 1634 0995 0F       		.byte	0xf
 1635 0996 48       		.byte	0x48
 1636 0997 1E0A0000 		.4byte	0xa1e
 1637 099b 02       		.byte	0x2
 1638 099c 23       		.byte	0x23
 1639 099d 1C       		.uleb128 0x1c
 1640 099e 00       		.byte	0
 1641 099f 11       		.uleb128 0x11
 1642 09a0 01       		.byte	0x1
 1643 09a1 EF000000 		.4byte	0xef
 1644 09a5 B9090000 		.4byte	0x9b9
 1645 09a9 12       		.uleb128 0x12
 1646 09aa BC020000 		.4byte	0x2bc
 1647 09ae 12       		.uleb128 0x12
 1648 09af 49000000 		.4byte	0x49
 1649 09b3 12       		.uleb128 0x12
 1650 09b4 10010000 		.4byte	0x110
 1651 09b8 00       		.byte	0
 1652 09b9 09       		.uleb128 0x9
 1653 09ba 04       		.byte	0x4
 1654 09bb 9F090000 		.4byte	0x99f
 1655 09bf 11       		.uleb128 0x11
 1656 09c0 01       		.byte	0x1
 1657 09c1 EF000000 		.4byte	0xef
 1658 09c5 D4090000 		.4byte	0x9d4
 1659 09c9 12       		.uleb128 0x12
 1660 09ca BC020000 		.4byte	0x2bc
 1661 09ce 12       		.uleb128 0x12
 1662 09cf 10010000 		.4byte	0x110
 1663 09d3 00       		.byte	0
 1664 09d4 09       		.uleb128 0x9
 1665 09d5 04       		.byte	0x4
 1666 09d6 BF090000 		.4byte	0x9bf
ARM GAS  /tmp/ccq6zppQ.s 			page 31


 1667 09da 11       		.uleb128 0x11
 1668 09db 01       		.byte	0x1
 1669 09dc 30000000 		.4byte	0x30
 1670 09e0 F9090000 		.4byte	0x9f9
 1671 09e4 12       		.uleb128 0x12
 1672 09e5 BC020000 		.4byte	0x2bc
 1673 09e9 12       		.uleb128 0x12
 1674 09ea DE050000 		.4byte	0x5de
 1675 09ee 12       		.uleb128 0x12
 1676 09ef 30000000 		.4byte	0x30
 1677 09f3 12       		.uleb128 0x12
 1678 09f4 10010000 		.4byte	0x110
 1679 09f8 00       		.byte	0
 1680 09f9 09       		.uleb128 0x9
 1681 09fa 04       		.byte	0x4
 1682 09fb DA090000 		.4byte	0x9da
 1683 09ff 11       		.uleb128 0x11
 1684 0a00 01       		.byte	0x1
 1685 0a01 30000000 		.4byte	0x30
 1686 0a05 1E0A0000 		.4byte	0xa1e
 1687 0a09 12       		.uleb128 0x12
 1688 0a0a BC020000 		.4byte	0x2bc
 1689 0a0e 12       		.uleb128 0x12
 1690 0a0f 63050000 		.4byte	0x563
 1691 0a13 12       		.uleb128 0x12
 1692 0a14 30000000 		.4byte	0x30
 1693 0a18 12       		.uleb128 0x12
 1694 0a19 10010000 		.4byte	0x110
 1695 0a1d 00       		.byte	0
 1696 0a1e 09       		.uleb128 0x9
 1697 0a1f 04       		.byte	0x4
 1698 0a20 FF090000 		.4byte	0x9ff
 1699 0a24 08       		.uleb128 0x8
 1700 0a25 04       		.byte	0x4
 1701 0a26 0F       		.byte	0xf
 1702 0a27 52       		.byte	0x52
 1703 0a28 3B0A0000 		.4byte	0xa3b
 1704 0a2c 07       		.uleb128 0x7
 1705 0a2d 766D7400 		.ascii	"vmt\000"
 1706 0a31 0F       		.byte	0xf
 1707 0a32 54       		.byte	0x54
 1708 0a33 3B0A0000 		.4byte	0xa3b
 1709 0a37 02       		.byte	0x2
 1710 0a38 23       		.byte	0x23
 1711 0a39 00       		.uleb128 0
 1712 0a3a 00       		.byte	0
 1713 0a3b 09       		.uleb128 0x9
 1714 0a3c 04       		.byte	0x4
 1715 0a3d 410A0000 		.4byte	0xa41
 1716 0a41 10       		.uleb128 0x10
 1717 0a42 22090000 		.4byte	0x922
 1718 0a46 03       		.uleb128 0x3
 1719 0a47 D1060000 		.4byte	.LASF115
 1720 0a4b 0F       		.byte	0xf
 1721 0a4c 56       		.byte	0x56
 1722 0a4d 240A0000 		.4byte	0xa24
 1723 0a51 17       		.uleb128 0x17
ARM GAS  /tmp/ccq6zppQ.s 			page 32


 1724 0a52 01       		.byte	0x1
 1725 0a53 10       		.byte	0x10
 1726 0a54 53       		.byte	0x53
 1727 0a55 7E0A0000 		.4byte	0xa7e
 1728 0a59 18       		.uleb128 0x18
 1729 0a5a C0040000 		.4byte	.LASF116
 1730 0a5e 00       		.sleb128 0
 1731 0a5f 18       		.uleb128 0x18
 1732 0a60 28030000 		.4byte	.LASF117
 1733 0a64 01       		.sleb128 1
 1734 0a65 18       		.uleb128 0x18
 1735 0a66 D9050000 		.4byte	.LASF118
 1736 0a6a 02       		.sleb128 2
 1737 0a6b 18       		.uleb128 0x18
 1738 0a6c AE010000 		.4byte	.LASF119
 1739 0a70 03       		.sleb128 3
 1740 0a71 18       		.uleb128 0x18
 1741 0a72 8C050000 		.4byte	.LASF120
 1742 0a76 04       		.sleb128 4
 1743 0a77 18       		.uleb128 0x18
 1744 0a78 42050000 		.4byte	.LASF121
 1745 0a7c 05       		.sleb128 5
 1746 0a7d 00       		.byte	0
 1747 0a7e 03       		.uleb128 0x3
 1748 0a7f 15000000 		.4byte	.LASF122
 1749 0a83 10       		.byte	0x10
 1750 0a84 5A       		.byte	0x5a
 1751 0a85 510A0000 		.4byte	0xa51
 1752 0a89 16       		.uleb128 0x16
 1753 0a8a 5C010000 		.4byte	.LASF123
 1754 0a8e 11       		.byte	0x11
 1755 0a8f 3501     		.2byte	0x135
 1756 0a91 62000000 		.4byte	0x62
 1757 0a95 16       		.uleb128 0x16
 1758 0a96 61040000 		.4byte	.LASF124
 1759 0a9a 11       		.byte	0x11
 1760 0a9b 3A01     		.2byte	0x13a
 1761 0a9d 86000000 		.4byte	0x86
 1762 0aa1 19       		.uleb128 0x19
 1763 0aa2 01       		.byte	0x1
 1764 0aa3 11       		.byte	0x11
 1765 0aa4 3F01     		.2byte	0x13f
 1766 0aa6 BD0A0000 		.4byte	0xabd
 1767 0aaa 18       		.uleb128 0x18
 1768 0aab C2030000 		.4byte	.LASF125
 1769 0aaf 01       		.sleb128 1
 1770 0ab0 18       		.uleb128 0x18
 1771 0ab1 7E020000 		.4byte	.LASF126
 1772 0ab5 02       		.sleb128 2
 1773 0ab6 18       		.uleb128 0x18
 1774 0ab7 D4010000 		.4byte	.LASF127
 1775 0abb 03       		.sleb128 3
 1776 0abc 00       		.byte	0
 1777 0abd 16       		.uleb128 0x16
 1778 0abe C5060000 		.4byte	.LASF128
 1779 0ac2 11       		.byte	0x11
 1780 0ac3 4301     		.2byte	0x143
ARM GAS  /tmp/ccq6zppQ.s 			page 33


 1781 0ac5 A10A0000 		.4byte	0xaa1
 1782 0ac9 19       		.uleb128 0x19
 1783 0aca 01       		.byte	0x1
 1784 0acb 11       		.byte	0x11
 1785 0acc 4801     		.2byte	0x148
 1786 0ace E50A0000 		.4byte	0xae5
 1787 0ad2 18       		.uleb128 0x18
 1788 0ad3 A8030000 		.4byte	.LASF129
 1789 0ad7 01       		.sleb128 1
 1790 0ad8 18       		.uleb128 0x18
 1791 0ad9 28050000 		.4byte	.LASF130
 1792 0add 02       		.sleb128 2
 1793 0ade 18       		.uleb128 0x18
 1794 0adf CD030000 		.4byte	.LASF131
 1795 0ae3 03       		.sleb128 3
 1796 0ae4 00       		.byte	0
 1797 0ae5 16       		.uleb128 0x16
 1798 0ae6 06000000 		.4byte	.LASF132
 1799 0aea 11       		.byte	0x11
 1800 0aeb 4C01     		.2byte	0x14c
 1801 0aed C90A0000 		.4byte	0xac9
 1802 0af1 14       		.uleb128 0x14
 1803 0af2 0C       		.byte	0xc
 1804 0af3 11       		.byte	0x11
 1805 0af4 5101     		.2byte	0x151
 1806 0af6 280B0000 		.4byte	0xb28
 1807 0afa 15       		.uleb128 0x15
 1808 0afb F9010000 		.4byte	.LASF133
 1809 0aff 11       		.byte	0x11
 1810 0b00 5201     		.2byte	0x152
 1811 0b02 BD0A0000 		.4byte	0xabd
 1812 0b06 02       		.byte	0x2
 1813 0b07 23       		.byte	0x23
 1814 0b08 00       		.uleb128 0
 1815 0b09 15       		.uleb128 0x15
 1816 0b0a F0000000 		.4byte	.LASF134
 1817 0b0e 11       		.byte	0x11
 1818 0b0f 5301     		.2byte	0x153
 1819 0b11 86000000 		.4byte	0x86
 1820 0b15 02       		.byte	0x2
 1821 0b16 23       		.byte	0x23
 1822 0b17 04       		.uleb128 0x4
 1823 0b18 15       		.uleb128 0x15
 1824 0b19 5D030000 		.4byte	.LASF135
 1825 0b1d 11       		.byte	0x11
 1826 0b1e 5601     		.2byte	0x156
 1827 0b20 E50A0000 		.4byte	0xae5
 1828 0b24 02       		.byte	0x2
 1829 0b25 23       		.byte	0x23
 1830 0b26 08       		.uleb128 0x8
 1831 0b27 00       		.byte	0
 1832 0b28 16       		.uleb128 0x16
 1833 0b29 87030000 		.4byte	.LASF136
 1834 0b2d 11       		.byte	0x11
 1835 0b2e 5801     		.2byte	0x158
 1836 0b30 F10A0000 		.4byte	0xaf1
 1837 0b34 16       		.uleb128 0x16
ARM GAS  /tmp/ccq6zppQ.s 			page 34


 1838 0b35 A5020000 		.4byte	.LASF137
 1839 0b39 11       		.byte	0x11
 1840 0b3a 5D01     		.2byte	0x15d
 1841 0b3c 400B0000 		.4byte	0xb40
 1842 0b40 0B       		.uleb128 0xb
 1843 0b41 A5020000 		.4byte	.LASF137
 1844 0b45 38       		.byte	0x38
 1845 0b46 11       		.byte	0x11
 1846 0b47 6201     		.2byte	0x162
 1847 0b49 F30B0000 		.4byte	0xbf3
 1848 0b4d 15       		.uleb128 0x15
 1849 0b4e 66010000 		.4byte	.LASF138
 1850 0b52 11       		.byte	0x11
 1851 0b53 6601     		.2byte	0x166
 1852 0b55 7E0A0000 		.4byte	0xa7e
 1853 0b59 02       		.byte	0x2
 1854 0b5a 23       		.byte	0x23
 1855 0b5b 00       		.uleb128 0
 1856 0b5c 15       		.uleb128 0x15
 1857 0b5d B6050000 		.4byte	.LASF139
 1858 0b61 11       		.byte	0x11
 1859 0b62 6A01     		.2byte	0x16a
 1860 0b64 F30B0000 		.4byte	0xbf3
 1861 0b68 02       		.byte	0x2
 1862 0b69 23       		.byte	0x23
 1863 0b6a 04       		.uleb128 0x4
 1864 0b6b 15       		.uleb128 0x15
 1865 0b6c 56030000 		.4byte	.LASF140
 1866 0b70 11       		.byte	0x11
 1867 0b71 6E01     		.2byte	0x16e
 1868 0b73 950A0000 		.4byte	0xa95
 1869 0b77 02       		.byte	0x2
 1870 0b78 23       		.byte	0x23
 1871 0b79 08       		.uleb128 0x8
 1872 0b7a 15       		.uleb128 0x15
 1873 0b7b 6C040000 		.4byte	.LASF141
 1874 0b7f 11       		.byte	0x11
 1875 0b80 7401     		.2byte	0x174
 1876 0b82 C8030000 		.4byte	0x3c8
 1877 0b86 02       		.byte	0x2
 1878 0b87 23       		.byte	0x23
 1879 0b88 0C       		.uleb128 0xc
 1880 0b89 15       		.uleb128 0x15
 1881 0b8a 88010000 		.4byte	.LASF142
 1882 0b8e 11       		.byte	0x11
 1883 0b8f 8001     		.2byte	0x180
 1884 0b91 7E020000 		.4byte	0x27e
 1885 0b95 02       		.byte	0x2
 1886 0b96 23       		.byte	0x23
 1887 0b97 1C       		.uleb128 0x1c
 1888 0b98 15       		.uleb128 0x15
 1889 0b99 8B000000 		.4byte	.LASF143
 1890 0b9d 11       		.byte	0x11
 1891 0b9e 8401     		.2byte	0x184
 1892 0ba0 890A0000 		.4byte	0xa89
 1893 0ba4 02       		.byte	0x2
 1894 0ba5 23       		.byte	0x23
ARM GAS  /tmp/ccq6zppQ.s 			page 35


 1895 0ba6 20       		.uleb128 0x20
 1896 0ba7 15       		.uleb128 0x15
 1897 0ba8 C4010000 		.4byte	.LASF144
 1898 0bac 11       		.byte	0x11
 1899 0bad 8801     		.2byte	0x188
 1900 0baf 86000000 		.4byte	0x86
 1901 0bb3 02       		.byte	0x2
 1902 0bb4 23       		.byte	0x23
 1903 0bb5 24       		.uleb128 0x24
 1904 0bb6 15       		.uleb128 0x15
 1905 0bb7 9E030000 		.4byte	.LASF145
 1906 0bbb 11       		.byte	0x11
 1907 0bbc 8C01     		.2byte	0x18c
 1908 0bbe 86000000 		.4byte	0x86
 1909 0bc2 02       		.byte	0x2
 1910 0bc3 23       		.byte	0x23
 1911 0bc4 28       		.uleb128 0x28
 1912 0bc5 15       		.uleb128 0x15
 1913 0bc6 00000000 		.4byte	.LASF146
 1914 0bca 11       		.byte	0x11
 1915 0bcb 9001     		.2byte	0x190
 1916 0bcd FE0B0000 		.4byte	0xbfe
 1917 0bd1 02       		.byte	0x2
 1918 0bd2 23       		.byte	0x23
 1919 0bd3 2C       		.uleb128 0x2c
 1920 0bd4 15       		.uleb128 0x15
 1921 0bd5 CE010000 		.4byte	.LASF147
 1922 0bd9 11       		.byte	0x11
 1923 0bda 9401     		.2byte	0x194
 1924 0bdc FE0B0000 		.4byte	0xbfe
 1925 0be0 02       		.byte	0x2
 1926 0be1 23       		.byte	0x23
 1927 0be2 30       		.uleb128 0x30
 1928 0be3 0C       		.uleb128 0xc
 1929 0be4 69326300 		.ascii	"i2c\000"
 1930 0be8 11       		.byte	0x11
 1931 0be9 9801     		.2byte	0x198
 1932 0beb 090C0000 		.4byte	0xc09
 1933 0bef 02       		.byte	0x2
 1934 0bf0 23       		.byte	0x23
 1935 0bf1 34       		.uleb128 0x34
 1936 0bf2 00       		.byte	0
 1937 0bf3 09       		.uleb128 0x9
 1938 0bf4 04       		.byte	0x4
 1939 0bf5 F90B0000 		.4byte	0xbf9
 1940 0bf9 10       		.uleb128 0x10
 1941 0bfa 280B0000 		.4byte	0xb28
 1942 0bfe 09       		.uleb128 0x9
 1943 0bff 04       		.byte	0x4
 1944 0c00 040C0000 		.4byte	0xc04
 1945 0c04 10       		.uleb128 0x10
 1946 0c05 17090000 		.4byte	0x917
 1947 0c09 09       		.uleb128 0x9
 1948 0c0a 04       		.byte	0x4
 1949 0c0b CA070000 		.4byte	0x7ca
 1950 0c0f 17       		.uleb128 0x17
 1951 0c10 01       		.byte	0x1
ARM GAS  /tmp/ccq6zppQ.s 			page 36


 1952 0c11 12       		.byte	0x12
 1953 0c12 5D       		.byte	0x5d
 1954 0c13 2A0C0000 		.4byte	0xc2a
 1955 0c17 18       		.uleb128 0x18
 1956 0c18 58050000 		.4byte	.LASF148
 1957 0c1c 00       		.sleb128 0
 1958 0c1d 18       		.uleb128 0x18
 1959 0c1e 20050000 		.4byte	.LASF149
 1960 0c22 01       		.sleb128 1
 1961 0c23 18       		.uleb128 0x18
 1962 0c24 F7050000 		.4byte	.LASF150
 1963 0c28 02       		.sleb128 2
 1964 0c29 00       		.byte	0
 1965 0c2a 03       		.uleb128 0x3
 1966 0c2b 75050000 		.4byte	.LASF151
 1967 0c2f 12       		.byte	0x12
 1968 0c30 61       		.byte	0x61
 1969 0c31 0F0C0000 		.4byte	0xc0f
 1970 0c35 03       		.uleb128 0x3
 1971 0c36 7F050000 		.4byte	.LASF152
 1972 0c3a 12       		.byte	0x12
 1973 0c3b 66       		.byte	0x66
 1974 0c3c 400C0000 		.4byte	0xc40
 1975 0c40 05       		.uleb128 0x5
 1976 0c41 7F050000 		.4byte	.LASF152
 1977 0c45 78       		.byte	0x78
 1978 0c46 12       		.byte	0x12
 1979 0c47 80       		.byte	0x80
 1980 0c48 BB0C0000 		.4byte	0xcbb
 1981 0c4c 07       		.uleb128 0x7
 1982 0c4d 766D7400 		.ascii	"vmt\000"
 1983 0c51 12       		.byte	0x12
 1984 0c52 82       		.byte	0x82
 1985 0c53 380D0000 		.4byte	0xd38
 1986 0c57 02       		.byte	0x2
 1987 0c58 23       		.byte	0x23
 1988 0c59 00       		.uleb128 0
 1989 0c5a 06       		.uleb128 0x6
 1990 0c5b 78020000 		.4byte	.LASF153
 1991 0c5f 12       		.byte	0x12
 1992 0c60 83       		.byte	0x83
 1993 0c61 44040000 		.4byte	0x444
 1994 0c65 02       		.byte	0x2
 1995 0c66 23       		.byte	0x23
 1996 0c67 04       		.uleb128 0x4
 1997 0c68 06       		.uleb128 0x6
 1998 0c69 66010000 		.4byte	.LASF138
 1999 0c6d 12       		.byte	0x12
 2000 0c6e 83       		.byte	0x83
 2001 0c6f 2A0C0000 		.4byte	0xc2a
 2002 0c73 02       		.byte	0x2
 2003 0c74 23       		.byte	0x23
 2004 0c75 08       		.uleb128 0x8
 2005 0c76 06       		.uleb128 0x6
 2006 0c77 5A020000 		.4byte	.LASF154
 2007 0c7b 12       		.byte	0x12
 2008 0c7c 83       		.byte	0x83
ARM GAS  /tmp/ccq6zppQ.s 			page 37


 2009 0c7d 69050000 		.4byte	0x569
 2010 0c81 02       		.byte	0x2
 2011 0c82 23       		.byte	0x23
 2012 0c83 0C       		.uleb128 0xc
 2013 0c84 06       		.uleb128 0x6
 2014 0c85 B5020000 		.4byte	.LASF155
 2015 0c89 12       		.byte	0x12
 2016 0c8a 83       		.byte	0x83
 2017 0c8b 74050000 		.4byte	0x574
 2018 0c8f 02       		.byte	0x2
 2019 0c90 23       		.byte	0x23
 2020 0c91 30       		.uleb128 0x30
 2021 0c92 07       		.uleb128 0x7
 2022 0c93 696200   		.ascii	"ib\000"
 2023 0c96 12       		.byte	0x12
 2024 0c97 83       		.byte	0x83
 2025 0c98 430D0000 		.4byte	0xd43
 2026 0c9c 02       		.byte	0x2
 2027 0c9d 23       		.byte	0x23
 2028 0c9e 54       		.uleb128 0x54
 2029 0c9f 07       		.uleb128 0x7
 2030 0ca0 6F6200   		.ascii	"ob\000"
 2031 0ca3 12       		.byte	0x12
 2032 0ca4 83       		.byte	0x83
 2033 0ca5 430D0000 		.4byte	0xd43
 2034 0ca9 02       		.byte	0x2
 2035 0caa 23       		.byte	0x23
 2036 0cab 64       		.uleb128 0x64
 2037 0cac 06       		.uleb128 0x6
 2038 0cad 29020000 		.4byte	.LASF156
 2039 0cb1 12       		.byte	0x12
 2040 0cb2 83       		.byte	0x83
 2041 0cb3 530D0000 		.4byte	0xd53
 2042 0cb7 02       		.byte	0x2
 2043 0cb8 23       		.byte	0x23
 2044 0cb9 74       		.uleb128 0x74
 2045 0cba 00       		.byte	0
 2046 0cbb 05       		.uleb128 0x5
 2047 0cbc 45020000 		.4byte	.LASF157
 2048 0cc0 20       		.byte	0x20
 2049 0cc1 12       		.byte	0x12
 2050 0cc2 75       		.byte	0x75
 2051 0cc3 380D0000 		.4byte	0xd38
 2052 0cc7 06       		.uleb128 0x6
 2053 0cc8 1D030000 		.4byte	.LASF82
 2054 0ccc 12       		.byte	0x12
 2055 0ccd 76       		.byte	0x76
 2056 0cce E9050000 		.4byte	0x5e9
 2057 0cd2 02       		.byte	0x2
 2058 0cd3 23       		.byte	0x23
 2059 0cd4 00       		.uleb128 0
 2060 0cd5 06       		.uleb128 0x6
 2061 0cd6 AC050000 		.4byte	.LASF83
 2062 0cda 12       		.byte	0x12
 2063 0cdb 76       		.byte	0x76
 2064 0cdc 09060000 		.4byte	0x609
 2065 0ce0 02       		.byte	0x2
ARM GAS  /tmp/ccq6zppQ.s 			page 38


 2066 0ce1 23       		.byte	0x23
 2067 0ce2 04       		.uleb128 0x4
 2068 0ce3 07       		.uleb128 0x7
 2069 0ce4 70757400 		.ascii	"put\000"
 2070 0ce8 12       		.byte	0x12
 2071 0ce9 76       		.byte	0x76
 2072 0cea 24060000 		.4byte	0x624
 2073 0cee 02       		.byte	0x2
 2074 0cef 23       		.byte	0x23
 2075 0cf0 08       		.uleb128 0x8
 2076 0cf1 07       		.uleb128 0x7
 2077 0cf2 67657400 		.ascii	"get\000"
 2078 0cf6 12       		.byte	0x12
 2079 0cf7 76       		.byte	0x76
 2080 0cf8 A2040000 		.4byte	0x4a2
 2081 0cfc 02       		.byte	0x2
 2082 0cfd 23       		.byte	0x23
 2083 0cfe 0C       		.uleb128 0xc
 2084 0cff 06       		.uleb128 0x6
 2085 0d00 23030000 		.4byte	.LASF111
 2086 0d04 12       		.byte	0x12
 2087 0d05 76       		.byte	0x76
 2088 0d06 B9090000 		.4byte	0x9b9
 2089 0d0a 02       		.byte	0x2
 2090 0d0b 23       		.byte	0x23
 2091 0d0c 10       		.uleb128 0x10
 2092 0d0d 06       		.uleb128 0x6
 2093 0d0e 6C020000 		.4byte	.LASF112
 2094 0d12 12       		.byte	0x12
 2095 0d13 76       		.byte	0x76
 2096 0d14 D4090000 		.4byte	0x9d4
 2097 0d18 02       		.byte	0x2
 2098 0d19 23       		.byte	0x23
 2099 0d1a 14       		.uleb128 0x14
 2100 0d1b 06       		.uleb128 0x6
 2101 0d1c CA020000 		.4byte	.LASF113
 2102 0d20 12       		.byte	0x12
 2103 0d21 76       		.byte	0x76
 2104 0d22 F9090000 		.4byte	0x9f9
 2105 0d26 02       		.byte	0x2
 2106 0d27 23       		.byte	0x23
 2107 0d28 18       		.uleb128 0x18
 2108 0d29 06       		.uleb128 0x6
 2109 0d2a C6000000 		.4byte	.LASF114
 2110 0d2e 12       		.byte	0x12
 2111 0d2f 76       		.byte	0x76
 2112 0d30 1E0A0000 		.4byte	0xa1e
 2113 0d34 02       		.byte	0x2
 2114 0d35 23       		.byte	0x23
 2115 0d36 1C       		.uleb128 0x1c
 2116 0d37 00       		.byte	0
 2117 0d38 09       		.uleb128 0x9
 2118 0d39 04       		.byte	0x4
 2119 0d3a 3E0D0000 		.4byte	0xd3e
 2120 0d3e 10       		.uleb128 0x10
 2121 0d3f BB0C0000 		.4byte	0xcbb
 2122 0d43 1A       		.uleb128 0x1a
ARM GAS  /tmp/ccq6zppQ.s 			page 39


 2123 0d44 49000000 		.4byte	0x49
 2124 0d48 530D0000 		.4byte	0xd53
 2125 0d4c 1B       		.uleb128 0x1b
 2126 0d4d 7F030000 		.4byte	0x37f
 2127 0d51 0F       		.byte	0xf
 2128 0d52 00       		.byte	0
 2129 0d53 09       		.uleb128 0x9
 2130 0d54 04       		.byte	0x4
 2131 0d55 B0080000 		.4byte	0x8b0
 2132 0d59 03       		.uleb128 0x3
 2133 0d5a 68030000 		.4byte	.LASF158
 2134 0d5e 13       		.byte	0x13
 2135 0d5f 28       		.byte	0x28
 2136 0d60 640D0000 		.4byte	0xd64
 2137 0d64 05       		.uleb128 0x5
 2138 0d65 7E010000 		.4byte	.LASF159
 2139 0d69 04       		.byte	0x4
 2140 0d6a 14       		.byte	0x14
 2141 0d6b 00       		.byte	0
 2142 0d6c 7E0D0000 		.4byte	0xd7e
 2143 0d70 1C       		.uleb128 0x1c
 2144 0d71 E3050000 		.4byte	.LASF160
 2145 0d75 BC020000 		.4byte	0x2bc
 2146 0d79 02       		.byte	0x2
 2147 0d7a 23       		.byte	0x23
 2148 0d7b 00       		.uleb128 0
 2149 0d7c 01       		.byte	0x1
 2150 0d7d 00       		.byte	0
 2151 0d7e 03       		.uleb128 0x3
 2152 0d7f 57000000 		.4byte	.LASF161
 2153 0d83 13       		.byte	0x13
 2154 0d84 66       		.byte	0x66
 2155 0d85 590D0000 		.4byte	0xd59
 2156 0d89 1D       		.uleb128 0x1d
 2157 0d8a FC060000 		.4byte	.LASF166
 2158 0d8e 01       		.byte	0x1
 2159 0d8f 44       		.byte	0x44
 2160 0d90 01       		.byte	0x1
 2161 0d91 03       		.byte	0x3
 2162 0d92 B80D0000 		.4byte	0xdb8
 2163 0d96 1E       		.uleb128 0x1e
 2164 0d97 63687000 		.ascii	"chp\000"
 2165 0d9b 01       		.byte	0x1
 2166 0d9c 44       		.byte	0x44
 2167 0d9d B80D0000 		.4byte	0xdb8
 2168 0da1 1E       		.uleb128 0x1e
 2169 0da2 666D7400 		.ascii	"fmt\000"
 2170 0da6 01       		.byte	0x1
 2171 0da7 44       		.byte	0x44
 2172 0da8 84040000 		.4byte	0x484
 2173 0dac 1F       		.uleb128 0x1f
 2174 0dad 20       		.uleb128 0x20
 2175 0dae 617000   		.ascii	"ap\000"
 2176 0db1 01       		.byte	0x1
 2177 0db2 45       		.byte	0x45
 2178 0db3 7E0D0000 		.4byte	0xd7e
 2179 0db7 00       		.byte	0
ARM GAS  /tmp/ccq6zppQ.s 			page 40


 2180 0db8 09       		.uleb128 0x9
 2181 0db9 04       		.byte	0x4
 2182 0dba 4C060000 		.4byte	0x64c
 2183 0dbe 21       		.uleb128 0x21
 2184 0dbf 890D0000 		.4byte	0xd89
 2185 0dc3 00000000 		.4byte	.LFB65
 2186 0dc7 26000000 		.4byte	.LFE65
 2187 0dcb 00000000 		.4byte	.LLST0
 2188 0dcf 01       		.byte	0x1
 2189 0dd0 0B0E0000 		.4byte	0xe0b
 2190 0dd4 22       		.uleb128 0x22
 2191 0dd5 960D0000 		.4byte	0xd96
 2192 0dd9 38000000 		.4byte	.LLST1
 2193 0ddd 23       		.uleb128 0x23
 2194 0dde A10D0000 		.4byte	0xda1
 2195 0de2 02       		.byte	0x2
 2196 0de3 91       		.byte	0x91
 2197 0de4 74       		.sleb128 -12
 2198 0de5 1F       		.uleb128 0x1f
 2199 0de6 24       		.uleb128 0x24
 2200 0de7 AD0D0000 		.4byte	0xdad
 2201 0deb 02       		.byte	0x2
 2202 0dec 91       		.byte	0x91
 2203 0ded 6C       		.sleb128 -20
 2204 0dee 25       		.uleb128 0x25
 2205 0def 960D0000 		.4byte	0xd96
 2206 0df3 26       		.uleb128 0x26
 2207 0df4 1C000000 		.4byte	.LVL2
 2208 0df8 880F0000 		.4byte	0xf88
 2209 0dfc 27       		.uleb128 0x27
 2210 0dfd 01       		.byte	0x1
 2211 0dfe 52       		.byte	0x52
 2212 0dff 02       		.byte	0x2
 2213 0e00 91       		.byte	0x91
 2214 0e01 60       		.sleb128 -32
 2215 0e02 27       		.uleb128 0x27
 2216 0e03 01       		.byte	0x1
 2217 0e04 51       		.byte	0x51
 2218 0e05 03       		.byte	0x3
 2219 0e06 91       		.byte	0x91
 2220 0e07 5C       		.sleb128 -36
 2221 0e08 06       		.byte	0x6
 2222 0e09 00       		.byte	0
 2223 0e0a 00       		.byte	0
 2224 0e0b 28       		.uleb128 0x28
 2225 0e0c 01       		.byte	0x1
 2226 0e0d 90000000 		.4byte	.LASF167
 2227 0e11 02       		.byte	0x2
 2228 0e12 05       		.byte	0x5
 2229 0e13 01       		.byte	0x1
 2230 0e14 00000000 		.4byte	.LFB64
 2231 0e18 F4000000 		.4byte	.LFE64
 2232 0e1c 59000000 		.4byte	.LLST2
 2233 0e20 01       		.byte	0x1
 2234 0e21 660F0000 		.4byte	0xf66
 2235 0e25 29       		.uleb128 0x29
 2236 0e26 AC060000 		.4byte	.LASF168
ARM GAS  /tmp/ccq6zppQ.s 			page 41


 2237 0e2a 02       		.byte	0x2
 2238 0e2b 05       		.byte	0x5
 2239 0e2c 660F0000 		.4byte	0xf66
 2240 0e30 79000000 		.4byte	.LLST3
 2241 0e34 2A       		.uleb128 0x2a
 2242 0e35 65727200 		.ascii	"err\000"
 2243 0e39 02       		.byte	0x2
 2244 0e3a 08       		.byte	0x8
 2245 0e3b 29000000 		.4byte	0x29
 2246 0e3f 97000000 		.4byte	.LLST4
 2247 0e43 2B       		.uleb128 0x2b
 2248 0e44 0C000000 		.4byte	.LVL5
 2249 0e48 BE0D0000 		.4byte	0xdbe
 2250 0e4c 5A0E0000 		.4byte	0xe5a
 2251 0e50 27       		.uleb128 0x27
 2252 0e51 01       		.byte	0x1
 2253 0e52 51       		.byte	0x51
 2254 0e53 05       		.byte	0x5
 2255 0e54 03       		.byte	0x3
 2256 0e55 00000000 		.4byte	.LC0
 2257 0e59 00       		.byte	0
 2258 0e5a 2B       		.uleb128 0x2b
 2259 0e5b 12000000 		.4byte	.LVL6
 2260 0e5f A60F0000 		.4byte	0xfa6
 2261 0e63 6E0E0000 		.4byte	0xe6e
 2262 0e67 27       		.uleb128 0x27
 2263 0e68 01       		.byte	0x1
 2264 0e69 50       		.byte	0x50
 2265 0e6a 02       		.byte	0x2
 2266 0e6b 74       		.byte	0x74
 2267 0e6c 00       		.sleb128 0
 2268 0e6d 00       		.byte	0
 2269 0e6e 2B       		.uleb128 0x2b
 2270 0e6f 64000000 		.4byte	.LVL9
 2271 0e73 BE0D0000 		.4byte	0xdbe
 2272 0e77 850E0000 		.4byte	0xe85
 2273 0e7b 27       		.uleb128 0x27
 2274 0e7c 01       		.byte	0x1
 2275 0e7d 51       		.byte	0x51
 2276 0e7e 05       		.byte	0x5
 2277 0e7f 03       		.byte	0x3
 2278 0e80 AC000000 		.4byte	.LC8
 2279 0e84 00       		.byte	0
 2280 0e85 2B       		.uleb128 0x2b
 2281 0e86 6C000000 		.4byte	.LVL10
 2282 0e8a BE0D0000 		.4byte	0xdbe
 2283 0e8e 9C0E0000 		.4byte	0xe9c
 2284 0e92 27       		.uleb128 0x27
 2285 0e93 01       		.byte	0x1
 2286 0e94 51       		.byte	0x51
 2287 0e95 05       		.byte	0x5
 2288 0e96 03       		.byte	0x3
 2289 0e97 B4000000 		.4byte	.LC9
 2290 0e9b 00       		.byte	0
 2291 0e9c 2B       		.uleb128 0x2b
 2292 0e9d 74000000 		.4byte	.LVL11
 2293 0ea1 BE0F0000 		.4byte	0xfbe
ARM GAS  /tmp/ccq6zppQ.s 			page 42


 2294 0ea5 B10E0000 		.4byte	0xeb1
 2295 0ea9 27       		.uleb128 0x27
 2296 0eaa 01       		.byte	0x1
 2297 0eab 50       		.byte	0x50
 2298 0eac 03       		.byte	0x3
 2299 0ead 0A       		.byte	0xa
 2300 0eae E803     		.2byte	0x3e8
 2301 0eb0 00       		.byte	0
 2302 0eb1 2B       		.uleb128 0x2b
 2303 0eb2 7C000000 		.4byte	.LVL12
 2304 0eb6 BE0D0000 		.4byte	0xdbe
 2305 0eba C80E0000 		.4byte	0xec8
 2306 0ebe 27       		.uleb128 0x27
 2307 0ebf 01       		.byte	0x1
 2308 0ec0 51       		.byte	0x51
 2309 0ec1 05       		.byte	0x5
 2310 0ec2 03       		.byte	0x3
 2311 0ec3 E0000000 		.4byte	.LC10
 2312 0ec7 00       		.byte	0
 2313 0ec8 2B       		.uleb128 0x2b
 2314 0ec9 86000000 		.4byte	.LVL15
 2315 0ecd BE0D0000 		.4byte	0xdbe
 2316 0ed1 DF0E0000 		.4byte	0xedf
 2317 0ed5 27       		.uleb128 0x27
 2318 0ed6 01       		.byte	0x1
 2319 0ed7 51       		.byte	0x51
 2320 0ed8 05       		.byte	0x5
 2321 0ed9 03       		.byte	0x3
 2322 0eda 9C000000 		.4byte	.LC7
 2323 0ede 00       		.byte	0
 2324 0edf 2B       		.uleb128 0x2b
 2325 0ee0 90000000 		.4byte	.LVL18
 2326 0ee4 BE0D0000 		.4byte	0xdbe
 2327 0ee8 F60E0000 		.4byte	0xef6
 2328 0eec 27       		.uleb128 0x27
 2329 0eed 01       		.byte	0x1
 2330 0eee 51       		.byte	0x51
 2331 0eef 05       		.byte	0x5
 2332 0ef0 03       		.byte	0x3
 2333 0ef1 88000000 		.4byte	.LC6
 2334 0ef5 00       		.byte	0
 2335 0ef6 2B       		.uleb128 0x2b
 2336 0ef7 9A000000 		.4byte	.LVL21
 2337 0efb BE0D0000 		.4byte	0xdbe
 2338 0eff 0D0F0000 		.4byte	0xf0d
 2339 0f03 27       		.uleb128 0x27
 2340 0f04 01       		.byte	0x1
 2341 0f05 51       		.byte	0x51
 2342 0f06 05       		.byte	0x5
 2343 0f07 03       		.byte	0x3
 2344 0f08 6C000000 		.4byte	.LC5
 2345 0f0c 00       		.byte	0
 2346 0f0d 2B       		.uleb128 0x2b
 2347 0f0e A4000000 		.4byte	.LVL24
 2348 0f12 BE0D0000 		.4byte	0xdbe
 2349 0f16 240F0000 		.4byte	0xf24
 2350 0f1a 27       		.uleb128 0x27
ARM GAS  /tmp/ccq6zppQ.s 			page 43


 2351 0f1b 01       		.byte	0x1
 2352 0f1c 51       		.byte	0x51
 2353 0f1d 05       		.byte	0x5
 2354 0f1e 03       		.byte	0x3
 2355 0f1f 58000000 		.4byte	.LC4
 2356 0f23 00       		.byte	0
 2357 0f24 2B       		.uleb128 0x2b
 2358 0f25 AE000000 		.4byte	.LVL27
 2359 0f29 BE0D0000 		.4byte	0xdbe
 2360 0f2d 3B0F0000 		.4byte	0xf3b
 2361 0f31 27       		.uleb128 0x27
 2362 0f32 01       		.byte	0x1
 2363 0f33 51       		.byte	0x51
 2364 0f34 05       		.byte	0x5
 2365 0f35 03       		.byte	0x3
 2366 0f36 40000000 		.4byte	.LC3
 2367 0f3a 00       		.byte	0
 2368 0f3b 2B       		.uleb128 0x2b
 2369 0f3c B8000000 		.4byte	.LVL30
 2370 0f40 BE0D0000 		.4byte	0xdbe
 2371 0f44 520F0000 		.4byte	0xf52
 2372 0f48 27       		.uleb128 0x27
 2373 0f49 01       		.byte	0x1
 2374 0f4a 51       		.byte	0x51
 2375 0f4b 05       		.byte	0x5
 2376 0f4c 03       		.byte	0x3
 2377 0f4d 2C000000 		.4byte	.LC2
 2378 0f51 00       		.byte	0
 2379 0f52 26       		.uleb128 0x26
 2380 0f53 C2000000 		.4byte	.LVL33
 2381 0f57 BE0D0000 		.4byte	0xdbe
 2382 0f5b 27       		.uleb128 0x27
 2383 0f5c 01       		.byte	0x1
 2384 0f5d 51       		.byte	0x51
 2385 0f5e 05       		.byte	0x5
 2386 0f5f 03       		.byte	0x3
 2387 0f60 20000000 		.4byte	.LC1
 2388 0f64 00       		.byte	0
 2389 0f65 00       		.byte	0
 2390 0f66 09       		.uleb128 0x9
 2391 0f67 04       		.byte	0x4
 2392 0f68 340B0000 		.4byte	0xb34
 2393 0f6c 2C       		.uleb128 0x2c
 2394 0f6d AA000000 		.4byte	.LASF162
 2395 0f71 15       		.byte	0x15
 2396 0f72 0706     		.2byte	0x607
 2397 0f74 5C060000 		.4byte	0x65c
 2398 0f78 01       		.byte	0x1
 2399 0f79 01       		.byte	0x1
 2400 0f7a 2D       		.uleb128 0x2d
 2401 0f7b 53443200 		.ascii	"SD2\000"
 2402 0f7f 16       		.byte	0x16
 2403 0f80 1201     		.2byte	0x112
 2404 0f82 350C0000 		.4byte	0xc35
 2405 0f86 01       		.byte	0x1
 2406 0f87 01       		.byte	0x1
 2407 0f88 2E       		.uleb128 0x2e
ARM GAS  /tmp/ccq6zppQ.s 			page 44


 2408 0f89 01       		.byte	0x1
 2409 0f8a 78060000 		.4byte	.LASF169
 2410 0f8e 01       		.byte	0x1
 2411 0f8f 28       		.byte	0x28
 2412 0f90 01       		.byte	0x1
 2413 0f91 01       		.byte	0x1
 2414 0f92 A60F0000 		.4byte	0xfa6
 2415 0f96 12       		.uleb128 0x12
 2416 0f97 B80D0000 		.4byte	0xdb8
 2417 0f9b 12       		.uleb128 0x12
 2418 0f9c 84040000 		.4byte	0x484
 2419 0fa0 12       		.uleb128 0x12
 2420 0fa1 7E0D0000 		.4byte	0xd7e
 2421 0fa5 00       		.byte	0
 2422 0fa6 2F       		.uleb128 0x2f
 2423 0fa7 01       		.byte	0x1
 2424 0fa8 DD040000 		.4byte	.LASF170
 2425 0fac 10       		.byte	0x10
 2426 0fad 7C       		.byte	0x7c
 2427 0fae 01       		.byte	0x1
 2428 0faf 950A0000 		.4byte	0xa95
 2429 0fb3 01       		.byte	0x1
 2430 0fb4 BE0F0000 		.4byte	0xfbe
 2431 0fb8 12       		.uleb128 0x12
 2432 0fb9 660F0000 		.4byte	0xf66
 2433 0fbd 00       		.byte	0
 2434 0fbe 30       		.uleb128 0x30
 2435 0fbf 01       		.byte	0x1
 2436 0fc0 E2030000 		.4byte	.LASF171
 2437 0fc4 07       		.byte	0x7
 2438 0fc5 6E01     		.2byte	0x16e
 2439 0fc7 01       		.byte	0x1
 2440 0fc8 01       		.byte	0x1
 2441 0fc9 12       		.uleb128 0x12
 2442 0fca 10010000 		.4byte	0x110
 2443 0fce 00       		.byte	0
 2444 0fcf 00       		.byte	0
 2445              		.section	.debug_abbrev,"",%progbits
 2446              	.Ldebug_abbrev0:
 2447 0000 01       		.uleb128 0x1
 2448 0001 11       		.uleb128 0x11
 2449 0002 01       		.byte	0x1
 2450 0003 25       		.uleb128 0x25
 2451 0004 0E       		.uleb128 0xe
 2452 0005 13       		.uleb128 0x13
 2453 0006 0B       		.uleb128 0xb
 2454 0007 03       		.uleb128 0x3
 2455 0008 0E       		.uleb128 0xe
 2456 0009 1B       		.uleb128 0x1b
 2457 000a 0E       		.uleb128 0xe
 2458 000b 55       		.uleb128 0x55
 2459 000c 06       		.uleb128 0x6
 2460 000d 11       		.uleb128 0x11
 2461 000e 01       		.uleb128 0x1
 2462 000f 52       		.uleb128 0x52
 2463 0010 01       		.uleb128 0x1
 2464 0011 10       		.uleb128 0x10
ARM GAS  /tmp/ccq6zppQ.s 			page 45


 2465 0012 06       		.uleb128 0x6
 2466 0013 00       		.byte	0
 2467 0014 00       		.byte	0
 2468 0015 02       		.uleb128 0x2
 2469 0016 24       		.uleb128 0x24
 2470 0017 00       		.byte	0
 2471 0018 0B       		.uleb128 0xb
 2472 0019 0B       		.uleb128 0xb
 2473 001a 3E       		.uleb128 0x3e
 2474 001b 0B       		.uleb128 0xb
 2475 001c 03       		.uleb128 0x3
 2476 001d 08       		.uleb128 0x8
 2477 001e 00       		.byte	0
 2478 001f 00       		.byte	0
 2479 0020 03       		.uleb128 0x3
 2480 0021 16       		.uleb128 0x16
 2481 0022 00       		.byte	0
 2482 0023 03       		.uleb128 0x3
 2483 0024 0E       		.uleb128 0xe
 2484 0025 3A       		.uleb128 0x3a
 2485 0026 0B       		.uleb128 0xb
 2486 0027 3B       		.uleb128 0x3b
 2487 0028 0B       		.uleb128 0xb
 2488 0029 49       		.uleb128 0x49
 2489 002a 13       		.uleb128 0x13
 2490 002b 00       		.byte	0
 2491 002c 00       		.byte	0
 2492 002d 04       		.uleb128 0x4
 2493 002e 24       		.uleb128 0x24
 2494 002f 00       		.byte	0
 2495 0030 0B       		.uleb128 0xb
 2496 0031 0B       		.uleb128 0xb
 2497 0032 3E       		.uleb128 0x3e
 2498 0033 0B       		.uleb128 0xb
 2499 0034 03       		.uleb128 0x3
 2500 0035 0E       		.uleb128 0xe
 2501 0036 00       		.byte	0
 2502 0037 00       		.byte	0
 2503 0038 05       		.uleb128 0x5
 2504 0039 13       		.uleb128 0x13
 2505 003a 01       		.byte	0x1
 2506 003b 03       		.uleb128 0x3
 2507 003c 0E       		.uleb128 0xe
 2508 003d 0B       		.uleb128 0xb
 2509 003e 0B       		.uleb128 0xb
 2510 003f 3A       		.uleb128 0x3a
 2511 0040 0B       		.uleb128 0xb
 2512 0041 3B       		.uleb128 0x3b
 2513 0042 0B       		.uleb128 0xb
 2514 0043 01       		.uleb128 0x1
 2515 0044 13       		.uleb128 0x13
 2516 0045 00       		.byte	0
 2517 0046 00       		.byte	0
 2518 0047 06       		.uleb128 0x6
 2519 0048 0D       		.uleb128 0xd
 2520 0049 00       		.byte	0
 2521 004a 03       		.uleb128 0x3
ARM GAS  /tmp/ccq6zppQ.s 			page 46


 2522 004b 0E       		.uleb128 0xe
 2523 004c 3A       		.uleb128 0x3a
 2524 004d 0B       		.uleb128 0xb
 2525 004e 3B       		.uleb128 0x3b
 2526 004f 0B       		.uleb128 0xb
 2527 0050 49       		.uleb128 0x49
 2528 0051 13       		.uleb128 0x13
 2529 0052 38       		.uleb128 0x38
 2530 0053 0A       		.uleb128 0xa
 2531 0054 00       		.byte	0
 2532 0055 00       		.byte	0
 2533 0056 07       		.uleb128 0x7
 2534 0057 0D       		.uleb128 0xd
 2535 0058 00       		.byte	0
 2536 0059 03       		.uleb128 0x3
 2537 005a 08       		.uleb128 0x8
 2538 005b 3A       		.uleb128 0x3a
 2539 005c 0B       		.uleb128 0xb
 2540 005d 3B       		.uleb128 0x3b
 2541 005e 0B       		.uleb128 0xb
 2542 005f 49       		.uleb128 0x49
 2543 0060 13       		.uleb128 0x13
 2544 0061 38       		.uleb128 0x38
 2545 0062 0A       		.uleb128 0xa
 2546 0063 00       		.byte	0
 2547 0064 00       		.byte	0
 2548 0065 08       		.uleb128 0x8
 2549 0066 13       		.uleb128 0x13
 2550 0067 01       		.byte	0x1
 2551 0068 0B       		.uleb128 0xb
 2552 0069 0B       		.uleb128 0xb
 2553 006a 3A       		.uleb128 0x3a
 2554 006b 0B       		.uleb128 0xb
 2555 006c 3B       		.uleb128 0x3b
 2556 006d 0B       		.uleb128 0xb
 2557 006e 01       		.uleb128 0x1
 2558 006f 13       		.uleb128 0x13
 2559 0070 00       		.byte	0
 2560 0071 00       		.byte	0
 2561 0072 09       		.uleb128 0x9
 2562 0073 0F       		.uleb128 0xf
 2563 0074 00       		.byte	0
 2564 0075 0B       		.uleb128 0xb
 2565 0076 0B       		.uleb128 0xb
 2566 0077 49       		.uleb128 0x49
 2567 0078 13       		.uleb128 0x13
 2568 0079 00       		.byte	0
 2569 007a 00       		.byte	0
 2570 007b 0A       		.uleb128 0xa
 2571 007c 0F       		.uleb128 0xf
 2572 007d 00       		.byte	0
 2573 007e 0B       		.uleb128 0xb
 2574 007f 0B       		.uleb128 0xb
 2575 0080 00       		.byte	0
 2576 0081 00       		.byte	0
 2577 0082 0B       		.uleb128 0xb
 2578 0083 13       		.uleb128 0x13
ARM GAS  /tmp/ccq6zppQ.s 			page 47


 2579 0084 01       		.byte	0x1
 2580 0085 03       		.uleb128 0x3
 2581 0086 0E       		.uleb128 0xe
 2582 0087 0B       		.uleb128 0xb
 2583 0088 0B       		.uleb128 0xb
 2584 0089 3A       		.uleb128 0x3a
 2585 008a 0B       		.uleb128 0xb
 2586 008b 3B       		.uleb128 0x3b
 2587 008c 05       		.uleb128 0x5
 2588 008d 01       		.uleb128 0x1
 2589 008e 13       		.uleb128 0x13
 2590 008f 00       		.byte	0
 2591 0090 00       		.byte	0
 2592 0091 0C       		.uleb128 0xc
 2593 0092 0D       		.uleb128 0xd
 2594 0093 00       		.byte	0
 2595 0094 03       		.uleb128 0x3
 2596 0095 08       		.uleb128 0x8
 2597 0096 3A       		.uleb128 0x3a
 2598 0097 0B       		.uleb128 0xb
 2599 0098 3B       		.uleb128 0x3b
 2600 0099 05       		.uleb128 0x5
 2601 009a 49       		.uleb128 0x49
 2602 009b 13       		.uleb128 0x13
 2603 009c 38       		.uleb128 0x38
 2604 009d 0A       		.uleb128 0xa
 2605 009e 00       		.byte	0
 2606 009f 00       		.byte	0
 2607 00a0 0D       		.uleb128 0xd
 2608 00a1 35       		.uleb128 0x35
 2609 00a2 00       		.byte	0
 2610 00a3 49       		.uleb128 0x49
 2611 00a4 13       		.uleb128 0x13
 2612 00a5 00       		.byte	0
 2613 00a6 00       		.byte	0
 2614 00a7 0E       		.uleb128 0xe
 2615 00a8 17       		.uleb128 0x17
 2616 00a9 01       		.byte	0x1
 2617 00aa 0B       		.uleb128 0xb
 2618 00ab 0B       		.uleb128 0xb
 2619 00ac 3A       		.uleb128 0x3a
 2620 00ad 0B       		.uleb128 0xb
 2621 00ae 3B       		.uleb128 0x3b
 2622 00af 0B       		.uleb128 0xb
 2623 00b0 01       		.uleb128 0x1
 2624 00b1 13       		.uleb128 0x13
 2625 00b2 00       		.byte	0
 2626 00b3 00       		.byte	0
 2627 00b4 0F       		.uleb128 0xf
 2628 00b5 0D       		.uleb128 0xd
 2629 00b6 00       		.byte	0
 2630 00b7 03       		.uleb128 0x3
 2631 00b8 0E       		.uleb128 0xe
 2632 00b9 3A       		.uleb128 0x3a
 2633 00ba 0B       		.uleb128 0xb
 2634 00bb 3B       		.uleb128 0x3b
 2635 00bc 0B       		.uleb128 0xb
ARM GAS  /tmp/ccq6zppQ.s 			page 48


 2636 00bd 49       		.uleb128 0x49
 2637 00be 13       		.uleb128 0x13
 2638 00bf 00       		.byte	0
 2639 00c0 00       		.byte	0
 2640 00c1 10       		.uleb128 0x10
 2641 00c2 26       		.uleb128 0x26
 2642 00c3 00       		.byte	0
 2643 00c4 49       		.uleb128 0x49
 2644 00c5 13       		.uleb128 0x13
 2645 00c6 00       		.byte	0
 2646 00c7 00       		.byte	0
 2647 00c8 11       		.uleb128 0x11
 2648 00c9 15       		.uleb128 0x15
 2649 00ca 01       		.byte	0x1
 2650 00cb 27       		.uleb128 0x27
 2651 00cc 0C       		.uleb128 0xc
 2652 00cd 49       		.uleb128 0x49
 2653 00ce 13       		.uleb128 0x13
 2654 00cf 01       		.uleb128 0x1
 2655 00d0 13       		.uleb128 0x13
 2656 00d1 00       		.byte	0
 2657 00d2 00       		.byte	0
 2658 00d3 12       		.uleb128 0x12
 2659 00d4 05       		.uleb128 0x5
 2660 00d5 00       		.byte	0
 2661 00d6 49       		.uleb128 0x49
 2662 00d7 13       		.uleb128 0x13
 2663 00d8 00       		.byte	0
 2664 00d9 00       		.byte	0
 2665 00da 13       		.uleb128 0x13
 2666 00db 15       		.uleb128 0x15
 2667 00dc 01       		.byte	0x1
 2668 00dd 27       		.uleb128 0x27
 2669 00de 0C       		.uleb128 0xc
 2670 00df 01       		.uleb128 0x1
 2671 00e0 13       		.uleb128 0x13
 2672 00e1 00       		.byte	0
 2673 00e2 00       		.byte	0
 2674 00e3 14       		.uleb128 0x14
 2675 00e4 13       		.uleb128 0x13
 2676 00e5 01       		.byte	0x1
 2677 00e6 0B       		.uleb128 0xb
 2678 00e7 0B       		.uleb128 0xb
 2679 00e8 3A       		.uleb128 0x3a
 2680 00e9 0B       		.uleb128 0xb
 2681 00ea 3B       		.uleb128 0x3b
 2682 00eb 05       		.uleb128 0x5
 2683 00ec 01       		.uleb128 0x1
 2684 00ed 13       		.uleb128 0x13
 2685 00ee 00       		.byte	0
 2686 00ef 00       		.byte	0
 2687 00f0 15       		.uleb128 0x15
 2688 00f1 0D       		.uleb128 0xd
 2689 00f2 00       		.byte	0
 2690 00f3 03       		.uleb128 0x3
 2691 00f4 0E       		.uleb128 0xe
 2692 00f5 3A       		.uleb128 0x3a
ARM GAS  /tmp/ccq6zppQ.s 			page 49


 2693 00f6 0B       		.uleb128 0xb
 2694 00f7 3B       		.uleb128 0x3b
 2695 00f8 05       		.uleb128 0x5
 2696 00f9 49       		.uleb128 0x49
 2697 00fa 13       		.uleb128 0x13
 2698 00fb 38       		.uleb128 0x38
 2699 00fc 0A       		.uleb128 0xa
 2700 00fd 00       		.byte	0
 2701 00fe 00       		.byte	0
 2702 00ff 16       		.uleb128 0x16
 2703 0100 16       		.uleb128 0x16
 2704 0101 00       		.byte	0
 2705 0102 03       		.uleb128 0x3
 2706 0103 0E       		.uleb128 0xe
 2707 0104 3A       		.uleb128 0x3a
 2708 0105 0B       		.uleb128 0xb
 2709 0106 3B       		.uleb128 0x3b
 2710 0107 05       		.uleb128 0x5
 2711 0108 49       		.uleb128 0x49
 2712 0109 13       		.uleb128 0x13
 2713 010a 00       		.byte	0
 2714 010b 00       		.byte	0
 2715 010c 17       		.uleb128 0x17
 2716 010d 04       		.uleb128 0x4
 2717 010e 01       		.byte	0x1
 2718 010f 0B       		.uleb128 0xb
 2719 0110 0B       		.uleb128 0xb
 2720 0111 3A       		.uleb128 0x3a
 2721 0112 0B       		.uleb128 0xb
 2722 0113 3B       		.uleb128 0x3b
 2723 0114 0B       		.uleb128 0xb
 2724 0115 01       		.uleb128 0x1
 2725 0116 13       		.uleb128 0x13
 2726 0117 00       		.byte	0
 2727 0118 00       		.byte	0
 2728 0119 18       		.uleb128 0x18
 2729 011a 28       		.uleb128 0x28
 2730 011b 00       		.byte	0
 2731 011c 03       		.uleb128 0x3
 2732 011d 0E       		.uleb128 0xe
 2733 011e 1C       		.uleb128 0x1c
 2734 011f 0D       		.uleb128 0xd
 2735 0120 00       		.byte	0
 2736 0121 00       		.byte	0
 2737 0122 19       		.uleb128 0x19
 2738 0123 04       		.uleb128 0x4
 2739 0124 01       		.byte	0x1
 2740 0125 0B       		.uleb128 0xb
 2741 0126 0B       		.uleb128 0xb
 2742 0127 3A       		.uleb128 0x3a
 2743 0128 0B       		.uleb128 0xb
 2744 0129 3B       		.uleb128 0x3b
 2745 012a 05       		.uleb128 0x5
 2746 012b 01       		.uleb128 0x1
 2747 012c 13       		.uleb128 0x13
 2748 012d 00       		.byte	0
 2749 012e 00       		.byte	0
ARM GAS  /tmp/ccq6zppQ.s 			page 50


 2750 012f 1A       		.uleb128 0x1a
 2751 0130 01       		.uleb128 0x1
 2752 0131 01       		.byte	0x1
 2753 0132 49       		.uleb128 0x49
 2754 0133 13       		.uleb128 0x13
 2755 0134 01       		.uleb128 0x1
 2756 0135 13       		.uleb128 0x13
 2757 0136 00       		.byte	0
 2758 0137 00       		.byte	0
 2759 0138 1B       		.uleb128 0x1b
 2760 0139 21       		.uleb128 0x21
 2761 013a 00       		.byte	0
 2762 013b 49       		.uleb128 0x49
 2763 013c 13       		.uleb128 0x13
 2764 013d 2F       		.uleb128 0x2f
 2765 013e 0B       		.uleb128 0xb
 2766 013f 00       		.byte	0
 2767 0140 00       		.byte	0
 2768 0141 1C       		.uleb128 0x1c
 2769 0142 0D       		.uleb128 0xd
 2770 0143 00       		.byte	0
 2771 0144 03       		.uleb128 0x3
 2772 0145 0E       		.uleb128 0xe
 2773 0146 49       		.uleb128 0x49
 2774 0147 13       		.uleb128 0x13
 2775 0148 38       		.uleb128 0x38
 2776 0149 0A       		.uleb128 0xa
 2777 014a 34       		.uleb128 0x34
 2778 014b 0C       		.uleb128 0xc
 2779 014c 00       		.byte	0
 2780 014d 00       		.byte	0
 2781 014e 1D       		.uleb128 0x1d
 2782 014f 2E       		.uleb128 0x2e
 2783 0150 01       		.byte	0x1
 2784 0151 03       		.uleb128 0x3
 2785 0152 0E       		.uleb128 0xe
 2786 0153 3A       		.uleb128 0x3a
 2787 0154 0B       		.uleb128 0xb
 2788 0155 3B       		.uleb128 0x3b
 2789 0156 0B       		.uleb128 0xb
 2790 0157 27       		.uleb128 0x27
 2791 0158 0C       		.uleb128 0xc
 2792 0159 20       		.uleb128 0x20
 2793 015a 0B       		.uleb128 0xb
 2794 015b 01       		.uleb128 0x1
 2795 015c 13       		.uleb128 0x13
 2796 015d 00       		.byte	0
 2797 015e 00       		.byte	0
 2798 015f 1E       		.uleb128 0x1e
 2799 0160 05       		.uleb128 0x5
 2800 0161 00       		.byte	0
 2801 0162 03       		.uleb128 0x3
 2802 0163 08       		.uleb128 0x8
 2803 0164 3A       		.uleb128 0x3a
 2804 0165 0B       		.uleb128 0xb
 2805 0166 3B       		.uleb128 0x3b
 2806 0167 0B       		.uleb128 0xb
ARM GAS  /tmp/ccq6zppQ.s 			page 51


 2807 0168 49       		.uleb128 0x49
 2808 0169 13       		.uleb128 0x13
 2809 016a 00       		.byte	0
 2810 016b 00       		.byte	0
 2811 016c 1F       		.uleb128 0x1f
 2812 016d 18       		.uleb128 0x18
 2813 016e 00       		.byte	0
 2814 016f 00       		.byte	0
 2815 0170 00       		.byte	0
 2816 0171 20       		.uleb128 0x20
 2817 0172 34       		.uleb128 0x34
 2818 0173 00       		.byte	0
 2819 0174 03       		.uleb128 0x3
 2820 0175 08       		.uleb128 0x8
 2821 0176 3A       		.uleb128 0x3a
 2822 0177 0B       		.uleb128 0xb
 2823 0178 3B       		.uleb128 0x3b
 2824 0179 0B       		.uleb128 0xb
 2825 017a 49       		.uleb128 0x49
 2826 017b 13       		.uleb128 0x13
 2827 017c 00       		.byte	0
 2828 017d 00       		.byte	0
 2829 017e 21       		.uleb128 0x21
 2830 017f 2E       		.uleb128 0x2e
 2831 0180 01       		.byte	0x1
 2832 0181 31       		.uleb128 0x31
 2833 0182 13       		.uleb128 0x13
 2834 0183 11       		.uleb128 0x11
 2835 0184 01       		.uleb128 0x1
 2836 0185 12       		.uleb128 0x12
 2837 0186 01       		.uleb128 0x1
 2838 0187 40       		.uleb128 0x40
 2839 0188 06       		.uleb128 0x6
 2840 0189 9742     		.uleb128 0x2117
 2841 018b 0C       		.uleb128 0xc
 2842 018c 01       		.uleb128 0x1
 2843 018d 13       		.uleb128 0x13
 2844 018e 00       		.byte	0
 2845 018f 00       		.byte	0
 2846 0190 22       		.uleb128 0x22
 2847 0191 05       		.uleb128 0x5
 2848 0192 00       		.byte	0
 2849 0193 31       		.uleb128 0x31
 2850 0194 13       		.uleb128 0x13
 2851 0195 02       		.uleb128 0x2
 2852 0196 06       		.uleb128 0x6
 2853 0197 00       		.byte	0
 2854 0198 00       		.byte	0
 2855 0199 23       		.uleb128 0x23
 2856 019a 05       		.uleb128 0x5
 2857 019b 00       		.byte	0
 2858 019c 31       		.uleb128 0x31
 2859 019d 13       		.uleb128 0x13
 2860 019e 02       		.uleb128 0x2
 2861 019f 0A       		.uleb128 0xa
 2862 01a0 00       		.byte	0
 2863 01a1 00       		.byte	0
ARM GAS  /tmp/ccq6zppQ.s 			page 52


 2864 01a2 24       		.uleb128 0x24
 2865 01a3 34       		.uleb128 0x34
 2866 01a4 00       		.byte	0
 2867 01a5 31       		.uleb128 0x31
 2868 01a6 13       		.uleb128 0x13
 2869 01a7 02       		.uleb128 0x2
 2870 01a8 0A       		.uleb128 0xa
 2871 01a9 00       		.byte	0
 2872 01aa 00       		.byte	0
 2873 01ab 25       		.uleb128 0x25
 2874 01ac 05       		.uleb128 0x5
 2875 01ad 00       		.byte	0
 2876 01ae 31       		.uleb128 0x31
 2877 01af 13       		.uleb128 0x13
 2878 01b0 00       		.byte	0
 2879 01b1 00       		.byte	0
 2880 01b2 26       		.uleb128 0x26
 2881 01b3 898201   		.uleb128 0x4109
 2882 01b6 01       		.byte	0x1
 2883 01b7 11       		.uleb128 0x11
 2884 01b8 01       		.uleb128 0x1
 2885 01b9 31       		.uleb128 0x31
 2886 01ba 13       		.uleb128 0x13
 2887 01bb 00       		.byte	0
 2888 01bc 00       		.byte	0
 2889 01bd 27       		.uleb128 0x27
 2890 01be 8A8201   		.uleb128 0x410a
 2891 01c1 00       		.byte	0
 2892 01c2 02       		.uleb128 0x2
 2893 01c3 0A       		.uleb128 0xa
 2894 01c4 9142     		.uleb128 0x2111
 2895 01c6 0A       		.uleb128 0xa
 2896 01c7 00       		.byte	0
 2897 01c8 00       		.byte	0
 2898 01c9 28       		.uleb128 0x28
 2899 01ca 2E       		.uleb128 0x2e
 2900 01cb 01       		.byte	0x1
 2901 01cc 3F       		.uleb128 0x3f
 2902 01cd 0C       		.uleb128 0xc
 2903 01ce 03       		.uleb128 0x3
 2904 01cf 0E       		.uleb128 0xe
 2905 01d0 3A       		.uleb128 0x3a
 2906 01d1 0B       		.uleb128 0xb
 2907 01d2 3B       		.uleb128 0x3b
 2908 01d3 0B       		.uleb128 0xb
 2909 01d4 27       		.uleb128 0x27
 2910 01d5 0C       		.uleb128 0xc
 2911 01d6 11       		.uleb128 0x11
 2912 01d7 01       		.uleb128 0x1
 2913 01d8 12       		.uleb128 0x12
 2914 01d9 01       		.uleb128 0x1
 2915 01da 40       		.uleb128 0x40
 2916 01db 06       		.uleb128 0x6
 2917 01dc 9742     		.uleb128 0x2117
 2918 01de 0C       		.uleb128 0xc
 2919 01df 01       		.uleb128 0x1
 2920 01e0 13       		.uleb128 0x13
ARM GAS  /tmp/ccq6zppQ.s 			page 53


 2921 01e1 00       		.byte	0
 2922 01e2 00       		.byte	0
 2923 01e3 29       		.uleb128 0x29
 2924 01e4 05       		.uleb128 0x5
 2925 01e5 00       		.byte	0
 2926 01e6 03       		.uleb128 0x3
 2927 01e7 0E       		.uleb128 0xe
 2928 01e8 3A       		.uleb128 0x3a
 2929 01e9 0B       		.uleb128 0xb
 2930 01ea 3B       		.uleb128 0x3b
 2931 01eb 0B       		.uleb128 0xb
 2932 01ec 49       		.uleb128 0x49
 2933 01ed 13       		.uleb128 0x13
 2934 01ee 02       		.uleb128 0x2
 2935 01ef 06       		.uleb128 0x6
 2936 01f0 00       		.byte	0
 2937 01f1 00       		.byte	0
 2938 01f2 2A       		.uleb128 0x2a
 2939 01f3 34       		.uleb128 0x34
 2940 01f4 00       		.byte	0
 2941 01f5 03       		.uleb128 0x3
 2942 01f6 08       		.uleb128 0x8
 2943 01f7 3A       		.uleb128 0x3a
 2944 01f8 0B       		.uleb128 0xb
 2945 01f9 3B       		.uleb128 0x3b
 2946 01fa 0B       		.uleb128 0xb
 2947 01fb 49       		.uleb128 0x49
 2948 01fc 13       		.uleb128 0x13
 2949 01fd 02       		.uleb128 0x2
 2950 01fe 06       		.uleb128 0x6
 2951 01ff 00       		.byte	0
 2952 0200 00       		.byte	0
 2953 0201 2B       		.uleb128 0x2b
 2954 0202 898201   		.uleb128 0x4109
 2955 0205 01       		.byte	0x1
 2956 0206 11       		.uleb128 0x11
 2957 0207 01       		.uleb128 0x1
 2958 0208 31       		.uleb128 0x31
 2959 0209 13       		.uleb128 0x13
 2960 020a 01       		.uleb128 0x1
 2961 020b 13       		.uleb128 0x13
 2962 020c 00       		.byte	0
 2963 020d 00       		.byte	0
 2964 020e 2C       		.uleb128 0x2c
 2965 020f 34       		.uleb128 0x34
 2966 0210 00       		.byte	0
 2967 0211 03       		.uleb128 0x3
 2968 0212 0E       		.uleb128 0xe
 2969 0213 3A       		.uleb128 0x3a
 2970 0214 0B       		.uleb128 0xb
 2971 0215 3B       		.uleb128 0x3b
 2972 0216 05       		.uleb128 0x5
 2973 0217 49       		.uleb128 0x49
 2974 0218 13       		.uleb128 0x13
 2975 0219 3F       		.uleb128 0x3f
 2976 021a 0C       		.uleb128 0xc
 2977 021b 3C       		.uleb128 0x3c
ARM GAS  /tmp/ccq6zppQ.s 			page 54


 2978 021c 0C       		.uleb128 0xc
 2979 021d 00       		.byte	0
 2980 021e 00       		.byte	0
 2981 021f 2D       		.uleb128 0x2d
 2982 0220 34       		.uleb128 0x34
 2983 0221 00       		.byte	0
 2984 0222 03       		.uleb128 0x3
 2985 0223 08       		.uleb128 0x8
 2986 0224 3A       		.uleb128 0x3a
 2987 0225 0B       		.uleb128 0xb
 2988 0226 3B       		.uleb128 0x3b
 2989 0227 05       		.uleb128 0x5
 2990 0228 49       		.uleb128 0x49
 2991 0229 13       		.uleb128 0x13
 2992 022a 3F       		.uleb128 0x3f
 2993 022b 0C       		.uleb128 0xc
 2994 022c 3C       		.uleb128 0x3c
 2995 022d 0C       		.uleb128 0xc
 2996 022e 00       		.byte	0
 2997 022f 00       		.byte	0
 2998 0230 2E       		.uleb128 0x2e
 2999 0231 2E       		.uleb128 0x2e
 3000 0232 01       		.byte	0x1
 3001 0233 3F       		.uleb128 0x3f
 3002 0234 0C       		.uleb128 0xc
 3003 0235 03       		.uleb128 0x3
 3004 0236 0E       		.uleb128 0xe
 3005 0237 3A       		.uleb128 0x3a
 3006 0238 0B       		.uleb128 0xb
 3007 0239 3B       		.uleb128 0x3b
 3008 023a 0B       		.uleb128 0xb
 3009 023b 27       		.uleb128 0x27
 3010 023c 0C       		.uleb128 0xc
 3011 023d 3C       		.uleb128 0x3c
 3012 023e 0C       		.uleb128 0xc
 3013 023f 01       		.uleb128 0x1
 3014 0240 13       		.uleb128 0x13
 3015 0241 00       		.byte	0
 3016 0242 00       		.byte	0
 3017 0243 2F       		.uleb128 0x2f
 3018 0244 2E       		.uleb128 0x2e
 3019 0245 01       		.byte	0x1
 3020 0246 3F       		.uleb128 0x3f
 3021 0247 0C       		.uleb128 0xc
 3022 0248 03       		.uleb128 0x3
 3023 0249 0E       		.uleb128 0xe
 3024 024a 3A       		.uleb128 0x3a
 3025 024b 0B       		.uleb128 0xb
 3026 024c 3B       		.uleb128 0x3b
 3027 024d 0B       		.uleb128 0xb
 3028 024e 27       		.uleb128 0x27
 3029 024f 0C       		.uleb128 0xc
 3030 0250 49       		.uleb128 0x49
 3031 0251 13       		.uleb128 0x13
 3032 0252 3C       		.uleb128 0x3c
 3033 0253 0C       		.uleb128 0xc
 3034 0254 01       		.uleb128 0x1
ARM GAS  /tmp/ccq6zppQ.s 			page 55


 3035 0255 13       		.uleb128 0x13
 3036 0256 00       		.byte	0
 3037 0257 00       		.byte	0
 3038 0258 30       		.uleb128 0x30
 3039 0259 2E       		.uleb128 0x2e
 3040 025a 01       		.byte	0x1
 3041 025b 3F       		.uleb128 0x3f
 3042 025c 0C       		.uleb128 0xc
 3043 025d 03       		.uleb128 0x3
 3044 025e 0E       		.uleb128 0xe
 3045 025f 3A       		.uleb128 0x3a
 3046 0260 0B       		.uleb128 0xb
 3047 0261 3B       		.uleb128 0x3b
 3048 0262 05       		.uleb128 0x5
 3049 0263 27       		.uleb128 0x27
 3050 0264 0C       		.uleb128 0xc
 3051 0265 3C       		.uleb128 0x3c
 3052 0266 0C       		.uleb128 0xc
 3053 0267 00       		.byte	0
 3054 0268 00       		.byte	0
 3055 0269 00       		.byte	0
 3056              		.section	.debug_loc,"",%progbits
 3057              	.Ldebug_loc0:
 3058              	.LLST0:
 3059 0000 00000000 		.4byte	.LFB65
 3060 0004 02000000 		.4byte	.LCFI0
 3061 0008 0200     		.2byte	0x2
 3062 000a 7D       		.byte	0x7d
 3063 000b 00       		.sleb128 0
 3064 000c 02000000 		.4byte	.LCFI0
 3065 0010 04000000 		.4byte	.LCFI1
 3066 0014 0200     		.2byte	0x2
 3067 0016 7D       		.byte	0x7d
 3068 0017 0C       		.sleb128 12
 3069 0018 04000000 		.4byte	.LCFI1
 3070 001c 06000000 		.4byte	.LCFI2
 3071 0020 0200     		.2byte	0x2
 3072 0022 7D       		.byte	0x7d
 3073 0023 10       		.sleb128 16
 3074 0024 06000000 		.4byte	.LCFI2
 3075 0028 26000000 		.4byte	.LFE65
 3076 002c 0200     		.2byte	0x2
 3077 002e 7D       		.byte	0x7d
 3078 002f 18       		.sleb128 24
 3079 0030 00000000 		.4byte	0
 3080 0034 00000000 		.4byte	0
 3081              	.LLST1:
 3082 0038 00000000 		.4byte	.LVL0
 3083 003c 10000000 		.4byte	.LVL1
 3084 0040 0100     		.2byte	0x1
 3085 0042 50       		.byte	0x50
 3086 0043 10000000 		.4byte	.LVL1
 3087 0047 26000000 		.4byte	.LFE65
 3088 004b 0400     		.2byte	0x4
 3089 004d F3       		.byte	0xf3
 3090 004e 01       		.uleb128 0x1
 3091 004f 50       		.byte	0x50
ARM GAS  /tmp/ccq6zppQ.s 			page 56


 3092 0050 9F       		.byte	0x9f
 3093 0051 00000000 		.4byte	0
 3094 0055 00000000 		.4byte	0
 3095              	.LLST2:
 3096 0059 00000000 		.4byte	.LFB64
 3097 005d 02000000 		.4byte	.LCFI3
 3098 0061 0200     		.2byte	0x2
 3099 0063 7D       		.byte	0x7d
 3100 0064 00       		.sleb128 0
 3101 0065 02000000 		.4byte	.LCFI3
 3102 0069 F4000000 		.4byte	.LFE64
 3103 006d 0200     		.2byte	0x2
 3104 006f 7D       		.byte	0x7d
 3105 0070 08       		.sleb128 8
 3106 0071 00000000 		.4byte	0
 3107 0075 00000000 		.4byte	0
 3108              	.LLST3:
 3109 0079 00000000 		.4byte	.LVL3
 3110 007d 08000000 		.4byte	.LVL4
 3111 0081 0100     		.2byte	0x1
 3112 0083 50       		.byte	0x50
 3113 0084 08000000 		.4byte	.LVL4
 3114 0088 F4000000 		.4byte	.LFE64
 3115 008c 0100     		.2byte	0x1
 3116 008e 54       		.byte	0x54
 3117 008f 00000000 		.4byte	0
 3118 0093 00000000 		.4byte	0
 3119              	.LLST4:
 3120 0097 12000000 		.4byte	.LVL6
 3121 009b 14000000 		.4byte	.LVL7
 3122 009f 0100     		.2byte	0x1
 3123 00a1 50       		.byte	0x50
 3124 00a2 14000000 		.4byte	.LVL7
 3125 00a6 5E000000 		.4byte	.LVL8
 3126 00aa 0300     		.2byte	0x3
 3127 00ac 70       		.byte	0x70
 3128 00ad 01       		.sleb128 1
 3129 00ae 9F       		.byte	0x9f
 3130 00af 7E000000 		.4byte	.LVL13
 3131 00b3 80000000 		.4byte	.LVL14
 3132 00b7 0300     		.2byte	0x3
 3133 00b9 70       		.byte	0x70
 3134 00ba 01       		.sleb128 1
 3135 00bb 9F       		.byte	0x9f
 3136 00bc 88000000 		.4byte	.LVL16
 3137 00c0 8A000000 		.4byte	.LVL17
 3138 00c4 0300     		.2byte	0x3
 3139 00c6 70       		.byte	0x70
 3140 00c7 01       		.sleb128 1
 3141 00c8 9F       		.byte	0x9f
 3142 00c9 92000000 		.4byte	.LVL19
 3143 00cd 94000000 		.4byte	.LVL20
 3144 00d1 0300     		.2byte	0x3
 3145 00d3 70       		.byte	0x70
 3146 00d4 01       		.sleb128 1
 3147 00d5 9F       		.byte	0x9f
 3148 00d6 9C000000 		.4byte	.LVL22
ARM GAS  /tmp/ccq6zppQ.s 			page 57


 3149 00da 9E000000 		.4byte	.LVL23
 3150 00de 0300     		.2byte	0x3
 3151 00e0 70       		.byte	0x70
 3152 00e1 01       		.sleb128 1
 3153 00e2 9F       		.byte	0x9f
 3154 00e3 A6000000 		.4byte	.LVL25
 3155 00e7 A8000000 		.4byte	.LVL26
 3156 00eb 0300     		.2byte	0x3
 3157 00ed 70       		.byte	0x70
 3158 00ee 01       		.sleb128 1
 3159 00ef 9F       		.byte	0x9f
 3160 00f0 B0000000 		.4byte	.LVL28
 3161 00f4 B2000000 		.4byte	.LVL29
 3162 00f8 0300     		.2byte	0x3
 3163 00fa 70       		.byte	0x70
 3164 00fb 01       		.sleb128 1
 3165 00fc 9F       		.byte	0x9f
 3166 00fd BA000000 		.4byte	.LVL31
 3167 0101 BC000000 		.4byte	.LVL32
 3168 0105 0300     		.2byte	0x3
 3169 0107 70       		.byte	0x70
 3170 0108 01       		.sleb128 1
 3171 0109 9F       		.byte	0x9f
 3172 010a 00000000 		.4byte	0
 3173 010e 00000000 		.4byte	0
 3174              		.section	.debug_aranges,"",%progbits
 3175 0000 24000000 		.4byte	0x24
 3176 0004 0200     		.2byte	0x2
 3177 0006 00000000 		.4byte	.Ldebug_info0
 3178 000a 04       		.byte	0x4
 3179 000b 00       		.byte	0
 3180 000c 0000     		.2byte	0
 3181 000e 0000     		.2byte	0
 3182 0010 00000000 		.4byte	.LFB65
 3183 0014 26000000 		.4byte	.LFE65-.LFB65
 3184 0018 00000000 		.4byte	.LFB64
 3185 001c F4000000 		.4byte	.LFE64-.LFB64
 3186 0020 00000000 		.4byte	0
 3187 0024 00000000 		.4byte	0
 3188              		.section	.debug_ranges,"",%progbits
 3189              	.Ldebug_ranges0:
 3190 0000 00000000 		.4byte	.LFB65
 3191 0004 26000000 		.4byte	.LFE65
 3192 0008 00000000 		.4byte	.LFB64
 3193 000c F4000000 		.4byte	.LFE64
 3194 0010 00000000 		.4byte	0
 3195 0014 00000000 		.4byte	0
 3196              		.section	.debug_line,"",%progbits
 3197              	.Ldebug_line0:
 3198 0000 EC020000 		.section	.debug_str,"MS",%progbits,1
 3198      0200A502 
 3198      00000201 
 3198      FB0E0D00 
 3198      01010101 
 3199              	.LASF146:
 3200 0000 646D6172 		.ascii	"dmarx\000"
 3200      7800
ARM GAS  /tmp/ccq6zppQ.s 			page 58


 3201              	.LASF132:
 3202 0006 69326364 		.ascii	"i2cdutycycle_t\000"
 3202      75747963 
 3202      79636C65 
 3202      5F7400
 3203              	.LASF122:
 3204 0015 69326373 		.ascii	"i2cstate_t\000"
 3204      74617465 
 3204      5F7400
 3205              	.LASF2:
 3206 0020 73697A65 		.ascii	"size_t\000"
 3206      5F7400
 3207              	.LASF88:
 3208 0027 444D415F 		.ascii	"DMA_Channel_TypeDef\000"
 3208      4368616E 
 3208      6E656C5F 
 3208      54797065 
 3208      44656600 
 3209              	.LASF64:
 3210 003b 7264796D 		.ascii	"rdymsg\000"
 3210      736700
 3211              	.LASF13:
 3212 0042 75696E74 		.ascii	"uint64_t\000"
 3212      36345F74 
 3212      00
 3213              	.LASF80:
 3214 004b 4F757470 		.ascii	"OutputQueue\000"
 3214      75745175 
 3214      65756500 
 3215              	.LASF161:
 3216 0057 76615F6C 		.ascii	"va_list\000"
 3216      69737400 
 3217              	.LASF99:
 3218 005f 54524953 		.ascii	"TRISE\000"
 3218      4500
 3219              	.LASF14:
 3220 0065 6C6F6E67 		.ascii	"long long unsigned int\000"
 3220      206C6F6E 
 3220      6720756E 
 3220      7369676E 
 3220      65642069 
 3221              	.LASF110:
 3222 007c 42617365 		.ascii	"BaseChannelVMT\000"
 3222      4368616E 
 3222      6E656C56 
 3222      4D5400
 3223              	.LASF143:
 3224 008b 61646472 		.ascii	"addr\000"
 3224      00
 3225              	.LASF167:
 3226 0090 69326347 		.ascii	"i2cGetErr\000"
 3226      65744572 
 3226      7200
 3227              	.LASF65:
 3228 009a 65786974 		.ascii	"exitcode\000"
 3228      636F6465 
 3228      00
ARM GAS  /tmp/ccq6zppQ.s 			page 59


 3229              	.LASF108:
 3230 00a3 76656374 		.ascii	"vector\000"
 3230      6F7200
 3231              	.LASF162:
 3232 00aa 49544D5F 		.ascii	"ITM_RxBuffer\000"
 3232      52784275 
 3232      66666572 
 3232      00
 3233              	.LASF54:
 3234 00b7 6D5F7175 		.ascii	"m_queue\000"
 3234      65756500 
 3235              	.LASF28:
 3236 00bf 705F7072 		.ascii	"p_prio\000"
 3236      696F00
 3237              	.LASF114:
 3238 00c6 72656164 		.ascii	"readt\000"
 3238      7400
 3239              	.LASF70:
 3240 00cc 715F7761 		.ascii	"q_waiting\000"
 3240      6974696E 
 3240      6700
 3241              	.LASF12:
 3242 00d6 6C6F6E67 		.ascii	"long long int\000"
 3242      206C6F6E 
 3242      6720696E 
 3242      7400
 3243              	.LASF1:
 3244 00e4 7369676E 		.ascii	"signed char\000"
 3244      65642063 
 3244      68617200 
 3245              	.LASF134:
 3246 00f0 636C6F63 		.ascii	"clock_speed\000"
 3246      6B5F7370 
 3246      65656400 
 3247              	.LASF102:
 3248 00fc 47545052 		.ascii	"GTPR\000"
 3248      00
 3249              	.LASF45:
 3250 0101 705F6D70 		.ascii	"p_mpool\000"
 3250      6F6F6C00 
 3251              	.LASF19:
 3252 0109 74736C69 		.ascii	"tslices_t\000"
 3252      6365735F 
 3252      7400
 3253              	.LASF163:
 3254 0113 474E5520 		.ascii	"GNU C 4.7.4 20130913 (release) [ARM/embedded-4_7-br"
 3254      4320342E 
 3254      372E3420 
 3254      32303133 
 3254      30393133 
 3255 0146 616E6368 		.ascii	"anch revision 202601]\000"
 3255      20726576 
 3255      6973696F 
 3255      6E203230 
 3255      32363031 
 3256              	.LASF123:
 3257 015c 69326361 		.ascii	"i2caddr_t\000"
ARM GAS  /tmp/ccq6zppQ.s 			page 60


 3257      6464725F 
 3257      7400
 3258              	.LASF138:
 3259 0166 73746174 		.ascii	"state\000"
 3259      6500
 3260              	.LASF9:
 3261 016c 6C6F6E67 		.ascii	"long int\000"
 3261      20696E74 
 3261      00
 3262              	.LASF17:
 3263 0175 74737461 		.ascii	"tstate_t\000"
 3263      74655F74 
 3263      00
 3264              	.LASF159:
 3265 017e 5F5F7661 		.ascii	"__va_list\000"
 3265      5F6C6973 
 3265      7400
 3266              	.LASF142:
 3267 0188 74687265 		.ascii	"thread\000"
 3267      616400
 3268              	.LASF36:
 3269 018f 705F7265 		.ascii	"p_refs\000"
 3269      667300
 3270              	.LASF72:
 3271 0196 715F6275 		.ascii	"q_buffer\000"
 3271      66666572 
 3271      00
 3272              	.LASF74:
 3273 019f 715F7772 		.ascii	"q_wrptr\000"
 3273      70747200 
 3274              	.LASF38:
 3275 01a7 705F7469 		.ascii	"p_time\000"
 3275      6D6500
 3276              	.LASF119:
 3277 01ae 4932435F 		.ascii	"I2C_ACTIVE_TX\000"
 3277      41435449 
 3277      56455F54 
 3277      5800
 3278              	.LASF30:
 3279 01bc 705F6E65 		.ascii	"p_newer\000"
 3279      77657200 
 3280              	.LASF144:
 3281 01c4 7278646D 		.ascii	"rxdmamode\000"
 3281      616D6F64 
 3281      6500
 3282              	.LASF147:
 3283 01ce 646D6174 		.ascii	"dmatx\000"
 3283      7800
 3284              	.LASF127:
 3285 01d4 4F504D4F 		.ascii	"OPMODE_SMBUS_HOST\000"
 3285      44455F53 
 3285      4D425553 
 3285      5F484F53 
 3285      5400
 3286              	.LASF48:
 3287 01e6 72656761 		.ascii	"regarm_t\000"
 3287      726D5F74 
ARM GAS  /tmp/ccq6zppQ.s 			page 61


 3287      00
 3288              	.LASF107:
 3289 01ef 73656C66 		.ascii	"selfindex\000"
 3289      696E6465 
 3289      7800
 3290              	.LASF133:
 3291 01f9 6F705F6D 		.ascii	"op_mode\000"
 3291      6F646500 
 3292              	.LASF25:
 3293 0201 54687265 		.ascii	"Thread\000"
 3293      616400
 3294              	.LASF62:
 3295 0208 4576656E 		.ascii	"EventSource\000"
 3295      74536F75 
 3295      72636500 
 3296              	.LASF84:
 3297 0214 42617365 		.ascii	"BaseSequentialStream\000"
 3297      53657175 
 3297      656E7469 
 3297      616C5374 
 3297      7265616D 
 3298              	.LASF156:
 3299 0229 75736172 		.ascii	"usart\000"
 3299      7400
 3300              	.LASF0:
 3301 022f 756E7369 		.ascii	"unsigned int\000"
 3301      676E6564 
 3301      20696E74 
 3301      00
 3302              	.LASF6:
 3303 023c 75696E74 		.ascii	"uint16_t\000"
 3303      31365F74 
 3303      00
 3304              	.LASF157:
 3305 0245 53657269 		.ascii	"SerialDriverVMT\000"
 3305      616C4472 
 3305      69766572 
 3305      564D5400 
 3306              	.LASF86:
 3307 0255 43504152 		.ascii	"CPAR\000"
 3307      00
 3308              	.LASF154:
 3309 025a 69717565 		.ascii	"iqueue\000"
 3309      756500
 3310              	.LASF40:
 3311 0261 705F6D73 		.ascii	"p_msgqueue\000"
 3311      67717565 
 3311      756500
 3312              	.LASF112:
 3313 026c 67657474 		.ascii	"gett\000"
 3313      00
 3314              	.LASF106:
 3315 0271 69736869 		.ascii	"ishift\000"
 3315      667400
 3316              	.LASF153:
 3317 0278 6576656E 		.ascii	"event\000"
 3317      7400
ARM GAS  /tmp/ccq6zppQ.s 			page 62


 3318              	.LASF126:
 3319 027e 4F504D4F 		.ascii	"OPMODE_SMBUS_DEVICE\000"
 3319      44455F53 
 3319      4D425553 
 3319      5F444556 
 3319      49434500 
 3320              	.LASF7:
 3321 0292 73686F72 		.ascii	"short unsigned int\000"
 3321      7420756E 
 3321      7369676E 
 3321      65642069 
 3321      6E7400
 3322              	.LASF137:
 3323 02a5 49324344 		.ascii	"I2CDriver\000"
 3323      72697665 
 3323      7200
 3324              	.LASF21:
 3325 02af 6D73675F 		.ascii	"msg_t\000"
 3325      7400
 3326              	.LASF155:
 3327 02b5 6F717565 		.ascii	"oqueue\000"
 3327      756500
 3328              	.LASF103:
 3329 02bc 55534152 		.ascii	"USART_TypeDef\000"
 3329      545F5479 
 3329      70654465 
 3329      6600
 3330              	.LASF113:
 3331 02ca 77726974 		.ascii	"writet\000"
 3331      657400
 3332              	.LASF16:
 3333 02d1 746D6F64 		.ascii	"tmode_t\000"
 3333      655F7400 
 3334              	.LASF47:
 3335 02d9 54687265 		.ascii	"ThreadsList\000"
 3335      6164734C 
 3335      69737400 
 3336              	.LASF22:
 3337 02e5 6576656E 		.ascii	"eventmask_t\000"
 3337      746D6173 
 3337      6B5F7400 
 3338              	.LASF5:
 3339 02f1 73686F72 		.ascii	"short int\000"
 3339      7420696E 
 3339      7400
 3340              	.LASF78:
 3341 02fb 716E6F74 		.ascii	"qnotify_t\000"
 3341      6966795F 
 3341      7400
 3342              	.LASF69:
 3343 0305 47656E65 		.ascii	"GenericQueue\000"
 3343      72696351 
 3343      75657565 
 3343      00
 3344              	.LASF49:
 3345 0312 73746B61 		.ascii	"stkalign_t\000"
 3345      6C69676E 
ARM GAS  /tmp/ccq6zppQ.s 			page 63


 3345      5F7400
 3346              	.LASF82:
 3347 031d 77726974 		.ascii	"write\000"
 3347      6500
 3348              	.LASF111:
 3349 0323 70757474 		.ascii	"putt\000"
 3349      00
 3350              	.LASF117:
 3351 0328 4932435F 		.ascii	"I2C_STOP\000"
 3351      53544F50 
 3351      00
 3352              	.LASF52:
 3353 0331 73697A65 		.ascii	"sizetype\000"
 3353      74797065 
 3353      00
 3354              	.LASF71:
 3355 033a 715F636F 		.ascii	"q_counter\000"
 3355      756E7465 
 3355      7200
 3356              	.LASF164:
 3357 0344 69326347 		.ascii	"i2cGetErr.c\000"
 3357      65744572 
 3357      722E6300 
 3358              	.LASF53:
 3359 0350 4D757465 		.ascii	"Mutex\000"
 3359      7800
 3360              	.LASF140:
 3361 0356 6572726F 		.ascii	"errors\000"
 3361      727300
 3362              	.LASF135:
 3363 035d 64757479 		.ascii	"duty_cycle\000"
 3363      5F637963 
 3363      6C6500
 3364              	.LASF158:
 3365 0368 5F5F676E 		.ascii	"__gnuc_va_list\000"
 3365      75635F76 
 3365      615F6C69 
 3365      737400
 3366              	.LASF60:
 3367 0377 656C5F6D 		.ascii	"el_mask\000"
 3367      61736B00 
 3368              	.LASF31:
 3369 037f 705F6F6C 		.ascii	"p_older\000"
 3369      64657200 
 3370              	.LASF136:
 3371 0387 49324343 		.ascii	"I2CConfig\000"
 3371      6F6E6669 
 3371      6700
 3372              	.LASF46:
 3373 0391 54687265 		.ascii	"ThreadsQueue\000"
 3373      61647351 
 3373      75657565 
 3373      00
 3374              	.LASF145:
 3375 039e 7478646D 		.ascii	"txdmamode\000"
 3375      616D6F64 
 3375      6500
ARM GAS  /tmp/ccq6zppQ.s 			page 64


 3376              	.LASF129:
 3377 03a8 5354445F 		.ascii	"STD_DUTY_CYCLE\000"
 3377      44555459 
 3377      5F435943 
 3377      4C4500
 3378              	.LASF33:
 3379 03b7 705F7374 		.ascii	"p_stklimit\000"
 3379      6B6C696D 
 3379      697400
 3380              	.LASF125:
 3381 03c2 4F504D4F 		.ascii	"OPMODE_I2C\000"
 3381      44455F49 
 3381      324300
 3382              	.LASF131:
 3383 03cd 46415354 		.ascii	"FAST_DUTY_CYCLE_16_9\000"
 3383      5F445554 
 3383      595F4359 
 3383      434C455F 
 3383      31365F39 
 3384              	.LASF171:
 3385 03e2 63685468 		.ascii	"chThdSleep\000"
 3385      64536C65 
 3385      657000
 3386              	.LASF105:
 3387 03ed 69666372 		.ascii	"ifcr\000"
 3387      00
 3388              	.LASF18:
 3389 03f2 74726566 		.ascii	"trefs_t\000"
 3389      735F7400 
 3390              	.LASF89:
 3391 03fa 52455345 		.ascii	"RESERVED0\000"
 3391      52564544 
 3391      3000
 3392              	.LASF90:
 3393 0404 52455345 		.ascii	"RESERVED1\000"
 3393      52564544 
 3393      3100
 3394              	.LASF92:
 3395 040e 52455345 		.ascii	"RESERVED2\000"
 3395      52564544 
 3395      3200
 3396              	.LASF94:
 3397 0418 52455345 		.ascii	"RESERVED3\000"
 3397      52564544 
 3397      3300
 3398              	.LASF95:
 3399 0422 52455345 		.ascii	"RESERVED4\000"
 3399      52564544 
 3399      3400
 3400              	.LASF27:
 3401 042c 705F7072 		.ascii	"p_prev\000"
 3401      657600
 3402              	.LASF97:
 3403 0433 52455345 		.ascii	"RESERVED6\000"
 3403      52564544 
 3403      3600
 3404              	.LASF98:
ARM GAS  /tmp/ccq6zppQ.s 			page 65


 3405 043d 52455345 		.ascii	"RESERVED7\000"
 3405      52564544 
 3405      3700
 3406              	.LASF100:
 3407 0447 52455345 		.ascii	"RESERVED8\000"
 3407      52564544 
 3407      3800
 3408              	.LASF20:
 3409 0451 74707269 		.ascii	"tprio_t\000"
 3409      6F5F7400 
 3410              	.LASF75:
 3411 0459 715F7264 		.ascii	"q_rdptr\000"
 3411      70747200 
 3412              	.LASF124:
 3413 0461 69326366 		.ascii	"i2cflags_t\000"
 3413      6C616773 
 3413      5F7400
 3414              	.LASF141:
 3415 046c 6D757465 		.ascii	"mutex\000"
 3415      7800
 3416              	.LASF15:
 3417 0472 5F426F6F 		.ascii	"_Bool\000"
 3417      6C00
 3418              	.LASF8:
 3419 0478 696E7433 		.ascii	"int32_t\000"
 3419      325F7400 
 3420              	.LASF4:
 3421 0480 756E7369 		.ascii	"unsigned char\000"
 3421      676E6564 
 3421      20636861 
 3421      7200
 3422              	.LASF109:
 3423 048e 73746D33 		.ascii	"stm32_dma_stream_t\000"
 3423      325F646D 
 3423      615F7374 
 3423      7265616D 
 3423      5F7400
 3424              	.LASF59:
 3425 04a1 656C5F6C 		.ascii	"el_listener\000"
 3425      69737465 
 3425      6E657200 
 3426              	.LASF61:
 3427 04ad 656C5F66 		.ascii	"el_flags\000"
 3427      6C616773 
 3427      00
 3428              	.LASF43:
 3429 04b6 705F6D74 		.ascii	"p_mtxlist\000"
 3429      786C6973 
 3429      7400
 3430              	.LASF116:
 3431 04c0 4932435F 		.ascii	"I2C_UNINIT\000"
 3431      554E494E 
 3431      495400
 3432              	.LASF34:
 3433 04cb 705F7374 		.ascii	"p_state\000"
 3433      61746500 
 3434              	.LASF37:
ARM GAS  /tmp/ccq6zppQ.s 			page 66


 3435 04d3 705F7072 		.ascii	"p_preempt\000"
 3435      65656D70 
 3435      7400
 3436              	.LASF170:
 3437 04dd 69326347 		.ascii	"i2cGetErrors\000"
 3437      65744572 
 3437      726F7273 
 3437      00
 3438              	.LASF67:
 3439 04ea 65776D61 		.ascii	"ewmask\000"
 3439      736B00
 3440              	.LASF26:
 3441 04f1 705F6E65 		.ascii	"p_next\000"
 3441      787400
 3442              	.LASF81:
 3443 04f8 42617365 		.ascii	"BaseSequentialStreamVMT\000"
 3443      53657175 
 3443      656E7469 
 3443      616C5374 
 3443      7265616D 
 3444              	.LASF35:
 3445 0510 705F666C 		.ascii	"p_flags\000"
 3445      61677300 
 3446              	.LASF58:
 3447 0518 656C5F6E 		.ascii	"el_next\000"
 3447      65787400 
 3448              	.LASF149:
 3449 0520 53445F53 		.ascii	"SD_STOP\000"
 3449      544F5000 
 3450              	.LASF130:
 3451 0528 46415354 		.ascii	"FAST_DUTY_CYCLE_2\000"
 3451      5F445554 
 3451      595F4359 
 3451      434C455F 
 3451      3200
 3452              	.LASF104:
 3453 053a 6368616E 		.ascii	"channel\000"
 3453      6E656C00 
 3454              	.LASF121:
 3455 0542 4932435F 		.ascii	"I2C_LOCKED\000"
 3455      4C4F434B 
 3455      454400
 3456              	.LASF42:
 3457 054d 705F6570 		.ascii	"p_epending\000"
 3457      656E6469 
 3457      6E6700
 3458              	.LASF148:
 3459 0558 53445F55 		.ascii	"SD_UNINIT\000"
 3459      4E494E49 
 3459      5400
 3460              	.LASF96:
 3461 0562 52455345 		.ascii	"RESERVED5\000"
 3461      52564544 
 3461      3500
 3462              	.LASF10:
 3463 056c 75696E74 		.ascii	"uint32_t\000"
 3463      33325F74 
ARM GAS  /tmp/ccq6zppQ.s 			page 67


 3463      00
 3464              	.LASF151:
 3465 0575 73647374 		.ascii	"sdstate_t\000"
 3465      6174655F 
 3465      7400
 3466              	.LASF152:
 3467 057f 53657269 		.ascii	"SerialDriver\000"
 3467      616C4472 
 3467      69766572 
 3467      00
 3468              	.LASF120:
 3469 058c 4932435F 		.ascii	"I2C_ACTIVE_RX\000"
 3469      41435449 
 3469      56455F52 
 3469      5800
 3470              	.LASF11:
 3471 059a 6C6F6E67 		.ascii	"long unsigned int\000"
 3471      20756E73 
 3471      69676E65 
 3471      6420696E 
 3471      7400
 3472              	.LASF83:
 3473 05ac 72656164 		.ascii	"read\000"
 3473      00
 3474              	.LASF68:
 3475 05b1 63686172 		.ascii	"char\000"
 3475      00
 3476              	.LASF139:
 3477 05b6 636F6E66 		.ascii	"config\000"
 3477      696700
 3478              	.LASF56:
 3479 05bd 6D5F6E65 		.ascii	"m_next\000"
 3479      787400
 3480              	.LASF24:
 3481 05c4 73797374 		.ascii	"systime_t\000"
 3481      696D655F 
 3481      7400
 3482              	.LASF44:
 3483 05ce 705F7265 		.ascii	"p_realprio\000"
 3483      616C7072 
 3483      696F00
 3484              	.LASF118:
 3485 05d9 4932435F 		.ascii	"I2C_READY\000"
 3485      52454144 
 3485      5900
 3486              	.LASF160:
 3487 05e3 5F5F6170 		.ascii	"__ap\000"
 3487      00
 3488              	.LASF51:
 3489 05e8 636F6E74 		.ascii	"context\000"
 3489      65787400 
 3490              	.LASF50:
 3491 05f0 696E7463 		.ascii	"intctx\000"
 3491      747800
 3492              	.LASF150:
 3493 05f7 53445F52 		.ascii	"SD_READY\000"
 3493      45414459 
ARM GAS  /tmp/ccq6zppQ.s 			page 68


 3493      00
 3494              	.LASF23:
 3495 0600 666C6167 		.ascii	"flagsmask_t\000"
 3495      736D6173 
 3495      6B5F7400 
 3496              	.LASF73:
 3497 060c 715F746F 		.ascii	"q_top\000"
 3497      7000
 3498              	.LASF32:
 3499 0612 705F6E61 		.ascii	"p_name\000"
 3499      6D6500
 3500              	.LASF63:
 3501 0619 65735F6E 		.ascii	"es_next\000"
 3501      65787400 
 3502              	.LASF85:
 3503 0621 434E4454 		.ascii	"CNDTR\000"
 3503      5200
 3504              	.LASF87:
 3505 0627 434D4152 		.ascii	"CMAR\000"
 3505      00
 3506              	.LASF76:
 3507 062c 715F6E6F 		.ascii	"q_notify\000"
 3507      74696679 
 3507      00
 3508              	.LASF3:
 3509 0635 75696E74 		.ascii	"uint8_t\000"
 3509      385F7400 
 3510              	.LASF165:
 3511 063d 2F686F6D 		.ascii	"/home/ondra6ak/Documents/ARM/mlab-ChibiOS-RT/demos/"
 3511      652F6F6E 
 3511      64726136 
 3511      616B2F44 
 3511      6F63756D 
 3512 0670 6D616744 		.ascii	"magDemo\000"
 3512      656D6F00 
 3513              	.LASF169:
 3514 0678 63687670 		.ascii	"chvprintf\000"
 3514      72696E74 
 3514      6600
 3515              	.LASF79:
 3516 0682 496E7075 		.ascii	"InputQueue\000"
 3516      74517565 
 3516      756500
 3517              	.LASF91:
 3518 068d 4F415231 		.ascii	"OAR1\000"
 3518      00
 3519              	.LASF93:
 3520 0692 4F415232 		.ascii	"OAR2\000"
 3520      00
 3521              	.LASF57:
 3522 0697 4576656E 		.ascii	"EventListener\000"
 3522      744C6973 
 3522      74656E65 
 3522      7200
 3523              	.LASF66:
 3524 06a5 77746F62 		.ascii	"wtobjp\000"
 3524      6A7000
ARM GAS  /tmp/ccq6zppQ.s 			page 69


 3525              	.LASF168:
 3526 06ac 69326344 		.ascii	"i2cDrv\000"
 3526      727600
 3527              	.LASF41:
 3528 06b3 705F6D73 		.ascii	"p_msg\000"
 3528      6700
 3529              	.LASF101:
 3530 06b9 4932435F 		.ascii	"I2C_TypeDef\000"
 3530      54797065 
 3530      44656600 
 3531              	.LASF128:
 3532 06c5 6932636F 		.ascii	"i2copmode_t\000"
 3532      706D6F64 
 3532      655F7400 
 3533              	.LASF115:
 3534 06d1 42617365 		.ascii	"BaseChannel\000"
 3534      4368616E 
 3534      6E656C00 
 3535              	.LASF77:
 3536 06dd 715F6C69 		.ascii	"q_link\000"
 3536      6E6B00
 3537              	.LASF55:
 3538 06e4 6D5F6F77 		.ascii	"m_owner\000"
 3538      6E657200 
 3539              	.LASF29:
 3540 06ec 705F6374 		.ascii	"p_ctx\000"
 3540      7800
 3541              	.LASF39:
 3542 06f2 705F7761 		.ascii	"p_waiting\000"
 3542      6974696E 
 3542      6700
 3543              	.LASF166:
 3544 06fc 63687072 		.ascii	"chprintf\000"
 3544      696E7466 
 3544      00
 3545              		.ident	"GCC: (GNU Tools for ARM Embedded Processors) 4.7.4 20130913 (release) [ARM/embedded-4_7-br
ARM GAS  /tmp/ccq6zppQ.s 			page 70


DEFINED SYMBOLS
                            *ABS*:00000000 i2cGetErr.c
     /tmp/ccq6zppQ.s:19     .text.chprintf.constprop.0:00000000 $t
     /tmp/ccq6zppQ.s:24     .text.chprintf.constprop.0:00000000 chprintf.constprop.0
     /tmp/ccq6zppQ.s:67     .text.i2cGetErr:00000000 $t
     /tmp/ccq6zppQ.s:73     .text.i2cGetErr:00000000 i2cGetErr
     /tmp/ccq6zppQ.s:106    .text.i2cGetErr:0000001c $d
     /tmp/ccq6zppQ.s:170    .text.i2cGetErr:0000005c $t
     /tmp/ccq6zppQ.s:268    .text.i2cGetErr:000000c4 $d
     /tmp/ccq6zppQ.s:284    .rodata.str1.4:00000000 $d
                     .debug_frame:00000010 $d
     /tmp/ccq6zppQ.s:283    .text.i2cGetErr:000000f4 $t

UNDEFINED SYMBOLS
SD2
chvprintf
i2cGetErrors
chThdSleep
