ARM GAS  /tmp/ccUb367S.s 			page 1


   1              		.syntax unified
   2              		.cpu cortex-m3
   3              		.fpu softvfp
   4              		.eabi_attribute 20, 1
   5              		.eabi_attribute 21, 1
   6              		.eabi_attribute 23, 3
   7              		.eabi_attribute 24, 1
   8              		.eabi_attribute 25, 1
   9              		.eabi_attribute 26, 1
  10              		.eabi_attribute 30, 2
  11              		.eabi_attribute 34, 1
  12              		.eabi_attribute 18, 4
  13              		.thumb
  14              		.file	"MAG01A.c"
  15              		.text
  16              	.Ltext0:
  17              		.cfi_sections	.debug_frame
  18              		.section	.text.magInit,"ax",%progbits
  19              		.align	2
  20              		.p2align 4,,15
  21              		.global	magInit
  22              		.thumb
  23              		.thumb_func
  24              		.type	magInit, %function
  25              	magInit:
  26              	.LFB64:
  27              		.file 1 "MAG01A.c"
  28              		.loc 1 9 0
  29              		.cfi_startproc
  30              		@ args = 0, pretend = 0, frame = 8
  31              		@ frame_needed = 0, uses_anonymous_args = 0
  32              	.LVL0:
  33 0000 F0B5     		push	{r4, r5, r6, r7, lr}
  34              	.LCFI0:
  35              		.cfi_def_cfa_offset 20
  36              		.cfi_offset 4, -20
  37              		.cfi_offset 5, -16
  38              		.cfi_offset 6, -12
  39              		.cfi_offset 7, -8
  40              		.cfi_offset 14, -4
  41              		.loc 1 15 0
  42 0002 F823     		movs	r3, #248
  43              		.loc 1 9 0
  44 0004 87B0     		sub	sp, sp, #28
  45              	.LCFI1:
  46              		.cfi_def_cfa_offset 48
  47              		.loc 1 14 0
  48 0006 0026     		movs	r6, #0
  49              		.loc 1 9 0
  50 0008 0446     		mov	r4, r0
  51 000a 0D46     		mov	r5, r1
  52              		.loc 1 15 0
  53 000c 8DF81130 		strb	r3, [sp, #17]
  54              		.loc 1 14 0
  55 0010 8DF81060 		strb	r6, [sp, #16]
  56              		.loc 1 16 0
  57 0014 FFF7FEFF 		bl	i2cAcquireBus
ARM GAS  /tmp/ccUb367S.s 			page 2


  58              	.LVL1:
  59              		.loc 1 17 0
  60 0018 0420     		movs	r0, #4
  61 001a 2946     		mov	r1, r5
  62 001c 04AA     		add	r2, sp, #16
  63 001e 0223     		movs	r3, #2
  64 0020 0290     		str	r0, [sp, #8]
  65 0022 0096     		str	r6, [sp, #0]
  66 0024 0196     		str	r6, [sp, #4]
  67 0026 2046     		mov	r0, r4
  68 0028 FFF7FEFF 		bl	i2cMasterTransmitTimeout
  69              	.LVL2:
  70 002c 0746     		mov	r7, r0
  71              	.LVL3:
  72              		.loc 1 18 0
  73 002e 2046     		mov	r0, r4
  74              	.LVL4:
  75 0030 FFF7FEFF 		bl	i2cReleaseBus
  76              	.LVL5:
  77              		.loc 1 19 0
  78 0034 0520     		movs	r0, #5
  79 0036 FFF7FEFF 		bl	chThdSleep
  80              	.LVL6:
  81              		.loc 1 20 0
  82 003a 002F     		cmp	r7, #0
  83 003c 3FD1     		bne	.L15
  84              	.L2:
  85              		.loc 1 23 0
  86 003e 0121     		movs	r1, #1
  87              		.loc 1 24 0
  88 0040 2022     		movs	r2, #32
  89              		.loc 1 25 0
  90 0042 2046     		mov	r0, r4
  91              		.loc 1 23 0
  92 0044 8DF81010 		strb	r1, [sp, #16]
  93              		.loc 1 24 0
  94 0048 8DF81120 		strb	r2, [sp, #17]
  95              		.loc 1 26 0
  96 004c 0026     		movs	r6, #0
  97              		.loc 1 25 0
  98 004e FFF7FEFF 		bl	i2cAcquireBus
  99              	.LVL7:
 100              		.loc 1 26 0
 101 0052 0420     		movs	r0, #4
 102 0054 2946     		mov	r1, r5
 103 0056 04AA     		add	r2, sp, #16
 104 0058 0223     		movs	r3, #2
 105 005a 0290     		str	r0, [sp, #8]
 106 005c 0096     		str	r6, [sp, #0]
 107 005e 0196     		str	r6, [sp, #4]
 108 0060 2046     		mov	r0, r4
 109 0062 FFF7FEFF 		bl	i2cMasterTransmitTimeout
 110              	.LVL8:
 111 0066 0746     		mov	r7, r0
 112              	.LVL9:
 113              		.loc 1 27 0
 114 0068 2046     		mov	r0, r4
ARM GAS  /tmp/ccUb367S.s 			page 3


 115              	.LVL10:
 116 006a FFF7FEFF 		bl	i2cReleaseBus
 117              	.LVL11:
 118              		.loc 1 28 0
 119 006e 0520     		movs	r0, #5
 120 0070 FFF7FEFF 		bl	chThdSleep
 121              	.LVL12:
 122              		.loc 1 29 0
 123 0074 FFB9     		cbnz	r7, .L16
 124              	.L3:
 125              		.loc 1 34 0
 126 0076 0026     		movs	r6, #0
 127              		.loc 1 33 0
 128 0078 0227     		movs	r7, #2
 129              	.LVL13:
 130              		.loc 1 35 0
 131 007a 2046     		mov	r0, r4
 132              		.loc 1 33 0
 133 007c 8DF81070 		strb	r7, [sp, #16]
 134              		.loc 1 34 0
 135 0080 8DF81160 		strb	r6, [sp, #17]
 136              		.loc 1 35 0
 137 0084 FFF7FEFF 		bl	i2cAcquireBus
 138              	.LVL14:
 139              		.loc 1 36 0
 140 0088 2946     		mov	r1, r5
 141 008a 0425     		movs	r5, #4
 142 008c 04AA     		add	r2, sp, #16
 143 008e 3B46     		mov	r3, r7
 144 0090 0295     		str	r5, [sp, #8]
 145 0092 0096     		str	r6, [sp, #0]
 146 0094 0196     		str	r6, [sp, #4]
 147 0096 2046     		mov	r0, r4
 148 0098 FFF7FEFF 		bl	i2cMasterTransmitTimeout
 149              	.LVL15:
 150 009c 0546     		mov	r5, r0
 151              	.LVL16:
 152              		.loc 1 37 0
 153 009e 2046     		mov	r0, r4
 154              	.LVL17:
 155 00a0 FFF7FEFF 		bl	i2cReleaseBus
 156              	.LVL18:
 157              		.loc 1 38 0
 158 00a4 0520     		movs	r0, #5
 159 00a6 FFF7FEFF 		bl	chThdSleep
 160              	.LVL19:
 161              		.loc 1 39 0
 162 00aa 15B1     		cbz	r5, .L1
 163              	.LBB2:
 164              		.loc 1 39 0 is_stmt 0 discriminator 1
 165 00ac 2046     		mov	r0, r4
 166 00ae FFF7FEFF 		bl	i2cGetErr
 167              	.LVL20:
 168              	.L1:
 169              	.LBE2:
 170              		.loc 1 41 0 is_stmt 1
 171 00b2 07B0     		add	sp, sp, #28
ARM GAS  /tmp/ccUb367S.s 			page 4


 172 00b4 F0BD     		pop	{r4, r5, r6, r7, pc}
 173              	.LVL21:
 174              	.L16:
 175              	.LBB3:
 176              		.loc 1 29 0 discriminator 1
 177 00b6 2046     		mov	r0, r4
 178 00b8 FFF7FEFF 		bl	i2cGetErr
 179              	.LVL22:
 180 00bc DBE7     		b	.L3
 181              	.L15:
 182              	.LBE3:
 183              	.LBB4:
 184              		.loc 1 20 0 discriminator 1
 185 00be 2046     		mov	r0, r4
 186 00c0 FFF7FEFF 		bl	i2cGetErr
 187              	.LVL23:
 188 00c4 BBE7     		b	.L2
 189              	.LBE4:
 190              		.cfi_endproc
 191              	.LFE64:
 192              		.size	magInit, .-magInit
 193 00c6 00BFAFF3 		.section	.text.magRead,"ax",%progbits
 193      0080AFF3 
 193      0080
 194              		.align	2
 195              		.p2align 4,,15
 196              		.global	magRead
 197              		.thumb
 198              		.thumb_func
 199              		.type	magRead, %function
 200              	magRead:
 201              	.LFB65:
 202              		.loc 1 45 0
 203              		.cfi_startproc
 204              		@ args = 4, pretend = 0, frame = 16
 205              		@ frame_needed = 0, uses_anonymous_args = 0
 206              	.LVL24:
 207 0000 2DE9F041 		push	{r4, r5, r6, r7, r8, lr}
 208              	.LCFI2:
 209              		.cfi_def_cfa_offset 24
 210              		.cfi_offset 4, -24
 211              		.cfi_offset 5, -20
 212              		.cfi_offset 6, -16
 213              		.cfi_offset 7, -12
 214              		.cfi_offset 8, -8
 215              		.cfi_offset 14, -4
 216 0004 88B0     		sub	sp, sp, #32
 217              	.LCFI3:
 218              		.cfi_def_cfa_offset 56
 219              		.loc 1 50 0
 220 0006 08AC     		add	r4, sp, #32
 221              		.loc 1 45 0
 222 0008 1E46     		mov	r6, r3
 223              		.loc 1 50 0
 224 000a 0323     		movs	r3, #3
 225              	.LVL25:
 226              		.loc 1 45 0
ARM GAS  /tmp/ccUb367S.s 			page 5


 227 000c 0546     		mov	r5, r0
 228              		.loc 1 50 0
 229 000e 04F8083D 		strb	r3, [r4, #-8]!
 230              		.loc 1 45 0
 231 0012 8846     		mov	r8, r1
 232 0014 1746     		mov	r7, r2
 233              		.loc 1 51 0
 234 0016 FFF7FEFF 		bl	i2cAcquireBus
 235              	.LVL26:
 236              		.loc 1 52 0
 237 001a 04A8     		add	r0, sp, #16
 238 001c 0621     		movs	r1, #6
 239 001e 0422     		movs	r2, #4
 240 0020 0090     		str	r0, [sp, #0]
 241 0022 0191     		str	r1, [sp, #4]
 242 0024 0292     		str	r2, [sp, #8]
 243 0026 2846     		mov	r0, r5
 244 0028 2246     		mov	r2, r4
 245 002a 4146     		mov	r1, r8
 246 002c 0123     		movs	r3, #1
 247 002e FFF7FEFF 		bl	i2cMasterTransmitTimeout
 248              	.LVL27:
 249 0032 0446     		mov	r4, r0
 250              	.LVL28:
 251              		.loc 1 53 0
 252 0034 2846     		mov	r0, r5
 253              	.LVL29:
 254 0036 FFF7FEFF 		bl	i2cReleaseBus
 255              	.LVL30:
 256              		.loc 1 54 0
 257 003a 14B1     		cbz	r4, .L18
 258              	.LBB5:
 259              		.loc 1 54 0 is_stmt 0 discriminator 1
 260 003c 2846     		mov	r0, r5
 261 003e FFF7FEFF 		bl	i2cGetErr
 262              	.LVL31:
 263              	.L18:
 264              	.LBE5:
 265              		.loc 1 57 0 is_stmt 1
 266 0042 9DF81120 		ldrb	r2, [sp, #17]	@ zero_extendqisi2
 267 0046 9DF81000 		ldrb	r0, [sp, #16]	@ zero_extendqisi2
 268              		.loc 1 59 0
 269 004a 9DF81410 		ldrb	r1, [sp, #20]	@ zero_extendqisi2
 270 004e 9DF81530 		ldrb	r3, [sp, #21]	@ zero_extendqisi2
 271              		.loc 1 57 0
 272 0052 42EA0020 		orr	r0, r2, r0, lsl #8
 273              		.loc 1 59 0
 274 0056 43EA0122 		orr	r2, r3, r1, lsl #8
 275              		.loc 1 57 0
 276 005a 3880     		strh	r0, [r7, #0]	@ movhi
 277              		.loc 1 59 0
 278 005c 3280     		strh	r2, [r6, #0]	@ movhi
 279              		.loc 1 60 0
 280 005e 08B0     		add	sp, sp, #32
 281 0060 BDE8F081 		pop	{r4, r5, r6, r7, r8, pc}
 282              		.cfi_endproc
 283              	.LFE65:
ARM GAS  /tmp/ccUb367S.s 			page 6


 284              		.size	magRead, .-magRead
 285 0064 AFF30080 		.text
 285      AFF30080 
 285      AFF30080 
 286              	.Letext0:
 287              		.file 2 "/usr/bin/../lib/gcc/arm-none-eabi/4.7.4/include/stddef.h"
 288              		.file 3 "/usr/bin/../lib/gcc/arm-none-eabi/4.7.4/../../../../arm-none-eabi/include/stdint.h"
 289              		.file 4 "../../os/ports/GCC/ARMCMx/chtypes.h"
 290              		.file 5 "../../os/kernel/include/chlists.h"
 291              		.file 6 "../../os/kernel/include/chthreads.h"
 292              		.file 7 "../../os/ports/GCC/ARMCMx/chcore_v7m.h"
 293              		.file 8 "../../os/kernel/include/chmtx.h"
 294              		.file 9 "../../os/hal/platforms/STM32F1xx/stm32f10x.h"
 295              		.file 10 "../../os/hal/platforms/STM32F1xx/stm32_dma.h"
 296              		.file 11 "../../os/hal/include/i2c.h"
 297              		.file 12 "../../os/hal/platforms/STM32/I2Cv1/i2c_lld.h"
 298              		.file 13 "../../os/ports/common/ARMCMx/CMSIS/include/core_cm3.h"
 299              		.section	.debug_info,"",%progbits
 300              	.Ldebug_info0:
 301 0000 ED0B0000 		.4byte	0xbed
 302 0004 0200     		.2byte	0x2
 303 0006 00000000 		.4byte	.Ldebug_abbrev0
 304 000a 04       		.byte	0x4
 305 000b 01       		.uleb128 0x1
 306 000c 05010000 		.4byte	.LASF128
 307 0010 01       		.byte	0x1
 308 0011 45040000 		.4byte	.LASF129
 309 0015 06050000 		.4byte	.LASF130
 310 0019 00000000 		.4byte	.Ldebug_ranges0+0
 311 001d 00000000 		.4byte	0
 312 0021 00000000 		.4byte	0
 313 0025 00000000 		.4byte	.Ldebug_line0
 314 0029 02       		.uleb128 0x2
 315 002a 04       		.byte	0x4
 316 002b 05       		.byte	0x5
 317 002c 696E7400 		.ascii	"int\000"
 318 0030 03       		.uleb128 0x3
 319 0031 2F000000 		.4byte	.LASF2
 320 0035 02       		.byte	0x2
 321 0036 D5       		.byte	0xd5
 322 0037 3B000000 		.4byte	0x3b
 323 003b 04       		.uleb128 0x4
 324 003c 04       		.byte	0x4
 325 003d 07       		.byte	0x7
 326 003e E6010000 		.4byte	.LASF0
 327 0042 04       		.uleb128 0x4
 328 0043 01       		.byte	0x1
 329 0044 06       		.byte	0x6
 330 0045 D3000000 		.4byte	.LASF1
 331 0049 03       		.uleb128 0x3
 332 004a FE040000 		.4byte	.LASF3
 333 004e 03       		.byte	0x3
 334 004f 2A       		.byte	0x2a
 335 0050 54000000 		.4byte	0x54
 336 0054 04       		.uleb128 0x4
 337 0055 01       		.byte	0x1
 338 0056 08       		.byte	0x8
ARM GAS  /tmp/ccUb367S.s 			page 7


 339 0057 C2030000 		.4byte	.LASF4
 340 005b 03       		.uleb128 0x3
 341 005c BD000000 		.4byte	.LASF5
 342 0060 03       		.byte	0x3
 343 0061 35       		.byte	0x35
 344 0062 66000000 		.4byte	0x66
 345 0066 04       		.uleb128 0x4
 346 0067 02       		.byte	0x2
 347 0068 05       		.byte	0x5
 348 0069 A8020000 		.4byte	.LASF6
 349 006d 03       		.uleb128 0x3
 350 006e F3010000 		.4byte	.LASF7
 351 0072 03       		.byte	0x3
 352 0073 36       		.byte	0x36
 353 0074 78000000 		.4byte	0x78
 354 0078 04       		.uleb128 0x4
 355 0079 02       		.byte	0x2
 356 007a 07       		.byte	0x7
 357 007b 53020000 		.4byte	.LASF8
 358 007f 03       		.uleb128 0x3
 359 0080 BA030000 		.4byte	.LASF9
 360 0084 03       		.byte	0x3
 361 0085 4F       		.byte	0x4f
 362 0086 8A000000 		.4byte	0x8a
 363 008a 04       		.uleb128 0x4
 364 008b 04       		.byte	0x4
 365 008c 05       		.byte	0x5
 366 008d 5E010000 		.4byte	.LASF10
 367 0091 03       		.uleb128 0x3
 368 0092 68040000 		.4byte	.LASF11
 369 0096 03       		.byte	0x3
 370 0097 50       		.byte	0x50
 371 0098 9C000000 		.4byte	0x9c
 372 009c 04       		.uleb128 0x4
 373 009d 04       		.byte	0x4
 374 009e 07       		.byte	0x7
 375 009f 7F040000 		.4byte	.LASF12
 376 00a3 04       		.uleb128 0x4
 377 00a4 08       		.byte	0x8
 378 00a5 05       		.byte	0x5
 379 00a6 C5000000 		.4byte	.LASF13
 380 00aa 03       		.uleb128 0x3
 381 00ab 3D000000 		.4byte	.LASF14
 382 00af 03       		.byte	0x3
 383 00b0 78       		.byte	0x78
 384 00b1 B5000000 		.4byte	0xb5
 385 00b5 04       		.uleb128 0x4
 386 00b6 08       		.byte	0x8
 387 00b7 07       		.byte	0x7
 388 00b8 4C000000 		.4byte	.LASF15
 389 00bc 04       		.uleb128 0x4
 390 00bd 01       		.byte	0x1
 391 00be 02       		.byte	0x2
 392 00bf B4030000 		.4byte	.LASF16
 393 00c3 03       		.uleb128 0x3
 394 00c4 88020000 		.4byte	.LASF17
 395 00c8 04       		.byte	0x4
ARM GAS  /tmp/ccUb367S.s 			page 8


 396 00c9 25       		.byte	0x25
 397 00ca 49000000 		.4byte	0x49
 398 00ce 03       		.uleb128 0x3
 399 00cf 67010000 		.4byte	.LASF18
 400 00d3 04       		.byte	0x4
 401 00d4 26       		.byte	0x26
 402 00d5 49000000 		.4byte	0x49
 403 00d9 03       		.uleb128 0x3
 404 00da 2E030000 		.4byte	.LASF19
 405 00de 04       		.byte	0x4
 406 00df 27       		.byte	0x27
 407 00e0 49000000 		.4byte	0x49
 408 00e4 03       		.uleb128 0x3
 409 00e5 FB000000 		.4byte	.LASF20
 410 00e9 04       		.byte	0x4
 411 00ea 28       		.byte	0x28
 412 00eb 49000000 		.4byte	0x49
 413 00ef 03       		.uleb128 0x3
 414 00f0 8D030000 		.4byte	.LASF21
 415 00f4 04       		.byte	0x4
 416 00f5 29       		.byte	0x29
 417 00f6 91000000 		.4byte	0x91
 418 00fa 03       		.uleb128 0x3
 419 00fb 82020000 		.4byte	.LASF22
 420 00ff 04       		.byte	0x4
 421 0100 2A       		.byte	0x2a
 422 0101 7F000000 		.4byte	0x7f
 423 0105 03       		.uleb128 0x3
 424 0106 9C020000 		.4byte	.LASF23
 425 010a 04       		.byte	0x4
 426 010b 2C       		.byte	0x2c
 427 010c 91000000 		.4byte	0x91
 428 0110 03       		.uleb128 0x3
 429 0111 AC040000 		.4byte	.LASF24
 430 0115 04       		.byte	0x4
 431 0116 2E       		.byte	0x2e
 432 0117 91000000 		.4byte	0x91
 433 011b 03       		.uleb128 0x3
 434 011c D4010000 		.4byte	.LASF25
 435 0120 05       		.byte	0x5
 436 0121 23       		.byte	0x23
 437 0122 26010000 		.4byte	0x126
 438 0126 05       		.uleb128 0x5
 439 0127 D4010000 		.4byte	.LASF25
 440 012b 4C       		.byte	0x4c
 441 012c 06       		.byte	0x6
 442 012d 57       		.byte	0x57
 443 012e 59020000 		.4byte	0x259
 444 0132 06       		.uleb128 0x6
 445 0133 11040000 		.4byte	.LASF26
 446 0137 06       		.byte	0x6
 447 0138 58       		.byte	0x58
 448 0139 7E020000 		.4byte	0x27e
 449 013d 02       		.byte	0x2
 450 013e 23       		.byte	0x23
 451 013f 00       		.uleb128 0
 452 0140 06       		.uleb128 0x6
ARM GAS  /tmp/ccUb367S.s 			page 9


 453 0141 68030000 		.4byte	.LASF27
 454 0145 06       		.byte	0x6
 455 0146 5A       		.byte	0x5a
 456 0147 7E020000 		.4byte	0x27e
 457 014b 02       		.byte	0x2
 458 014c 23       		.byte	0x23
 459 014d 04       		.uleb128 0x4
 460 014e 06       		.uleb128 0x6
 461 014f 9D000000 		.4byte	.LASF28
 462 0153 06       		.byte	0x6
 463 0154 5C       		.byte	0x5c
 464 0155 EF000000 		.4byte	0xef
 465 0159 02       		.byte	0x2
 466 015a 23       		.byte	0x23
 467 015b 08       		.uleb128 0x8
 468 015c 06       		.uleb128 0x6
 469 015d 7F050000 		.4byte	.LASF29
 470 0161 06       		.byte	0x6
 471 0162 5D       		.byte	0x5d
 472 0163 57030000 		.4byte	0x357
 473 0167 02       		.byte	0x2
 474 0168 23       		.byte	0x23
 475 0169 0C       		.uleb128 0xc
 476 016a 06       		.uleb128 0x6
 477 016b 8F010000 		.4byte	.LASF30
 478 016f 06       		.byte	0x6
 479 0170 5F       		.byte	0x5f
 480 0171 7E020000 		.4byte	0x27e
 481 0175 02       		.byte	0x2
 482 0176 23       		.byte	0x23
 483 0177 10       		.uleb128 0x10
 484 0178 06       		.uleb128 0x6
 485 0179 EF020000 		.4byte	.LASF31
 486 017d 06       		.byte	0x6
 487 017e 60       		.byte	0x60
 488 017f 7E020000 		.4byte	0x27e
 489 0183 02       		.byte	0x2
 490 0184 23       		.byte	0x23
 491 0185 14       		.uleb128 0x14
 492 0186 06       		.uleb128 0x6
 493 0187 52050000 		.4byte	.LASF32
 494 018b 06       		.byte	0x6
 495 018c 67       		.byte	0x67
 496 018d 08040000 		.4byte	0x408
 497 0191 02       		.byte	0x2
 498 0192 23       		.byte	0x23
 499 0193 18       		.uleb128 0x18
 500 0194 06       		.uleb128 0x6
 501 0195 DB010000 		.4byte	.LASF33
 502 0199 06       		.byte	0x6
 503 019a 6D       		.byte	0x6d
 504 019b 1A040000 		.4byte	0x41a
 505 019f 02       		.byte	0x2
 506 01a0 23       		.byte	0x23
 507 01a1 1C       		.uleb128 0x1c
 508 01a2 06       		.uleb128 0x6
 509 01a3 F8030000 		.4byte	.LASF34
ARM GAS  /tmp/ccUb367S.s 			page 10


 510 01a7 06       		.byte	0x6
 511 01a8 72       		.byte	0x72
 512 01a9 CE000000 		.4byte	0xce
 513 01ad 02       		.byte	0x2
 514 01ae 23       		.byte	0x23
 515 01af 20       		.uleb128 0x20
 516 01b0 06       		.uleb128 0x6
 517 01b1 18040000 		.4byte	.LASF35
 518 01b5 06       		.byte	0x6
 519 01b6 76       		.byte	0x76
 520 01b7 C3000000 		.4byte	0xc3
 521 01bb 02       		.byte	0x2
 522 01bc 23       		.byte	0x23
 523 01bd 21       		.uleb128 0x21
 524 01be 06       		.uleb128 0x6
 525 01bf 77010000 		.4byte	.LASF36
 526 01c3 06       		.byte	0x6
 527 01c4 7B       		.byte	0x7b
 528 01c5 D9000000 		.4byte	0xd9
 529 01c9 02       		.byte	0x2
 530 01ca 23       		.byte	0x23
 531 01cb 22       		.uleb128 0x22
 532 01cc 06       		.uleb128 0x6
 533 01cd 00040000 		.4byte	.LASF37
 534 01d1 06       		.byte	0x6
 535 01d2 81       		.byte	0x81
 536 01d3 E4000000 		.4byte	0xe4
 537 01d7 02       		.byte	0x2
 538 01d8 23       		.byte	0x23
 539 01d9 23       		.uleb128 0x23
 540 01da 06       		.uleb128 0x6
 541 01db 88010000 		.4byte	.LASF38
 542 01df 06       		.byte	0x6
 543 01e0 88       		.byte	0x88
 544 01e1 86030000 		.4byte	0x386
 545 01e5 02       		.byte	0x2
 546 01e6 23       		.byte	0x23
 547 01e7 24       		.uleb128 0x24
 548 01e8 07       		.uleb128 0x7
 549 01e9 705F7500 		.ascii	"p_u\000"
 550 01ed 06       		.byte	0x6
 551 01ee AD       		.byte	0xad
 552 01ef D3030000 		.4byte	0x3d3
 553 01f3 02       		.byte	0x2
 554 01f4 23       		.byte	0x23
 555 01f5 28       		.uleb128 0x28
 556 01f6 06       		.uleb128 0x6
 557 01f7 85050000 		.4byte	.LASF39
 558 01fb 06       		.byte	0x6
 559 01fc B2       		.byte	0xb2
 560 01fd A6020000 		.4byte	0x2a6
 561 0201 02       		.byte	0x2
 562 0202 23       		.byte	0x23
 563 0203 2C       		.uleb128 0x2c
 564 0204 06       		.uleb128 0x6
 565 0205 11020000 		.4byte	.LASF40
 566 0209 06       		.byte	0x6
ARM GAS  /tmp/ccUb367S.s 			page 11


 567 020a B8       		.byte	0xb8
 568 020b 84020000 		.4byte	0x284
 569 020f 02       		.byte	0x2
 570 0210 23       		.byte	0x23
 571 0211 30       		.uleb128 0x30
 572 0212 06       		.uleb128 0x6
 573 0213 59050000 		.4byte	.LASF41
 574 0217 06       		.byte	0x6
 575 0218 BC       		.byte	0xbc
 576 0219 FA000000 		.4byte	0xfa
 577 021d 02       		.byte	0x2
 578 021e 23       		.byte	0x23
 579 021f 38       		.uleb128 0x38
 580 0220 06       		.uleb128 0x6
 581 0221 4E040000 		.4byte	.LASF42
 582 0225 06       		.byte	0x6
 583 0226 C2       		.byte	0xc2
 584 0227 05010000 		.4byte	0x105
 585 022b 02       		.byte	0x2
 586 022c 23       		.byte	0x23
 587 022d 3C       		.uleb128 0x3c
 588 022e 06       		.uleb128 0x6
 589 022f E3030000 		.4byte	.LASF43
 590 0233 06       		.byte	0x6
 591 0234 C9       		.byte	0xc9
 592 0235 20040000 		.4byte	0x420
 593 0239 02       		.byte	0x2
 594 023a 23       		.byte	0x23
 595 023b 40       		.uleb128 0x40
 596 023c 06       		.uleb128 0x6
 597 023d B6040000 		.4byte	.LASF44
 598 0241 06       		.byte	0x6
 599 0242 CD       		.byte	0xcd
 600 0243 EF000000 		.4byte	0xef
 601 0247 02       		.byte	0x2
 602 0248 23       		.byte	0x23
 603 0249 44       		.uleb128 0x44
 604 024a 06       		.uleb128 0x6
 605 024b EB000000 		.4byte	.LASF45
 606 024f 06       		.byte	0x6
 607 0250 D3       		.byte	0xd3
 608 0251 BC020000 		.4byte	0x2bc
 609 0255 02       		.byte	0x2
 610 0256 23       		.byte	0x23
 611 0257 48       		.uleb128 0x48
 612 0258 00       		.byte	0
 613 0259 08       		.uleb128 0x8
 614 025a 08       		.byte	0x8
 615 025b 05       		.byte	0x5
 616 025c 5A       		.byte	0x5a
 617 025d 7E020000 		.4byte	0x27e
 618 0261 06       		.uleb128 0x6
 619 0262 11040000 		.4byte	.LASF26
 620 0266 05       		.byte	0x5
 621 0267 5B       		.byte	0x5b
 622 0268 7E020000 		.4byte	0x27e
 623 026c 02       		.byte	0x2
ARM GAS  /tmp/ccUb367S.s 			page 12


 624 026d 23       		.byte	0x23
 625 026e 00       		.uleb128 0
 626 026f 06       		.uleb128 0x6
 627 0270 68030000 		.4byte	.LASF27
 628 0274 05       		.byte	0x5
 629 0275 5D       		.byte	0x5d
 630 0276 7E020000 		.4byte	0x27e
 631 027a 02       		.byte	0x2
 632 027b 23       		.byte	0x23
 633 027c 04       		.uleb128 0x4
 634 027d 00       		.byte	0
 635 027e 09       		.uleb128 0x9
 636 027f 04       		.byte	0x4
 637 0280 1B010000 		.4byte	0x11b
 638 0284 03       		.uleb128 0x3
 639 0285 F7020000 		.4byte	.LASF46
 640 0289 05       		.byte	0x5
 641 028a 5F       		.byte	0x5f
 642 028b 59020000 		.4byte	0x259
 643 028f 08       		.uleb128 0x8
 644 0290 04       		.byte	0x4
 645 0291 05       		.byte	0x5
 646 0292 64       		.byte	0x64
 647 0293 A6020000 		.4byte	0x2a6
 648 0297 06       		.uleb128 0x6
 649 0298 11040000 		.4byte	.LASF26
 650 029c 05       		.byte	0x5
 651 029d 66       		.byte	0x66
 652 029e 7E020000 		.4byte	0x27e
 653 02a2 02       		.byte	0x2
 654 02a3 23       		.byte	0x23
 655 02a4 00       		.uleb128 0
 656 02a5 00       		.byte	0
 657 02a6 03       		.uleb128 0x3
 658 02a7 90020000 		.4byte	.LASF47
 659 02ab 05       		.byte	0x5
 660 02ac 69       		.byte	0x69
 661 02ad 8F020000 		.4byte	0x28f
 662 02b1 03       		.uleb128 0x3
 663 02b2 B9010000 		.4byte	.LASF48
 664 02b6 07       		.byte	0x7
 665 02b7 DE       		.byte	0xde
 666 02b8 BC020000 		.4byte	0x2bc
 667 02bc 0A       		.uleb128 0xa
 668 02bd 04       		.byte	0x4
 669 02be 03       		.uleb128 0x3
 670 02bf B2020000 		.4byte	.LASF49
 671 02c3 07       		.byte	0x7
 672 02c4 E4       		.byte	0xe4
 673 02c5 AA000000 		.4byte	0xaa
 674 02c9 0B       		.uleb128 0xb
 675 02ca D3040000 		.4byte	.LASF50
 676 02ce 24       		.byte	0x24
 677 02cf 07       		.byte	0x7
 678 02d0 0501     		.2byte	0x105
 679 02d2 57030000 		.4byte	0x357
 680 02d6 0C       		.uleb128 0xc
ARM GAS  /tmp/ccUb367S.s 			page 13


 681 02d7 723400   		.ascii	"r4\000"
 682 02da 07       		.byte	0x7
 683 02db 1801     		.2byte	0x118
 684 02dd B1020000 		.4byte	0x2b1
 685 02e1 02       		.byte	0x2
 686 02e2 23       		.byte	0x23
 687 02e3 00       		.uleb128 0
 688 02e4 0C       		.uleb128 0xc
 689 02e5 723500   		.ascii	"r5\000"
 690 02e8 07       		.byte	0x7
 691 02e9 1901     		.2byte	0x119
 692 02eb B1020000 		.4byte	0x2b1
 693 02ef 02       		.byte	0x2
 694 02f0 23       		.byte	0x23
 695 02f1 04       		.uleb128 0x4
 696 02f2 0C       		.uleb128 0xc
 697 02f3 723600   		.ascii	"r6\000"
 698 02f6 07       		.byte	0x7
 699 02f7 1A01     		.2byte	0x11a
 700 02f9 B1020000 		.4byte	0x2b1
 701 02fd 02       		.byte	0x2
 702 02fe 23       		.byte	0x23
 703 02ff 08       		.uleb128 0x8
 704 0300 0C       		.uleb128 0xc
 705 0301 723700   		.ascii	"r7\000"
 706 0304 07       		.byte	0x7
 707 0305 1B01     		.2byte	0x11b
 708 0307 B1020000 		.4byte	0x2b1
 709 030b 02       		.byte	0x2
 710 030c 23       		.byte	0x23
 711 030d 0C       		.uleb128 0xc
 712 030e 0C       		.uleb128 0xc
 713 030f 723800   		.ascii	"r8\000"
 714 0312 07       		.byte	0x7
 715 0313 1C01     		.2byte	0x11c
 716 0315 B1020000 		.4byte	0x2b1
 717 0319 02       		.byte	0x2
 718 031a 23       		.byte	0x23
 719 031b 10       		.uleb128 0x10
 720 031c 0C       		.uleb128 0xc
 721 031d 723900   		.ascii	"r9\000"
 722 0320 07       		.byte	0x7
 723 0321 1D01     		.2byte	0x11d
 724 0323 B1020000 		.4byte	0x2b1
 725 0327 02       		.byte	0x2
 726 0328 23       		.byte	0x23
 727 0329 14       		.uleb128 0x14
 728 032a 0C       		.uleb128 0xc
 729 032b 72313000 		.ascii	"r10\000"
 730 032f 07       		.byte	0x7
 731 0330 1E01     		.2byte	0x11e
 732 0332 B1020000 		.4byte	0x2b1
 733 0336 02       		.byte	0x2
 734 0337 23       		.byte	0x23
 735 0338 18       		.uleb128 0x18
 736 0339 0C       		.uleb128 0xc
 737 033a 72313100 		.ascii	"r11\000"
ARM GAS  /tmp/ccUb367S.s 			page 14


 738 033e 07       		.byte	0x7
 739 033f 1F01     		.2byte	0x11f
 740 0341 B1020000 		.4byte	0x2b1
 741 0345 02       		.byte	0x2
 742 0346 23       		.byte	0x23
 743 0347 1C       		.uleb128 0x1c
 744 0348 0C       		.uleb128 0xc
 745 0349 6C7200   		.ascii	"lr\000"
 746 034c 07       		.byte	0x7
 747 034d 2001     		.2byte	0x120
 748 034f B1020000 		.4byte	0x2b1
 749 0353 02       		.byte	0x2
 750 0354 23       		.byte	0x23
 751 0355 20       		.uleb128 0x20
 752 0356 00       		.byte	0
 753 0357 0B       		.uleb128 0xb
 754 0358 CB040000 		.4byte	.LASF51
 755 035c 04       		.byte	0x4
 756 035d 07       		.byte	0x7
 757 035e 2A01     		.2byte	0x12a
 758 0360 74030000 		.4byte	0x374
 759 0364 0C       		.uleb128 0xc
 760 0365 72313300 		.ascii	"r13\000"
 761 0369 07       		.byte	0x7
 762 036a 2B01     		.2byte	0x12b
 763 036c 74030000 		.4byte	0x374
 764 0370 02       		.byte	0x2
 765 0371 23       		.byte	0x23
 766 0372 00       		.uleb128 0
 767 0373 00       		.byte	0
 768 0374 09       		.uleb128 0x9
 769 0375 04       		.byte	0x4
 770 0376 C9020000 		.4byte	0x2c9
 771 037a 0D       		.uleb128 0xd
 772 037b 91000000 		.4byte	0x91
 773 037f 04       		.uleb128 0x4
 774 0380 04       		.byte	0x4
 775 0381 07       		.byte	0x7
 776 0382 C6020000 		.4byte	.LASF52
 777 0386 0D       		.uleb128 0xd
 778 0387 10010000 		.4byte	0x110
 779 038b 05       		.uleb128 0x5
 780 038c CF020000 		.4byte	.LASF53
 781 0390 10       		.byte	0x10
 782 0391 08       		.byte	0x8
 783 0392 25       		.byte	0x25
 784 0393 C2030000 		.4byte	0x3c2
 785 0397 06       		.uleb128 0x6
 786 0398 F3000000 		.4byte	.LASF54
 787 039c 08       		.byte	0x8
 788 039d 26       		.byte	0x26
 789 039e 84020000 		.4byte	0x284
 790 03a2 02       		.byte	0x2
 791 03a3 23       		.byte	0x23
 792 03a4 00       		.uleb128 0
 793 03a5 06       		.uleb128 0x6
 794 03a6 77050000 		.4byte	.LASF55
ARM GAS  /tmp/ccUb367S.s 			page 15


 795 03aa 08       		.byte	0x8
 796 03ab 28       		.byte	0x28
 797 03ac 7E020000 		.4byte	0x27e
 798 03b0 02       		.byte	0x2
 799 03b1 23       		.byte	0x23
 800 03b2 08       		.uleb128 0x8
 801 03b3 06       		.uleb128 0x6
 802 03b4 A5040000 		.4byte	.LASF56
 803 03b8 08       		.byte	0x8
 804 03b9 2A       		.byte	0x2a
 805 03ba C2030000 		.4byte	0x3c2
 806 03be 02       		.byte	0x2
 807 03bf 23       		.byte	0x23
 808 03c0 0C       		.uleb128 0xc
 809 03c1 00       		.byte	0
 810 03c2 09       		.uleb128 0x9
 811 03c3 04       		.byte	0x4
 812 03c4 8B030000 		.4byte	0x38b
 813 03c8 03       		.uleb128 0x3
 814 03c9 CF020000 		.4byte	.LASF53
 815 03cd 08       		.byte	0x8
 816 03ce 2C       		.byte	0x2c
 817 03cf 8B030000 		.4byte	0x38b
 818 03d3 0E       		.uleb128 0xe
 819 03d4 04       		.byte	0x4
 820 03d5 06       		.byte	0x6
 821 03d6 8F       		.byte	0x8f
 822 03d7 08040000 		.4byte	0x408
 823 03db 0F       		.uleb128 0xf
 824 03dc 36000000 		.4byte	.LASF57
 825 03e0 06       		.byte	0x6
 826 03e1 96       		.byte	0x96
 827 03e2 FA000000 		.4byte	0xfa
 828 03e6 0F       		.uleb128 0xf
 829 03e7 72000000 		.4byte	.LASF58
 830 03eb 06       		.byte	0x6
 831 03ec 9D       		.byte	0x9d
 832 03ed FA000000 		.4byte	0xfa
 833 03f1 0F       		.uleb128 0xf
 834 03f2 4B050000 		.4byte	.LASF59
 835 03f6 06       		.byte	0x6
 836 03f7 A4       		.byte	0xa4
 837 03f8 BC020000 		.4byte	0x2bc
 838 03fc 0F       		.uleb128 0xf
 839 03fd 0A040000 		.4byte	.LASF60
 840 0401 06       		.byte	0x6
 841 0402 AB       		.byte	0xab
 842 0403 05010000 		.4byte	0x105
 843 0407 00       		.byte	0
 844 0408 09       		.uleb128 0x9
 845 0409 04       		.byte	0x4
 846 040a 0E040000 		.4byte	0x40e
 847 040e 10       		.uleb128 0x10
 848 040f 13040000 		.4byte	0x413
 849 0413 04       		.uleb128 0x4
 850 0414 01       		.byte	0x1
 851 0415 08       		.byte	0x8
ARM GAS  /tmp/ccUb367S.s 			page 16


 852 0416 91040000 		.4byte	.LASF61
 853 041a 09       		.uleb128 0x9
 854 041b 04       		.byte	0x4
 855 041c BE020000 		.4byte	0x2be
 856 0420 09       		.uleb128 0x9
 857 0421 04       		.byte	0x4
 858 0422 C8030000 		.4byte	0x3c8
 859 0426 09       		.uleb128 0x9
 860 0427 04       		.byte	0x4
 861 0428 49000000 		.4byte	0x49
 862 042c 09       		.uleb128 0x9
 863 042d 04       		.byte	0x4
 864 042e 32040000 		.4byte	0x432
 865 0432 10       		.uleb128 0x10
 866 0433 49000000 		.4byte	0x49
 867 0437 0D       		.uleb128 0xd
 868 0438 6D000000 		.4byte	0x6d
 869 043c 0D       		.uleb128 0xd
 870 043d 7F000000 		.4byte	0x7f
 871 0441 11       		.uleb128 0x11
 872 0442 10       		.byte	0x10
 873 0443 09       		.byte	0x9
 874 0444 2D03     		.2byte	0x32d
 875 0446 87040000 		.4byte	0x487
 876 044a 0C       		.uleb128 0xc
 877 044b 43435200 		.ascii	"CCR\000"
 878 044f 09       		.byte	0x9
 879 0450 2F03     		.2byte	0x32f
 880 0452 7A030000 		.4byte	0x37a
 881 0456 02       		.byte	0x2
 882 0457 23       		.byte	0x23
 883 0458 00       		.uleb128 0
 884 0459 12       		.uleb128 0x12
 885 045a F3040000 		.4byte	.LASF62
 886 045e 09       		.byte	0x9
 887 045f 3003     		.2byte	0x330
 888 0461 7A030000 		.4byte	0x37a
 889 0465 02       		.byte	0x2
 890 0466 23       		.byte	0x23
 891 0467 04       		.uleb128 0x4
 892 0468 12       		.uleb128 0x12
 893 0469 0C020000 		.4byte	.LASF63
 894 046d 09       		.byte	0x9
 895 046e 3103     		.2byte	0x331
 896 0470 7A030000 		.4byte	0x37a
 897 0474 02       		.byte	0x2
 898 0475 23       		.byte	0x23
 899 0476 08       		.uleb128 0x8
 900 0477 12       		.uleb128 0x12
 901 0478 F9040000 		.4byte	.LASF64
 902 047c 09       		.byte	0x9
 903 047d 3203     		.2byte	0x332
 904 047f 7A030000 		.4byte	0x37a
 905 0483 02       		.byte	0x2
 906 0484 23       		.byte	0x23
 907 0485 0C       		.uleb128 0xc
 908 0486 00       		.byte	0
ARM GAS  /tmp/ccUb367S.s 			page 17


 909 0487 13       		.uleb128 0x13
 910 0488 1C020000 		.4byte	.LASF65
 911 048c 09       		.byte	0x9
 912 048d 3303     		.2byte	0x333
 913 048f 41040000 		.4byte	0x441
 914 0493 11       		.uleb128 0x11
 915 0494 24       		.byte	0x24
 916 0495 09       		.byte	0x9
 917 0496 1304     		.2byte	0x413
 918 0498 AA050000 		.4byte	0x5aa
 919 049c 0C       		.uleb128 0xc
 920 049d 43523100 		.ascii	"CR1\000"
 921 04a1 09       		.byte	0x9
 922 04a2 1504     		.2byte	0x415
 923 04a4 37040000 		.4byte	0x437
 924 04a8 02       		.byte	0x2
 925 04a9 23       		.byte	0x23
 926 04aa 00       		.uleb128 0
 927 04ab 12       		.uleb128 0x12
 928 04ac 36030000 		.4byte	.LASF66
 929 04b0 09       		.byte	0x9
 930 04b1 1604     		.2byte	0x416
 931 04b3 6D000000 		.4byte	0x6d
 932 04b7 02       		.byte	0x2
 933 04b8 23       		.byte	0x23
 934 04b9 02       		.uleb128 0x2
 935 04ba 0C       		.uleb128 0xc
 936 04bb 43523200 		.ascii	"CR2\000"
 937 04bf 09       		.byte	0x9
 938 04c0 1704     		.2byte	0x417
 939 04c2 37040000 		.4byte	0x437
 940 04c6 02       		.byte	0x2
 941 04c7 23       		.byte	0x23
 942 04c8 04       		.uleb128 0x4
 943 04c9 12       		.uleb128 0x12
 944 04ca 40030000 		.4byte	.LASF67
 945 04ce 09       		.byte	0x9
 946 04cf 1804     		.2byte	0x418
 947 04d1 6D000000 		.4byte	0x6d
 948 04d5 02       		.byte	0x2
 949 04d6 23       		.byte	0x23
 950 04d7 06       		.uleb128 0x6
 951 04d8 12       		.uleb128 0x12
 952 04d9 41050000 		.4byte	.LASF68
 953 04dd 09       		.byte	0x9
 954 04de 1904     		.2byte	0x419
 955 04e0 37040000 		.4byte	0x437
 956 04e4 02       		.byte	0x2
 957 04e5 23       		.byte	0x23
 958 04e6 08       		.uleb128 0x8
 959 04e7 12       		.uleb128 0x12
 960 04e8 4A030000 		.4byte	.LASF69
 961 04ec 09       		.byte	0x9
 962 04ed 1A04     		.2byte	0x41a
 963 04ef 6D000000 		.4byte	0x6d
 964 04f3 02       		.byte	0x2
 965 04f4 23       		.byte	0x23
ARM GAS  /tmp/ccUb367S.s 			page 18


 966 04f5 0A       		.uleb128 0xa
 967 04f6 12       		.uleb128 0x12
 968 04f7 46050000 		.4byte	.LASF70
 969 04fb 09       		.byte	0x9
 970 04fc 1B04     		.2byte	0x41b
 971 04fe 37040000 		.4byte	0x437
 972 0502 02       		.byte	0x2
 973 0503 23       		.byte	0x23
 974 0504 0C       		.uleb128 0xc
 975 0505 12       		.uleb128 0x12
 976 0506 54030000 		.4byte	.LASF71
 977 050a 09       		.byte	0x9
 978 050b 1C04     		.2byte	0x41c
 979 050d 6D000000 		.4byte	0x6d
 980 0511 02       		.byte	0x2
 981 0512 23       		.byte	0x23
 982 0513 0E       		.uleb128 0xe
 983 0514 0C       		.uleb128 0xc
 984 0515 445200   		.ascii	"DR\000"
 985 0518 09       		.byte	0x9
 986 0519 1D04     		.2byte	0x41d
 987 051b 37040000 		.4byte	0x437
 988 051f 02       		.byte	0x2
 989 0520 23       		.byte	0x23
 990 0521 10       		.uleb128 0x10
 991 0522 12       		.uleb128 0x12
 992 0523 5E030000 		.4byte	.LASF72
 993 0527 09       		.byte	0x9
 994 0528 1E04     		.2byte	0x41e
 995 052a 6D000000 		.4byte	0x6d
 996 052e 02       		.byte	0x2
 997 052f 23       		.byte	0x23
 998 0530 12       		.uleb128 0x12
 999 0531 0C       		.uleb128 0xc
 1000 0532 53523100 		.ascii	"SR1\000"
 1001 0536 09       		.byte	0x9
 1002 0537 1F04     		.2byte	0x41f
 1003 0539 37040000 		.4byte	0x437
 1004 053d 02       		.byte	0x2
 1005 053e 23       		.byte	0x23
 1006 053f 14       		.uleb128 0x14
 1007 0540 12       		.uleb128 0x12
 1008 0541 5E040000 		.4byte	.LASF73
 1009 0545 09       		.byte	0x9
 1010 0546 2004     		.2byte	0x420
 1011 0548 6D000000 		.4byte	0x6d
 1012 054c 02       		.byte	0x2
 1013 054d 23       		.byte	0x23
 1014 054e 16       		.uleb128 0x16
 1015 054f 0C       		.uleb128 0xc
 1016 0550 53523200 		.ascii	"SR2\000"
 1017 0554 09       		.byte	0x9
 1018 0555 2104     		.2byte	0x421
 1019 0557 37040000 		.4byte	0x437
 1020 055b 02       		.byte	0x2
 1021 055c 23       		.byte	0x23
 1022 055d 18       		.uleb128 0x18
ARM GAS  /tmp/ccUb367S.s 			page 19


 1023 055e 12       		.uleb128 0x12
 1024 055f 6F030000 		.4byte	.LASF74
 1025 0563 09       		.byte	0x9
 1026 0564 2204     		.2byte	0x422
 1027 0566 6D000000 		.4byte	0x6d
 1028 056a 02       		.byte	0x2
 1029 056b 23       		.byte	0x23
 1030 056c 1A       		.uleb128 0x1a
 1031 056d 0C       		.uleb128 0xc
 1032 056e 43435200 		.ascii	"CCR\000"
 1033 0572 09       		.byte	0x9
 1034 0573 2304     		.2byte	0x423
 1035 0575 37040000 		.4byte	0x437
 1036 0579 02       		.byte	0x2
 1037 057a 23       		.byte	0x23
 1038 057b 1C       		.uleb128 0x1c
 1039 057c 12       		.uleb128 0x12
 1040 057d 79030000 		.4byte	.LASF75
 1041 0581 09       		.byte	0x9
 1042 0582 2404     		.2byte	0x424
 1043 0584 6D000000 		.4byte	0x6d
 1044 0588 02       		.byte	0x2
 1045 0589 23       		.byte	0x23
 1046 058a 1E       		.uleb128 0x1e
 1047 058b 12       		.uleb128 0x12
 1048 058c 46000000 		.4byte	.LASF76
 1049 0590 09       		.byte	0x9
 1050 0591 2504     		.2byte	0x425
 1051 0593 37040000 		.4byte	0x437
 1052 0597 02       		.byte	0x2
 1053 0598 23       		.byte	0x23
 1054 0599 20       		.uleb128 0x20
 1055 059a 12       		.uleb128 0x12
 1056 059b 83030000 		.4byte	.LASF77
 1057 059f 09       		.byte	0x9
 1058 05a0 2604     		.2byte	0x426
 1059 05a2 6D000000 		.4byte	0x6d
 1060 05a6 02       		.byte	0x2
 1061 05a7 23       		.byte	0x23
 1062 05a8 22       		.uleb128 0x22
 1063 05a9 00       		.byte	0
 1064 05aa 13       		.uleb128 0x13
 1065 05ab 5F050000 		.4byte	.LASF78
 1066 05af 09       		.byte	0x9
 1067 05b0 2704     		.2byte	0x427
 1068 05b2 93040000 		.4byte	0x493
 1069 05b6 08       		.uleb128 0x8
 1070 05b7 0C       		.byte	0xc
 1071 05b8 0A       		.byte	0xa
 1072 05b9 C1       		.byte	0xc1
 1073 05ba 05060000 		.4byte	0x605
 1074 05be 06       		.uleb128 0x6
 1075 05bf 32040000 		.4byte	.LASF79
 1076 05c3 0A       		.byte	0xa
 1077 05c4 C2       		.byte	0xc2
 1078 05c5 05060000 		.4byte	0x605
 1079 05c9 02       		.byte	0x2
ARM GAS  /tmp/ccUb367S.s 			page 20


 1080 05ca 23       		.byte	0x23
 1081 05cb 00       		.uleb128 0
 1082 05cc 06       		.uleb128 0x6
 1083 05cd 59040000 		.4byte	.LASF80
 1084 05d1 0A       		.byte	0xa
 1085 05d2 C3       		.byte	0xc3
 1086 05d3 0B060000 		.4byte	0x60b
 1087 05d7 02       		.byte	0x2
 1088 05d8 23       		.byte	0x23
 1089 05d9 04       		.uleb128 0x4
 1090 05da 06       		.uleb128 0x6
 1091 05db 30020000 		.4byte	.LASF81
 1092 05df 0A       		.byte	0xa
 1093 05e0 C4       		.byte	0xc4
 1094 05e1 49000000 		.4byte	0x49
 1095 05e5 02       		.byte	0x2
 1096 05e6 23       		.byte	0x23
 1097 05e7 08       		.uleb128 0x8
 1098 05e8 06       		.uleb128 0x6
 1099 05e9 C2010000 		.4byte	.LASF82
 1100 05ed 0A       		.byte	0xa
 1101 05ee C6       		.byte	0xc6
 1102 05ef 49000000 		.4byte	0x49
 1103 05f3 02       		.byte	0x2
 1104 05f4 23       		.byte	0x23
 1105 05f5 09       		.uleb128 0x9
 1106 05f6 06       		.uleb128 0x6
 1107 05f7 7B000000 		.4byte	.LASF83
 1108 05fb 0A       		.byte	0xa
 1109 05fc C7       		.byte	0xc7
 1110 05fd 49000000 		.4byte	0x49
 1111 0601 02       		.byte	0x2
 1112 0602 23       		.byte	0x23
 1113 0603 0A       		.uleb128 0xa
 1114 0604 00       		.byte	0
 1115 0605 09       		.uleb128 0x9
 1116 0606 04       		.byte	0x4
 1117 0607 87040000 		.4byte	0x487
 1118 060b 09       		.uleb128 0x9
 1119 060c 04       		.byte	0x4
 1120 060d 7A030000 		.4byte	0x37a
 1121 0611 03       		.uleb128 0x3
 1122 0612 D0030000 		.4byte	.LASF84
 1123 0616 0A       		.byte	0xa
 1124 0617 C8       		.byte	0xc8
 1125 0618 B6050000 		.4byte	0x5b6
 1126 061c 14       		.uleb128 0x14
 1127 061d 01       		.byte	0x1
 1128 061e 0B       		.byte	0xb
 1129 061f 53       		.byte	0x53
 1130 0620 49060000 		.4byte	0x649
 1131 0624 15       		.uleb128 0x15
 1132 0625 ED030000 		.4byte	.LASF85
 1133 0629 00       		.sleb128 0
 1134 062a 15       		.uleb128 0x15
 1135 062b BD020000 		.4byte	.LASF86
 1136 062f 01       		.sleb128 1
ARM GAS  /tmp/ccUb367S.s 			page 21


 1137 0630 15       		.uleb128 0x15
 1138 0631 C1040000 		.4byte	.LASF87
 1139 0635 02       		.sleb128 2
 1140 0636 15       		.uleb128 0x15
 1141 0637 95030000 		.4byte	.LASF88
 1142 063b 03       		.sleb128 3
 1143 063c 15       		.uleb128 0x15
 1144 063d 71040000 		.4byte	.LASF89
 1145 0641 04       		.sleb128 4
 1146 0642 15       		.uleb128 0x15
 1147 0643 3A040000 		.4byte	.LASF90
 1148 0647 05       		.sleb128 5
 1149 0648 00       		.byte	0
 1150 0649 03       		.uleb128 0x3
 1151 064a 24000000 		.4byte	.LASF91
 1152 064e 0B       		.byte	0xb
 1153 064f 5A       		.byte	0x5a
 1154 0650 1C060000 		.4byte	0x61c
 1155 0654 13       		.uleb128 0x13
 1156 0655 4E010000 		.4byte	.LASF92
 1157 0659 0C       		.byte	0xc
 1158 065a 3501     		.2byte	0x135
 1159 065c 6D000000 		.4byte	0x6d
 1160 0660 13       		.uleb128 0x13
 1161 0661 A3030000 		.4byte	.LASF93
 1162 0665 0C       		.byte	0xc
 1163 0666 3A01     		.2byte	0x13a
 1164 0668 91000000 		.4byte	0x91
 1165 066c 16       		.uleb128 0x16
 1166 066d 01       		.byte	0x1
 1167 066e 0C       		.byte	0xc
 1168 066f 3F01     		.2byte	0x13f
 1169 0671 88060000 		.4byte	0x688
 1170 0675 15       		.uleb128 0x15
 1171 0676 0E030000 		.4byte	.LASF94
 1172 067a 01       		.sleb128 1
 1173 067b 15       		.uleb128 0x15
 1174 067c 3F020000 		.4byte	.LASF95
 1175 0680 02       		.sleb128 2
 1176 0681 15       		.uleb128 0x15
 1177 0682 A7010000 		.4byte	.LASF96
 1178 0686 03       		.sleb128 3
 1179 0687 00       		.byte	0
 1180 0688 13       		.uleb128 0x13
 1181 0689 6B050000 		.4byte	.LASF97
 1182 068d 0C       		.byte	0xc
 1183 068e 4301     		.2byte	0x143
 1184 0690 6C060000 		.4byte	0x66c
 1185 0694 16       		.uleb128 0x16
 1186 0695 01       		.byte	0x1
 1187 0696 0C       		.byte	0xc
 1188 0697 4801     		.2byte	0x148
 1189 0699 B0060000 		.4byte	0x6b0
 1190 069d 15       		.uleb128 0x15
 1191 069e 00000000 		.4byte	.LASF98
 1192 06a2 01       		.sleb128 1
 1193 06a3 15       		.uleb128 0x15
ARM GAS  /tmp/ccUb367S.s 			page 22


 1194 06a4 20040000 		.4byte	.LASF99
 1195 06a8 02       		.sleb128 2
 1196 06a9 15       		.uleb128 0x15
 1197 06aa 19030000 		.4byte	.LASF100
 1198 06ae 03       		.sleb128 3
 1199 06af 00       		.byte	0
 1200 06b0 13       		.uleb128 0x13
 1201 06b1 15000000 		.4byte	.LASF101
 1202 06b5 0C       		.byte	0xc
 1203 06b6 4C01     		.2byte	0x14c
 1204 06b8 94060000 		.4byte	0x694
 1205 06bc 11       		.uleb128 0x11
 1206 06bd 0C       		.byte	0xc
 1207 06be 0C       		.byte	0xc
 1208 06bf 5101     		.2byte	0x151
 1209 06c1 F3060000 		.4byte	0x6f3
 1210 06c5 12       		.uleb128 0x12
 1211 06c6 CC010000 		.4byte	.LASF102
 1212 06ca 0C       		.byte	0xc
 1213 06cb 5201     		.2byte	0x152
 1214 06cd 88060000 		.4byte	0x688
 1215 06d1 02       		.byte	0x2
 1216 06d2 23       		.byte	0x23
 1217 06d3 00       		.uleb128 0
 1218 06d4 12       		.uleb128 0x12
 1219 06d5 DF000000 		.4byte	.LASF103
 1220 06d9 0C       		.byte	0xc
 1221 06da 5301     		.2byte	0x153
 1222 06dc 91000000 		.4byte	0x91
 1223 06e0 02       		.byte	0x2
 1224 06e1 23       		.byte	0x23
 1225 06e2 04       		.uleb128 0x4
 1226 06e3 12       		.uleb128 0x12
 1227 06e4 DC020000 		.4byte	.LASF104
 1228 06e8 0C       		.byte	0xc
 1229 06e9 5601     		.2byte	0x156
 1230 06eb B0060000 		.4byte	0x6b0
 1231 06ef 02       		.byte	0x2
 1232 06f0 23       		.byte	0x23
 1233 06f1 08       		.uleb128 0x8
 1234 06f2 00       		.byte	0
 1235 06f3 13       		.uleb128 0x13
 1236 06f4 7E010000 		.4byte	.LASF105
 1237 06f8 0C       		.byte	0xc
 1238 06f9 5801     		.2byte	0x158
 1239 06fb BC060000 		.4byte	0x6bc
 1240 06ff 13       		.uleb128 0x13
 1241 0700 66020000 		.4byte	.LASF106
 1242 0704 0C       		.byte	0xc
 1243 0705 5D01     		.2byte	0x15d
 1244 0707 0B070000 		.4byte	0x70b
 1245 070b 0B       		.uleb128 0xb
 1246 070c 66020000 		.4byte	.LASF106
 1247 0710 38       		.byte	0x38
 1248 0711 0C       		.byte	0xc
 1249 0712 6201     		.2byte	0x162
 1250 0714 BE070000 		.4byte	0x7be
ARM GAS  /tmp/ccUb367S.s 			page 23


 1251 0718 12       		.uleb128 0x12
 1252 0719 58010000 		.4byte	.LASF107
 1253 071d 0C       		.byte	0xc
 1254 071e 6601     		.2byte	0x166
 1255 0720 49060000 		.4byte	0x649
 1256 0724 02       		.byte	0x2
 1257 0725 23       		.byte	0x23
 1258 0726 00       		.uleb128 0
 1259 0727 12       		.uleb128 0x12
 1260 0728 96040000 		.4byte	.LASF108
 1261 072c 0C       		.byte	0xc
 1262 072d 6A01     		.2byte	0x16a
 1263 072f BE070000 		.4byte	0x7be
 1264 0733 02       		.byte	0x2
 1265 0734 23       		.byte	0x23
 1266 0735 04       		.uleb128 0x4
 1267 0736 12       		.uleb128 0x12
 1268 0737 D5020000 		.4byte	.LASF109
 1269 073b 0C       		.byte	0xc
 1270 073c 6E01     		.2byte	0x16e
 1271 073e 60060000 		.4byte	0x660
 1272 0742 02       		.byte	0x2
 1273 0743 23       		.byte	0x23
 1274 0744 08       		.uleb128 0x8
 1275 0745 12       		.uleb128 0x12
 1276 0746 AE030000 		.4byte	.LASF110
 1277 074a 0C       		.byte	0xc
 1278 074b 7401     		.2byte	0x174
 1279 074d C8030000 		.4byte	0x3c8
 1280 0751 02       		.byte	0x2
 1281 0752 23       		.byte	0x23
 1282 0753 0C       		.uleb128 0xc
 1283 0754 12       		.uleb128 0x12
 1284 0755 70010000 		.4byte	.LASF111
 1285 0759 0C       		.byte	0xc
 1286 075a 8001     		.2byte	0x180
 1287 075c 7E020000 		.4byte	0x27e
 1288 0760 02       		.byte	0x2
 1289 0761 23       		.byte	0x23
 1290 0762 1C       		.uleb128 0x1c
 1291 0763 12       		.uleb128 0x12
 1292 0764 63000000 		.4byte	.LASF112
 1293 0768 0C       		.byte	0xc
 1294 0769 8401     		.2byte	0x184
 1295 076b 54060000 		.4byte	0x654
 1296 076f 02       		.byte	0x2
 1297 0770 23       		.byte	0x23
 1298 0771 20       		.uleb128 0x20
 1299 0772 12       		.uleb128 0x12
 1300 0773 97010000 		.4byte	.LASF113
 1301 0777 0C       		.byte	0xc
 1302 0778 8801     		.2byte	0x188
 1303 077a 91000000 		.4byte	0x91
 1304 077e 02       		.byte	0x2
 1305 077f 23       		.byte	0x23
 1306 0780 24       		.uleb128 0x24
 1307 0781 12       		.uleb128 0x12
ARM GAS  /tmp/ccUb367S.s 			page 24


 1308 0782 04030000 		.4byte	.LASF114
 1309 0786 0C       		.byte	0xc
 1310 0787 8C01     		.2byte	0x18c
 1311 0789 91000000 		.4byte	0x91
 1312 078d 02       		.byte	0x2
 1313 078e 23       		.byte	0x23
 1314 078f 28       		.uleb128 0x28
 1315 0790 12       		.uleb128 0x12
 1316 0791 0F000000 		.4byte	.LASF115
 1317 0795 0C       		.byte	0xc
 1318 0796 9001     		.2byte	0x190
 1319 0798 C9070000 		.4byte	0x7c9
 1320 079c 02       		.byte	0x2
 1321 079d 23       		.byte	0x23
 1322 079e 2C       		.uleb128 0x2c
 1323 079f 12       		.uleb128 0x12
 1324 07a0 A1010000 		.4byte	.LASF116
 1325 07a4 0C       		.byte	0xc
 1326 07a5 9401     		.2byte	0x194
 1327 07a7 C9070000 		.4byte	0x7c9
 1328 07ab 02       		.byte	0x2
 1329 07ac 23       		.byte	0x23
 1330 07ad 30       		.uleb128 0x30
 1331 07ae 0C       		.uleb128 0xc
 1332 07af 69326300 		.ascii	"i2c\000"
 1333 07b3 0C       		.byte	0xc
 1334 07b4 9801     		.2byte	0x198
 1335 07b6 D4070000 		.4byte	0x7d4
 1336 07ba 02       		.byte	0x2
 1337 07bb 23       		.byte	0x23
 1338 07bc 34       		.uleb128 0x34
 1339 07bd 00       		.byte	0
 1340 07be 09       		.uleb128 0x9
 1341 07bf 04       		.byte	0x4
 1342 07c0 C4070000 		.4byte	0x7c4
 1343 07c4 10       		.uleb128 0x10
 1344 07c5 F3060000 		.4byte	0x6f3
 1345 07c9 09       		.uleb128 0x9
 1346 07ca 04       		.byte	0x4
 1347 07cb CF070000 		.4byte	0x7cf
 1348 07cf 10       		.uleb128 0x10
 1349 07d0 11060000 		.4byte	0x611
 1350 07d4 09       		.uleb128 0x9
 1351 07d5 04       		.byte	0x4
 1352 07d6 AA050000 		.4byte	0x5aa
 1353 07da 17       		.uleb128 0x17
 1354 07db 01       		.byte	0x1
 1355 07dc 9D040000 		.4byte	.LASF120
 1356 07e0 01       		.byte	0x1
 1357 07e1 08       		.byte	0x8
 1358 07e2 01       		.byte	0x1
 1359 07e3 00000000 		.4byte	.LFB64
 1360 07e7 C6000000 		.4byte	.LFE64
 1361 07eb 00000000 		.4byte	.LLST0
 1362 07ef 01       		.byte	0x1
 1363 07f0 170A0000 		.4byte	0xa17
 1364 07f4 18       		.uleb128 0x18
ARM GAS  /tmp/ccUb367S.s 			page 25


 1365 07f5 E7020000 		.4byte	.LASF117
 1366 07f9 01       		.byte	0x1
 1367 07fa 08       		.byte	0x8
 1368 07fb 170A0000 		.4byte	0xa17
 1369 07ff 2C000000 		.4byte	.LLST1
 1370 0803 18       		.uleb128 0x18
 1371 0804 63000000 		.4byte	.LASF112
 1372 0808 01       		.byte	0x1
 1373 0809 08       		.byte	0x8
 1374 080a 49000000 		.4byte	0x49
 1375 080e 4A000000 		.4byte	.LLST2
 1376 0812 19       		.uleb128 0x19
 1377 0813 37020000 		.4byte	.LASF118
 1378 0817 01       		.byte	0x1
 1379 0818 0A       		.byte	0xa
 1380 0819 1D0A0000 		.4byte	0xa1d
 1381 081d 02       		.byte	0x2
 1382 081e 91       		.byte	0x91
 1383 081f 60       		.sleb128 -32
 1384 0820 1A       		.uleb128 0x1a
 1385 0821 6D736700 		.ascii	"msg\000"
 1386 0825 01       		.byte	0x1
 1387 0826 0B       		.byte	0xb
 1388 0827 FA000000 		.4byte	0xfa
 1389 082b 6B000000 		.4byte	.LLST3
 1390 082f 1B       		.uleb128 0x1b
 1391 0830 AC000000 		.4byte	.LBB2
 1392 0834 B2000000 		.4byte	.LBE2
 1393 0838 60080000 		.4byte	0x860
 1394 083c 1C       		.uleb128 0x1c
 1395 083d 01       		.byte	0x1
 1396 083e 68000000 		.4byte	.LASF119
 1397 0842 01       		.byte	0x1
 1398 0843 14       		.byte	0x14
 1399 0844 29000000 		.4byte	0x29
 1400 0848 01       		.byte	0x1
 1401 0849 4F080000 		.4byte	0x84f
 1402 084d 1D       		.uleb128 0x1d
 1403 084e 00       		.byte	0
 1404 084f 1E       		.uleb128 0x1e
 1405 0850 B2000000 		.4byte	.LVL20
 1406 0854 6E0B0000 		.4byte	0xb6e
 1407 0858 1F       		.uleb128 0x1f
 1408 0859 01       		.byte	0x1
 1409 085a 50       		.byte	0x50
 1410 085b 02       		.byte	0x2
 1411 085c 74       		.byte	0x74
 1412 085d 00       		.sleb128 0
 1413 085e 00       		.byte	0
 1414 085f 00       		.byte	0
 1415 0860 1B       		.uleb128 0x1b
 1416 0861 B6000000 		.4byte	.LBB3
 1417 0865 BE000000 		.4byte	.LBE3
 1418 0869 91080000 		.4byte	0x891
 1419 086d 1C       		.uleb128 0x1c
 1420 086e 01       		.byte	0x1
 1421 086f 68000000 		.4byte	.LASF119
ARM GAS  /tmp/ccUb367S.s 			page 26


 1422 0873 01       		.byte	0x1
 1423 0874 14       		.byte	0x14
 1424 0875 29000000 		.4byte	0x29
 1425 0879 01       		.byte	0x1
 1426 087a 80080000 		.4byte	0x880
 1427 087e 1D       		.uleb128 0x1d
 1428 087f 00       		.byte	0
 1429 0880 1E       		.uleb128 0x1e
 1430 0881 BC000000 		.4byte	.LVL22
 1431 0885 6E0B0000 		.4byte	0xb6e
 1432 0889 1F       		.uleb128 0x1f
 1433 088a 01       		.byte	0x1
 1434 088b 50       		.byte	0x50
 1435 088c 02       		.byte	0x2
 1436 088d 74       		.byte	0x74
 1437 088e 00       		.sleb128 0
 1438 088f 00       		.byte	0
 1439 0890 00       		.byte	0
 1440 0891 1B       		.uleb128 0x1b
 1441 0892 BE000000 		.4byte	.LBB4
 1442 0896 C6000000 		.4byte	.LBE4
 1443 089a C2080000 		.4byte	0x8c2
 1444 089e 1C       		.uleb128 0x1c
 1445 089f 01       		.byte	0x1
 1446 08a0 68000000 		.4byte	.LASF119
 1447 08a4 01       		.byte	0x1
 1448 08a5 14       		.byte	0x14
 1449 08a6 29000000 		.4byte	0x29
 1450 08aa 01       		.byte	0x1
 1451 08ab B1080000 		.4byte	0x8b1
 1452 08af 1D       		.uleb128 0x1d
 1453 08b0 00       		.byte	0
 1454 08b1 1E       		.uleb128 0x1e
 1455 08b2 C4000000 		.4byte	.LVL23
 1456 08b6 6E0B0000 		.4byte	0xb6e
 1457 08ba 1F       		.uleb128 0x1f
 1458 08bb 01       		.byte	0x1
 1459 08bc 50       		.byte	0x50
 1460 08bd 02       		.byte	0x2
 1461 08be 74       		.byte	0x74
 1462 08bf 00       		.sleb128 0
 1463 08c0 00       		.byte	0
 1464 08c1 00       		.byte	0
 1465 08c2 20       		.uleb128 0x20
 1466 08c3 18000000 		.4byte	.LVL1
 1467 08c7 810B0000 		.4byte	0xb81
 1468 08cb D6080000 		.4byte	0x8d6
 1469 08cf 1F       		.uleb128 0x1f
 1470 08d0 01       		.byte	0x1
 1471 08d1 50       		.byte	0x50
 1472 08d2 02       		.byte	0x2
 1473 08d3 74       		.byte	0x74
 1474 08d4 00       		.sleb128 0
 1475 08d5 00       		.byte	0
 1476 08d6 20       		.uleb128 0x20
 1477 08d7 2C000000 		.4byte	.LVL2
 1478 08db 950B0000 		.4byte	0xb95
ARM GAS  /tmp/ccUb367S.s 			page 27


 1479 08df 0F090000 		.4byte	0x90f
 1480 08e3 1F       		.uleb128 0x1f
 1481 08e4 01       		.byte	0x1
 1482 08e5 53       		.byte	0x53
 1483 08e6 01       		.byte	0x1
 1484 08e7 32       		.byte	0x32
 1485 08e8 1F       		.uleb128 0x1f
 1486 08e9 01       		.byte	0x1
 1487 08ea 52       		.byte	0x52
 1488 08eb 02       		.byte	0x2
 1489 08ec 91       		.byte	0x91
 1490 08ed 60       		.sleb128 -32
 1491 08ee 1F       		.uleb128 0x1f
 1492 08ef 01       		.byte	0x1
 1493 08f0 51       		.byte	0x51
 1494 08f1 02       		.byte	0x2
 1495 08f2 75       		.byte	0x75
 1496 08f3 00       		.sleb128 0
 1497 08f4 1F       		.uleb128 0x1f
 1498 08f5 01       		.byte	0x1
 1499 08f6 50       		.byte	0x50
 1500 08f7 02       		.byte	0x2
 1501 08f8 74       		.byte	0x74
 1502 08f9 00       		.sleb128 0
 1503 08fa 1F       		.uleb128 0x1f
 1504 08fb 02       		.byte	0x2
 1505 08fc 7D       		.byte	0x7d
 1506 08fd 08       		.sleb128 8
 1507 08fe 01       		.byte	0x1
 1508 08ff 34       		.byte	0x34
 1509 0900 1F       		.uleb128 0x1f
 1510 0901 02       		.byte	0x2
 1511 0902 7D       		.byte	0x7d
 1512 0903 04       		.sleb128 4
 1513 0904 02       		.byte	0x2
 1514 0905 76       		.byte	0x76
 1515 0906 00       		.sleb128 0
 1516 0907 1F       		.uleb128 0x1f
 1517 0908 02       		.byte	0x2
 1518 0909 7D       		.byte	0x7d
 1519 090a 00       		.sleb128 0
 1520 090b 02       		.byte	0x2
 1521 090c 76       		.byte	0x76
 1522 090d 00       		.sleb128 0
 1523 090e 00       		.byte	0
 1524 090f 20       		.uleb128 0x20
 1525 0910 34000000 		.4byte	.LVL5
 1526 0914 CB0B0000 		.4byte	0xbcb
 1527 0918 23090000 		.4byte	0x923
 1528 091c 1F       		.uleb128 0x1f
 1529 091d 01       		.byte	0x1
 1530 091e 50       		.byte	0x50
 1531 091f 02       		.byte	0x2
 1532 0920 74       		.byte	0x74
 1533 0921 00       		.sleb128 0
 1534 0922 00       		.byte	0
 1535 0923 20       		.uleb128 0x20
ARM GAS  /tmp/ccUb367S.s 			page 28


 1536 0924 3A000000 		.4byte	.LVL6
 1537 0928 DF0B0000 		.4byte	0xbdf
 1538 092c 36090000 		.4byte	0x936
 1539 0930 1F       		.uleb128 0x1f
 1540 0931 01       		.byte	0x1
 1541 0932 50       		.byte	0x50
 1542 0933 01       		.byte	0x1
 1543 0934 35       		.byte	0x35
 1544 0935 00       		.byte	0
 1545 0936 20       		.uleb128 0x20
 1546 0937 52000000 		.4byte	.LVL7
 1547 093b 810B0000 		.4byte	0xb81
 1548 093f 4A090000 		.4byte	0x94a
 1549 0943 1F       		.uleb128 0x1f
 1550 0944 01       		.byte	0x1
 1551 0945 50       		.byte	0x50
 1552 0946 02       		.byte	0x2
 1553 0947 74       		.byte	0x74
 1554 0948 00       		.sleb128 0
 1555 0949 00       		.byte	0
 1556 094a 20       		.uleb128 0x20
 1557 094b 66000000 		.4byte	.LVL8
 1558 094f 950B0000 		.4byte	0xb95
 1559 0953 83090000 		.4byte	0x983
 1560 0957 1F       		.uleb128 0x1f
 1561 0958 01       		.byte	0x1
 1562 0959 53       		.byte	0x53
 1563 095a 01       		.byte	0x1
 1564 095b 32       		.byte	0x32
 1565 095c 1F       		.uleb128 0x1f
 1566 095d 01       		.byte	0x1
 1567 095e 52       		.byte	0x52
 1568 095f 02       		.byte	0x2
 1569 0960 91       		.byte	0x91
 1570 0961 60       		.sleb128 -32
 1571 0962 1F       		.uleb128 0x1f
 1572 0963 01       		.byte	0x1
 1573 0964 51       		.byte	0x51
 1574 0965 02       		.byte	0x2
 1575 0966 75       		.byte	0x75
 1576 0967 00       		.sleb128 0
 1577 0968 1F       		.uleb128 0x1f
 1578 0969 01       		.byte	0x1
 1579 096a 50       		.byte	0x50
 1580 096b 02       		.byte	0x2
 1581 096c 74       		.byte	0x74
 1582 096d 00       		.sleb128 0
 1583 096e 1F       		.uleb128 0x1f
 1584 096f 02       		.byte	0x2
 1585 0970 7D       		.byte	0x7d
 1586 0971 08       		.sleb128 8
 1587 0972 01       		.byte	0x1
 1588 0973 34       		.byte	0x34
 1589 0974 1F       		.uleb128 0x1f
 1590 0975 02       		.byte	0x2
 1591 0976 7D       		.byte	0x7d
 1592 0977 04       		.sleb128 4
ARM GAS  /tmp/ccUb367S.s 			page 29


 1593 0978 02       		.byte	0x2
 1594 0979 76       		.byte	0x76
 1595 097a 00       		.sleb128 0
 1596 097b 1F       		.uleb128 0x1f
 1597 097c 02       		.byte	0x2
 1598 097d 7D       		.byte	0x7d
 1599 097e 00       		.sleb128 0
 1600 097f 02       		.byte	0x2
 1601 0980 76       		.byte	0x76
 1602 0981 00       		.sleb128 0
 1603 0982 00       		.byte	0
 1604 0983 20       		.uleb128 0x20
 1605 0984 6E000000 		.4byte	.LVL11
 1606 0988 CB0B0000 		.4byte	0xbcb
 1607 098c 97090000 		.4byte	0x997
 1608 0990 1F       		.uleb128 0x1f
 1609 0991 01       		.byte	0x1
 1610 0992 50       		.byte	0x50
 1611 0993 02       		.byte	0x2
 1612 0994 74       		.byte	0x74
 1613 0995 00       		.sleb128 0
 1614 0996 00       		.byte	0
 1615 0997 20       		.uleb128 0x20
 1616 0998 74000000 		.4byte	.LVL12
 1617 099c DF0B0000 		.4byte	0xbdf
 1618 09a0 AA090000 		.4byte	0x9aa
 1619 09a4 1F       		.uleb128 0x1f
 1620 09a5 01       		.byte	0x1
 1621 09a6 50       		.byte	0x50
 1622 09a7 01       		.byte	0x1
 1623 09a8 35       		.byte	0x35
 1624 09a9 00       		.byte	0
 1625 09aa 20       		.uleb128 0x20
 1626 09ab 88000000 		.4byte	.LVL14
 1627 09af 810B0000 		.4byte	0xb81
 1628 09b3 BE090000 		.4byte	0x9be
 1629 09b7 1F       		.uleb128 0x1f
 1630 09b8 01       		.byte	0x1
 1631 09b9 50       		.byte	0x50
 1632 09ba 02       		.byte	0x2
 1633 09bb 74       		.byte	0x74
 1634 09bc 00       		.sleb128 0
 1635 09bd 00       		.byte	0
 1636 09be 20       		.uleb128 0x20
 1637 09bf 9C000000 		.4byte	.LVL15
 1638 09c3 950B0000 		.4byte	0xb95
 1639 09c7 F3090000 		.4byte	0x9f3
 1640 09cb 1F       		.uleb128 0x1f
 1641 09cc 01       		.byte	0x1
 1642 09cd 53       		.byte	0x53
 1643 09ce 02       		.byte	0x2
 1644 09cf 77       		.byte	0x77
 1645 09d0 00       		.sleb128 0
 1646 09d1 1F       		.uleb128 0x1f
 1647 09d2 01       		.byte	0x1
 1648 09d3 52       		.byte	0x52
 1649 09d4 02       		.byte	0x2
ARM GAS  /tmp/ccUb367S.s 			page 30


 1650 09d5 91       		.byte	0x91
 1651 09d6 60       		.sleb128 -32
 1652 09d7 1F       		.uleb128 0x1f
 1653 09d8 01       		.byte	0x1
 1654 09d9 50       		.byte	0x50
 1655 09da 02       		.byte	0x2
 1656 09db 74       		.byte	0x74
 1657 09dc 00       		.sleb128 0
 1658 09dd 1F       		.uleb128 0x1f
 1659 09de 02       		.byte	0x2
 1660 09df 7D       		.byte	0x7d
 1661 09e0 08       		.sleb128 8
 1662 09e1 02       		.byte	0x2
 1663 09e2 75       		.byte	0x75
 1664 09e3 00       		.sleb128 0
 1665 09e4 1F       		.uleb128 0x1f
 1666 09e5 02       		.byte	0x2
 1667 09e6 7D       		.byte	0x7d
 1668 09e7 04       		.sleb128 4
 1669 09e8 02       		.byte	0x2
 1670 09e9 76       		.byte	0x76
 1671 09ea 00       		.sleb128 0
 1672 09eb 1F       		.uleb128 0x1f
 1673 09ec 02       		.byte	0x2
 1674 09ed 7D       		.byte	0x7d
 1675 09ee 00       		.sleb128 0
 1676 09ef 02       		.byte	0x2
 1677 09f0 76       		.byte	0x76
 1678 09f1 00       		.sleb128 0
 1679 09f2 00       		.byte	0
 1680 09f3 20       		.uleb128 0x20
 1681 09f4 A4000000 		.4byte	.LVL18
 1682 09f8 CB0B0000 		.4byte	0xbcb
 1683 09fc 070A0000 		.4byte	0xa07
 1684 0a00 1F       		.uleb128 0x1f
 1685 0a01 01       		.byte	0x1
 1686 0a02 50       		.byte	0x50
 1687 0a03 02       		.byte	0x2
 1688 0a04 74       		.byte	0x74
 1689 0a05 00       		.sleb128 0
 1690 0a06 00       		.byte	0
 1691 0a07 1E       		.uleb128 0x1e
 1692 0a08 AA000000 		.4byte	.LVL19
 1693 0a0c DF0B0000 		.4byte	0xbdf
 1694 0a10 1F       		.uleb128 0x1f
 1695 0a11 01       		.byte	0x1
 1696 0a12 50       		.byte	0x50
 1697 0a13 01       		.byte	0x1
 1698 0a14 35       		.byte	0x35
 1699 0a15 00       		.byte	0
 1700 0a16 00       		.byte	0
 1701 0a17 09       		.uleb128 0x9
 1702 0a18 04       		.byte	0x4
 1703 0a19 FF060000 		.4byte	0x6ff
 1704 0a1d 21       		.uleb128 0x21
 1705 0a1e 49000000 		.4byte	0x49
 1706 0a22 2D0A0000 		.4byte	0xa2d
ARM GAS  /tmp/ccUb367S.s 			page 31


 1707 0a26 22       		.uleb128 0x22
 1708 0a27 7F030000 		.4byte	0x37f
 1709 0a2b 07       		.byte	0x7
 1710 0a2c 00       		.byte	0
 1711 0a2d 17       		.uleb128 0x17
 1712 0a2e 01       		.byte	0x1
 1713 0a2f FC010000 		.4byte	.LASF121
 1714 0a33 01       		.byte	0x1
 1715 0a34 2C       		.byte	0x2c
 1716 0a35 01       		.byte	0x1
 1717 0a36 00000000 		.4byte	.LFB65
 1718 0a3a 64000000 		.4byte	.LFE65
 1719 0a3e C0000000 		.4byte	.LLST4
 1720 0a42 01       		.byte	0x1
 1721 0a43 4A0B0000 		.4byte	0xb4a
 1722 0a47 18       		.uleb128 0x18
 1723 0a48 E7020000 		.4byte	.LASF117
 1724 0a4c 01       		.byte	0x1
 1725 0a4d 2C       		.byte	0x2c
 1726 0a4e 170A0000 		.4byte	0xa17
 1727 0a52 EC000000 		.4byte	.LLST5
 1728 0a56 18       		.uleb128 0x18
 1729 0a57 63000000 		.4byte	.LASF112
 1730 0a5b 01       		.byte	0x1
 1731 0a5c 2C       		.byte	0x2c
 1732 0a5d 49000000 		.4byte	0x49
 1733 0a61 0A010000 		.4byte	.LLST6
 1734 0a65 18       		.uleb128 0x18
 1735 0a66 70020000 		.4byte	.LASF122
 1736 0a6a 01       		.byte	0x1
 1737 0a6b 2C       		.byte	0x2c
 1738 0a6c 4A0B0000 		.4byte	0xb4a
 1739 0a70 2B010000 		.4byte	.LLST7
 1740 0a74 18       		.uleb128 0x18
 1741 0a75 76020000 		.4byte	.LASF123
 1742 0a79 01       		.byte	0x1
 1743 0a7a 2C       		.byte	0x2c
 1744 0a7b 4A0B0000 		.4byte	0xb4a
 1745 0a7f 49010000 		.4byte	.LLST8
 1746 0a83 23       		.uleb128 0x23
 1747 0a84 7C020000 		.4byte	.LASF124
 1748 0a88 01       		.byte	0x1
 1749 0a89 2C       		.byte	0x2c
 1750 0a8a 4A0B0000 		.4byte	0xb4a
 1751 0a8e 02       		.byte	0x2
 1752 0a8f 91       		.byte	0x91
 1753 0a90 00       		.sleb128 0
 1754 0a91 19       		.uleb128 0x19
 1755 0a92 37020000 		.4byte	.LASF118
 1756 0a96 01       		.byte	0x1
 1757 0a97 2E       		.byte	0x2e
 1758 0a98 1D0A0000 		.4byte	0xa1d
 1759 0a9c 02       		.byte	0x2
 1760 0a9d 91       		.byte	0x91
 1761 0a9e 60       		.sleb128 -32
 1762 0a9f 19       		.uleb128 0x19
 1763 0aa0 04020000 		.4byte	.LASF125
ARM GAS  /tmp/ccUb367S.s 			page 32


 1764 0aa4 01       		.byte	0x1
 1765 0aa5 2F       		.byte	0x2f
 1766 0aa6 500B0000 		.4byte	0xb50
 1767 0aaa 02       		.byte	0x2
 1768 0aab 91       		.byte	0x91
 1769 0aac 58       		.sleb128 -40
 1770 0aad 1A       		.uleb128 0x1a
 1771 0aae 6D736700 		.ascii	"msg\000"
 1772 0ab2 01       		.byte	0x1
 1773 0ab3 30       		.byte	0x30
 1774 0ab4 FA000000 		.4byte	0xfa
 1775 0ab8 67010000 		.4byte	.LLST9
 1776 0abc 1B       		.uleb128 0x1b
 1777 0abd 3C000000 		.4byte	.LBB5
 1778 0ac1 42000000 		.4byte	.LBE5
 1779 0ac5 ED0A0000 		.4byte	0xaed
 1780 0ac9 1C       		.uleb128 0x1c
 1781 0aca 01       		.byte	0x1
 1782 0acb 68000000 		.4byte	.LASF119
 1783 0acf 01       		.byte	0x1
 1784 0ad0 14       		.byte	0x14
 1785 0ad1 29000000 		.4byte	0x29
 1786 0ad5 01       		.byte	0x1
 1787 0ad6 DC0A0000 		.4byte	0xadc
 1788 0ada 1D       		.uleb128 0x1d
 1789 0adb 00       		.byte	0
 1790 0adc 1E       		.uleb128 0x1e
 1791 0add 42000000 		.4byte	.LVL31
 1792 0ae1 6E0B0000 		.4byte	0xb6e
 1793 0ae5 1F       		.uleb128 0x1f
 1794 0ae6 01       		.byte	0x1
 1795 0ae7 50       		.byte	0x50
 1796 0ae8 02       		.byte	0x2
 1797 0ae9 75       		.byte	0x75
 1798 0aea 00       		.sleb128 0
 1799 0aeb 00       		.byte	0
 1800 0aec 00       		.byte	0
 1801 0aed 20       		.uleb128 0x20
 1802 0aee 1A000000 		.4byte	.LVL26
 1803 0af2 810B0000 		.4byte	0xb81
 1804 0af6 010B0000 		.4byte	0xb01
 1805 0afa 1F       		.uleb128 0x1f
 1806 0afb 01       		.byte	0x1
 1807 0afc 50       		.byte	0x50
 1808 0afd 02       		.byte	0x2
 1809 0afe 75       		.byte	0x75
 1810 0aff 00       		.sleb128 0
 1811 0b00 00       		.byte	0
 1812 0b01 20       		.uleb128 0x20
 1813 0b02 32000000 		.4byte	.LVL27
 1814 0b06 950B0000 		.4byte	0xb95
 1815 0b0a 390B0000 		.4byte	0xb39
 1816 0b0e 1F       		.uleb128 0x1f
 1817 0b0f 01       		.byte	0x1
 1818 0b10 53       		.byte	0x53
 1819 0b11 01       		.byte	0x1
 1820 0b12 31       		.byte	0x31
ARM GAS  /tmp/ccUb367S.s 			page 33


 1821 0b13 1F       		.uleb128 0x1f
 1822 0b14 01       		.byte	0x1
 1823 0b15 52       		.byte	0x52
 1824 0b16 02       		.byte	0x2
 1825 0b17 74       		.byte	0x74
 1826 0b18 00       		.sleb128 0
 1827 0b19 1F       		.uleb128 0x1f
 1828 0b1a 01       		.byte	0x1
 1829 0b1b 51       		.byte	0x51
 1830 0b1c 02       		.byte	0x2
 1831 0b1d 78       		.byte	0x78
 1832 0b1e 00       		.sleb128 0
 1833 0b1f 1F       		.uleb128 0x1f
 1834 0b20 01       		.byte	0x1
 1835 0b21 50       		.byte	0x50
 1836 0b22 02       		.byte	0x2
 1837 0b23 75       		.byte	0x75
 1838 0b24 00       		.sleb128 0
 1839 0b25 1F       		.uleb128 0x1f
 1840 0b26 02       		.byte	0x2
 1841 0b27 7D       		.byte	0x7d
 1842 0b28 08       		.sleb128 8
 1843 0b29 01       		.byte	0x1
 1844 0b2a 34       		.byte	0x34
 1845 0b2b 1F       		.uleb128 0x1f
 1846 0b2c 02       		.byte	0x2
 1847 0b2d 7D       		.byte	0x7d
 1848 0b2e 04       		.sleb128 4
 1849 0b2f 01       		.byte	0x1
 1850 0b30 36       		.byte	0x36
 1851 0b31 1F       		.uleb128 0x1f
 1852 0b32 02       		.byte	0x2
 1853 0b33 7D       		.byte	0x7d
 1854 0b34 00       		.sleb128 0
 1855 0b35 02       		.byte	0x2
 1856 0b36 91       		.byte	0x91
 1857 0b37 58       		.sleb128 -40
 1858 0b38 00       		.byte	0
 1859 0b39 1E       		.uleb128 0x1e
 1860 0b3a 3A000000 		.4byte	.LVL30
 1861 0b3e CB0B0000 		.4byte	0xbcb
 1862 0b42 1F       		.uleb128 0x1f
 1863 0b43 01       		.byte	0x1
 1864 0b44 50       		.byte	0x50
 1865 0b45 02       		.byte	0x2
 1866 0b46 75       		.byte	0x75
 1867 0b47 00       		.sleb128 0
 1868 0b48 00       		.byte	0
 1869 0b49 00       		.byte	0
 1870 0b4a 09       		.uleb128 0x9
 1871 0b4b 04       		.byte	0x4
 1872 0b4c 5B000000 		.4byte	0x5b
 1873 0b50 21       		.uleb128 0x21
 1874 0b51 49000000 		.4byte	0x49
 1875 0b55 600B0000 		.4byte	0xb60
 1876 0b59 22       		.uleb128 0x22
 1877 0b5a 7F030000 		.4byte	0x37f
ARM GAS  /tmp/ccUb367S.s 			page 34


 1878 0b5e 05       		.byte	0x5
 1879 0b5f 00       		.byte	0
 1880 0b60 24       		.uleb128 0x24
 1881 0b61 90000000 		.4byte	.LASF131
 1882 0b65 0D       		.byte	0xd
 1883 0b66 0706     		.2byte	0x607
 1884 0b68 3C040000 		.4byte	0x43c
 1885 0b6c 01       		.byte	0x1
 1886 0b6d 01       		.byte	0x1
 1887 0b6e 1C       		.uleb128 0x1c
 1888 0b6f 01       		.byte	0x1
 1889 0b70 68000000 		.4byte	.LASF119
 1890 0b74 01       		.byte	0x1
 1891 0b75 14       		.byte	0x14
 1892 0b76 29000000 		.4byte	0x29
 1893 0b7a 01       		.byte	0x1
 1894 0b7b 810B0000 		.4byte	0xb81
 1895 0b7f 1D       		.uleb128 0x1d
 1896 0b80 00       		.byte	0
 1897 0b81 25       		.uleb128 0x25
 1898 0b82 01       		.byte	0x1
 1899 0b83 E5040000 		.4byte	.LASF126
 1900 0b87 0B       		.byte	0xb
 1901 0b88 87       		.byte	0x87
 1902 0b89 01       		.byte	0x1
 1903 0b8a 01       		.byte	0x1
 1904 0b8b 950B0000 		.4byte	0xb95
 1905 0b8f 26       		.uleb128 0x26
 1906 0b90 170A0000 		.4byte	0xa17
 1907 0b94 00       		.byte	0
 1908 0b95 27       		.uleb128 0x27
 1909 0b96 01       		.byte	0x1
 1910 0b97 A4000000 		.4byte	.LASF132
 1911 0b9b 0B       		.byte	0xb
 1912 0b9c 7D       		.byte	0x7d
 1913 0b9d 01       		.byte	0x1
 1914 0b9e FA000000 		.4byte	0xfa
 1915 0ba2 01       		.byte	0x1
 1916 0ba3 CB0B0000 		.4byte	0xbcb
 1917 0ba7 26       		.uleb128 0x26
 1918 0ba8 170A0000 		.4byte	0xa17
 1919 0bac 26       		.uleb128 0x26
 1920 0bad 54060000 		.4byte	0x654
 1921 0bb1 26       		.uleb128 0x26
 1922 0bb2 2C040000 		.4byte	0x42c
 1923 0bb6 26       		.uleb128 0x26
 1924 0bb7 30000000 		.4byte	0x30
 1925 0bbb 26       		.uleb128 0x26
 1926 0bbc 26040000 		.4byte	0x426
 1927 0bc0 26       		.uleb128 0x26
 1928 0bc1 30000000 		.4byte	0x30
 1929 0bc5 26       		.uleb128 0x26
 1930 0bc6 10010000 		.4byte	0x110
 1931 0bca 00       		.byte	0
 1932 0bcb 25       		.uleb128 0x25
 1933 0bcc 01       		.byte	0x1
 1934 0bcd 82000000 		.4byte	.LASF127
ARM GAS  /tmp/ccUb367S.s 			page 35


 1935 0bd1 0B       		.byte	0xb
 1936 0bd2 88       		.byte	0x88
 1937 0bd3 01       		.byte	0x1
 1938 0bd4 01       		.byte	0x1
 1939 0bd5 DF0B0000 		.4byte	0xbdf
 1940 0bd9 26       		.uleb128 0x26
 1941 0bda 170A0000 		.4byte	0xa17
 1942 0bde 00       		.byte	0
 1943 0bdf 28       		.uleb128 0x28
 1944 0be0 01       		.byte	0x1
 1945 0be1 DA040000 		.4byte	.LASF133
 1946 0be5 06       		.byte	0x6
 1947 0be6 6E01     		.2byte	0x16e
 1948 0be8 01       		.byte	0x1
 1949 0be9 01       		.byte	0x1
 1950 0bea 26       		.uleb128 0x26
 1951 0beb 10010000 		.4byte	0x110
 1952 0bef 00       		.byte	0
 1953 0bf0 00       		.byte	0
 1954              		.section	.debug_abbrev,"",%progbits
 1955              	.Ldebug_abbrev0:
 1956 0000 01       		.uleb128 0x1
 1957 0001 11       		.uleb128 0x11
 1958 0002 01       		.byte	0x1
 1959 0003 25       		.uleb128 0x25
 1960 0004 0E       		.uleb128 0xe
 1961 0005 13       		.uleb128 0x13
 1962 0006 0B       		.uleb128 0xb
 1963 0007 03       		.uleb128 0x3
 1964 0008 0E       		.uleb128 0xe
 1965 0009 1B       		.uleb128 0x1b
 1966 000a 0E       		.uleb128 0xe
 1967 000b 55       		.uleb128 0x55
 1968 000c 06       		.uleb128 0x6
 1969 000d 11       		.uleb128 0x11
 1970 000e 01       		.uleb128 0x1
 1971 000f 52       		.uleb128 0x52
 1972 0010 01       		.uleb128 0x1
 1973 0011 10       		.uleb128 0x10
 1974 0012 06       		.uleb128 0x6
 1975 0013 00       		.byte	0
 1976 0014 00       		.byte	0
 1977 0015 02       		.uleb128 0x2
 1978 0016 24       		.uleb128 0x24
 1979 0017 00       		.byte	0
 1980 0018 0B       		.uleb128 0xb
 1981 0019 0B       		.uleb128 0xb
 1982 001a 3E       		.uleb128 0x3e
 1983 001b 0B       		.uleb128 0xb
 1984 001c 03       		.uleb128 0x3
 1985 001d 08       		.uleb128 0x8
 1986 001e 00       		.byte	0
 1987 001f 00       		.byte	0
 1988 0020 03       		.uleb128 0x3
 1989 0021 16       		.uleb128 0x16
 1990 0022 00       		.byte	0
 1991 0023 03       		.uleb128 0x3
ARM GAS  /tmp/ccUb367S.s 			page 36


 1992 0024 0E       		.uleb128 0xe
 1993 0025 3A       		.uleb128 0x3a
 1994 0026 0B       		.uleb128 0xb
 1995 0027 3B       		.uleb128 0x3b
 1996 0028 0B       		.uleb128 0xb
 1997 0029 49       		.uleb128 0x49
 1998 002a 13       		.uleb128 0x13
 1999 002b 00       		.byte	0
 2000 002c 00       		.byte	0
 2001 002d 04       		.uleb128 0x4
 2002 002e 24       		.uleb128 0x24
 2003 002f 00       		.byte	0
 2004 0030 0B       		.uleb128 0xb
 2005 0031 0B       		.uleb128 0xb
 2006 0032 3E       		.uleb128 0x3e
 2007 0033 0B       		.uleb128 0xb
 2008 0034 03       		.uleb128 0x3
 2009 0035 0E       		.uleb128 0xe
 2010 0036 00       		.byte	0
 2011 0037 00       		.byte	0
 2012 0038 05       		.uleb128 0x5
 2013 0039 13       		.uleb128 0x13
 2014 003a 01       		.byte	0x1
 2015 003b 03       		.uleb128 0x3
 2016 003c 0E       		.uleb128 0xe
 2017 003d 0B       		.uleb128 0xb
 2018 003e 0B       		.uleb128 0xb
 2019 003f 3A       		.uleb128 0x3a
 2020 0040 0B       		.uleb128 0xb
 2021 0041 3B       		.uleb128 0x3b
 2022 0042 0B       		.uleb128 0xb
 2023 0043 01       		.uleb128 0x1
 2024 0044 13       		.uleb128 0x13
 2025 0045 00       		.byte	0
 2026 0046 00       		.byte	0
 2027 0047 06       		.uleb128 0x6
 2028 0048 0D       		.uleb128 0xd
 2029 0049 00       		.byte	0
 2030 004a 03       		.uleb128 0x3
 2031 004b 0E       		.uleb128 0xe
 2032 004c 3A       		.uleb128 0x3a
 2033 004d 0B       		.uleb128 0xb
 2034 004e 3B       		.uleb128 0x3b
 2035 004f 0B       		.uleb128 0xb
 2036 0050 49       		.uleb128 0x49
 2037 0051 13       		.uleb128 0x13
 2038 0052 38       		.uleb128 0x38
 2039 0053 0A       		.uleb128 0xa
 2040 0054 00       		.byte	0
 2041 0055 00       		.byte	0
 2042 0056 07       		.uleb128 0x7
 2043 0057 0D       		.uleb128 0xd
 2044 0058 00       		.byte	0
 2045 0059 03       		.uleb128 0x3
 2046 005a 08       		.uleb128 0x8
 2047 005b 3A       		.uleb128 0x3a
 2048 005c 0B       		.uleb128 0xb
ARM GAS  /tmp/ccUb367S.s 			page 37


 2049 005d 3B       		.uleb128 0x3b
 2050 005e 0B       		.uleb128 0xb
 2051 005f 49       		.uleb128 0x49
 2052 0060 13       		.uleb128 0x13
 2053 0061 38       		.uleb128 0x38
 2054 0062 0A       		.uleb128 0xa
 2055 0063 00       		.byte	0
 2056 0064 00       		.byte	0
 2057 0065 08       		.uleb128 0x8
 2058 0066 13       		.uleb128 0x13
 2059 0067 01       		.byte	0x1
 2060 0068 0B       		.uleb128 0xb
 2061 0069 0B       		.uleb128 0xb
 2062 006a 3A       		.uleb128 0x3a
 2063 006b 0B       		.uleb128 0xb
 2064 006c 3B       		.uleb128 0x3b
 2065 006d 0B       		.uleb128 0xb
 2066 006e 01       		.uleb128 0x1
 2067 006f 13       		.uleb128 0x13
 2068 0070 00       		.byte	0
 2069 0071 00       		.byte	0
 2070 0072 09       		.uleb128 0x9
 2071 0073 0F       		.uleb128 0xf
 2072 0074 00       		.byte	0
 2073 0075 0B       		.uleb128 0xb
 2074 0076 0B       		.uleb128 0xb
 2075 0077 49       		.uleb128 0x49
 2076 0078 13       		.uleb128 0x13
 2077 0079 00       		.byte	0
 2078 007a 00       		.byte	0
 2079 007b 0A       		.uleb128 0xa
 2080 007c 0F       		.uleb128 0xf
 2081 007d 00       		.byte	0
 2082 007e 0B       		.uleb128 0xb
 2083 007f 0B       		.uleb128 0xb
 2084 0080 00       		.byte	0
 2085 0081 00       		.byte	0
 2086 0082 0B       		.uleb128 0xb
 2087 0083 13       		.uleb128 0x13
 2088 0084 01       		.byte	0x1
 2089 0085 03       		.uleb128 0x3
 2090 0086 0E       		.uleb128 0xe
 2091 0087 0B       		.uleb128 0xb
 2092 0088 0B       		.uleb128 0xb
 2093 0089 3A       		.uleb128 0x3a
 2094 008a 0B       		.uleb128 0xb
 2095 008b 3B       		.uleb128 0x3b
 2096 008c 05       		.uleb128 0x5
 2097 008d 01       		.uleb128 0x1
 2098 008e 13       		.uleb128 0x13
 2099 008f 00       		.byte	0
 2100 0090 00       		.byte	0
 2101 0091 0C       		.uleb128 0xc
 2102 0092 0D       		.uleb128 0xd
 2103 0093 00       		.byte	0
 2104 0094 03       		.uleb128 0x3
 2105 0095 08       		.uleb128 0x8
ARM GAS  /tmp/ccUb367S.s 			page 38


 2106 0096 3A       		.uleb128 0x3a
 2107 0097 0B       		.uleb128 0xb
 2108 0098 3B       		.uleb128 0x3b
 2109 0099 05       		.uleb128 0x5
 2110 009a 49       		.uleb128 0x49
 2111 009b 13       		.uleb128 0x13
 2112 009c 38       		.uleb128 0x38
 2113 009d 0A       		.uleb128 0xa
 2114 009e 00       		.byte	0
 2115 009f 00       		.byte	0
 2116 00a0 0D       		.uleb128 0xd
 2117 00a1 35       		.uleb128 0x35
 2118 00a2 00       		.byte	0
 2119 00a3 49       		.uleb128 0x49
 2120 00a4 13       		.uleb128 0x13
 2121 00a5 00       		.byte	0
 2122 00a6 00       		.byte	0
 2123 00a7 0E       		.uleb128 0xe
 2124 00a8 17       		.uleb128 0x17
 2125 00a9 01       		.byte	0x1
 2126 00aa 0B       		.uleb128 0xb
 2127 00ab 0B       		.uleb128 0xb
 2128 00ac 3A       		.uleb128 0x3a
 2129 00ad 0B       		.uleb128 0xb
 2130 00ae 3B       		.uleb128 0x3b
 2131 00af 0B       		.uleb128 0xb
 2132 00b0 01       		.uleb128 0x1
 2133 00b1 13       		.uleb128 0x13
 2134 00b2 00       		.byte	0
 2135 00b3 00       		.byte	0
 2136 00b4 0F       		.uleb128 0xf
 2137 00b5 0D       		.uleb128 0xd
 2138 00b6 00       		.byte	0
 2139 00b7 03       		.uleb128 0x3
 2140 00b8 0E       		.uleb128 0xe
 2141 00b9 3A       		.uleb128 0x3a
 2142 00ba 0B       		.uleb128 0xb
 2143 00bb 3B       		.uleb128 0x3b
 2144 00bc 0B       		.uleb128 0xb
 2145 00bd 49       		.uleb128 0x49
 2146 00be 13       		.uleb128 0x13
 2147 00bf 00       		.byte	0
 2148 00c0 00       		.byte	0
 2149 00c1 10       		.uleb128 0x10
 2150 00c2 26       		.uleb128 0x26
 2151 00c3 00       		.byte	0
 2152 00c4 49       		.uleb128 0x49
 2153 00c5 13       		.uleb128 0x13
 2154 00c6 00       		.byte	0
 2155 00c7 00       		.byte	0
 2156 00c8 11       		.uleb128 0x11
 2157 00c9 13       		.uleb128 0x13
 2158 00ca 01       		.byte	0x1
 2159 00cb 0B       		.uleb128 0xb
 2160 00cc 0B       		.uleb128 0xb
 2161 00cd 3A       		.uleb128 0x3a
 2162 00ce 0B       		.uleb128 0xb
ARM GAS  /tmp/ccUb367S.s 			page 39


 2163 00cf 3B       		.uleb128 0x3b
 2164 00d0 05       		.uleb128 0x5
 2165 00d1 01       		.uleb128 0x1
 2166 00d2 13       		.uleb128 0x13
 2167 00d3 00       		.byte	0
 2168 00d4 00       		.byte	0
 2169 00d5 12       		.uleb128 0x12
 2170 00d6 0D       		.uleb128 0xd
 2171 00d7 00       		.byte	0
 2172 00d8 03       		.uleb128 0x3
 2173 00d9 0E       		.uleb128 0xe
 2174 00da 3A       		.uleb128 0x3a
 2175 00db 0B       		.uleb128 0xb
 2176 00dc 3B       		.uleb128 0x3b
 2177 00dd 05       		.uleb128 0x5
 2178 00de 49       		.uleb128 0x49
 2179 00df 13       		.uleb128 0x13
 2180 00e0 38       		.uleb128 0x38
 2181 00e1 0A       		.uleb128 0xa
 2182 00e2 00       		.byte	0
 2183 00e3 00       		.byte	0
 2184 00e4 13       		.uleb128 0x13
 2185 00e5 16       		.uleb128 0x16
 2186 00e6 00       		.byte	0
 2187 00e7 03       		.uleb128 0x3
 2188 00e8 0E       		.uleb128 0xe
 2189 00e9 3A       		.uleb128 0x3a
 2190 00ea 0B       		.uleb128 0xb
 2191 00eb 3B       		.uleb128 0x3b
 2192 00ec 05       		.uleb128 0x5
 2193 00ed 49       		.uleb128 0x49
 2194 00ee 13       		.uleb128 0x13
 2195 00ef 00       		.byte	0
 2196 00f0 00       		.byte	0
 2197 00f1 14       		.uleb128 0x14
 2198 00f2 04       		.uleb128 0x4
 2199 00f3 01       		.byte	0x1
 2200 00f4 0B       		.uleb128 0xb
 2201 00f5 0B       		.uleb128 0xb
 2202 00f6 3A       		.uleb128 0x3a
 2203 00f7 0B       		.uleb128 0xb
 2204 00f8 3B       		.uleb128 0x3b
 2205 00f9 0B       		.uleb128 0xb
 2206 00fa 01       		.uleb128 0x1
 2207 00fb 13       		.uleb128 0x13
 2208 00fc 00       		.byte	0
 2209 00fd 00       		.byte	0
 2210 00fe 15       		.uleb128 0x15
 2211 00ff 28       		.uleb128 0x28
 2212 0100 00       		.byte	0
 2213 0101 03       		.uleb128 0x3
 2214 0102 0E       		.uleb128 0xe
 2215 0103 1C       		.uleb128 0x1c
 2216 0104 0D       		.uleb128 0xd
 2217 0105 00       		.byte	0
 2218 0106 00       		.byte	0
 2219 0107 16       		.uleb128 0x16
ARM GAS  /tmp/ccUb367S.s 			page 40


 2220 0108 04       		.uleb128 0x4
 2221 0109 01       		.byte	0x1
 2222 010a 0B       		.uleb128 0xb
 2223 010b 0B       		.uleb128 0xb
 2224 010c 3A       		.uleb128 0x3a
 2225 010d 0B       		.uleb128 0xb
 2226 010e 3B       		.uleb128 0x3b
 2227 010f 05       		.uleb128 0x5
 2228 0110 01       		.uleb128 0x1
 2229 0111 13       		.uleb128 0x13
 2230 0112 00       		.byte	0
 2231 0113 00       		.byte	0
 2232 0114 17       		.uleb128 0x17
 2233 0115 2E       		.uleb128 0x2e
 2234 0116 01       		.byte	0x1
 2235 0117 3F       		.uleb128 0x3f
 2236 0118 0C       		.uleb128 0xc
 2237 0119 03       		.uleb128 0x3
 2238 011a 0E       		.uleb128 0xe
 2239 011b 3A       		.uleb128 0x3a
 2240 011c 0B       		.uleb128 0xb
 2241 011d 3B       		.uleb128 0x3b
 2242 011e 0B       		.uleb128 0xb
 2243 011f 27       		.uleb128 0x27
 2244 0120 0C       		.uleb128 0xc
 2245 0121 11       		.uleb128 0x11
 2246 0122 01       		.uleb128 0x1
 2247 0123 12       		.uleb128 0x12
 2248 0124 01       		.uleb128 0x1
 2249 0125 40       		.uleb128 0x40
 2250 0126 06       		.uleb128 0x6
 2251 0127 9742     		.uleb128 0x2117
 2252 0129 0C       		.uleb128 0xc
 2253 012a 01       		.uleb128 0x1
 2254 012b 13       		.uleb128 0x13
 2255 012c 00       		.byte	0
 2256 012d 00       		.byte	0
 2257 012e 18       		.uleb128 0x18
 2258 012f 05       		.uleb128 0x5
 2259 0130 00       		.byte	0
 2260 0131 03       		.uleb128 0x3
 2261 0132 0E       		.uleb128 0xe
 2262 0133 3A       		.uleb128 0x3a
 2263 0134 0B       		.uleb128 0xb
 2264 0135 3B       		.uleb128 0x3b
 2265 0136 0B       		.uleb128 0xb
 2266 0137 49       		.uleb128 0x49
 2267 0138 13       		.uleb128 0x13
 2268 0139 02       		.uleb128 0x2
 2269 013a 06       		.uleb128 0x6
 2270 013b 00       		.byte	0
 2271 013c 00       		.byte	0
 2272 013d 19       		.uleb128 0x19
 2273 013e 34       		.uleb128 0x34
 2274 013f 00       		.byte	0
 2275 0140 03       		.uleb128 0x3
 2276 0141 0E       		.uleb128 0xe
ARM GAS  /tmp/ccUb367S.s 			page 41


 2277 0142 3A       		.uleb128 0x3a
 2278 0143 0B       		.uleb128 0xb
 2279 0144 3B       		.uleb128 0x3b
 2280 0145 0B       		.uleb128 0xb
 2281 0146 49       		.uleb128 0x49
 2282 0147 13       		.uleb128 0x13
 2283 0148 02       		.uleb128 0x2
 2284 0149 0A       		.uleb128 0xa
 2285 014a 00       		.byte	0
 2286 014b 00       		.byte	0
 2287 014c 1A       		.uleb128 0x1a
 2288 014d 34       		.uleb128 0x34
 2289 014e 00       		.byte	0
 2290 014f 03       		.uleb128 0x3
 2291 0150 08       		.uleb128 0x8
 2292 0151 3A       		.uleb128 0x3a
 2293 0152 0B       		.uleb128 0xb
 2294 0153 3B       		.uleb128 0x3b
 2295 0154 0B       		.uleb128 0xb
 2296 0155 49       		.uleb128 0x49
 2297 0156 13       		.uleb128 0x13
 2298 0157 02       		.uleb128 0x2
 2299 0158 06       		.uleb128 0x6
 2300 0159 00       		.byte	0
 2301 015a 00       		.byte	0
 2302 015b 1B       		.uleb128 0x1b
 2303 015c 0B       		.uleb128 0xb
 2304 015d 01       		.byte	0x1
 2305 015e 11       		.uleb128 0x11
 2306 015f 01       		.uleb128 0x1
 2307 0160 12       		.uleb128 0x12
 2308 0161 01       		.uleb128 0x1
 2309 0162 01       		.uleb128 0x1
 2310 0163 13       		.uleb128 0x13
 2311 0164 00       		.byte	0
 2312 0165 00       		.byte	0
 2313 0166 1C       		.uleb128 0x1c
 2314 0167 2E       		.uleb128 0x2e
 2315 0168 01       		.byte	0x1
 2316 0169 3F       		.uleb128 0x3f
 2317 016a 0C       		.uleb128 0xc
 2318 016b 03       		.uleb128 0x3
 2319 016c 0E       		.uleb128 0xe
 2320 016d 3A       		.uleb128 0x3a
 2321 016e 0B       		.uleb128 0xb
 2322 016f 3B       		.uleb128 0x3b
 2323 0170 0B       		.uleb128 0xb
 2324 0171 49       		.uleb128 0x49
 2325 0172 13       		.uleb128 0x13
 2326 0173 3C       		.uleb128 0x3c
 2327 0174 0C       		.uleb128 0xc
 2328 0175 01       		.uleb128 0x1
 2329 0176 13       		.uleb128 0x13
 2330 0177 00       		.byte	0
 2331 0178 00       		.byte	0
 2332 0179 1D       		.uleb128 0x1d
 2333 017a 18       		.uleb128 0x18
ARM GAS  /tmp/ccUb367S.s 			page 42


 2334 017b 00       		.byte	0
 2335 017c 00       		.byte	0
 2336 017d 00       		.byte	0
 2337 017e 1E       		.uleb128 0x1e
 2338 017f 898201   		.uleb128 0x4109
 2339 0182 01       		.byte	0x1
 2340 0183 11       		.uleb128 0x11
 2341 0184 01       		.uleb128 0x1
 2342 0185 31       		.uleb128 0x31
 2343 0186 13       		.uleb128 0x13
 2344 0187 00       		.byte	0
 2345 0188 00       		.byte	0
 2346 0189 1F       		.uleb128 0x1f
 2347 018a 8A8201   		.uleb128 0x410a
 2348 018d 00       		.byte	0
 2349 018e 02       		.uleb128 0x2
 2350 018f 0A       		.uleb128 0xa
 2351 0190 9142     		.uleb128 0x2111
 2352 0192 0A       		.uleb128 0xa
 2353 0193 00       		.byte	0
 2354 0194 00       		.byte	0
 2355 0195 20       		.uleb128 0x20
 2356 0196 898201   		.uleb128 0x4109
 2357 0199 01       		.byte	0x1
 2358 019a 11       		.uleb128 0x11
 2359 019b 01       		.uleb128 0x1
 2360 019c 31       		.uleb128 0x31
 2361 019d 13       		.uleb128 0x13
 2362 019e 01       		.uleb128 0x1
 2363 019f 13       		.uleb128 0x13
 2364 01a0 00       		.byte	0
 2365 01a1 00       		.byte	0
 2366 01a2 21       		.uleb128 0x21
 2367 01a3 01       		.uleb128 0x1
 2368 01a4 01       		.byte	0x1
 2369 01a5 49       		.uleb128 0x49
 2370 01a6 13       		.uleb128 0x13
 2371 01a7 01       		.uleb128 0x1
 2372 01a8 13       		.uleb128 0x13
 2373 01a9 00       		.byte	0
 2374 01aa 00       		.byte	0
 2375 01ab 22       		.uleb128 0x22
 2376 01ac 21       		.uleb128 0x21
 2377 01ad 00       		.byte	0
 2378 01ae 49       		.uleb128 0x49
 2379 01af 13       		.uleb128 0x13
 2380 01b0 2F       		.uleb128 0x2f
 2381 01b1 0B       		.uleb128 0xb
 2382 01b2 00       		.byte	0
 2383 01b3 00       		.byte	0
 2384 01b4 23       		.uleb128 0x23
 2385 01b5 05       		.uleb128 0x5
 2386 01b6 00       		.byte	0
 2387 01b7 03       		.uleb128 0x3
 2388 01b8 0E       		.uleb128 0xe
 2389 01b9 3A       		.uleb128 0x3a
 2390 01ba 0B       		.uleb128 0xb
ARM GAS  /tmp/ccUb367S.s 			page 43


 2391 01bb 3B       		.uleb128 0x3b
 2392 01bc 0B       		.uleb128 0xb
 2393 01bd 49       		.uleb128 0x49
 2394 01be 13       		.uleb128 0x13
 2395 01bf 02       		.uleb128 0x2
 2396 01c0 0A       		.uleb128 0xa
 2397 01c1 00       		.byte	0
 2398 01c2 00       		.byte	0
 2399 01c3 24       		.uleb128 0x24
 2400 01c4 34       		.uleb128 0x34
 2401 01c5 00       		.byte	0
 2402 01c6 03       		.uleb128 0x3
 2403 01c7 0E       		.uleb128 0xe
 2404 01c8 3A       		.uleb128 0x3a
 2405 01c9 0B       		.uleb128 0xb
 2406 01ca 3B       		.uleb128 0x3b
 2407 01cb 05       		.uleb128 0x5
 2408 01cc 49       		.uleb128 0x49
 2409 01cd 13       		.uleb128 0x13
 2410 01ce 3F       		.uleb128 0x3f
 2411 01cf 0C       		.uleb128 0xc
 2412 01d0 3C       		.uleb128 0x3c
 2413 01d1 0C       		.uleb128 0xc
 2414 01d2 00       		.byte	0
 2415 01d3 00       		.byte	0
 2416 01d4 25       		.uleb128 0x25
 2417 01d5 2E       		.uleb128 0x2e
 2418 01d6 01       		.byte	0x1
 2419 01d7 3F       		.uleb128 0x3f
 2420 01d8 0C       		.uleb128 0xc
 2421 01d9 03       		.uleb128 0x3
 2422 01da 0E       		.uleb128 0xe
 2423 01db 3A       		.uleb128 0x3a
 2424 01dc 0B       		.uleb128 0xb
 2425 01dd 3B       		.uleb128 0x3b
 2426 01de 0B       		.uleb128 0xb
 2427 01df 27       		.uleb128 0x27
 2428 01e0 0C       		.uleb128 0xc
 2429 01e1 3C       		.uleb128 0x3c
 2430 01e2 0C       		.uleb128 0xc
 2431 01e3 01       		.uleb128 0x1
 2432 01e4 13       		.uleb128 0x13
 2433 01e5 00       		.byte	0
 2434 01e6 00       		.byte	0
 2435 01e7 26       		.uleb128 0x26
 2436 01e8 05       		.uleb128 0x5
 2437 01e9 00       		.byte	0
 2438 01ea 49       		.uleb128 0x49
 2439 01eb 13       		.uleb128 0x13
 2440 01ec 00       		.byte	0
 2441 01ed 00       		.byte	0
 2442 01ee 27       		.uleb128 0x27
 2443 01ef 2E       		.uleb128 0x2e
 2444 01f0 01       		.byte	0x1
 2445 01f1 3F       		.uleb128 0x3f
 2446 01f2 0C       		.uleb128 0xc
 2447 01f3 03       		.uleb128 0x3
ARM GAS  /tmp/ccUb367S.s 			page 44


 2448 01f4 0E       		.uleb128 0xe
 2449 01f5 3A       		.uleb128 0x3a
 2450 01f6 0B       		.uleb128 0xb
 2451 01f7 3B       		.uleb128 0x3b
 2452 01f8 0B       		.uleb128 0xb
 2453 01f9 27       		.uleb128 0x27
 2454 01fa 0C       		.uleb128 0xc
 2455 01fb 49       		.uleb128 0x49
 2456 01fc 13       		.uleb128 0x13
 2457 01fd 3C       		.uleb128 0x3c
 2458 01fe 0C       		.uleb128 0xc
 2459 01ff 01       		.uleb128 0x1
 2460 0200 13       		.uleb128 0x13
 2461 0201 00       		.byte	0
 2462 0202 00       		.byte	0
 2463 0203 28       		.uleb128 0x28
 2464 0204 2E       		.uleb128 0x2e
 2465 0205 01       		.byte	0x1
 2466 0206 3F       		.uleb128 0x3f
 2467 0207 0C       		.uleb128 0xc
 2468 0208 03       		.uleb128 0x3
 2469 0209 0E       		.uleb128 0xe
 2470 020a 3A       		.uleb128 0x3a
 2471 020b 0B       		.uleb128 0xb
 2472 020c 3B       		.uleb128 0x3b
 2473 020d 05       		.uleb128 0x5
 2474 020e 27       		.uleb128 0x27
 2475 020f 0C       		.uleb128 0xc
 2476 0210 3C       		.uleb128 0x3c
 2477 0211 0C       		.uleb128 0xc
 2478 0212 00       		.byte	0
 2479 0213 00       		.byte	0
 2480 0214 00       		.byte	0
 2481              		.section	.debug_loc,"",%progbits
 2482              	.Ldebug_loc0:
 2483              	.LLST0:
 2484 0000 00000000 		.4byte	.LFB64
 2485 0004 02000000 		.4byte	.LCFI0
 2486 0008 0200     		.2byte	0x2
 2487 000a 7D       		.byte	0x7d
 2488 000b 00       		.sleb128 0
 2489 000c 02000000 		.4byte	.LCFI0
 2490 0010 06000000 		.4byte	.LCFI1
 2491 0014 0200     		.2byte	0x2
 2492 0016 7D       		.byte	0x7d
 2493 0017 14       		.sleb128 20
 2494 0018 06000000 		.4byte	.LCFI1
 2495 001c C6000000 		.4byte	.LFE64
 2496 0020 0200     		.2byte	0x2
 2497 0022 7D       		.byte	0x7d
 2498 0023 30       		.sleb128 48
 2499 0024 00000000 		.4byte	0
 2500 0028 00000000 		.4byte	0
 2501              	.LLST1:
 2502 002c 00000000 		.4byte	.LVL0
 2503 0030 17000000 		.4byte	.LVL1-1
 2504 0034 0100     		.2byte	0x1
ARM GAS  /tmp/ccUb367S.s 			page 45


 2505 0036 50       		.byte	0x50
 2506 0037 17000000 		.4byte	.LVL1-1
 2507 003b C6000000 		.4byte	.LFE64
 2508 003f 0100     		.2byte	0x1
 2509 0041 54       		.byte	0x54
 2510 0042 00000000 		.4byte	0
 2511 0046 00000000 		.4byte	0
 2512              	.LLST2:
 2513 004a 00000000 		.4byte	.LVL0
 2514 004e 17000000 		.4byte	.LVL1-1
 2515 0052 0100     		.2byte	0x1
 2516 0054 51       		.byte	0x51
 2517 0055 17000000 		.4byte	.LVL1-1
 2518 0059 C6000000 		.4byte	.LFE64
 2519 005d 0400     		.2byte	0x4
 2520 005f F3       		.byte	0xf3
 2521 0060 01       		.uleb128 0x1
 2522 0061 51       		.byte	0x51
 2523 0062 9F       		.byte	0x9f
 2524 0063 00000000 		.4byte	0
 2525 0067 00000000 		.4byte	0
 2526              	.LLST3:
 2527 006b 2E000000 		.4byte	.LVL3
 2528 006f 30000000 		.4byte	.LVL4
 2529 0073 0100     		.2byte	0x1
 2530 0075 50       		.byte	0x50
 2531 0076 30000000 		.4byte	.LVL4
 2532 007a 68000000 		.4byte	.LVL9
 2533 007e 0100     		.2byte	0x1
 2534 0080 57       		.byte	0x57
 2535 0081 68000000 		.4byte	.LVL9
 2536 0085 6A000000 		.4byte	.LVL10
 2537 0089 0100     		.2byte	0x1
 2538 008b 50       		.byte	0x50
 2539 008c 6A000000 		.4byte	.LVL10
 2540 0090 7A000000 		.4byte	.LVL13
 2541 0094 0100     		.2byte	0x1
 2542 0096 57       		.byte	0x57
 2543 0097 9E000000 		.4byte	.LVL16
 2544 009b A0000000 		.4byte	.LVL17
 2545 009f 0100     		.2byte	0x1
 2546 00a1 50       		.byte	0x50
 2547 00a2 A0000000 		.4byte	.LVL17
 2548 00a6 B6000000 		.4byte	.LVL21
 2549 00aa 0100     		.2byte	0x1
 2550 00ac 55       		.byte	0x55
 2551 00ad B6000000 		.4byte	.LVL21
 2552 00b1 C6000000 		.4byte	.LFE64
 2553 00b5 0100     		.2byte	0x1
 2554 00b7 57       		.byte	0x57
 2555 00b8 00000000 		.4byte	0
 2556 00bc 00000000 		.4byte	0
 2557              	.LLST4:
 2558 00c0 00000000 		.4byte	.LFB65
 2559 00c4 04000000 		.4byte	.LCFI2
 2560 00c8 0200     		.2byte	0x2
 2561 00ca 7D       		.byte	0x7d
ARM GAS  /tmp/ccUb367S.s 			page 46


 2562 00cb 00       		.sleb128 0
 2563 00cc 04000000 		.4byte	.LCFI2
 2564 00d0 06000000 		.4byte	.LCFI3
 2565 00d4 0200     		.2byte	0x2
 2566 00d6 7D       		.byte	0x7d
 2567 00d7 18       		.sleb128 24
 2568 00d8 06000000 		.4byte	.LCFI3
 2569 00dc 64000000 		.4byte	.LFE65
 2570 00e0 0200     		.2byte	0x2
 2571 00e2 7D       		.byte	0x7d
 2572 00e3 38       		.sleb128 56
 2573 00e4 00000000 		.4byte	0
 2574 00e8 00000000 		.4byte	0
 2575              	.LLST5:
 2576 00ec 00000000 		.4byte	.LVL24
 2577 00f0 19000000 		.4byte	.LVL26-1
 2578 00f4 0100     		.2byte	0x1
 2579 00f6 50       		.byte	0x50
 2580 00f7 19000000 		.4byte	.LVL26-1
 2581 00fb 64000000 		.4byte	.LFE65
 2582 00ff 0100     		.2byte	0x1
 2583 0101 55       		.byte	0x55
 2584 0102 00000000 		.4byte	0
 2585 0106 00000000 		.4byte	0
 2586              	.LLST6:
 2587 010a 00000000 		.4byte	.LVL24
 2588 010e 19000000 		.4byte	.LVL26-1
 2589 0112 0100     		.2byte	0x1
 2590 0114 51       		.byte	0x51
 2591 0115 19000000 		.4byte	.LVL26-1
 2592 0119 64000000 		.4byte	.LFE65
 2593 011d 0400     		.2byte	0x4
 2594 011f F3       		.byte	0xf3
 2595 0120 01       		.uleb128 0x1
 2596 0121 51       		.byte	0x51
 2597 0122 9F       		.byte	0x9f
 2598 0123 00000000 		.4byte	0
 2599 0127 00000000 		.4byte	0
 2600              	.LLST7:
 2601 012b 00000000 		.4byte	.LVL24
 2602 012f 19000000 		.4byte	.LVL26-1
 2603 0133 0100     		.2byte	0x1
 2604 0135 52       		.byte	0x52
 2605 0136 19000000 		.4byte	.LVL26-1
 2606 013a 64000000 		.4byte	.LFE65
 2607 013e 0100     		.2byte	0x1
 2608 0140 57       		.byte	0x57
 2609 0141 00000000 		.4byte	0
 2610 0145 00000000 		.4byte	0
 2611              	.LLST8:
 2612 0149 00000000 		.4byte	.LVL24
 2613 014d 0C000000 		.4byte	.LVL25
 2614 0151 0100     		.2byte	0x1
 2615 0153 53       		.byte	0x53
 2616 0154 0C000000 		.4byte	.LVL25
 2617 0158 64000000 		.4byte	.LFE65
 2618 015c 0100     		.2byte	0x1
ARM GAS  /tmp/ccUb367S.s 			page 47


 2619 015e 56       		.byte	0x56
 2620 015f 00000000 		.4byte	0
 2621 0163 00000000 		.4byte	0
 2622              	.LLST9:
 2623 0167 34000000 		.4byte	.LVL28
 2624 016b 36000000 		.4byte	.LVL29
 2625 016f 0100     		.2byte	0x1
 2626 0171 50       		.byte	0x50
 2627 0172 36000000 		.4byte	.LVL29
 2628 0176 64000000 		.4byte	.LFE65
 2629 017a 0100     		.2byte	0x1
 2630 017c 54       		.byte	0x54
 2631 017d 00000000 		.4byte	0
 2632 0181 00000000 		.4byte	0
 2633              		.section	.debug_aranges,"",%progbits
 2634 0000 24000000 		.4byte	0x24
 2635 0004 0200     		.2byte	0x2
 2636 0006 00000000 		.4byte	.Ldebug_info0
 2637 000a 04       		.byte	0x4
 2638 000b 00       		.byte	0
 2639 000c 0000     		.2byte	0
 2640 000e 0000     		.2byte	0
 2641 0010 00000000 		.4byte	.LFB64
 2642 0014 C6000000 		.4byte	.LFE64-.LFB64
 2643 0018 00000000 		.4byte	.LFB65
 2644 001c 64000000 		.4byte	.LFE65-.LFB65
 2645 0020 00000000 		.4byte	0
 2646 0024 00000000 		.4byte	0
 2647              		.section	.debug_ranges,"",%progbits
 2648              	.Ldebug_ranges0:
 2649 0000 00000000 		.4byte	.LFB64
 2650 0004 C6000000 		.4byte	.LFE64
 2651 0008 00000000 		.4byte	.LFB65
 2652 000c 64000000 		.4byte	.LFE65
 2653 0010 00000000 		.4byte	0
 2654 0014 00000000 		.4byte	0
 2655              		.section	.debug_line,"",%progbits
 2656              	.Ldebug_line0:
 2657 0000 5F020000 		.section	.debug_str,"MS",%progbits,1
 2657      0200ED01 
 2657      00000201 
 2657      FB0E0D00 
 2657      01010101 
 2658              	.LASF98:
 2659 0000 5354445F 		.ascii	"STD_DUTY_CYCLE\000"
 2659      44555459 
 2659      5F435943 
 2659      4C4500
 2660              	.LASF115:
 2661 000f 646D6172 		.ascii	"dmarx\000"
 2661      7800
 2662              	.LASF101:
 2663 0015 69326364 		.ascii	"i2cdutycycle_t\000"
 2663      75747963 
 2663      79636C65 
 2663      5F7400
 2664              	.LASF91:
ARM GAS  /tmp/ccUb367S.s 			page 48


 2665 0024 69326373 		.ascii	"i2cstate_t\000"
 2665      74617465 
 2665      5F7400
 2666              	.LASF2:
 2667 002f 73697A65 		.ascii	"size_t\000"
 2667      5F7400
 2668              	.LASF57:
 2669 0036 7264796D 		.ascii	"rdymsg\000"
 2669      736700
 2670              	.LASF14:
 2671 003d 75696E74 		.ascii	"uint64_t\000"
 2671      36345F74 
 2671      00
 2672              	.LASF76:
 2673 0046 54524953 		.ascii	"TRISE\000"
 2673      4500
 2674              	.LASF15:
 2675 004c 6C6F6E67 		.ascii	"long long unsigned int\000"
 2675      206C6F6E 
 2675      6720756E 
 2675      7369676E 
 2675      65642069 
 2676              	.LASF112:
 2677 0063 61646472 		.ascii	"addr\000"
 2677      00
 2678              	.LASF119:
 2679 0068 69326347 		.ascii	"i2cGetErr\000"
 2679      65744572 
 2679      7200
 2680              	.LASF58:
 2681 0072 65786974 		.ascii	"exitcode\000"
 2681      636F6465 
 2681      00
 2682              	.LASF83:
 2683 007b 76656374 		.ascii	"vector\000"
 2683      6F7200
 2684              	.LASF127:
 2685 0082 69326352 		.ascii	"i2cReleaseBus\000"
 2685      656C6561 
 2685      73654275 
 2685      7300
 2686              	.LASF131:
 2687 0090 49544D5F 		.ascii	"ITM_RxBuffer\000"
 2687      52784275 
 2687      66666572 
 2687      00
 2688              	.LASF28:
 2689 009d 705F7072 		.ascii	"p_prio\000"
 2689      696F00
 2690              	.LASF132:
 2691 00a4 6932634D 		.ascii	"i2cMasterTransmitTimeout\000"
 2691      61737465 
 2691      72547261 
 2691      6E736D69 
 2691      7454696D 
 2692              	.LASF5:
 2693 00bd 696E7431 		.ascii	"int16_t\000"
ARM GAS  /tmp/ccUb367S.s 			page 49


 2693      365F7400 
 2694              	.LASF13:
 2695 00c5 6C6F6E67 		.ascii	"long long int\000"
 2695      206C6F6E 
 2695      6720696E 
 2695      7400
 2696              	.LASF1:
 2697 00d3 7369676E 		.ascii	"signed char\000"
 2697      65642063 
 2697      68617200 
 2698              	.LASF103:
 2699 00df 636C6F63 		.ascii	"clock_speed\000"
 2699      6B5F7370 
 2699      65656400 
 2700              	.LASF45:
 2701 00eb 705F6D70 		.ascii	"p_mpool\000"
 2701      6F6F6C00 
 2702              	.LASF54:
 2703 00f3 6D5F7175 		.ascii	"m_queue\000"
 2703      65756500 
 2704              	.LASF20:
 2705 00fb 74736C69 		.ascii	"tslices_t\000"
 2705      6365735F 
 2705      7400
 2706              	.LASF128:
 2707 0105 474E5520 		.ascii	"GNU C 4.7.4 20130913 (release) [ARM/embedded-4_7-br"
 2707      4320342E 
 2707      372E3420 
 2707      32303133 
 2707      30393133 
 2708 0138 616E6368 		.ascii	"anch revision 202601]\000"
 2708      20726576 
 2708      6973696F 
 2708      6E203230 
 2708      32363031 
 2709              	.LASF92:
 2710 014e 69326361 		.ascii	"i2caddr_t\000"
 2710      6464725F 
 2710      7400
 2711              	.LASF107:
 2712 0158 73746174 		.ascii	"state\000"
 2712      6500
 2713              	.LASF10:
 2714 015e 6C6F6E67 		.ascii	"long int\000"
 2714      20696E74 
 2714      00
 2715              	.LASF18:
 2716 0167 74737461 		.ascii	"tstate_t\000"
 2716      74655F74 
 2716      00
 2717              	.LASF111:
 2718 0170 74687265 		.ascii	"thread\000"
 2718      616400
 2719              	.LASF36:
 2720 0177 705F7265 		.ascii	"p_refs\000"
 2720      667300
 2721              	.LASF105:
ARM GAS  /tmp/ccUb367S.s 			page 50


 2722 017e 49324343 		.ascii	"I2CConfig\000"
 2722      6F6E6669 
 2722      6700
 2723              	.LASF38:
 2724 0188 705F7469 		.ascii	"p_time\000"
 2724      6D6500
 2725              	.LASF30:
 2726 018f 705F6E65 		.ascii	"p_newer\000"
 2726      77657200 
 2727              	.LASF113:
 2728 0197 7278646D 		.ascii	"rxdmamode\000"
 2728      616D6F64 
 2728      6500
 2729              	.LASF116:
 2730 01a1 646D6174 		.ascii	"dmatx\000"
 2730      7800
 2731              	.LASF96:
 2732 01a7 4F504D4F 		.ascii	"OPMODE_SMBUS_HOST\000"
 2732      44455F53 
 2732      4D425553 
 2732      5F484F53 
 2732      5400
 2733              	.LASF48:
 2734 01b9 72656761 		.ascii	"regarm_t\000"
 2734      726D5F74 
 2734      00
 2735              	.LASF82:
 2736 01c2 73656C66 		.ascii	"selfindex\000"
 2736      696E6465 
 2736      7800
 2737              	.LASF102:
 2738 01cc 6F705F6D 		.ascii	"op_mode\000"
 2738      6F646500 
 2739              	.LASF25:
 2740 01d4 54687265 		.ascii	"Thread\000"
 2740      616400
 2741              	.LASF33:
 2742 01db 705F7374 		.ascii	"p_stklimit\000"
 2742      6B6C696D 
 2742      697400
 2743              	.LASF0:
 2744 01e6 756E7369 		.ascii	"unsigned int\000"
 2744      676E6564 
 2744      20696E74 
 2744      00
 2745              	.LASF7:
 2746 01f3 75696E74 		.ascii	"uint16_t\000"
 2746      31365F74 
 2746      00
 2747              	.LASF121:
 2748 01fc 6D616752 		.ascii	"magRead\000"
 2748      65616400 
 2749              	.LASF125:
 2750 0204 72785F64 		.ascii	"rx_data\000"
 2750      61746100 
 2751              	.LASF63:
 2752 020c 43504152 		.ascii	"CPAR\000"
ARM GAS  /tmp/ccUb367S.s 			page 51


 2752      00
 2753              	.LASF40:
 2754 0211 705F6D73 		.ascii	"p_msgqueue\000"
 2754      67717565 
 2754      756500
 2755              	.LASF65:
 2756 021c 444D415F 		.ascii	"DMA_Channel_TypeDef\000"
 2756      4368616E 
 2756      6E656C5F 
 2756      54797065 
 2756      44656600 
 2757              	.LASF81:
 2758 0230 69736869 		.ascii	"ishift\000"
 2758      667400
 2759              	.LASF118:
 2760 0237 74785F64 		.ascii	"tx_data\000"
 2760      61746100 
 2761              	.LASF95:
 2762 023f 4F504D4F 		.ascii	"OPMODE_SMBUS_DEVICE\000"
 2762      44455F53 
 2762      4D425553 
 2762      5F444556 
 2762      49434500 
 2763              	.LASF8:
 2764 0253 73686F72 		.ascii	"short unsigned int\000"
 2764      7420756E 
 2764      7369676E 
 2764      65642069 
 2764      6E7400
 2765              	.LASF106:
 2766 0266 49324344 		.ascii	"I2CDriver\000"
 2766      72697665 
 2766      7200
 2767              	.LASF122:
 2768 0270 6D61675F 		.ascii	"mag_x\000"
 2768      7800
 2769              	.LASF123:
 2770 0276 6D61675F 		.ascii	"mag_y\000"
 2770      7900
 2771              	.LASF124:
 2772 027c 6D61675F 		.ascii	"mag_z\000"
 2772      7A00
 2773              	.LASF22:
 2774 0282 6D73675F 		.ascii	"msg_t\000"
 2774      7400
 2775              	.LASF17:
 2776 0288 746D6F64 		.ascii	"tmode_t\000"
 2776      655F7400 
 2777              	.LASF47:
 2778 0290 54687265 		.ascii	"ThreadsList\000"
 2778      6164734C 
 2778      69737400 
 2779              	.LASF23:
 2780 029c 6576656E 		.ascii	"eventmask_t\000"
 2780      746D6173 
 2780      6B5F7400 
 2781              	.LASF6:
ARM GAS  /tmp/ccUb367S.s 			page 52


 2782 02a8 73686F72 		.ascii	"short int\000"
 2782      7420696E 
 2782      7400
 2783              	.LASF49:
 2784 02b2 73746B61 		.ascii	"stkalign_t\000"
 2784      6C69676E 
 2784      5F7400
 2785              	.LASF86:
 2786 02bd 4932435F 		.ascii	"I2C_STOP\000"
 2786      53544F50 
 2786      00
 2787              	.LASF52:
 2788 02c6 73697A65 		.ascii	"sizetype\000"
 2788      74797065 
 2788      00
 2789              	.LASF53:
 2790 02cf 4D757465 		.ascii	"Mutex\000"
 2790      7800
 2791              	.LASF109:
 2792 02d5 6572726F 		.ascii	"errors\000"
 2792      727300
 2793              	.LASF104:
 2794 02dc 64757479 		.ascii	"duty_cycle\000"
 2794      5F637963 
 2794      6C6500
 2795              	.LASF117:
 2796 02e7 6932635F 		.ascii	"i2c_drv\000"
 2796      64727600 
 2797              	.LASF31:
 2798 02ef 705F6F6C 		.ascii	"p_older\000"
 2798      64657200 
 2799              	.LASF46:
 2800 02f7 54687265 		.ascii	"ThreadsQueue\000"
 2800      61647351 
 2800      75657565 
 2800      00
 2801              	.LASF114:
 2802 0304 7478646D 		.ascii	"txdmamode\000"
 2802      616D6F64 
 2802      6500
 2803              	.LASF94:
 2804 030e 4F504D4F 		.ascii	"OPMODE_I2C\000"
 2804      44455F49 
 2804      324300
 2805              	.LASF100:
 2806 0319 46415354 		.ascii	"FAST_DUTY_CYCLE_16_9\000"
 2806      5F445554 
 2806      595F4359 
 2806      434C455F 
 2806      31365F39 
 2807              	.LASF19:
 2808 032e 74726566 		.ascii	"trefs_t\000"
 2808      735F7400 
 2809              	.LASF66:
 2810 0336 52455345 		.ascii	"RESERVED0\000"
 2810      52564544 
 2810      3000
ARM GAS  /tmp/ccUb367S.s 			page 53


 2811              	.LASF67:
 2812 0340 52455345 		.ascii	"RESERVED1\000"
 2812      52564544 
 2812      3100
 2813              	.LASF69:
 2814 034a 52455345 		.ascii	"RESERVED2\000"
 2814      52564544 
 2814      3200
 2815              	.LASF71:
 2816 0354 52455345 		.ascii	"RESERVED3\000"
 2816      52564544 
 2816      3300
 2817              	.LASF72:
 2818 035e 52455345 		.ascii	"RESERVED4\000"
 2818      52564544 
 2818      3400
 2819              	.LASF27:
 2820 0368 705F7072 		.ascii	"p_prev\000"
 2820      657600
 2821              	.LASF74:
 2822 036f 52455345 		.ascii	"RESERVED6\000"
 2822      52564544 
 2822      3600
 2823              	.LASF75:
 2824 0379 52455345 		.ascii	"RESERVED7\000"
 2824      52564544 
 2824      3700
 2825              	.LASF77:
 2826 0383 52455345 		.ascii	"RESERVED8\000"
 2826      52564544 
 2826      3800
 2827              	.LASF21:
 2828 038d 74707269 		.ascii	"tprio_t\000"
 2828      6F5F7400 
 2829              	.LASF88:
 2830 0395 4932435F 		.ascii	"I2C_ACTIVE_TX\000"
 2830      41435449 
 2830      56455F54 
 2830      5800
 2831              	.LASF93:
 2832 03a3 69326366 		.ascii	"i2cflags_t\000"
 2832      6C616773 
 2832      5F7400
 2833              	.LASF110:
 2834 03ae 6D757465 		.ascii	"mutex\000"
 2834      7800
 2835              	.LASF16:
 2836 03b4 5F426F6F 		.ascii	"_Bool\000"
 2836      6C00
 2837              	.LASF9:
 2838 03ba 696E7433 		.ascii	"int32_t\000"
 2838      325F7400 
 2839              	.LASF4:
 2840 03c2 756E7369 		.ascii	"unsigned char\000"
 2840      676E6564 
 2840      20636861 
 2840      7200
ARM GAS  /tmp/ccUb367S.s 			page 54


 2841              	.LASF84:
 2842 03d0 73746D33 		.ascii	"stm32_dma_stream_t\000"
 2842      325F646D 
 2842      615F7374 
 2842      7265616D 
 2842      5F7400
 2843              	.LASF43:
 2844 03e3 705F6D74 		.ascii	"p_mtxlist\000"
 2844      786C6973 
 2844      7400
 2845              	.LASF85:
 2846 03ed 4932435F 		.ascii	"I2C_UNINIT\000"
 2846      554E494E 
 2846      495400
 2847              	.LASF34:
 2848 03f8 705F7374 		.ascii	"p_state\000"
 2848      61746500 
 2849              	.LASF37:
 2850 0400 705F7072 		.ascii	"p_preempt\000"
 2850      65656D70 
 2850      7400
 2851              	.LASF60:
 2852 040a 65776D61 		.ascii	"ewmask\000"
 2852      736B00
 2853              	.LASF26:
 2854 0411 705F6E65 		.ascii	"p_next\000"
 2854      787400
 2855              	.LASF35:
 2856 0418 705F666C 		.ascii	"p_flags\000"
 2856      61677300 
 2857              	.LASF99:
 2858 0420 46415354 		.ascii	"FAST_DUTY_CYCLE_2\000"
 2858      5F445554 
 2858      595F4359 
 2858      434C455F 
 2858      3200
 2859              	.LASF79:
 2860 0432 6368616E 		.ascii	"channel\000"
 2860      6E656C00 
 2861              	.LASF90:
 2862 043a 4932435F 		.ascii	"I2C_LOCKED\000"
 2862      4C4F434B 
 2862      454400
 2863              	.LASF129:
 2864 0445 4D414730 		.ascii	"MAG01A.c\000"
 2864      31412E63 
 2864      00
 2865              	.LASF42:
 2866 044e 705F6570 		.ascii	"p_epending\000"
 2866      656E6469 
 2866      6E6700
 2867              	.LASF80:
 2868 0459 69666372 		.ascii	"ifcr\000"
 2868      00
 2869              	.LASF73:
 2870 045e 52455345 		.ascii	"RESERVED5\000"
 2870      52564544 
ARM GAS  /tmp/ccUb367S.s 			page 55


 2870      3500
 2871              	.LASF11:
 2872 0468 75696E74 		.ascii	"uint32_t\000"
 2872      33325F74 
 2872      00
 2873              	.LASF89:
 2874 0471 4932435F 		.ascii	"I2C_ACTIVE_RX\000"
 2874      41435449 
 2874      56455F52 
 2874      5800
 2875              	.LASF12:
 2876 047f 6C6F6E67 		.ascii	"long unsigned int\000"
 2876      20756E73 
 2876      69676E65 
 2876      6420696E 
 2876      7400
 2877              	.LASF61:
 2878 0491 63686172 		.ascii	"char\000"
 2878      00
 2879              	.LASF108:
 2880 0496 636F6E66 		.ascii	"config\000"
 2880      696700
 2881              	.LASF120:
 2882 049d 6D616749 		.ascii	"magInit\000"
 2882      6E697400 
 2883              	.LASF56:
 2884 04a5 6D5F6E65 		.ascii	"m_next\000"
 2884      787400
 2885              	.LASF24:
 2886 04ac 73797374 		.ascii	"systime_t\000"
 2886      696D655F 
 2886      7400
 2887              	.LASF44:
 2888 04b6 705F7265 		.ascii	"p_realprio\000"
 2888      616C7072 
 2888      696F00
 2889              	.LASF87:
 2890 04c1 4932435F 		.ascii	"I2C_READY\000"
 2890      52454144 
 2890      5900
 2891              	.LASF51:
 2892 04cb 636F6E74 		.ascii	"context\000"
 2892      65787400 
 2893              	.LASF50:
 2894 04d3 696E7463 		.ascii	"intctx\000"
 2894      747800
 2895              	.LASF133:
 2896 04da 63685468 		.ascii	"chThdSleep\000"
 2896      64536C65 
 2896      657000
 2897              	.LASF126:
 2898 04e5 69326341 		.ascii	"i2cAcquireBus\000"
 2898      63717569 
 2898      72654275 
 2898      7300
 2899              	.LASF62:
 2900 04f3 434E4454 		.ascii	"CNDTR\000"
ARM GAS  /tmp/ccUb367S.s 			page 56


 2900      5200
 2901              	.LASF64:
 2902 04f9 434D4152 		.ascii	"CMAR\000"
 2902      00
 2903              	.LASF3:
 2904 04fe 75696E74 		.ascii	"uint8_t\000"
 2904      385F7400 
 2905              	.LASF130:
 2906 0506 2F686F6D 		.ascii	"/home/ondra6ak/Documents/ARM/mlab-ChibiOS-RT/demos/"
 2906      652F6F6E 
 2906      64726136 
 2906      616B2F44 
 2906      6F63756D 
 2907 0539 6D616744 		.ascii	"magDemo\000"
 2907      656D6F00 
 2908              	.LASF68:
 2909 0541 4F415231 		.ascii	"OAR1\000"
 2909      00
 2910              	.LASF70:
 2911 0546 4F415232 		.ascii	"OAR2\000"
 2911      00
 2912              	.LASF59:
 2913 054b 77746F62 		.ascii	"wtobjp\000"
 2913      6A7000
 2914              	.LASF32:
 2915 0552 705F6E61 		.ascii	"p_name\000"
 2915      6D6500
 2916              	.LASF41:
 2917 0559 705F6D73 		.ascii	"p_msg\000"
 2917      6700
 2918              	.LASF78:
 2919 055f 4932435F 		.ascii	"I2C_TypeDef\000"
 2919      54797065 
 2919      44656600 
 2920              	.LASF97:
 2921 056b 6932636F 		.ascii	"i2copmode_t\000"
 2921      706D6F64 
 2921      655F7400 
 2922              	.LASF55:
 2923 0577 6D5F6F77 		.ascii	"m_owner\000"
 2923      6E657200 
 2924              	.LASF29:
 2925 057f 705F6374 		.ascii	"p_ctx\000"
 2925      7800
 2926              	.LASF39:
 2927 0585 705F7761 		.ascii	"p_waiting\000"
 2927      6974696E 
 2927      6700
 2928              		.ident	"GCC: (GNU Tools for ARM Embedded Processors) 4.7.4 20130913 (release) [ARM/embedded-4_7-br
ARM GAS  /tmp/ccUb367S.s 			page 57


DEFINED SYMBOLS
                            *ABS*:00000000 MAG01A.c
     /tmp/ccUb367S.s:19     .text.magInit:00000000 $t
     /tmp/ccUb367S.s:25     .text.magInit:00000000 magInit
     /tmp/ccUb367S.s:194    .text.magRead:00000000 $t
     /tmp/ccUb367S.s:200    .text.magRead:00000000 magRead
                     .debug_frame:00000010 $d

UNDEFINED SYMBOLS
i2cAcquireBus
i2cMasterTransmitTimeout
i2cReleaseBus
chThdSleep
i2cGetErr
