ARM GAS  /tmp/ccUb367S.s 			page 1


   1              		.syntax unified
   2              		.cpu cortex-m3
   3              		.fpu softvfp
   4              		.eabi_attribute 20, 1
   5              		.eabi_attribute 21, 1
   6              		.eabi_attribute 23, 3
   7              		.eabi_attribute 24, 1
   8              		.eabi_attribute 25, 1
   9              		.eabi_attribute 26, 1
  10              		.eabi_attribute 30, 2
  11              		.eabi_attribute 34, 1
  12              		.eabi_attribute 18, 4
  13              		.thumb
  14              		.file	"MAG01A.c"
  15              		.text
  16              	.Ltext0:
  17              		.cfi_sections	.debug_frame
  18              		.section	.text.magInit,"ax",%progbits
  19              		.align	2
  20              		.p2align 4,,15
  21              		.global	magInit
  22              		.thumb
  23              		.thumb_func
  24              		.type	magInit, %function
  25              	magInit:
  26              	.LFB64:
  27              		.file 1 "MAG01A.c"
  28              		.loc 1 9 0
  29              		.cfi_startproc
  30              		@ args = 0, pretend = 0, frame = 8
  31              		@ frame_needed = 0, uses_anonymous_args = 0
  32              	.LVL0:
  33 0000 F0B5     		push	{r4, r5, r6, r7, lr}
  34              	.LCFI0:
  35              		.cfi_def_cfa_offset 20
  36              		.cfi_offset 4, -20
  37              		.cfi_offset 5, -16
  38              		.cfi_offset 6, -12
  39              		.cfi_offset 7, -8
  40              		.cfi_offset 14, -4
  41              		.loc 1 15 0
  42 0002 F823     		movs	r3, #248
  43              		.loc 1 9 0
  44 0004 87B0     		sub	sp, sp, #28
  45              	.LCFI1:
  46              		.cfi_def_cfa_offset 48
  47              		.loc 1 14 0
  48 0006 0026     		movs	r6, #0
  49              		.loc 1 9 0
  50 0008 0446     		mov	r4, r0
  51 000a 0D46     		mov	r5, r1
  52              		.loc 1 15 0
  53 000c 8DF81130 		strb	r3, [sp, #17]
  54              		.loc 1 14 0
  55 0010 8DF81060 		strb	r6, [sp, #16]
  56              		.loc 1 16 0
  57 0014 FFF7FEFF 		bl	i2cAcquireBus
ARM GAS  /tmp/ccUb367S.s 			page 2


  58              	.LVL1:
  59              		.loc 1 17 0
  60 0018 0420     		movs	r0, #4
  61 001a 2946     		mov	r1, r5
  62 001c 04AA     		add	r2, sp, #16
  63 001e 0223     		movs	r3, #2
  64 0020 0290     		str	r0, [sp, #8]
  65 0022 0096     		str	r6, [sp, #0]
  66 0024 0196     		str	r6, [sp, #4]
  67 0026 2046     		mov	r0, r4
  68 0028 FFF7FEFF 		bl	i2cMasterTransmitTimeout
  69              	.LVL2:
  70 002c 0746     		mov	r7, r0
  71              	.LVL3:
  72              		.loc 1 18 0
  73 002e 2046     		mov	r0, r4
  74              	.LVL4:
  75 0030 FFF7FEFF 		bl	i2cReleaseBus
  76              	.LVL5:
  77              		.loc 1 19 0
  78 0034 0520     		movs	r0, #5
  79 0036 FFF7FEFF 		bl	chThdSleep
  80              	.LVL6:
  81              		.loc 1 20 0
  82 003a 002F     		cmp	r7, #0
  83 003c 3FD1     		bne	.L15
  84              	.L2:
  85              		.loc 1 23 0
  86 003e 0121     		movs	r1, #1
  87              		.loc 1 24 0
  88 0040 2022     		movs	r2, #32
  89              		.loc 1 25 0
  90 0042 2046     		mov	r0, r4
  91              		.loc 1 23 0
  92 0044 8DF81010 		strb	r1, [sp, #16]
  93              		.loc 1 24 0
  94 0048 8DF81120 		strb	r2, [sp, #17]
  95              		.loc 1 26 0
  96 004c 0026     		movs	r6, #0
  97              		.loc 1 25 0
  98 004e FFF7FEFF 		bl	i2cAcquireBus
  99              	.LVL7:
 100              		.loc 1 26 0
 101 0052 0420     		movs	r0, #4
 102 0054 2946     		mov	r1, r5
 103 0056 04AA     		add	r2, sp, #16
 104 0058 0223     		movs	r3, #2
 105 005a 0290     		str	r0, [sp, #8]
 106 005c 0096     		str	r6, [sp, #0]
 107 005e 0196     		str	r6, [sp, #4]
 108 0060 2046     		mov	r0, r4
 109 0062 FFF7FEFF 		bl	i2cMasterTransmitTimeout
 110              	.LVL8:
 111 0066 0746     		mov	r7, r0
 112              	.LVL9:
 113              		.loc 1 27 0
 114 0068 2046     		mov	r0, r4
ARM GAS  /tmp/ccUb367S.s 			page 3


 115              	.LVL10:
 116 006a FFF7FEFF 		bl	i2cReleaseBus
 117              	.LVL11:
 118              		.loc 1 28 0
 119 006e 0520     		movs	r0, #5
 120 0070 FFF7FEFF 		bl	chThdSleep
 121              	.LVL12:
 122              		.loc 1 29 0
 123 0074 FFB9     		cbnz	r7, .L16
 124              	.L3:
 125              		.loc 1 34 0
 126 0076 0026     		movs	r6, #0
 127              		.loc 1 33 0
 128 0078 0227     		movs	r7, #2
 129              	.LVL13:
 130              		.loc 1 35 0
 131 007a 2046     		mov	r0, r4
 132              		.loc 1 33 0
 133 007c 8DF81070 		strb	r7, [sp, #16]
 134              		.loc 1 34 0
 135 0080 8DF81160 		strb	r6, [sp, #17]
 136              		.loc 1 35 0
 137 0084 FFF7FEFF 		bl	i2cAcquireBus
 138              	.LVL14:
 139              		.loc 1 36 0
 140 0088 2946     		mov	r1, r5
 141 008a 0425     		movs	r5, #4
 142 008c 04AA     		add	r2, sp, #16
 143 008e 3B46     		mov	r3, r7
 144 0090 0295     		str	r5, [sp, #8]
 145 0092 0096     		str	r6, [sp, #0]
 146 0094 0196     		str	r6, [sp, #4]
 147 0096 2046     		mov	r0, r4
 148 0098 FFF7FEFF 		bl	i2cMasterTransmitTimeout
 149              	.LVL15:
 150 009c 0546     		mov	r5, r0
 151              	.LVL16:
 152              		.loc 1 37 0
 153 009e 2046     		mov	r0, r4
 154              	.LVL17:
 155 00a0 FFF7FEFF 		bl	i2cReleaseBus
 156              	.LVL18:
 157              		.loc 1 38 0
 158 00a4 0520     		movs	r0, #5
 159 00a6 FFF7FEFF 		bl	chThdSleep
 160              	.LVL19:
 161              		.loc 1 39 0
 162 00aa 15B1     		cbz	r5, .L1
 163              	.LBB2:
 164              		.loc 1 39 0 is_stmt 0 discriminator 1
 165 00ac 2046     		mov	r0, r4
 166 00ae FFF7FEFF 		bl	i2cGetErr
 167              	.LVL20:
 168              	.L1:
 169              	.LBE2:
 170              		.loc 1 41 0 is_stmt 1
 171 00b2 07B0     		add	sp, sp, #28
ARM GAS  /tmp/ccUb367S.s 			page 4


 172 00b4 F0BD     		pop	{r4, r5, r6, r7, pc}
 173              	.LVL21:
 174              	.L16:
 175              	.LBB3:
 176              		.loc 1 29 0 discriminator 1
 177 00b6 2046     		mov	r0, r4
 178 00b8 FFF7FEFF 		bl	i2cGetErr
 179              	.LVL22:
 180 00bc DBE7     		b	.L3
 181              	.L15:
 182              	.LBE3:
 183              	.LBB4:
 184              		.loc 1 20 0 discriminator 1
 185 00be 2046     		mov	r0, r4
 186 00c0 FFF7FEFF 		bl	i2cGetErr
 187              	.LVL23:
 188 00c4 BBE7     		b	.L2
 189              	.LBE4:
 190              		.cfi_endproc
 191              	.LFE64:
 192              		.size	magInit, .-magInit
 193 00c6 00BFAFF3 		.section	.text.magRead,"ax",%progbits
 193      0080AFF3 
 193      0080
 194              		.align	2
 195              		.p2align 4,,15
 196              		.global	magRead
 197              		.thumb
 198              		.thumb_func
 199              		.type	magRead, %function
 200              	magRead:
 201              	.LFB65:
 202              		.loc 1 45 0
 203              		.cfi_startproc
 204              		@ args = 4, pretend = 0, frame = 16
 205              		@ frame_needed = 0, uses_anonymous_args = 0
 206              	.LVL24:
 207 0000 2DE9F041 		push	{r4, r5, r6, r7, r8, lr}
 208              	.LCFI2:
 209              		.cfi_def_cfa_offset 24
 210              		.cfi_offset 4, -24
 211              		.cfi_offset 5, -20
 212              		.cfi_offset 6, -16
 213              		.cfi_offset 7, -12
 214              		.cfi_offset 8, -8
 215              		.cfi_offset 14, -4
 216 0004 88B0     		sub	sp, sp, #32
 217              	.LCFI3:
 218              		.cfi_def_cfa_offset 56
 219              		.loc 1 50 0
 220 0006 08AC     		add	r4, sp, #32
 221              		.loc 1 45 0
 222 0008 1E46     		mov	r6, r3
 223              		.loc 1 50 0
 224 000a 0323     		movs	r3, #3
 225              	.LVL25:
 226              		.loc 1 45 0
ARM GAS  /tmp/ccUb367S.s 			page 5


 227 000c 0546     		mov	r5, r0
 228              		.loc 1 50 0
 229 000e 04F8083D 		strb	r3, [r4, #-8]!
 230              		.loc 1 45 0
 231 0012 8846     		mov	r8, r1
 232 0014 1746     		mov	r7, r2
 233              		.loc 1 51 0
 234 0016 FFF7FEFF 		bl	i2cAcquireBus
 235              	.LVL26:
 236              		.loc 1 52 0
 237 001a 04A8     		add	r0, sp, #16
 238 001c 0621     		movs	r1, #6
 239 001e 0422     		movs	r2, #4
 240 0020 0090     		str	r0, [sp, #0]
 241 0022 0191     		str	r1, [sp, #4]
 242 0024 0292     		str	r2, [sp, #8]
 243 0026 2846     		mov	r0, r5
 244 0028 2246     		mov	r2, r4
 245 002a 4146     		mov	r1, r8
 246 002c 0123     		movs	r3, #1
 247 002e FFF7FEFF 		bl	i2cMasterTransmitTimeout
 248              	.LVL27:
 249 0032 0446     		mov	r4, r0
 250              	.LVL28:
 251              		.loc 1 53 0
 252 0034 2846     		mov	r0, r5
 253              	.LVL29:
 254 0036 FFF7FEFF 		bl	i2cReleaseBus
 255              	.LVL30:
 256              		.loc 1 54 0
 257 003a 14B1     		cbz	r4, .L18
 258              	.LBB5:
 259              		.loc 1 54 0 is_stmt 0 discriminator 1
 260 003c 2846     		mov	r0, r5
 261 003e FFF7FEFF 		bl	i2cGetErr
 262              	.LVL31:
 263              	.L18:
 264              	.LBE5:
 265              		.loc 1 57 0 is_stmt 1
 266 0042 9DF81120 		ldrb	r2, [sp, #17]	@ zero_extendqisi2
 267 0046 9DF81000 		ldrb	r0, [sp, #16]	@ zero_extendqisi2
 268              		.loc 1 59 0
 269 004a 9DF81410 		ldrb	r1, [sp, #20]	@ zero_extendqisi2
 270 004e 9DF81530 		ldrb	r3, [sp, #21]	@ zero_extendqisi2
 271              		.loc 1 57 0
 272 0052 42EA0020 		orr	r0, r2, r0, lsl #8
 273              		.loc 1 59 0
 274 0056 43EA0122 		orr	r2, r3, r1, lsl #8
 275              		.loc 1 57 0
 276 005a 3880     		strh	r0, [r7, #0]	@ movhi
 277              		.loc 1 59 0
 278 005c 3280     		strh	r2, [r6, #0]	@ movhi
 279              		.loc 1 60 0
 280 005e 08B0     		add	sp, sp, #32
 281 0060 BDE8F081 		pop	{r4, r5, r6, r7, r8, pc}
 282              		.cfi_endproc
 283              	.LFE65:
ARM GAS  /tmp/ccUb367S.s 			page 6


 284              		.size	magRead, .-magRead
 285 0064 AFF30080 		.text
 285      AFF30080 
 285      AFF30080 
 286              	.Letext0:
 287              		.file 2 "/usr/bin/../lib/gcc/arm-none-eabi/4.7.4/include/stddef.h"
 288              		.file 3 "/usr/bin/../lib/gcc/arm-none-eabi/4.7.4/../../../../arm-none-eabi/include/stdint.h"
 289              		.file 4 "../../os/ports/GCC/ARMCMx/chtypes.h"
 290              		.file 5 "../../os/kernel/include/chlists.h"
 291              		.file 6 "../../os/kernel/include/chthreads.h"
 292              		.file 7 "../../os/ports/GCC/ARMCMx/chcore_v7m.h"
 293              		.file 8 "../../os/kernel/include/chmtx.h"
 294              		.file 9 "../../os/hal/platforms/STM32F1xx/stm32f10x.h"
 295              		.file 10 "../../os/hal/platforms/STM32F1xx/stm32_dma.h"
 296              		.file 11 "../../os/hal/include/i2c.h"
 297              		.file 12 "../../os/hal/platforms/STM32/I2Cv1/i2c_lld.h"
 298              		.file 13 "../../os/ports/common/ARMCMx/CMSIS/include/core_cm3.h"