ARM GAS  /tmp/ccpL1sU2.s 			page 1


   1              		.syntax unified
   2              		.cpu cortex-m3
   3              		.fpu softvfp
   4              		.eabi_attribute 20, 1
   5              		.eabi_attribute 21, 1
   6              		.eabi_attribute 23, 3
   7              		.eabi_attribute 24, 1
   8              		.eabi_attribute 25, 1
   9              		.eabi_attribute 26, 1
  10              		.eabi_attribute 30, 2
  11              		.eabi_attribute 34, 1
  12              		.eabi_attribute 18, 4
  13              		.thumb
  14              		.file	"adc_lld.c"
  15              		.text
  16              	.Ltext0:
  17              		.cfi_sections	.debug_frame
  18              		.section	.text.adc_lld_serve_rx_interrupt,"ax",%progbits
  19              		.align	2
  20              		.p2align 4,,15
  21              		.thumb
  22              		.thumb_func
  23              		.type	adc_lld_serve_rx_interrupt, %function
  24              	adc_lld_serve_rx_interrupt:
  25              	.LFB63:
  26              		.file 1 "../../os/hal/platforms/STM32F1xx/adc_lld.c"
  27              		.loc 1 57 0
  28              		.cfi_startproc
  29              		@ args = 0, pretend = 0, frame = 0
  30              		@ frame_needed = 0, uses_anonymous_args = 0
  31              	.LVL0:
  32 0000 F8B5     		push	{r3, r4, r5, r6, r7, lr}
  33              	.LCFI0:
  34              		.cfi_def_cfa_offset 24
  35              		.cfi_offset 3, -24
  36              		.cfi_offset 4, -20
  37              		.cfi_offset 5, -16
  38              		.cfi_offset 6, -12
  39              		.cfi_offset 7, -8
  40              		.cfi_offset 14, -4
  41              		.loc 1 57 0
  42 0002 0D46     		mov	r5, r1
  43              		.loc 1 60 0
  44 0004 2907     		lsls	r1, r5, #28
  45              	.LVL1:
  46              		.loc 1 57 0
  47 0006 0446     		mov	r4, r0
  48              		.loc 1 60 0
  49 0008 2DD5     		bpl	.L2
  50              	.LVL2:
  51              	.LBB14:
  52              	.LBB15:
  53              		.loc 1 229 0
  54 000a C36A     		ldr	r3, [r0, #44]
  55              	.LBE15:
  56              	.LBE14:
  57              		.loc 1 63 0
ARM GAS  /tmp/ccpL1sU2.s 			page 2


  58 000c 0169     		ldr	r1, [r0, #16]
  59              	.LBB18:
  60              	.LBB16:
  61              		.loc 1 229 0
  62 000e 1A68     		ldr	r2, [r3, #0]
  63 0010 5D68     		ldr	r5, [r3, #4]
  64              	.LVL3:
  65 0012 1668     		ldr	r6, [r2, #0]
  66 0014 26F00F06 		bic	r6, r6, #15
  67 0018 1660     		str	r6, [r2, #0]
  68 001a 1B7A     		ldrb	r3, [r3, #8]	@ zero_extendqisi2
  69 001c 0F26     		movs	r6, #15
  70 001e 06FA03F6 		lsl	r6, r6, r3
  71              		.loc 1 230 0
  72 0022 826A     		ldr	r2, [r0, #40]
  73              	.LBE16:
  74              	.LBE18:
  75              		.loc 1 63 0
  76 0024 8B68     		ldr	r3, [r1, #8]
  77              	.LBB19:
  78              	.LBB17:
  79              		.loc 1 230 0
  80 0026 0021     		movs	r1, #0
  81              		.loc 1 229 0
  82 0028 2E60     		str	r6, [r5, #0]
  83              		.loc 1 230 0
  84 002a 9160     		str	r1, [r2, #8]
  85              	.LBE17:
  86              	.LBE19:
  87              		.loc 1 63 0
  88 002c 2BB1     		cbz	r3, .L4
  89              		.loc 1 63 0 is_stmt 0 discriminator 1
  90 002e 0525     		movs	r5, #5
  91 0030 0570     		strb	r5, [r0, #0]
  92 0032 9847     		blx	r3
  93              	.LVL4:
  94 0034 2078     		ldrb	r0, [r4, #0]	@ zero_extendqisi2
  95 0036 0528     		cmp	r0, #5
  96 0038 65D0     		beq	.L35
  97              	.L4:
  98              		.loc 1 63 0 discriminator 2
  99 003a 0025     		movs	r5, #0
 100 003c 2561     		str	r5, [r4, #16]
 101              	.LBB20:
 102 003e 2023     		movs	r3, #32
 103              	.LVL5:
 104              	@ 63 "../../os/hal/platforms/STM32F1xx/adc_lld.c" 1
 105 0040 83F31188 		msr     BASEPRI, r3
 106              	@ 0 "" 2
 107              	.LVL6:
 108              		.thumb
 109              	.LBE20:
 110 0044 FFF7FEFF 		bl	dbg_check_lock_from_isr
 111              	.LVL7:
 112 0048 6369     		ldr	r3, [r4, #20]
 113 004a 33B1     		cbz	r3, .L15
 114              	.LVL8:
ARM GAS  /tmp/ccpL1sU2.s 			page 3


 115              	.LBB21:
 116              		.loc 1 63 0 discriminator 4
 117 004c 4FF0FF32 		mov	r2, #-1
 118 0050 6561     		str	r5, [r4, #20]
 119 0052 1846     		mov	r0, r3
 120 0054 9A62     		str	r2, [r3, #40]
 121 0056 FFF7FEFF 		bl	chSchReadyI
 122              	.LVL9:
 123              	.L15:
 124              	.LBE21:
 125              		.loc 1 72 0 is_stmt 1 discriminator 14
 126 005a FFF7FEFF 		bl	dbg_check_unlock_from_isr
 127              	.LVL10:
 128              	.LBB22:
 129 005e 0023     		movs	r3, #0
 130              	.LVL11:
 131              	@ 72 "../../os/hal/platforms/STM32F1xx/adc_lld.c" 1
 132 0060 83F31188 		msr     BASEPRI, r3
 133              	@ 0 "" 2
 134              	.LVL12:
 135              		.thumb
 136              	.L1:
 137 0064 F8BD     		pop	{r3, r4, r5, r6, r7, pc}
 138              	.LVL13:
 139              	.L2:
 140              	.LBE22:
 141              		.loc 1 66 0
 142 0066 6A07     		lsls	r2, r5, #29
 143 0068 06D5     		bpl	.L8
 144              		.loc 1 68 0
 145 006a 0369     		ldr	r3, [r0, #16]
 146 006c 5B68     		ldr	r3, [r3, #4]
 147 006e 1BB1     		cbz	r3, .L8
 148              		.loc 1 68 0 is_stmt 0 discriminator 1
 149 0070 C268     		ldr	r2, [r0, #12]
 150 0072 8168     		ldr	r1, [r0, #8]
 151 0074 5208     		lsrs	r2, r2, #1
 152 0076 9847     		blx	r3
 153              	.LVL14:
 154              	.L8:
 155              		.loc 1 70 0 is_stmt 1
 156 0078 AB07     		lsls	r3, r5, #30
 157 007a F3D5     		bpl	.L1
 158              		.loc 1 72 0
 159 007c 2369     		ldr	r3, [r4, #16]
 160 007e 1A78     		ldrb	r2, [r3, #0]	@ zero_extendqisi2
 161 0080 002A     		cmp	r2, #0
 162 0082 30D1     		bne	.L36
 163              	.LVL15:
 164              	.LBB23:
 165              	.LBB24:
 166              		.loc 1 229 0
 167 0084 E16A     		ldr	r1, [r4, #44]
 168              		.loc 1 230 0
 169 0086 A66A     		ldr	r6, [r4, #40]
 170              		.loc 1 229 0
 171 0088 91E88100 		ldmia	r1, {r0, r7}
ARM GAS  /tmp/ccpL1sU2.s 			page 4


 172 008c 0568     		ldr	r5, [r0, #0]
 173              	.LVL16:
 174 008e 25F00F05 		bic	r5, r5, #15
 175 0092 0560     		str	r5, [r0, #0]
 176 0094 097A     		ldrb	r1, [r1, #8]	@ zero_extendqisi2
 177 0096 0F20     		movs	r0, #15
 178 0098 00FA01F1 		lsl	r1, r0, r1
 179              	.LBE24:
 180              	.LBE23:
 181              		.loc 1 72 0
 182 009c 5D68     		ldr	r5, [r3, #4]
 183              	.LBB26:
 184              	.LBB25:
 185              		.loc 1 229 0
 186 009e 3960     		str	r1, [r7, #0]
 187              		.loc 1 230 0
 188 00a0 B260     		str	r2, [r6, #8]
 189              	.LBE25:
 190              	.LBE26:
 191              		.loc 1 72 0
 192 00a2 002D     		cmp	r5, #0
 193 00a4 3FD0     		beq	.L11
 194              		.loc 1 72 0 is_stmt 0 discriminator 6
 195 00a6 E268     		ldr	r2, [r4, #12]
 196 00a8 0420     		movs	r0, #4
 197 00aa 012A     		cmp	r2, #1
 198 00ac 2070     		strb	r0, [r4, #0]
 199 00ae 36D9     		bls	.L12
 200              	.LBB27:
 201              		.loc 1 72 0 discriminator 8
 202 00b0 5988     		ldrh	r1, [r3, #2]
 203 00b2 5208     		lsrs	r2, r2, #1
 204              	.LVL17:
 205 00b4 01FB02F1 		mul	r1, r1, r2
 206 00b8 A368     		ldr	r3, [r4, #8]
 207              	.LVL18:
 208 00ba 2046     		mov	r0, r4
 209 00bc 03EB4101 		add	r1, r3, r1, lsl #1
 210 00c0 A847     		blx	r5
 211              	.LVL19:
 212              	.L13:
 213              	.LBE27:
 214              		.loc 1 72 0 discriminator 10
 215 00c2 2278     		ldrb	r2, [r4, #0]	@ zero_extendqisi2
 216 00c4 042A     		cmp	r2, #4
 217 00c6 25D0     		beq	.L37
 218              	.L14:
 219              	.LBB28:
 220              		.loc 1 72 0 discriminator 12
 221 00c8 2023     		movs	r3, #32
 222              	.LVL20:
 223              	@ 72 "../../os/hal/platforms/STM32F1xx/adc_lld.c" 1
 224 00ca 83F31188 		msr     BASEPRI, r3
 225              	@ 0 "" 2
 226              	.LVL21:
 227              		.thumb
 228              	.LBE28:
ARM GAS  /tmp/ccpL1sU2.s 			page 5


 229 00ce FFF7FEFF 		bl	dbg_check_lock_from_isr
 230              	.LVL22:
 231 00d2 6369     		ldr	r3, [r4, #20]
 232 00d4 002B     		cmp	r3, #0
 233 00d6 C0D0     		beq	.L15
 234              	.LVL23:
 235              	.LBB29:
 236              		.loc 1 72 0 discriminator 13
 237 00d8 0022     		movs	r2, #0
 238 00da 6261     		str	r2, [r4, #20]
 239 00dc 1846     		mov	r0, r3
 240 00de 9A62     		str	r2, [r3, #40]
 241 00e0 FFF7FEFF 		bl	chSchReadyI
 242              	.LVL24:
 243 00e4 B9E7     		b	.L15
 244              	.LVL25:
 245              	.L36:
 246              	.LBE29:
 247              		.loc 1 72 0 discriminator 1
 248 00e6 5D68     		ldr	r5, [r3, #4]
 249              	.LVL26:
 250 00e8 002D     		cmp	r5, #0
 251 00ea BBD0     		beq	.L1
 252              		.loc 1 72 0 discriminator 3
 253 00ec E268     		ldr	r2, [r4, #12]
 254 00ee 012A     		cmp	r2, #1
 255 00f0 0CD9     		bls	.L10
 256              	.LBB30:
 257              		.loc 1 72 0 discriminator 4
 258 00f2 5888     		ldrh	r0, [r3, #2]
 259 00f4 5208     		lsrs	r2, r2, #1
 260              	.LVL27:
 261 00f6 00FB02F1 		mul	r1, r0, r2
 262 00fa A368     		ldr	r3, [r4, #8]
 263              	.LVL28:
 264 00fc 2046     		mov	r0, r4
 265 00fe 03EB4101 		add	r1, r3, r1, lsl #1
 266 0102 A847     		blx	r5
 267              	.LVL29:
 268 0104 F8BD     		pop	{r3, r4, r5, r6, r7, pc}
 269              	.LVL30:
 270              	.L35:
 271              	.LBE30:
 272              		.loc 1 63 0 is_stmt 1 discriminator 3
 273 0106 0221     		movs	r1, #2
 274 0108 2170     		strb	r1, [r4, #0]
 275 010a 96E7     		b	.L4
 276              	.LVL31:
 277              	.L10:
 278              		.loc 1 72 0 discriminator 5
 279 010c 2046     		mov	r0, r4
 280 010e A168     		ldr	r1, [r4, #8]
 281 0110 A847     		blx	r5
 282              	.LVL32:
 283 0112 F8BD     		pop	{r3, r4, r5, r6, r7, pc}
 284              	.LVL33:
 285              	.L37:
ARM GAS  /tmp/ccpL1sU2.s 			page 6


 286              		.loc 1 72 0 is_stmt 0 discriminator 11
 287 0114 0220     		movs	r0, #2
 288 0116 0021     		movs	r1, #0
 289 0118 2070     		strb	r0, [r4, #0]
 290 011a 2161     		str	r1, [r4, #16]
 291 011c D4E7     		b	.L14
 292              	.L12:
 293              		.loc 1 72 0 discriminator 9
 294 011e 2046     		mov	r0, r4
 295 0120 A168     		ldr	r1, [r4, #8]
 296 0122 A847     		blx	r5
 297              	.LVL34:
 298 0124 CDE7     		b	.L13
 299              	.L11:
 300              		.loc 1 72 0 discriminator 7
 301 0126 0223     		movs	r3, #2
 302 0128 2370     		strb	r3, [r4, #0]
 303 012a 2561     		str	r5, [r4, #16]
 304 012c CCE7     		b	.L14
 305              		.cfi_endproc
 306              	.LFE63:
 307              		.size	adc_lld_serve_rx_interrupt, .-adc_lld_serve_rx_interrupt
 308 012e 00BF     		.section	.text.adc_lld_init,"ax",%progbits
 309              		.align	2
 310              		.p2align 4,,15
 311              		.global	adc_lld_init
 312              		.thumb
 313              		.thumb_func
 314              		.type	adc_lld_init, %function
 315              	adc_lld_init:
 316              	.LFB64:
 317              		.loc 1 90 0 is_stmt 1
 318              		.cfi_startproc
 319              		@ args = 0, pretend = 0, frame = 0
 320              		@ frame_needed = 0, uses_anonymous_args = 0
 321 0000 10B5     		push	{r4, lr}
 322              	.LCFI1:
 323              		.cfi_def_cfa_offset 8
 324              		.cfi_offset 4, -8
 325              		.cfi_offset 14, -4
 326              		.loc 1 94 0
 327 0002 1C4C     		ldr	r4, .L43
 328 0004 2046     		mov	r0, r4
 329 0006 FFF7FEFF 		bl	adcObjectInit
 330              	.LVL35:
 331              		.loc 1 97 0
 332 000a 42F28A53 		movw	r3, #9610
 333              		.loc 1 103 0
 334 000e 4FF48052 		mov	r2, #4096
 335              		.loc 1 97 0
 336 0012 2363     		str	r3, [r4, #48]
 337              		.loc 1 103 0
 338 0014 C4F20202 		movt	r2, 16386
 339 0018 9069     		ldr	r0, [r2, #24]
 340              		.loc 1 96 0
 341 001a 1749     		ldr	r1, .L43+4
 342              		.loc 1 95 0
ARM GAS  /tmp/ccpL1sU2.s 			page 7


 343 001c 4FF41053 		mov	r3, #9216
 344 0020 C4F20103 		movt	r3, 16385
 345              		.loc 1 103 0
 346 0024 40F40070 		orr	r0, r0, #512
 347              		.loc 1 96 0
 348 0028 E162     		str	r1, [r4, #44]
 349              		.loc 1 95 0
 350 002a A362     		str	r3, [r4, #40]
 351              		.loc 1 103 0
 352 002c 9061     		str	r0, [r2, #24]
 353              		.loc 1 104 0
 354 002e 0022     		movs	r2, #0
 355 0030 5A60     		str	r2, [r3, #4]
 356              		.loc 1 105 0
 357 0032 0120     		movs	r0, #1
 358              		.loc 1 108 0
 359 0034 0922     		movs	r2, #9
 360              		.loc 1 105 0
 361 0036 9860     		str	r0, [r3, #8]
 362              		.loc 1 109 0
 363 0038 1946     		mov	r1, r3
 364              		.loc 1 108 0
 365 003a 9A60     		str	r2, [r3, #8]
 366              	.L39:
 367              		.loc 1 109 0 discriminator 1
 368 003c 8868     		ldr	r0, [r1, #8]
 369 003e 4FF41053 		mov	r3, #9216
 370 0042 0007     		lsls	r0, r0, #28
 371 0044 C4F20103 		movt	r3, 16385
 372 0048 F8D4     		bmi	.L39
 373              		.loc 1 113 0
 374 004a 0521     		movs	r1, #5
 375 004c 9960     		str	r1, [r3, #8]
 376              		.loc 1 114 0
 377 004e 1846     		mov	r0, r3
 378              	.L40:
 379              		.loc 1 114 0 is_stmt 0 discriminator 1
 380 0050 8368     		ldr	r3, [r0, #8]
 381 0052 4FF41052 		mov	r2, #9216
 382 0056 13F00403 		ands	r3, r3, #4
 383 005a C4F20102 		movt	r2, 16385
 384 005e F7D1     		bne	.L40
 385              		.loc 1 119 0 is_stmt 1
 386 0060 4FF48051 		mov	r1, #4096
 387              		.loc 1 118 0
 388 0064 9360     		str	r3, [r2, #8]
 389              		.loc 1 119 0
 390 0066 C4F20201 		movt	r1, 16386
 391 006a 8869     		ldr	r0, [r1, #24]
 392 006c 20F40072 		bic	r2, r0, #512
 393 0070 8A61     		str	r2, [r1, #24]
 394 0072 10BD     		pop	{r4, pc}
 395              	.L44:
 396              		.align	2
 397              	.L43:
 398 0074 00000000 		.word	.LANCHOR0
 399 0078 00000000 		.word	_stm32_dma_streams
ARM GAS  /tmp/ccpL1sU2.s 			page 8


 400              		.cfi_endproc
 401              	.LFE64:
 402              		.size	adc_lld_init, .-adc_lld_init
 403 007c AFF30080 		.section	.text.adc_lld_start,"ax",%progbits
 404              		.align	2
 405              		.p2align 4,,15
 406              		.global	adc_lld_start
 407              		.thumb
 408              		.thumb_func
 409              		.type	adc_lld_start, %function
 410              	adc_lld_start:
 411              	.LFB65:
 412              		.loc 1 130 0
 413              		.cfi_startproc
 414              		@ args = 0, pretend = 0, frame = 0
 415              		@ frame_needed = 0, uses_anonymous_args = 0
 416              	.LVL36:
 417 0000 38B5     		push	{r3, r4, r5, lr}
 418              	.LCFI2:
 419              		.cfi_def_cfa_offset 16
 420              		.cfi_offset 3, -16
 421              		.cfi_offset 4, -12
 422              		.cfi_offset 5, -8
 423              		.cfi_offset 14, -4
 424              		.loc 1 133 0
 425 0002 0378     		ldrb	r3, [r0, #0]	@ zero_extendqisi2
 426              		.loc 1 130 0
 427 0004 0446     		mov	r4, r0
 428              		.loc 1 133 0
 429 0006 012B     		cmp	r3, #1
 430 0008 00D0     		beq	.L52
 431 000a 38BD     		pop	{r3, r4, r5, pc}
 432              	.L52:
 433              		.loc 1 135 0
 434 000c 114D     		ldr	r5, .L55
 435 000e A842     		cmp	r0, r5
 436 0010 04D0     		beq	.L53
 437              	.LVL37:
 438              	.L47:
 439              		.loc 1 149 0
 440 0012 A16A     		ldr	r1, [r4, #40]
 441 0014 0023     		movs	r3, #0
 442 0016 4B60     		str	r3, [r1, #4]
 443              		.loc 1 150 0
 444 0018 8B60     		str	r3, [r1, #8]
 445 001a 38BD     		pop	{r3, r4, r5, pc}
 446              	.LVL38:
 447              	.L53:
 448              	.LBB31:
 449              		.loc 1 137 0
 450 001c C06A     		ldr	r0, [r0, #44]
 451              	.LVL39:
 452 001e 0521     		movs	r1, #5
 453 0020 0D4A     		ldr	r2, .L55+4
 454 0022 2346     		mov	r3, r4
 455 0024 FFF7FEFF 		bl	dmaStreamAllocate
 456              	.LVL40:
ARM GAS  /tmp/ccpL1sU2.s 			page 9


 457              		.loc 1 141 0
 458 0028 78B9     		cbnz	r0, .L54
 459              	.LVL41:
 460              	.L48:
 461              		.loc 1 142 0
 462 002a E86A     		ldr	r0, [r5, #44]
 463 002c 42F24C42 		movw	r2, #9292
 464 0030 0168     		ldr	r1, [r0, #0]
 465 0032 C4F20102 		movt	r2, 16385
 466              		.loc 1 143 0
 467 0036 4FF48053 		mov	r3, #4096
 468              		.loc 1 142 0
 469 003a 8A60     		str	r2, [r1, #8]
 470              		.loc 1 143 0
 471 003c C4F20203 		movt	r3, 16386
 472 0040 9869     		ldr	r0, [r3, #24]
 473 0042 40F40072 		orr	r2, r0, #512
 474 0046 9A61     		str	r2, [r3, #24]
 475 0048 E3E7     		b	.L47
 476              	.LVL42:
 477              	.L54:
 478              		.loc 1 141 0 discriminator 1
 479 004a 0448     		ldr	r0, .L55+8
 480              	.LVL43:
 481 004c FFF7FEFF 		bl	chDbgPanic
 482              	.LVL44:
 483 0050 EBE7     		b	.L48
 484              	.L56:
 485 0052 00BF     		.align	2
 486              	.L55:
 487 0054 00000000 		.word	.LANCHOR0
 488 0058 00000000 		.word	adc_lld_serve_rx_interrupt
 489 005c 00000000 		.word	.LC0
 490              	.LBE31:
 491              		.cfi_endproc
 492              	.LFE65:
 493              		.size	adc_lld_start, .-adc_lld_start
 494              		.section	.text.adc_lld_stop,"ax",%progbits
 495              		.align	2
 496              		.p2align 4,,15
 497              		.global	adc_lld_stop
 498              		.thumb
 499              		.thumb_func
 500              		.type	adc_lld_stop, %function
 501              	adc_lld_stop:
 502              	.LFB66:
 503              		.loc 1 161 0
 504              		.cfi_startproc
 505              		@ args = 0, pretend = 0, frame = 0
 506              		@ frame_needed = 0, uses_anonymous_args = 0
 507              	.LVL45:
 508 0000 08B5     		push	{r3, lr}
 509              	.LCFI3:
 510              		.cfi_def_cfa_offset 8
 511              		.cfi_offset 3, -8
 512              		.cfi_offset 14, -4
 513              		.loc 1 164 0
ARM GAS  /tmp/ccpL1sU2.s 			page 10


 514 0002 0378     		ldrb	r3, [r0, #0]	@ zero_extendqisi2
 515 0004 022B     		cmp	r3, #2
 516 0006 00D0     		beq	.L59
 517              	.LVL46:
 518              	.L57:
 519 0008 08BD     		pop	{r3, pc}
 520              	.LVL47:
 521              	.L59:
 522              		.loc 1 166 0
 523 000a 0B49     		ldr	r1, .L60
 524 000c 8842     		cmp	r0, r1
 525 000e FBD1     		bne	.L57
 526              		.loc 1 167 0
 527 0010 4FF41053 		mov	r3, #9216
 528 0014 C4F20103 		movt	r3, 16385
 529 0018 0022     		movs	r2, #0
 530 001a 5A60     		str	r2, [r3, #4]
 531              		.loc 1 169 0
 532 001c C06A     		ldr	r0, [r0, #44]
 533              	.LVL48:
 534              		.loc 1 168 0
 535 001e 9A60     		str	r2, [r3, #8]
 536              		.loc 1 169 0
 537 0020 FFF7FEFF 		bl	dmaStreamRelease
 538              	.LVL49:
 539              		.loc 1 170 0
 540 0024 4FF48050 		mov	r0, #4096
 541 0028 C4F20200 		movt	r0, 16386
 542 002c 8169     		ldr	r1, [r0, #24]
 543 002e 21F40073 		bic	r3, r1, #512
 544 0032 8361     		str	r3, [r0, #24]
 545 0034 E8E7     		b	.L57
 546              	.L61:
 547 0036 00BF     		.align	2
 548              	.L60:
 549 0038 00000000 		.word	.LANCHOR0
 550              		.cfi_endproc
 551              	.LFE66:
 552              		.size	adc_lld_stop, .-adc_lld_stop
 553 003c AFF30080 		.section	.text.adc_lld_start_conversion,"ax",%progbits
 554              		.align	2
 555              		.p2align 4,,15
 556              		.global	adc_lld_start_conversion
 557              		.thumb
 558              		.thumb_func
 559              		.type	adc_lld_start_conversion, %function
 560              	adc_lld_start_conversion:
 561              	.LFB67:
 562              		.loc 1 183 0
 563              		.cfi_startproc
 564              		@ args = 0, pretend = 0, frame = 0
 565              		@ frame_needed = 0, uses_anonymous_args = 0
 566              		@ link register save eliminated.
 567              	.LVL50:
 568              		.loc 1 185 0
 569 0000 0369     		ldr	r3, [r0, #16]
 570              	.LVL51:
ARM GAS  /tmp/ccpL1sU2.s 			page 11


 571              		.loc 1 183 0
 572 0002 F0B4     		push	{r4, r5, r6, r7}
 573              	.LCFI4:
 574              		.cfi_def_cfa_offset 16
 575              		.cfi_offset 4, -16
 576              		.cfi_offset 5, -12
 577              		.cfi_offset 6, -8
 578              		.cfi_offset 7, -4
 579              		.loc 1 189 0
 580 0004 1978     		ldrb	r1, [r3, #0]	@ zero_extendqisi2
 581              		.loc 1 188 0
 582 0006 026B     		ldr	r2, [r0, #48]
 583              	.LVL52:
 584              		.loc 1 189 0
 585 0008 09B1     		cbz	r1, .L63
 586              		.loc 1 190 0
 587 000a 42F02002 		orr	r2, r2, #32
 588              	.LVL53:
 589              	.L63:
 590              		.loc 1 191 0
 591 000e C468     		ldr	r4, [r0, #12]
 592              		.loc 1 195 0
 593 0010 5E88     		ldrh	r6, [r3, #2]
 594              		.loc 1 191 0
 595 0012 012C     		cmp	r4, #1
 596              		.loc 1 199 0
 597 0014 C76A     		ldr	r7, [r0, #44]
 598              		.loc 1 195 0
 599 0016 88BF     		it	hi
 600 0018 6643     		mulhi	r6, r4, r6
 601              		.loc 1 199 0
 602 001a 3968     		ldr	r1, [r7, #0]
 603 001c 8568     		ldr	r5, [r0, #8]
 604              		.loc 1 194 0
 605 001e 88BF     		it	hi
 606 0020 42F00402 		orrhi	r2, r2, #4
 607              	.LVL54:
 608              		.loc 1 205 0
 609 0024 DC68     		ldr	r4, [r3, #12]
 610              		.loc 1 199 0
 611 0026 CD60     		str	r5, [r1, #12]
 612              		.loc 1 200 0
 613 0028 4E60     		str	r6, [r1, #4]
 614              		.loc 1 201 0
 615 002a 0A60     		str	r2, [r1, #0]
 616              		.loc 1 202 0
 617 002c 0E68     		ldr	r6, [r1, #0]
 618              	.LVL55:
 619              		.loc 1 205 0
 620 002e 826A     		ldr	r2, [r0, #40]
 621              	.LVL56:
 622              		.loc 1 206 0
 623 0030 1869     		ldr	r0, [r3, #16]
 624              	.LVL57:
 625              		.loc 1 202 0
 626 0032 46F00107 		orr	r7, r6, #1
 627              		.loc 1 207 0
ARM GAS  /tmp/ccpL1sU2.s 			page 12


 628 0036 10F4841F 		tst	r0, #1081344
 629              		.loc 1 202 0
 630 003a 0F60     		str	r7, [r1, #0]
 631              		.loc 1 205 0
 632 003c 44F48075 		orr	r5, r4, #256
 633              		.loc 1 206 0
 634 0040 14BF     		ite	ne
 635 0042 40F48071 		orrne	r1, r0, #256
 636              	.LVL58:
 637              		.loc 1 208 0
 638 0046 40F48171 		orreq	r1, r0, #258
 639              		.loc 1 205 0
 640 004a 5560     		str	r5, [r2, #4]
 641              		.loc 1 210 0
 642 004c 5F69     		ldr	r7, [r3, #20]
 643              		.loc 1 211 0
 644 004e 9E69     		ldr	r6, [r3, #24]
 645              		.loc 1 212 0
 646 0050 DD69     		ldr	r5, [r3, #28]
 647              		.loc 1 213 0
 648 0052 1C6A     		ldr	r4, [r3, #32]
 649              		.loc 1 208 0
 650 0054 41F00101 		orr	r1, r1, #1
 651              	.LVL59:
 652              		.loc 1 214 0
 653 0058 5B6A     		ldr	r3, [r3, #36]
 654              	.LVL60:
 655              		.loc 1 209 0
 656 005a 0843     		orrs	r0, r0, r1
 657 005c 9060     		str	r0, [r2, #8]
 658              		.loc 1 210 0
 659 005e D760     		str	r7, [r2, #12]
 660              		.loc 1 211 0
 661 0060 1661     		str	r6, [r2, #16]
 662              		.loc 1 212 0
 663 0062 D562     		str	r5, [r2, #44]
 664              		.loc 1 213 0
 665 0064 1463     		str	r4, [r2, #48]
 666              		.loc 1 214 0
 667 0066 5363     		str	r3, [r2, #52]
 668              		.loc 1 217 0
 669 0068 9160     		str	r1, [r2, #8]
 670              		.loc 1 218 0
 671 006a F0BC     		pop	{r4, r5, r6, r7}
 672 006c 7047     		bx	lr
 673              		.cfi_endproc
 674              	.LFE67:
 675              		.size	adc_lld_start_conversion, .-adc_lld_start_conversion
 676 006e 00BF     		.section	.text.adc_lld_stop_conversion,"ax",%progbits
 677              		.align	2
 678              		.p2align 4,,15
 679              		.global	adc_lld_stop_conversion
 680              		.thumb
 681              		.thumb_func
 682              		.type	adc_lld_stop_conversion, %function
 683              	adc_lld_stop_conversion:
 684              	.LFB68:
ARM GAS  /tmp/ccpL1sU2.s 			page 13


 685              		.loc 1 227 0
 686              		.cfi_startproc
 687              		@ args = 0, pretend = 0, frame = 0
 688              		@ frame_needed = 0, uses_anonymous_args = 0
 689              		@ link register save eliminated.
 690              	.LVL61:
 691              		.loc 1 229 0
 692 0000 C36A     		ldr	r3, [r0, #44]
 693              		.loc 1 227 0
 694 0002 30B4     		push	{r4, r5}
 695              	.LCFI5:
 696              		.cfi_def_cfa_offset 8
 697              		.cfi_offset 4, -8
 698              		.cfi_offset 5, -4
 699              		.loc 1 229 0
 700 0004 93E81400 		ldmia	r3, {r2, r4}
 701 0008 1568     		ldr	r5, [r2, #0]
 702              		.loc 1 230 0
 703 000a 816A     		ldr	r1, [r0, #40]
 704              		.loc 1 229 0
 705 000c 25F00F00 		bic	r0, r5, #15
 706              	.LVL62:
 707 0010 1060     		str	r0, [r2, #0]
 708 0012 1B7A     		ldrb	r3, [r3, #8]	@ zero_extendqisi2
 709 0014 0F22     		movs	r2, #15
 710 0016 02FA03F0 		lsl	r0, r2, r3
 711              		.loc 1 230 0
 712 001a 0023     		movs	r3, #0
 713              		.loc 1 229 0
 714 001c 2060     		str	r0, [r4, #0]
 715              		.loc 1 230 0
 716 001e 8B60     		str	r3, [r1, #8]
 717              		.loc 1 231 0
 718 0020 30BC     		pop	{r4, r5}
 719 0022 7047     		bx	lr
 720              		.cfi_endproc
 721              	.LFE68:
 722              		.size	adc_lld_stop_conversion, .-adc_lld_stop_conversion
 723              		.global	ADCD1
 724 0024 AFF30080 		.section	.bss.ADCD1,"aw",%nobits
 724      AFF30080 
 724      AFF30080 
 725              		.align	2
 726              		.set	.LANCHOR0,. + 0
 727              		.type	ADCD1, %object
 728              		.size	ADCD1, 52
 729              	ADCD1:
 730 0000 00000000 		.space	52
 730      00000000 
 730      00000000 
 730      00000000 
 730      00000000 
 731              		.section	.rodata.str1.4,"aMS",%progbits,1
 732              		.align	2
 733              	.LC0:
 734 0000 6164635F 		.ascii	"adc_lld_start(), #1\000"
 734      6C6C645F 
ARM GAS  /tmp/ccpL1sU2.s 			page 14


 734      73746172 
 734      7428292C 
 734      20233100 
 735              		.text
 736              	.Letext0:
 737              		.file 2 "/usr/bin/../lib/gcc/arm-none-eabi/4.7.4/include/stddef.h"
 738              		.file 3 "/usr/bin/../lib/gcc/arm-none-eabi/4.7.4/../../../../arm-none-eabi/include/stdint.h"
 739              		.file 4 "../../os/ports/GCC/ARMCMx/chtypes.h"
 740              		.file 5 "../../os/kernel/include/chlists.h"
 741              		.file 6 "../../os/kernel/include/chthreads.h"
 742              		.file 7 "../../os/ports/GCC/ARMCMx/chcore_v7m.h"
 743              		.file 8 "../../os/kernel/include/chmtx.h"
 744              		.file 9 "../../os/hal/platforms/STM32F1xx/stm32f10x.h"
 745              		.file 10 "../../os/hal/platforms/STM32F1xx/stm32_dma.h"
 746              		.file 11 "../../os/hal/include/adc.h"
 747              		.file 12 "../../os/hal/platforms/STM32F1xx/adc_lld.h"
 748              		.file 13 "../../os/ports/common/ARMCMx/CMSIS/include/core_cm3.h"
 749              		.file 14 "../../os/kernel/include/chdebug.h"
 750              		.file 15 "../../os/kernel/include/chschd.h"