ARM GAS  /tmp/ccYE02qi.s 			page 1


   1              		.syntax unified
   2              		.cpu cortex-m3
   3              		.fpu softvfp
   4              		.eabi_attribute 20, 1
   5              		.eabi_attribute 21, 1
   6              		.eabi_attribute 23, 3
   7              		.eabi_attribute 24, 1
   8              		.eabi_attribute 25, 1
   9              		.eabi_attribute 26, 1
  10              		.eabi_attribute 30, 2
  11              		.eabi_attribute 34, 1
  12              		.eabi_attribute 18, 4
  13              		.thumb
  14              		.file	"chvt.c"
  15              		.text
  16              	.Ltext0:
  17              		.cfi_sections	.debug_frame
  18              		.section	.text._vt_init,"ax",%progbits
  19              		.align	2
  20              		.p2align 4,,15
  21              		.global	_vt_init
  22              		.thumb
  23              		.thumb_func
  24              		.type	_vt_init, %function
  25              	_vt_init:
  26              	.LFB7:
  27              		.file 1 "../../os/kernel/src/chvt.c"
  28              		.loc 1 43 0
  29              		.cfi_startproc
  30              		@ args = 0, pretend = 0, frame = 0
  31              		@ frame_needed = 0, uses_anonymous_args = 0
  32              		@ link register save eliminated.
  33              		.loc 1 45 0
  34 0000 40F20003 		movw	r3, #:lower16:.LANCHOR0
  35 0004 C0F20003 		movt	r3, #:upper16:.LANCHOR0
  36              		.loc 1 46 0
  37 0008 4FF0FF32 		mov	r2, #-1
  38              		.loc 1 47 0
  39 000c 0020     		movs	r0, #0
  40              		.loc 1 45 0
  41 000e 5B60     		str	r3, [r3, #4]
  42 0010 1B60     		str	r3, [r3, #0]
  43              		.loc 1 46 0
  44 0012 9A60     		str	r2, [r3, #8]
  45              		.loc 1 47 0
  46 0014 D860     		str	r0, [r3, #12]
  47 0016 7047     		bx	lr
  48              		.cfi_endproc
  49              	.LFE7:
  50              		.size	_vt_init, .-_vt_init
  51 0018 AFF30080 		.section	.text.chVTSetI,"ax",%progbits
  51      AFF30080 
  52              		.align	2
  53              		.p2align 4,,15
  54              		.global	chVTSetI
  55              		.thumb
  56              		.thumb_func
ARM GAS  /tmp/ccYE02qi.s 			page 2


  57              		.type	chVTSetI, %function
  58              	chVTSetI:
  59              	.LFB8:
  60              		.loc 1 69 0
  61              		.cfi_startproc
  62              		@ args = 0, pretend = 0, frame = 0
  63              		@ frame_needed = 0, uses_anonymous_args = 0
  64              	.LVL0:
  65 0000 F8B5     		push	{r3, r4, r5, r6, r7, lr}
  66              	.LCFI0:
  67              		.cfi_def_cfa_offset 24
  68              		.cfi_offset 3, -24
  69              		.cfi_offset 4, -20
  70              		.cfi_offset 5, -16
  71              		.cfi_offset 6, -12
  72              		.cfi_offset 7, -8
  73              		.cfi_offset 14, -4
  74              		.loc 1 69 0
  75 0002 0546     		mov	r5, r0
  76 0004 0C46     		mov	r4, r1
  77 0006 1646     		mov	r6, r2
  78 0008 1F46     		mov	r7, r3
  79              		.loc 1 72 0
  80 000a FFF7FEFF 		bl	chDbgCheckClassI
  81              	.LVL1:
  82              		.loc 1 73 0
  83 000e CDB1     		cbz	r5, .L3
  84              		.loc 1 73 0 is_stmt 0 discriminator 2
  85 0010 C6B1     		cbz	r6, .L3
  86              		.loc 1 73 0 discriminator 3
  87 0012 BCB1     		cbz	r4, .L3
  88              	.L4:
  89              		.loc 1 78 0 is_stmt 1
  90 0014 0D49     		ldr	r1, .L17
  91              		.loc 1 76 0
  92 0016 2F61     		str	r7, [r5, #16]
  93              		.loc 1 78 0
  94 0018 0B68     		ldr	r3, [r1, #0]
  95              	.LVL2:
  96              		.loc 1 77 0
  97 001a EE60     		str	r6, [r5, #12]
  98              		.loc 1 79 0
  99 001c 9A68     		ldr	r2, [r3, #8]
 100 001e 9442     		cmp	r4, r2
 101 0020 04D9     		bls	.L5
 102              	.L12:
 103              		.loc 1 81 0
 104 0022 1B68     		ldr	r3, [r3, #0]
 105              	.LVL3:
 106              		.loc 1 80 0
 107 0024 A41A     		subs	r4, r4, r2
 108              	.LVL4:
 109              		.loc 1 79 0
 110 0026 9A68     		ldr	r2, [r3, #8]
 111 0028 A242     		cmp	r2, r4
 112 002a FAD3     		bcc	.L12
 113              	.L5:
ARM GAS  /tmp/ccYE02qi.s 			page 3


 114              		.loc 1 84 0
 115 002c 5868     		ldr	r0, [r3, #4]
 116              		.loc 1 87 0
 117 002e 8B42     		cmp	r3, r1
 118              		.loc 1 84 0
 119 0030 2B60     		str	r3, [r5, #0]
 120 0032 6860     		str	r0, [r5, #4]
 121              		.loc 1 85 0
 122 0034 0560     		str	r5, [r0, #0]
 123 0036 5D60     		str	r5, [r3, #4]
 124              		.loc 1 86 0
 125 0038 AC60     		str	r4, [r5, #8]
 126              		.loc 1 87 0
 127 003a 02D0     		beq	.L2
 128              		.loc 1 88 0
 129 003c 9968     		ldr	r1, [r3, #8]
 130 003e 0C1B     		subs	r4, r1, r4
 131              	.LVL5:
 132 0040 9C60     		str	r4, [r3, #8]
 133              	.L2:
 134 0042 F8BD     		pop	{r3, r4, r5, r6, r7, pc}
 135              	.LVL6:
 136              	.L3:
 137              		.loc 1 73 0 discriminator 1
 138 0044 0248     		ldr	r0, .L17+4
 139 0046 FFF7FEFF 		bl	chDbgPanic
 140              	.LVL7:
 141 004a E3E7     		b	.L4
 142              	.L18:
 143              		.align	2
 144              	.L17:
 145 004c 00000000 		.word	.LANCHOR0
 146 0050 00000000 		.word	.LC0
 147              		.cfi_endproc
 148              	.LFE8:
 149              		.size	chVTSetI, .-chVTSetI
 150 0054 AFF30080 		.section	.text.chVTResetI,"ax",%progbits
 150      AFF30080 
 150      AFF30080 
 151              		.align	2
 152              		.p2align 4,,15
 153              		.global	chVTResetI
 154              		.thumb
 155              		.thumb_func
 156              		.type	chVTResetI, %function
 157              	chVTResetI:
 158              	.LFB9:
 159              		.loc 1 99 0
 160              		.cfi_startproc
 161              		@ args = 0, pretend = 0, frame = 0
 162              		@ frame_needed = 0, uses_anonymous_args = 0
 163              	.LVL8:
 164 0000 10B5     		push	{r4, lr}
 165              	.LCFI1:
 166              		.cfi_def_cfa_offset 8
 167              		.cfi_offset 4, -8
 168              		.cfi_offset 14, -4
ARM GAS  /tmp/ccYE02qi.s 			page 4


 169              		.loc 1 99 0
 170 0002 0446     		mov	r4, r0
 171              		.loc 1 101 0
 172 0004 FFF7FEFF 		bl	chDbgCheckClassI
 173              	.LVL9:
 174              		.loc 1 102 0
 175 0008 84B1     		cbz	r4, .L23
 176              	.L20:
 177              		.loc 1 103 0
 178 000a E368     		ldr	r3, [r4, #12]
 179 000c 93B1     		cbz	r3, .L24
 180              	.L21:
 181              		.loc 1 107 0
 182 000e 2068     		ldr	r0, [r4, #0]
 183 0010 0A4A     		ldr	r2, .L25
 184 0012 9042     		cmp	r0, r2
 185 0014 03D0     		beq	.L22
 186              		.loc 1 108 0
 187 0016 8168     		ldr	r1, [r0, #8]
 188 0018 A368     		ldr	r3, [r4, #8]
 189 001a CA18     		adds	r2, r1, r3
 190 001c 8260     		str	r2, [r0, #8]
 191              	.L22:
 192              		.loc 1 109 0
 193 001e 6268     		ldr	r2, [r4, #4]
 194              		.loc 1 111 0
 195 0020 0021     		movs	r1, #0
 196              		.loc 1 109 0
 197 0022 1060     		str	r0, [r2, #0]
 198              		.loc 1 110 0
 199 0024 2068     		ldr	r0, [r4, #0]
 200              		.loc 1 111 0
 201 0026 E160     		str	r1, [r4, #12]
 202              		.loc 1 110 0
 203 0028 4260     		str	r2, [r0, #4]
 204 002a 10BD     		pop	{r4, pc}
 205              	.L23:
 206              		.loc 1 102 0 discriminator 1
 207 002c 0448     		ldr	r0, .L25+4
 208 002e FFF7FEFF 		bl	chDbgPanic
 209              	.LVL10:
 210 0032 EAE7     		b	.L20
 211              	.L24:
 212              		.loc 1 103 0 discriminator 1
 213 0034 0348     		ldr	r0, .L25+8
 214 0036 FFF7FEFF 		bl	chDbgPanic
 215              	.LVL11:
 216 003a E8E7     		b	.L21
 217              	.L26:
 218              		.align	2
 219              	.L25:
 220 003c 00000000 		.word	.LANCHOR0
 221 0040 10000000 		.word	.LC1
 222 0044 20000000 		.word	.LC2
 223              		.cfi_endproc
 224              	.LFE9:
 225              		.size	chVTResetI, .-chVTResetI
ARM GAS  /tmp/ccYE02qi.s 			page 5


 226              		.global	vtlist
 227 0048 AFF30080 		.section	.bss.vtlist,"aw",%nobits
 227      AFF30080 
 228              		.align	2
 229              		.set	.LANCHOR0,. + 0
 230              		.type	vtlist, %object
 231              		.size	vtlist, 16
 232              	vtlist:
 233 0000 00000000 		.space	16
 233      00000000 
 233      00000000 
 233      00000000 
 234              		.section	.rodata.str1.4,"aMS",%progbits,1
 235              		.align	2
 236              	.LC0:
 237 0000 22636856 		.ascii	"\"chVTSetI\"()\000"
 237      54536574 
 237      49222829 
 237      00
 238 000d 000000   		.space	3
 239              	.LC1:
 240 0010 22636856 		.ascii	"\"chVTResetI\"()\000"
 240      54526573 
 240      65744922 
 240      282900
 241 001f 00       		.space	1
 242              	.LC2:
 243 0020 63685654 		.ascii	"chVTResetI(), #1\000"
 243      52657365 
 243      74492829 
 243      2C202331 
 243      00
 244 0031 000000   		.text
 245              	.Letext0:
 246              		.file 2 "/usr/bin/../lib/gcc/arm-none-eabi/4.7.4/../../../../arm-none-eabi/include/stdint.h"
 247              		.file 3 "../../os/ports/GCC/ARMCMx/chtypes.h"
 248              		.file 4 "../../os/kernel/include/chvt.h"
 249              		.file 5 "../../os/kernel/include/chdebug.h"