ARM GAS  /tmp/ccgbgAhC.s 			page 1


   1              		.syntax unified
   2              		.cpu cortex-m3
   3              		.fpu softvfp
   4              		.eabi_attribute 20, 1
   5              		.eabi_attribute 21, 1
   6              		.eabi_attribute 23, 3
   7              		.eabi_attribute 24, 1
   8              		.eabi_attribute 25, 1
   9              		.eabi_attribute 26, 1
  10              		.eabi_attribute 30, 2
  11              		.eabi_attribute 34, 1
  12              		.eabi_attribute 18, 4
  13              		.thumb
  14              		.file	"dortII.c"
  15              		.text
  16              	.Ltext0:
  17              		.cfi_sections	.debug_frame
  18              		.section	.text.printf,"ax",%progbits
  19              		.align	2
  20              		.p2align 4,,15
  21              		.global	printf
  22              		.thumb
  23              		.thumb_func
  24              		.type	printf, %function
  25              	printf:
  26              	.LFB63:
  27              		.file 1 "dortII.c"
  28              		.loc 1 8 0
  29              		.cfi_startproc
  30              		@ args = 0, pretend = 0, frame = 0
  31              		@ frame_needed = 0, uses_anonymous_args = 0
  32              		@ link register save eliminated.
  33              	.LVL0:
  34              		.loc 1 9 0
  35 0000 4FF48053 		mov	r3, #4096
  36 0004 C4F20103 		movt	r3, 16385
  37              		.loc 1 8 0
  38 0008 10B4     		push	{r4}
  39              	.LCFI0:
  40              		.cfi_def_cfa_offset 4
  41              		.cfi_offset 4, -4
  42              		.loc 1 9 0
  43 000a 9C68     		ldr	r4, [r3, #8]
  44              		.loc 1 8 0
  45 000c 0B46     		mov	r3, r1
  46              		.loc 1 9 0
  47 000e A104     		lsls	r1, r4, #18
  48              	.LVL1:
  49              		.loc 1 8 0
  50 0010 0246     		mov	r2, r0
  51              		.loc 1 9 0
  52 0012 05D4     		bmi	.L1
  53              		.loc 1 13 0
  54 0014 0548     		ldr	r0, .L6
  55              	.LVL2:
  56 0016 0649     		ldr	r1, .L6+4
  57              		.loc 1 11 0
ARM GAS  /tmp/ccgbgAhC.s 			page 2


  58 0018 23B1     		cbz	r3, .L5
  59              		.loc 1 20 0
  60 001a 10BC     		pop	{r4}
  61              		.loc 1 17 0
  62 001c FFF7FEBF 		b	chprintf
  63              	.LVL3:
  64              	.L1:
  65              		.loc 1 20 0
  66 0020 10BC     		pop	{r4}
  67 0022 7047     		bx	lr
  68              	.LVL4:
  69              	.L5:
  70 0024 10BC     		pop	{r4}
  71              		.loc 1 13 0
  72 0026 FFF7FEBF 		b	chprintf
  73              	.LVL5:
  74              	.L7:
  75 002a 00BF     		.align	2
  76              	.L6:
  77 002c 00000000 		.word	SD2
  78 0030 00000000 		.word	.LC0
  79              		.cfi_endproc
  80              	.LFE63:
  81              		.size	printf, .-printf
  82 0034 AFF30080 		.section	.text.move,"ax",%progbits
  82      AFF30080 
  82      AFF30080 
  83              		.align	2
  84              		.p2align 4,,15
  85              		.global	move
  86              		.thumb
  87              		.thumb_func
  88              		.type	move, %function
  89              	move:
  90              	.LFB64:
  91              		.loc 1 23 0
  92              		.cfi_startproc
  93              		@ args = 0, pretend = 0, frame = 0
  94              		@ frame_needed = 0, uses_anonymous_args = 0
  95              	.LVL6:
  96 0000 38B5     		push	{r3, r4, r5, lr}
  97              	.LCFI1:
  98              		.cfi_def_cfa_offset 16
  99              		.cfi_offset 3, -16
 100              		.cfi_offset 4, -12
 101              		.cfi_offset 5, -8
 102              		.cfi_offset 14, -4
 103              		.loc 1 24 0
 104 0002 4E25     		movs	r5, #78
 105 0004 05FB01F5 		mul	r5, r5, r1
 106              	.LVL7:
 107              		.loc 1 23 0
 108 0008 0446     		mov	r4, r0
 109              		.loc 1 25 0
 110 000a 2B49     		ldr	r1, .L19
 111              	.LVL8:
 112 000c 2B48     		ldr	r0, .L19+4
ARM GAS  /tmp/ccgbgAhC.s 			page 3


 113              	.LVL9:
 114 000e 2A46     		mov	r2, r5
 115 0010 FFF7FEFF 		bl	chprintf
 116              	.LVL10:
 117              		.loc 1 26 0
 118 0014 34B1     		cbz	r4, .L15
 119              		.loc 1 33 0
 120 0016 012C     		cmp	r4, #1
 121 0018 2CD0     		beq	.L16
 122              		.loc 1 40 0
 123 001a 022C     		cmp	r4, #2
 124 001c 3ED0     		beq	.L17
 125              		.loc 1 47 0
 126 001e 032C     		cmp	r4, #3
 127 0020 14D0     		beq	.L18
 128              		.loc 1 54 0
 129 0022 38BD     		pop	{r3, r4, r5, pc}
 130              	.L15:
 131              		.loc 1 28 0
 132 0024 2648     		ldr	r0, .L19+8
 133 0026 0221     		movs	r1, #2
 134 0028 FFF7FEFF 		bl	pwmDisableChannel
 135              	.LVL11:
 136              		.loc 1 29 0
 137 002c 2146     		mov	r1, r4
 138 002e 2448     		ldr	r0, .L19+8
 139 0030 FFF7FEFF 		bl	pwmDisableChannel
 140              	.LVL12:
 141              		.loc 1 30 0
 142 0034 ADB2     		uxth	r5, r5
 143              	.LVL13:
 144 0036 2248     		ldr	r0, .L19+8
 145 0038 2A46     		mov	r2, r5
 146 003a 0321     		movs	r1, #3
 147              	.L14:
 148              		.loc 1 44 0
 149 003c FFF7FEFF 		bl	pwmEnableChannel
 150              	.LVL14:
 151              		.loc 1 45 0
 152 0040 1F48     		ldr	r0, .L19+8
 153 0042 0121     		movs	r1, #1
 154 0044 2A46     		mov	r2, r5
 155 0046 FFF7FEFF 		bl	pwmEnableChannel
 156              	.LVL15:
 157 004a 38BD     		pop	{r3, r4, r5, pc}
 158              	.LVL16:
 159              	.L18:
 160              		.loc 1 49 0
 161 004c 0221     		movs	r1, #2
 162 004e 1C48     		ldr	r0, .L19+8
 163 0050 FFF7FEFF 		bl	pwmDisableChannel
 164              	.LVL17:
 165              		.loc 1 51 0
 166 0054 ADB2     		uxth	r5, r5
 167              	.LVL18:
 168              		.loc 1 50 0
 169 0056 0121     		movs	r1, #1
ARM GAS  /tmp/ccgbgAhC.s 			page 4


 170 0058 1948     		ldr	r0, .L19+8
 171 005a FFF7FEFF 		bl	pwmDisableChannel
 172              	.LVL19:
 173              		.loc 1 51 0
 174 005e 2146     		mov	r1, r4
 175 0060 2A46     		mov	r2, r5
 176 0062 1748     		ldr	r0, .L19+8
 177 0064 FFF7FEFF 		bl	pwmEnableChannel
 178              	.LVL20:
 179              		.loc 1 52 0
 180 0068 1548     		ldr	r0, .L19+8
 181 006a 0021     		movs	r1, #0
 182 006c 2A46     		mov	r2, r5
 183 006e FFF7FEFF 		bl	pwmEnableChannel
 184              	.LVL21:
 185              		.loc 1 54 0
 186 0072 38BD     		pop	{r3, r4, r5, pc}
 187              	.LVL22:
 188              	.L16:
 189              		.loc 1 35 0
 190 0074 0321     		movs	r1, #3
 191 0076 1248     		ldr	r0, .L19+8
 192 0078 FFF7FEFF 		bl	pwmDisableChannel
 193              	.LVL23:
 194              		.loc 1 37 0
 195 007c ADB2     		uxth	r5, r5
 196              	.LVL24:
 197              		.loc 1 36 0
 198 007e 2146     		mov	r1, r4
 199 0080 0F48     		ldr	r0, .L19+8
 200 0082 FFF7FEFF 		bl	pwmDisableChannel
 201              	.LVL25:
 202              		.loc 1 37 0
 203 0086 2A46     		mov	r2, r5
 204 0088 0221     		movs	r1, #2
 205 008a 0D48     		ldr	r0, .L19+8
 206 008c FFF7FEFF 		bl	pwmEnableChannel
 207              	.LVL26:
 208              		.loc 1 38 0
 209 0090 0B48     		ldr	r0, .L19+8
 210 0092 0021     		movs	r1, #0
 211 0094 2A46     		mov	r2, r5
 212 0096 FFF7FEFF 		bl	pwmEnableChannel
 213              	.LVL27:
 214 009a 38BD     		pop	{r3, r4, r5, pc}
 215              	.LVL28:
 216              	.L17:
 217              		.loc 1 42 0
 218 009c 0848     		ldr	r0, .L19+8
 219 009e 0321     		movs	r1, #3
 220 00a0 FFF7FEFF 		bl	pwmDisableChannel
 221              	.LVL29:
 222              		.loc 1 44 0
 223 00a4 ADB2     		uxth	r5, r5
 224              	.LVL30:
 225              		.loc 1 43 0
 226 00a6 0648     		ldr	r0, .L19+8
ARM GAS  /tmp/ccgbgAhC.s 			page 5


 227 00a8 0021     		movs	r1, #0
 228 00aa FFF7FEFF 		bl	pwmDisableChannel
 229              	.LVL31:
 230              		.loc 1 44 0
 231 00ae 2146     		mov	r1, r4
 232 00b0 2A46     		mov	r2, r5
 233 00b2 0348     		ldr	r0, .L19+8
 234 00b4 C2E7     		b	.L14
 235              	.L20:
 236 00b6 00BF     		.align	2
 237              	.L19:
 238 00b8 04000000 		.word	.LC1
 239 00bc 00000000 		.word	SD2
 240 00c0 00000000 		.word	PWMD3
 241              		.cfi_endproc
 242              	.LFE64:
 243              		.size	move, .-move
 244 00c4 AFF30080 		.section	.rodata.str1.4,"aMS",%progbits,1
 244      AFF30080 
 244      AFF30080 
 245              		.align	2
 246              	.LC0:
 247 0000 257300   		.ascii	"%s\000"
 248 0003 00       		.space	1
 249              	.LC1:
 250 0004 2564200A 		.ascii	"%d \012\015\000"
 250      0D00
 251 000a 0000     		.text
 252              	.Letext0:
 253              		.file 2 "/usr/bin/../lib/gcc/arm-none-eabi/4.7.4/include/stddef.h"
 254              		.file 3 "/usr/bin/../lib/gcc/arm-none-eabi/4.7.4/../../../../arm-none-eabi/include/stdint.h"
 255              		.file 4 "../../os/ports/GCC/ARMCMx/chtypes.h"
 256              		.file 5 "../../os/kernel/include/chlists.h"
 257              		.file 6 "../../os/kernel/include/chthreads.h"
 258              		.file 7 "../../os/ports/GCC/ARMCMx/chcore_v7m.h"
 259              		.file 8 "../../os/kernel/include/chmtx.h"
 260              		.file 9 "../../os/kernel/include/chevents.h"
 261              		.file 10 "../../os/kernel/include/chqueues.h"
 262              		.file 11 "../../os/kernel/include/chstreams.h"
 263              		.file 12 "../../os/hal/platforms/STM32F1xx/stm32f10x.h"
 264              		.file 13 "../../os/hal/platforms/STM32F1xx/stm32_dma.h"
 265              		.file 14 "../../os/hal/include/io_channel.h"
 266              		.file 15 "../../os/hal/include/adc.h"
 267              		.file 16 "../../os/hal/platforms/STM32F1xx/adc_lld.h"
 268              		.file 17 "../../os/hal/include/pwm.h"
 269              		.file 18 "../../os/hal/platforms/STM32/TIMv1/pwm_lld.h"
 270              		.file 19 "../../os/hal/platforms/STM32/TIMv1/stm32_tim.h"
 271              		.file 20 "../../os/hal/include/serial.h"
 272              		.file 21 "dortII.h"
 273              		.file 22 "../../os/ports/common/ARMCMx/CMSIS/include/core_cm3.h"
 274              		.file 23 "../../os/various/chprintf.h"
 275              		.file 24 "../../os/hal/platforms/STM32/USARTv1/serial_lld.h"