ARM GAS  /tmp/ccp1ATIv.s 			page 1


   1              		.syntax unified
   2              		.cpu cortex-m3
   3              		.fpu softvfp
   4              		.eabi_attribute 20, 1
   5              		.eabi_attribute 21, 1
   6              		.eabi_attribute 23, 3
   7              		.eabi_attribute 24, 1
   8              		.eabi_attribute 25, 1
   9              		.eabi_attribute 26, 1
  10              		.eabi_attribute 30, 2
  11              		.eabi_attribute 34, 1
  12              		.eabi_attribute 18, 4
  13              		.thumb
  14              		.file	"pwm.c"
  15              		.text
  16              	.Ltext0:
  17              		.cfi_sections	.debug_frame
  18              		.section	.text.pwmInit,"ax",%progbits
  19              		.align	2
  20              		.p2align 4,,15
  21              		.global	pwmInit
  22              		.thumb
  23              		.thumb_func
  24              		.type	pwmInit, %function
  25              	pwmInit:
  26              	.LFB63:
  27              		.file 1 "../../os/hal/src/pwm.c"
  28              		.loc 1 61 0
  29              		.cfi_startproc
  30              		@ args = 0, pretend = 0, frame = 0
  31              		@ frame_needed = 0, uses_anonymous_args = 0
  32              		@ link register save eliminated.
  33              		.loc 1 64 0
  34              		.loc 1 63 0
  35 0000 FFF7FEBF 		b	pwm_lld_init
  36              	.LVL0:
  37              		.cfi_endproc
  38              	.LFE63:
  39              		.size	pwmInit, .-pwmInit
  40 0004 AFF30080 		.section	.text.pwmObjectInit,"ax",%progbits
  40      AFF30080 
  40      AFF30080 
  41              		.align	2
  42              		.p2align 4,,15
  43              		.global	pwmObjectInit
  44              		.thumb
  45              		.thumb_func
  46              		.type	pwmObjectInit, %function
  47              	pwmObjectInit:
  48              	.LFB64:
  49              		.loc 1 73 0
  50              		.cfi_startproc
  51              		@ args = 0, pretend = 0, frame = 0
  52              		@ frame_needed = 0, uses_anonymous_args = 0
  53              		@ link register save eliminated.
  54              	.LVL1:
  55              		.loc 1 75 0
ARM GAS  /tmp/ccp1ATIv.s 			page 2


  56 0000 0123     		movs	r3, #1
  57              		.loc 1 76 0
  58 0002 0021     		movs	r1, #0
  59              		.loc 1 75 0
  60 0004 0370     		strb	r3, [r0, #0]
  61              		.loc 1 76 0
  62 0006 4160     		str	r1, [r0, #4]
  63 0008 7047     		bx	lr
  64              		.cfi_endproc
  65              	.LFE64:
  66              		.size	pwmObjectInit, .-pwmObjectInit
  67 000a 00BFAFF3 		.section	.text.pwmStart,"ax",%progbits
  67      0080
  68              		.align	2
  69              		.p2align 4,,15
  70              		.global	pwmStart
  71              		.thumb
  72              		.thumb_func
  73              		.type	pwmStart, %function
  74              	pwmStart:
  75              	.LFB65:
  76              		.loc 1 92 0
  77              		.cfi_startproc
  78              		@ args = 0, pretend = 0, frame = 0
  79              		@ frame_needed = 0, uses_anonymous_args = 0
  80              	.LVL2:
  81 0000 38B5     		push	{r3, r4, r5, lr}
  82              	.LCFI0:
  83              		.cfi_def_cfa_offset 16
  84              		.cfi_offset 3, -16
  85              		.cfi_offset 4, -12
  86              		.cfi_offset 5, -8
  87              		.cfi_offset 14, -4
  88              		.loc 1 94 0
  89 0002 0446     		mov	r4, r0
  90              		.loc 1 92 0
  91 0004 0D46     		mov	r5, r1
  92              		.loc 1 94 0
  93 0006 D0B1     		cbz	r0, .L4
  94              		.loc 1 94 0 is_stmt 0 discriminator 2
  95 0008 C9B1     		cbz	r1, .L4
  96              	.LVL3:
  97              	.L5:
  98              	.LBB2:
  99              		.loc 1 96 0 is_stmt 1
 100 000a 2023     		movs	r3, #32
 101              	.LVL4:
 102              	@ 96 "../../os/hal/src/pwm.c" 1
 103 000c 83F31188 		msr     BASEPRI, r3
 104              	@ 0 "" 2
 105              	.LVL5:
 106              		.thumb
 107              	.LBE2:
 108 0010 FFF7FEFF 		bl	dbg_check_lock
 109              	.LVL6:
 110              		.loc 1 97 0
 111 0014 2378     		ldrb	r3, [r4, #0]	@ zero_extendqisi2
ARM GAS  /tmp/ccp1ATIv.s 			page 3


 112 0016 581E     		subs	r0, r3, #1
 113 0018 0128     		cmp	r0, #1
 114 001a 02D9     		bls	.L6
 115              		.loc 1 97 0 is_stmt 0 discriminator 1
 116 001c 0A48     		ldr	r0, .L11
 117 001e FFF7FEFF 		bl	chDbgPanic
 118              	.LVL7:
 119              	.L6:
 120              		.loc 1 100 0 is_stmt 1
 121 0022 A988     		ldrh	r1, [r5, #4]
 122              		.loc 1 101 0
 123 0024 2046     		mov	r0, r4
 124              		.loc 1 100 0
 125 0026 2181     		strh	r1, [r4, #8]	@ movhi
 126              		.loc 1 99 0
 127 0028 6560     		str	r5, [r4, #4]
 128              		.loc 1 101 0
 129 002a FFF7FEFF 		bl	pwm_lld_start
 130              	.LVL8:
 131              		.loc 1 102 0
 132 002e 0222     		movs	r2, #2
 133 0030 2270     		strb	r2, [r4, #0]
 134              		.loc 1 103 0
 135 0032 FFF7FEFF 		bl	dbg_check_unlock
 136              	.LVL9:
 137              	.LBB3:
 138 0036 0023     		movs	r3, #0
 139              	.LVL10:
 140              	@ 103 "../../os/hal/src/pwm.c" 1
 141 0038 83F31188 		msr     BASEPRI, r3
 142              	@ 0 "" 2
 143              	.LVL11:
 144              		.thumb
 145 003c 38BD     		pop	{r3, r4, r5, pc}
 146              	.LVL12:
 147              	.L4:
 148              	.LBE3:
 149              		.loc 1 94 0 discriminator 1
 150 003e 0348     		ldr	r0, .L11+4
 151              	.LVL13:
 152 0040 FFF7FEFF 		bl	chDbgPanic
 153              	.LVL14:
 154 0044 E1E7     		b	.L5
 155              	.L12:
 156 0046 00BF     		.align	2
 157              	.L11:
 158 0048 10000000 		.word	.LC1
 159 004c 00000000 		.word	.LC0
 160              		.cfi_endproc
 161              	.LFE65:
 162              		.size	pwmStart, .-pwmStart
 163              		.section	.text.pwmStop,"ax",%progbits
 164              		.align	2
 165              		.p2align 4,,15
 166              		.global	pwmStop
 167              		.thumb
 168              		.thumb_func
ARM GAS  /tmp/ccp1ATIv.s 			page 4


 169              		.type	pwmStop, %function
 170              	pwmStop:
 171              	.LFB66:
 172              		.loc 1 113 0
 173              		.cfi_startproc
 174              		@ args = 0, pretend = 0, frame = 0
 175              		@ frame_needed = 0, uses_anonymous_args = 0
 176              	.LVL15:
 177 0000 10B5     		push	{r4, lr}
 178              	.LCFI1:
 179              		.cfi_def_cfa_offset 8
 180              		.cfi_offset 4, -8
 181              		.cfi_offset 14, -4
 182              		.loc 1 115 0
 183 0002 0446     		mov	r4, r0
 184 0004 B0B1     		cbz	r0, .L16
 185              	.LVL16:
 186              	.L14:
 187              	.LBB4:
 188              		.loc 1 117 0
 189 0006 2023     		movs	r3, #32
 190              	.LVL17:
 191              	@ 117 "../../os/hal/src/pwm.c" 1
 192 0008 83F31188 		msr     BASEPRI, r3
 193              	@ 0 "" 2
 194              	.LVL18:
 195              		.thumb
 196              	.LBE4:
 197 000c FFF7FEFF 		bl	dbg_check_lock
 198              	.LVL19:
 199              		.loc 1 118 0
 200 0010 2378     		ldrb	r3, [r4, #0]	@ zero_extendqisi2
 201 0012 581E     		subs	r0, r3, #1
 202 0014 0128     		cmp	r0, #1
 203 0016 02D9     		bls	.L15
 204              		.loc 1 118 0 is_stmt 0 discriminator 1
 205 0018 0848     		ldr	r0, .L17
 206 001a FFF7FEFF 		bl	chDbgPanic
 207              	.LVL20:
 208              	.L15:
 209              		.loc 1 120 0 is_stmt 1
 210 001e 2046     		mov	r0, r4
 211 0020 FFF7FEFF 		bl	pwm_lld_stop
 212              	.LVL21:
 213              		.loc 1 121 0
 214 0024 0121     		movs	r1, #1
 215 0026 2170     		strb	r1, [r4, #0]
 216              		.loc 1 122 0
 217 0028 FFF7FEFF 		bl	dbg_check_unlock
 218              	.LVL22:
 219              	.LBB5:
 220 002c 0023     		movs	r3, #0
 221              	.LVL23:
 222              	@ 122 "../../os/hal/src/pwm.c" 1
 223 002e 83F31188 		msr     BASEPRI, r3
 224              	@ 0 "" 2
 225              	.LVL24:
ARM GAS  /tmp/ccp1ATIv.s 			page 5


 226              		.thumb
 227 0032 10BD     		pop	{r4, pc}
 228              	.LVL25:
 229              	.L16:
 230              	.LBE5:
 231              		.loc 1 115 0 discriminator 1
 232 0034 0248     		ldr	r0, .L17+4
 233              	.LVL26:
 234 0036 FFF7FEFF 		bl	chDbgPanic
 235              	.LVL27:
 236 003a E4E7     		b	.L14
 237              	.L18:
 238              		.align	2
 239              	.L17:
 240 003c 2C000000 		.word	.LC3
 241 0040 20000000 		.word	.LC2
 242              		.cfi_endproc
 243              	.LFE66:
 244              		.size	pwmStop, .-pwmStop
 245 0044 AFF30080 		.section	.text.pwmChangePeriod,"ax",%progbits
 245      AFF30080 
 245      AFF30080 
 246              		.align	2
 247              		.p2align 4,,15
 248              		.global	pwmChangePeriod
 249              		.thumb
 250              		.thumb_func
 251              		.type	pwmChangePeriod, %function
 252              	pwmChangePeriod:
 253              	.LFB67:
 254              		.loc 1 140 0
 255              		.cfi_startproc
 256              		@ args = 0, pretend = 0, frame = 0
 257              		@ frame_needed = 0, uses_anonymous_args = 0
 258              	.LVL28:
 259 0000 38B5     		push	{r3, r4, r5, lr}
 260              	.LCFI2:
 261              		.cfi_def_cfa_offset 16
 262              		.cfi_offset 3, -16
 263              		.cfi_offset 4, -12
 264              		.cfi_offset 5, -8
 265              		.cfi_offset 14, -4
 266              		.loc 1 142 0
 267 0002 0446     		mov	r4, r0
 268              		.loc 1 140 0
 269 0004 0D46     		mov	r5, r1
 270              		.loc 1 142 0
 271 0006 A8B1     		cbz	r0, .L25
 272              	.LVL29:
 273              	.L20:
 274              	.LBB6:
 275              		.loc 1 144 0
 276 0008 2023     		movs	r3, #32
 277              	.LVL30:
 278              	@ 144 "../../os/hal/src/pwm.c" 1
 279 000a 83F31188 		msr     BASEPRI, r3
 280              	@ 0 "" 2
ARM GAS  /tmp/ccp1ATIv.s 			page 6


 281              	.LVL31:
 282              		.thumb
 283              	.LBE6:
 284 000e FFF7FEFF 		bl	dbg_check_lock
 285              	.LVL32:
 286              		.loc 1 145 0
 287 0012 2378     		ldrb	r3, [r4, #0]	@ zero_extendqisi2
 288 0014 022B     		cmp	r3, #2
 289 0016 02D0     		beq	.L21
 290              		.loc 1 145 0 is_stmt 0 discriminator 1
 291 0018 0848     		ldr	r0, .L26
 292 001a FFF7FEFF 		bl	chDbgPanic
 293              	.LVL33:
 294              	.L21:
 295              		.loc 1 147 0 is_stmt 1
 296 001e 2069     		ldr	r0, [r4, #16]
 297 0020 6A1E     		subs	r2, r5, #1
 298 0022 91B2     		uxth	r1, r2
 299 0024 2581     		strh	r5, [r4, #8]	@ movhi
 300 0026 C162     		str	r1, [r0, #44]
 301              		.loc 1 148 0
 302 0028 FFF7FEFF 		bl	dbg_check_unlock
 303              	.LVL34:
 304              	.LBB7:
 305 002c 0023     		movs	r3, #0
 306              	.LVL35:
 307              	@ 148 "../../os/hal/src/pwm.c" 1
 308 002e 83F31188 		msr     BASEPRI, r3
 309              	@ 0 "" 2
 310              	.LVL36:
 311              		.thumb
 312 0032 38BD     		pop	{r3, r4, r5, pc}
 313              	.LVL37:
 314              	.L25:
 315              	.LBE7:
 316              		.loc 1 142 0 discriminator 1
 317 0034 0248     		ldr	r0, .L26+4
 318              	.LVL38:
 319 0036 FFF7FEFF 		bl	chDbgPanic
 320              	.LVL39:
 321 003a E5E7     		b	.L20
 322              	.L27:
 323              		.align	2
 324              	.L26:
 325 003c 50000000 		.word	.LC5
 326 0040 3C000000 		.word	.LC4
 327              		.cfi_endproc
 328              	.LFE67:
 329              		.size	pwmChangePeriod, .-pwmChangePeriod
 330 0044 AFF30080 		.section	.text.pwmEnableChannel,"ax",%progbits
 330      AFF30080 
 330      AFF30080 
 331              		.align	2
 332              		.p2align 4,,15
 333              		.global	pwmEnableChannel
 334              		.thumb
 335              		.thumb_func
ARM GAS  /tmp/ccp1ATIv.s 			page 7


 336              		.type	pwmEnableChannel, %function
 337              	pwmEnableChannel:
 338              	.LFB68:
 339              		.loc 1 167 0
 340              		.cfi_startproc
 341              		@ args = 0, pretend = 0, frame = 0
 342              		@ frame_needed = 0, uses_anonymous_args = 0
 343              	.LVL40:
 344 0000 70B5     		push	{r4, r5, r6, lr}
 345              	.LCFI3:
 346              		.cfi_def_cfa_offset 16
 347              		.cfi_offset 4, -16
 348              		.cfi_offset 5, -12
 349              		.cfi_offset 6, -8
 350              		.cfi_offset 14, -4
 351              		.loc 1 169 0
 352 0002 0446     		mov	r4, r0
 353              		.loc 1 167 0
 354 0004 0D46     		mov	r5, r1
 355 0006 1646     		mov	r6, r2
 356              		.loc 1 169 0
 357 0008 B8B1     		cbz	r0, .L29
 358              		.loc 1 169 0 is_stmt 0 discriminator 2
 359 000a 0329     		cmp	r1, #3
 360 000c 15D8     		bhi	.L29
 361              	.LVL41:
 362              	.L30:
 363              	.LBB8:
 364              		.loc 1 172 0 is_stmt 1
 365 000e 2023     		movs	r3, #32
 366              	.LVL42:
 367              	@ 172 "../../os/hal/src/pwm.c" 1
 368 0010 83F31188 		msr     BASEPRI, r3
 369              	@ 0 "" 2
 370              	.LVL43:
 371              		.thumb
 372              	.LBE8:
 373 0014 FFF7FEFF 		bl	dbg_check_lock
 374              	.LVL44:
 375              		.loc 1 173 0
 376 0018 2378     		ldrb	r3, [r4, #0]	@ zero_extendqisi2
 377 001a 022B     		cmp	r3, #2
 378 001c 02D0     		beq	.L31
 379              		.loc 1 173 0 is_stmt 0 discriminator 1
 380 001e 0948     		ldr	r0, .L38
 381 0020 FFF7FEFF 		bl	chDbgPanic
 382              	.LVL45:
 383              	.L31:
 384              		.loc 1 175 0 is_stmt 1
 385 0024 2046     		mov	r0, r4
 386 0026 2946     		mov	r1, r5
 387 0028 3246     		mov	r2, r6
 388 002a FFF7FEFF 		bl	pwm_lld_enable_channel
 389              	.LVL46:
 390              		.loc 1 176 0
 391 002e FFF7FEFF 		bl	dbg_check_unlock
 392              	.LVL47:
ARM GAS  /tmp/ccp1ATIv.s 			page 8


 393              	.LBB9:
 394 0032 0023     		movs	r3, #0
 395              	.LVL48:
 396              	@ 176 "../../os/hal/src/pwm.c" 1
 397 0034 83F31188 		msr     BASEPRI, r3
 398              	@ 0 "" 2
 399              	.LVL49:
 400              		.thumb
 401 0038 70BD     		pop	{r4, r5, r6, pc}
 402              	.LVL50:
 403              	.L29:
 404              	.LBE9:
 405              		.loc 1 169 0 discriminator 1
 406 003a 0348     		ldr	r0, .L38+4
 407              	.LVL51:
 408 003c FFF7FEFF 		bl	chDbgPanic
 409              	.LVL52:
 410 0040 E5E7     		b	.L30
 411              	.L39:
 412 0042 00BF     		.align	2
 413              	.L38:
 414 0044 80000000 		.word	.LC7
 415 0048 68000000 		.word	.LC6
 416              		.cfi_endproc
 417              	.LFE68:
 418              		.size	pwmEnableChannel, .-pwmEnableChannel
 419 004c AFF30080 		.section	.text.pwmDisableChannel,"ax",%progbits
 420              		.align	2
 421              		.p2align 4,,15
 422              		.global	pwmDisableChannel
 423              		.thumb
 424              		.thumb_func
 425              		.type	pwmDisableChannel, %function
 426              	pwmDisableChannel:
 427              	.LFB69:
 428              		.loc 1 193 0
 429              		.cfi_startproc
 430              		@ args = 0, pretend = 0, frame = 0
 431              		@ frame_needed = 0, uses_anonymous_args = 0
 432              	.LVL53:
 433 0000 38B5     		push	{r3, r4, r5, lr}
 434              	.LCFI4:
 435              		.cfi_def_cfa_offset 16
 436              		.cfi_offset 3, -16
 437              		.cfi_offset 4, -12
 438              		.cfi_offset 5, -8
 439              		.cfi_offset 14, -4
 440              		.loc 1 195 0
 441 0002 0446     		mov	r4, r0
 442              		.loc 1 193 0
 443 0004 0D46     		mov	r5, r1
 444              		.loc 1 195 0
 445 0006 B0B1     		cbz	r0, .L41
 446              		.loc 1 195 0 is_stmt 0 discriminator 2
 447 0008 0329     		cmp	r1, #3
 448 000a 14D8     		bhi	.L41
 449              	.LVL54:
ARM GAS  /tmp/ccp1ATIv.s 			page 9


 450              	.L42:
 451              	.LBB10:
 452              		.loc 1 198 0 is_stmt 1
 453 000c 2023     		movs	r3, #32
 454              	.LVL55:
 455              	@ 198 "../../os/hal/src/pwm.c" 1
 456 000e 83F31188 		msr     BASEPRI, r3
 457              	@ 0 "" 2
 458              	.LVL56:
 459              		.thumb
 460              	.LBE10:
 461 0012 FFF7FEFF 		bl	dbg_check_lock
 462              	.LVL57:
 463              		.loc 1 199 0
 464 0016 2378     		ldrb	r3, [r4, #0]	@ zero_extendqisi2
 465 0018 022B     		cmp	r3, #2
 466 001a 02D0     		beq	.L43
 467              		.loc 1 199 0 is_stmt 0 discriminator 1
 468 001c 0848     		ldr	r0, .L50
 469 001e FFF7FEFF 		bl	chDbgPanic
 470              	.LVL58:
 471              	.L43:
 472              		.loc 1 201 0 is_stmt 1
 473 0022 2046     		mov	r0, r4
 474 0024 2946     		mov	r1, r5
 475 0026 FFF7FEFF 		bl	pwm_lld_disable_channel
 476              	.LVL59:
 477              		.loc 1 202 0
 478 002a FFF7FEFF 		bl	dbg_check_unlock
 479              	.LVL60:
 480              	.LBB11:
 481 002e 0023     		movs	r3, #0
 482              	.LVL61:
 483              	@ 202 "../../os/hal/src/pwm.c" 1
 484 0030 83F31188 		msr     BASEPRI, r3
 485              	@ 0 "" 2
 486              	.LVL62:
 487              		.thumb
 488 0034 38BD     		pop	{r3, r4, r5, pc}
 489              	.LVL63:
 490              	.L41:
 491              	.LBE11:
 492              		.loc 1 195 0 discriminator 1
 493 0036 0348     		ldr	r0, .L50+4
 494              	.LVL64:
 495 0038 FFF7FEFF 		bl	chDbgPanic
 496              	.LVL65:
 497 003c E6E7     		b	.L42
 498              	.L51:
 499 003e 00BF     		.align	2
 500              	.L50:
 501 0040 98000000 		.word	.LC8
 502 0044 68000000 		.word	.LC6
 503              		.cfi_endproc
 504              	.LFE69:
 505              		.size	pwmDisableChannel, .-pwmDisableChannel
 506 0048 AFF30080 		.section	.rodata.str1.4,"aMS",%progbits,1
ARM GAS  /tmp/ccp1ATIv.s 			page 10


 506      AFF30080 
 507              		.align	2
 508              	.LC0:
 509 0000 2270776D 		.ascii	"\"pwmStart\"()\000"
 509      53746172 
 509      74222829 
 509      00
 510 000d 000000   		.space	3
 511              	.LC1:
 512 0010 70776D53 		.ascii	"pwmStart(), #1\000"
 512      74617274 
 512      28292C20 
 512      233100
 513 001f 00       		.space	1
 514              	.LC2:
 515 0020 2270776D 		.ascii	"\"pwmStop\"()\000"
 515      53746F70 
 515      22282900 
 516              	.LC3:
 517 002c 70776D53 		.ascii	"pwmStop(), #1\000"
 517      746F7028 
 517      292C2023 
 517      3100
 518 003a 0000     		.space	2
 519              	.LC4:
 520 003c 2270776D 		.ascii	"\"pwmChangePeriod\"()\000"
 520      4368616E 
 520      67655065 
 520      72696F64 
 520      22282900 
 521              	.LC5:
 522 0050 70776D43 		.ascii	"pwmChangePeriod(), #1\000"
 522      68616E67 
 522      65506572 
 522      696F6428 
 522      292C2023 
 523 0066 0000     		.space	2
 524              	.LC6:
 525 0068 2270776D 		.ascii	"\"pwmEnableChannel\"()\000"
 525      456E6162 
 525      6C654368 
 525      616E6E65 
 525      6C222829 
 526 007d 000000   		.space	3
 527              	.LC7:
 528 0080 70776D45 		.ascii	"pwmEnableChannel(), #1\000"
 528      6E61626C 
 528      65436861 
 528      6E6E656C 
 528      28292C20 
 529 0097 00       		.space	1
 530              	.LC8:
 531 0098 70776D44 		.ascii	"pwmDisableChannel(), #1\000"
 531      69736162 
 531      6C654368 
 531      616E6E65 
 531      6C28292C 
ARM GAS  /tmp/ccp1ATIv.s 			page 11


 532              		.text
 533              	.Letext0:
 534              		.file 2 "/usr/bin/../lib/gcc/arm-none-eabi/4.7.4/../../../../arm-none-eabi/include/stdint.h"
 535              		.file 3 "../../os/hal/include/pwm.h"
 536              		.file 4 "../../os/hal/platforms/STM32/TIMv1/pwm_lld.h"
 537              		.file 5 "../../os/hal/platforms/STM32/TIMv1/stm32_tim.h"
 538              		.file 6 "../../os/kernel/include/chdebug.h"
 539              		.file 7 "../../os/ports/common/ARMCMx/CMSIS/include/core_cm3.h"
 540              		.section	.debug_info,"",%progbits
 541              	.Ldebug_info0:
 542 0000 74080000 		.4byte	0x874
 543 0004 0200     		.2byte	0x2
 544 0006 00000000 		.4byte	.Ldebug_abbrev0
 545 000a 04       		.byte	0x4
 546 000b 01       		.uleb128 0x1
 547 000c B3010000 		.4byte	.LASF64
 548 0010 01       		.byte	0x1
 549 0011 88020000 		.4byte	.LASF65
 550 0015 9F020000 		.4byte	.LASF66
 551 0019 00000000 		.4byte	.Ldebug_ranges0+0
 552 001d 00000000 		.4byte	0
 553 0021 00000000 		.4byte	0
 554 0025 00000000 		.4byte	.Ldebug_line0
 555 0029 02       		.uleb128 0x2
 556 002a 04       		.byte	0x4
 557 002b 05       		.byte	0x5
 558 002c 696E7400 		.ascii	"int\000"
 559 0030 03       		.uleb128 0x3
 560 0031 04       		.byte	0x4
 561 0032 07       		.byte	0x7
 562 0033 A6010000 		.4byte	.LASF0
 563 0037 03       		.uleb128 0x3
 564 0038 01       		.byte	0x1
 565 0039 06       		.byte	0x6
 566 003a 6B010000 		.4byte	.LASF1
 567 003e 04       		.uleb128 0x4
 568 003f 8D000000 		.4byte	.LASF4
 569 0043 02       		.byte	0x2
 570 0044 2A       		.byte	0x2a
 571 0045 49000000 		.4byte	0x49
 572 0049 03       		.uleb128 0x3
 573 004a 01       		.byte	0x1
 574 004b 08       		.byte	0x8
 575 004c 23010000 		.4byte	.LASF2
 576 0050 03       		.uleb128 0x3
 577 0051 02       		.byte	0x2
 578 0052 05       		.byte	0x5
 579 0053 29000000 		.4byte	.LASF3
 580 0057 04       		.uleb128 0x4
 581 0058 2B020000 		.4byte	.LASF5
 582 005c 02       		.byte	0x2
 583 005d 36       		.byte	0x36
 584 005e 62000000 		.4byte	0x62
 585 0062 03       		.uleb128 0x3
 586 0063 02       		.byte	0x2
 587 0064 07       		.byte	0x7
 588 0065 06020000 		.4byte	.LASF6
ARM GAS  /tmp/ccp1ATIv.s 			page 12


 589 0069 04       		.uleb128 0x4
 590 006a 4A020000 		.4byte	.LASF7
 591 006e 02       		.byte	0x2
 592 006f 4F       		.byte	0x4f
 593 0070 74000000 		.4byte	0x74
 594 0074 03       		.uleb128 0x3
 595 0075 04       		.byte	0x4
 596 0076 05       		.byte	0x5
 597 0077 C3000000 		.4byte	.LASF8
 598 007b 04       		.uleb128 0x4
 599 007c 9D010000 		.4byte	.LASF9
 600 0080 02       		.byte	0x2
 601 0081 50       		.byte	0x50
 602 0082 86000000 		.4byte	0x86
 603 0086 03       		.uleb128 0x3
 604 0087 04       		.byte	0x4
 605 0088 07       		.byte	0x7
 606 0089 70020000 		.4byte	.LASF10
 607 008d 03       		.uleb128 0x3
 608 008e 08       		.byte	0x8
 609 008f 05       		.byte	0x5
 610 0090 B5000000 		.4byte	.LASF11
 611 0094 03       		.uleb128 0x3
 612 0095 08       		.byte	0x8
 613 0096 07       		.byte	0x7
 614 0097 86010000 		.4byte	.LASF12
 615 009b 03       		.uleb128 0x3
 616 009c 01       		.byte	0x1
 617 009d 02       		.byte	0x2
 618 009e 52020000 		.4byte	.LASF13
 619 00a2 05       		.uleb128 0x5
 620 00a3 7B000000 		.4byte	0x7b
 621 00a7 03       		.uleb128 0x3
 622 00a8 04       		.byte	0x4
 623 00a9 07       		.byte	0x7
 624 00aa 3C000000 		.4byte	.LASF14
 625 00ae 06       		.uleb128 0x6
 626 00af 04       		.byte	0x4
 627 00b0 B4000000 		.4byte	0xb4
 628 00b4 07       		.uleb128 0x7
 629 00b5 B9000000 		.4byte	0xb9
 630 00b9 03       		.uleb128 0x3
 631 00ba 01       		.byte	0x1
 632 00bb 08       		.byte	0x8
 633 00bc 26020000 		.4byte	.LASF15
 634 00c0 08       		.uleb128 0x8
 635 00c1 7B000000 		.4byte	0x7b
 636 00c5 D0000000 		.4byte	0xd0
 637 00c9 09       		.uleb128 0x9
 638 00ca A7000000 		.4byte	0xa7
 639 00ce 03       		.byte	0x3
 640 00cf 00       		.byte	0
 641 00d0 05       		.uleb128 0x5
 642 00d1 69000000 		.4byte	0x69
 643 00d5 0A       		.uleb128 0xa
 644 00d6 01       		.byte	0x1
 645 00d7 03       		.byte	0x3
ARM GAS  /tmp/ccp1ATIv.s 			page 13


 646 00d8 4E       		.byte	0x4e
 647 00d9 F0000000 		.4byte	0xf0
 648 00dd 0B       		.uleb128 0xb
 649 00de 18010000 		.4byte	.LASF16
 650 00e2 00       		.sleb128 0
 651 00e3 0B       		.uleb128 0xb
 652 00e4 DF020000 		.4byte	.LASF17
 653 00e8 01       		.sleb128 1
 654 00e9 0B       		.uleb128 0xb
 655 00ea D5020000 		.4byte	.LASF18
 656 00ee 02       		.sleb128 2
 657 00ef 00       		.byte	0
 658 00f0 04       		.uleb128 0x4
 659 00f1 27030000 		.4byte	.LASF19
 660 00f5 03       		.byte	0x3
 661 00f6 52       		.byte	0x52
 662 00f7 D5000000 		.4byte	0xd5
 663 00fb 04       		.uleb128 0x4
 664 00fc 40020000 		.4byte	.LASF20
 665 0100 03       		.byte	0x3
 666 0101 57       		.byte	0x57
 667 0102 06010000 		.4byte	0x106
 668 0106 0C       		.uleb128 0xc
 669 0107 40020000 		.4byte	.LASF20
 670 010b 14       		.byte	0x14
 671 010c 04       		.byte	0x4
 672 010d 6F01     		.2byte	0x16f
 673 010f 5F010000 		.4byte	0x15f
 674 0113 0D       		.uleb128 0xd
 675 0114 17000000 		.4byte	.LASF21
 676 0118 04       		.byte	0x4
 677 0119 7301     		.2byte	0x173
 678 011b F0000000 		.4byte	0xf0
 679 011f 02       		.byte	0x2
 680 0120 23       		.byte	0x23
 681 0121 00       		.uleb128 0
 682 0122 0D       		.uleb128 0xd
 683 0123 78000000 		.4byte	.LASF22
 684 0127 04       		.byte	0x4
 685 0128 7701     		.2byte	0x177
 686 012a AE030000 		.4byte	0x3ae
 687 012e 02       		.byte	0x2
 688 012f 23       		.byte	0x23
 689 0130 04       		.uleb128 0x4
 690 0131 0D       		.uleb128 0xd
 691 0132 DE000000 		.4byte	.LASF23
 692 0136 04       		.byte	0x4
 693 0137 7B01     		.2byte	0x17b
 694 0139 EE020000 		.4byte	0x2ee
 695 013d 02       		.byte	0x2
 696 013e 23       		.byte	0x23
 697 013f 08       		.uleb128 0x8
 698 0140 0D       		.uleb128 0xd
 699 0141 82020000 		.4byte	.LASF24
 700 0145 04       		.byte	0x4
 701 0146 8301     		.2byte	0x183
 702 0148 7B000000 		.4byte	0x7b
ARM GAS  /tmp/ccp1ATIv.s 			page 14


 703 014c 02       		.byte	0x2
 704 014d 23       		.byte	0x23
 705 014e 0C       		.uleb128 0xc
 706 014f 0E       		.uleb128 0xe
 707 0150 74696D00 		.ascii	"tim\000"
 708 0154 04       		.byte	0x4
 709 0155 8701     		.2byte	0x187
 710 0157 B9030000 		.4byte	0x3b9
 711 015b 02       		.byte	0x2
 712 015c 23       		.byte	0x23
 713 015d 10       		.uleb128 0x10
 714 015e 00       		.byte	0
 715 015f 04       		.uleb128 0x4
 716 0160 32030000 		.4byte	.LASF25
 717 0164 03       		.byte	0x3
 718 0165 5E       		.byte	0x5e
 719 0166 6A010000 		.4byte	0x16a
 720 016a 06       		.uleb128 0x6
 721 016b 04       		.byte	0x4
 722 016c 70010000 		.4byte	0x170
 723 0170 0F       		.uleb128 0xf
 724 0171 01       		.byte	0x1
 725 0172 7C010000 		.4byte	0x17c
 726 0176 10       		.uleb128 0x10
 727 0177 7C010000 		.4byte	0x17c
 728 017b 00       		.byte	0
 729 017c 06       		.uleb128 0x6
 730 017d 04       		.byte	0x4
 731 017e FB000000 		.4byte	0xfb
 732 0182 11       		.uleb128 0x11
 733 0183 60       		.byte	0x60
 734 0184 05       		.byte	0x5
 735 0185 9E01     		.2byte	0x19e
 736 0187 C5020000 		.4byte	0x2c5
 737 018b 0E       		.uleb128 0xe
 738 018c 43523100 		.ascii	"CR1\000"
 739 0190 05       		.byte	0x5
 740 0191 9F01     		.2byte	0x19f
 741 0193 A2000000 		.4byte	0xa2
 742 0197 02       		.byte	0x2
 743 0198 23       		.byte	0x23
 744 0199 00       		.uleb128 0
 745 019a 0E       		.uleb128 0xe
 746 019b 43523200 		.ascii	"CR2\000"
 747 019f 05       		.byte	0x5
 748 01a0 A001     		.2byte	0x1a0
 749 01a2 A2000000 		.4byte	0xa2
 750 01a6 02       		.byte	0x2
 751 01a7 23       		.byte	0x23
 752 01a8 04       		.uleb128 0x4
 753 01a9 0D       		.uleb128 0xd
 754 01aa 13010000 		.4byte	.LASF26
 755 01ae 05       		.byte	0x5
 756 01af A101     		.2byte	0x1a1
 757 01b1 A2000000 		.4byte	0xa2
 758 01b5 02       		.byte	0x2
 759 01b6 23       		.byte	0x23
ARM GAS  /tmp/ccp1ATIv.s 			page 15


 760 01b7 08       		.uleb128 0x8
 761 01b8 0D       		.uleb128 0xd
 762 01b9 01020000 		.4byte	.LASF27
 763 01bd 05       		.byte	0x5
 764 01be A201     		.2byte	0x1a2
 765 01c0 A2000000 		.4byte	0xa2
 766 01c4 02       		.byte	0x2
 767 01c5 23       		.byte	0x23
 768 01c6 0C       		.uleb128 0xc
 769 01c7 0E       		.uleb128 0xe
 770 01c8 535200   		.ascii	"SR\000"
 771 01cb 05       		.byte	0x5
 772 01cc A301     		.2byte	0x1a3
 773 01ce A2000000 		.4byte	0xa2
 774 01d2 02       		.byte	0x2
 775 01d3 23       		.byte	0x23
 776 01d4 10       		.uleb128 0x10
 777 01d5 0E       		.uleb128 0xe
 778 01d6 45475200 		.ascii	"EGR\000"
 779 01da 05       		.byte	0x5
 780 01db A401     		.2byte	0x1a4
 781 01dd A2000000 		.4byte	0xa2
 782 01e1 02       		.byte	0x2
 783 01e2 23       		.byte	0x23
 784 01e3 14       		.uleb128 0x14
 785 01e4 0D       		.uleb128 0xd
 786 01e5 E5000000 		.4byte	.LASF28
 787 01e9 05       		.byte	0x5
 788 01ea A501     		.2byte	0x1a5
 789 01ec A2000000 		.4byte	0xa2
 790 01f0 02       		.byte	0x2
 791 01f1 23       		.byte	0x23
 792 01f2 18       		.uleb128 0x18
 793 01f3 0D       		.uleb128 0xd
 794 01f4 1D000000 		.4byte	.LASF29
 795 01f8 05       		.byte	0x5
 796 01f9 A601     		.2byte	0x1a6
 797 01fb A2000000 		.4byte	0xa2
 798 01ff 02       		.byte	0x2
 799 0200 23       		.byte	0x23
 800 0201 1C       		.uleb128 0x1c
 801 0202 0D       		.uleb128 0xd
 802 0203 00000000 		.4byte	.LASF30
 803 0207 05       		.byte	0x5
 804 0208 A701     		.2byte	0x1a7
 805 020a A2000000 		.4byte	0xa2
 806 020e 02       		.byte	0x2
 807 020f 23       		.byte	0x23
 808 0210 20       		.uleb128 0x20
 809 0211 0E       		.uleb128 0xe
 810 0212 434E5400 		.ascii	"CNT\000"
 811 0216 05       		.byte	0x5
 812 0217 A801     		.2byte	0x1a8
 813 0219 A2000000 		.4byte	0xa2
 814 021d 02       		.byte	0x2
 815 021e 23       		.byte	0x23
 816 021f 24       		.uleb128 0x24
ARM GAS  /tmp/ccp1ATIv.s 			page 16


 817 0220 0E       		.uleb128 0xe
 818 0221 50534300 		.ascii	"PSC\000"
 819 0225 05       		.byte	0x5
 820 0226 A901     		.2byte	0x1a9
 821 0228 A2000000 		.4byte	0xa2
 822 022c 02       		.byte	0x2
 823 022d 23       		.byte	0x23
 824 022e 28       		.uleb128 0x28
 825 022f 0E       		.uleb128 0xe
 826 0230 41525200 		.ascii	"ARR\000"
 827 0234 05       		.byte	0x5
 828 0235 AA01     		.2byte	0x1aa
 829 0237 A2000000 		.4byte	0xa2
 830 023b 02       		.byte	0x2
 831 023c 23       		.byte	0x23
 832 023d 2C       		.uleb128 0x2c
 833 023e 0E       		.uleb128 0xe
 834 023f 52435200 		.ascii	"RCR\000"
 835 0243 05       		.byte	0x5
 836 0244 AB01     		.2byte	0x1ab
 837 0246 A2000000 		.4byte	0xa2
 838 024a 02       		.byte	0x2
 839 024b 23       		.byte	0x23
 840 024c 30       		.uleb128 0x30
 841 024d 0E       		.uleb128 0xe
 842 024e 43435200 		.ascii	"CCR\000"
 843 0252 05       		.byte	0x5
 844 0253 AC01     		.2byte	0x1ac
 845 0255 C5020000 		.4byte	0x2c5
 846 0259 02       		.byte	0x2
 847 025a 23       		.byte	0x23
 848 025b 34       		.uleb128 0x34
 849 025c 0D       		.uleb128 0xd
 850 025d FC010000 		.4byte	.LASF31
 851 0261 05       		.byte	0x5
 852 0262 AD01     		.2byte	0x1ad
 853 0264 A2000000 		.4byte	0xa2
 854 0268 02       		.byte	0x2
 855 0269 23       		.byte	0x23
 856 026a 44       		.uleb128 0x44
 857 026b 0E       		.uleb128 0xe
 858 026c 44435200 		.ascii	"DCR\000"
 859 0270 05       		.byte	0x5
 860 0271 AE01     		.2byte	0x1ae
 861 0273 A2000000 		.4byte	0xa2
 862 0277 02       		.byte	0x2
 863 0278 23       		.byte	0x23
 864 0279 48       		.uleb128 0x48
 865 027a 0D       		.uleb128 0xd
 866 027b 12000000 		.4byte	.LASF32
 867 027f 05       		.byte	0x5
 868 0280 AF01     		.2byte	0x1af
 869 0282 A2000000 		.4byte	0xa2
 870 0286 02       		.byte	0x2
 871 0287 23       		.byte	0x23
 872 0288 4C       		.uleb128 0x4c
 873 0289 0E       		.uleb128 0xe
ARM GAS  /tmp/ccp1ATIv.s 			page 17


 874 028a 4F5200   		.ascii	"OR\000"
 875 028d 05       		.byte	0x5
 876 028e B001     		.2byte	0x1b0
 877 0290 A2000000 		.4byte	0xa2
 878 0294 02       		.byte	0x2
 879 0295 23       		.byte	0x23
 880 0296 50       		.uleb128 0x50
 881 0297 0D       		.uleb128 0xd
 882 0298 23000000 		.4byte	.LASF33
 883 029c 05       		.byte	0x5
 884 029d B101     		.2byte	0x1b1
 885 029f A2000000 		.4byte	0xa2
 886 02a3 02       		.byte	0x2
 887 02a4 23       		.byte	0x23
 888 02a5 54       		.uleb128 0x54
 889 02a6 0D       		.uleb128 0xd
 890 02a7 D4000000 		.4byte	.LASF34
 891 02ab 05       		.byte	0x5
 892 02ac B201     		.2byte	0x1b2
 893 02ae A2000000 		.4byte	0xa2
 894 02b2 02       		.byte	0x2
 895 02b3 23       		.byte	0x23
 896 02b4 58       		.uleb128 0x58
 897 02b5 0D       		.uleb128 0xd
 898 02b6 D9000000 		.4byte	.LASF35
 899 02ba 05       		.byte	0x5
 900 02bb B301     		.2byte	0x1b3
 901 02bd A2000000 		.4byte	0xa2
 902 02c1 02       		.byte	0x2
 903 02c2 23       		.byte	0x23
 904 02c3 5C       		.uleb128 0x5c
 905 02c4 00       		.byte	0
 906 02c5 05       		.uleb128 0x5
 907 02c6 C0000000 		.4byte	0xc0
 908 02ca 12       		.uleb128 0x12
 909 02cb 34020000 		.4byte	.LASF36
 910 02cf 05       		.byte	0x5
 911 02d0 B401     		.2byte	0x1b4
 912 02d2 82010000 		.4byte	0x182
 913 02d6 12       		.uleb128 0x12
 914 02d7 10030000 		.4byte	.LASF37
 915 02db 04       		.byte	0x4
 916 02dc 2001     		.2byte	0x120
 917 02de 7B000000 		.4byte	0x7b
 918 02e2 12       		.uleb128 0x12
 919 02e3 5D000000 		.4byte	.LASF38
 920 02e7 04       		.byte	0x4
 921 02e8 2501     		.2byte	0x125
 922 02ea 3E000000 		.4byte	0x3e
 923 02ee 12       		.uleb128 0x12
 924 02ef 33000000 		.4byte	.LASF39
 925 02f3 04       		.byte	0x4
 926 02f4 2A01     		.2byte	0x12a
 927 02f6 57000000 		.4byte	0x57
 928 02fa 11       		.uleb128 0x11
 929 02fb 08       		.byte	0x8
 930 02fc 04       		.byte	0x4
ARM GAS  /tmp/ccp1ATIv.s 			page 18


 931 02fd 2F01     		.2byte	0x12f
 932 02ff 22030000 		.4byte	0x322
 933 0303 0D       		.uleb128 0xd
 934 0304 6A000000 		.4byte	.LASF40
 935 0308 04       		.byte	0x4
 936 0309 3301     		.2byte	0x133
 937 030b D6020000 		.4byte	0x2d6
 938 030f 02       		.byte	0x2
 939 0310 23       		.byte	0x23
 940 0311 00       		.uleb128 0
 941 0312 0D       		.uleb128 0xd
 942 0313 40030000 		.4byte	.LASF41
 943 0317 04       		.byte	0x4
 944 0318 3901     		.2byte	0x139
 945 031a 5F010000 		.4byte	0x15f
 946 031e 02       		.byte	0x2
 947 031f 23       		.byte	0x23
 948 0320 04       		.uleb128 0x4
 949 0321 00       		.byte	0
 950 0322 12       		.uleb128 0x12
 951 0323 FF020000 		.4byte	.LASF42
 952 0327 04       		.byte	0x4
 953 0328 3B01     		.2byte	0x13b
 954 032a FA020000 		.4byte	0x2fa
 955 032e 11       		.uleb128 0x11
 956 032f 34       		.byte	0x34
 957 0330 04       		.byte	0x4
 958 0331 4001     		.2byte	0x140
 959 0333 92030000 		.4byte	0x392
 960 0337 0D       		.uleb128 0xd
 961 0338 F5020000 		.4byte	.LASF43
 962 033c 04       		.byte	0x4
 963 033d 4601     		.2byte	0x146
 964 033f 7B000000 		.4byte	0x7b
 965 0343 02       		.byte	0x2
 966 0344 23       		.byte	0x23
 967 0345 00       		.uleb128 0
 968 0346 0D       		.uleb128 0xd
 969 0347 DE000000 		.4byte	.LASF23
 970 034b 04       		.byte	0x4
 971 034c 4C01     		.2byte	0x14c
 972 034e EE020000 		.4byte	0x2ee
 973 0352 02       		.byte	0x2
 974 0353 23       		.byte	0x23
 975 0354 04       		.uleb128 0x4
 976 0355 0D       		.uleb128 0xd
 977 0356 40030000 		.4byte	.LASF41
 978 035a 04       		.byte	0x4
 979 035b 5201     		.2byte	0x152
 980 035d 5F010000 		.4byte	0x15f
 981 0361 02       		.byte	0x2
 982 0362 23       		.byte	0x23
 983 0363 08       		.uleb128 0x8
 984 0364 0D       		.uleb128 0xd
 985 0365 6F000000 		.4byte	.LASF44
 986 0369 04       		.byte	0x4
 987 036a 5601     		.2byte	0x156
ARM GAS  /tmp/ccp1ATIv.s 			page 19


 988 036c 92030000 		.4byte	0x392
 989 0370 02       		.byte	0x2
 990 0371 23       		.byte	0x23
 991 0372 0C       		.uleb128 0xc
 992 0373 0E       		.uleb128 0xe
 993 0374 63723200 		.ascii	"cr2\000"
 994 0378 04       		.byte	0x4
 995 0379 5C01     		.2byte	0x15c
 996 037b 7B000000 		.4byte	0x7b
 997 037f 02       		.byte	0x2
 998 0380 23       		.byte	0x23
 999 0381 2C       		.uleb128 0x2c
 1000 0382 0D       		.uleb128 0xd
 1001 0383 E8020000 		.4byte	.LASF45
 1002 0387 04       		.byte	0x4
 1003 0388 6901     		.2byte	0x169
 1004 038a 7B000000 		.4byte	0x7b
 1005 038e 02       		.byte	0x2
 1006 038f 23       		.byte	0x23
 1007 0390 30       		.uleb128 0x30
 1008 0391 00       		.byte	0
 1009 0392 08       		.uleb128 0x8
 1010 0393 22030000 		.4byte	0x322
 1011 0397 A2030000 		.4byte	0x3a2
 1012 039b 09       		.uleb128 0x9
 1013 039c A7000000 		.4byte	0xa7
 1014 03a0 03       		.byte	0x3
 1015 03a1 00       		.byte	0
 1016 03a2 12       		.uleb128 0x12
 1017 03a3 F9000000 		.4byte	.LASF46
 1018 03a7 04       		.byte	0x4
 1019 03a8 6A01     		.2byte	0x16a
 1020 03aa 2E030000 		.4byte	0x32e
 1021 03ae 06       		.uleb128 0x6
 1022 03af 04       		.byte	0x4
 1023 03b0 B4030000 		.4byte	0x3b4
 1024 03b4 07       		.uleb128 0x7
 1025 03b5 A2030000 		.4byte	0x3a2
 1026 03b9 06       		.uleb128 0x6
 1027 03ba 04       		.byte	0x4
 1028 03bb CA020000 		.4byte	0x2ca
 1029 03bf 13       		.uleb128 0x13
 1030 03c0 01       		.byte	0x1
 1031 03c1 CC000000 		.4byte	.LASF47
 1032 03c5 01       		.byte	0x1
 1033 03c6 3D       		.byte	0x3d
 1034 03c7 01       		.byte	0x1
 1035 03c8 00000000 		.4byte	.LFB63
 1036 03cc 04000000 		.4byte	.LFE63
 1037 03d0 02       		.byte	0x2
 1038 03d1 7D       		.byte	0x7d
 1039 03d2 00       		.sleb128 0
 1040 03d3 01       		.byte	0x1
 1041 03d4 E3030000 		.4byte	0x3e3
 1042 03d8 14       		.uleb128 0x14
 1043 03d9 04000000 		.4byte	.LVL0
 1044 03dd 01       		.byte	0x1
ARM GAS  /tmp/ccp1ATIv.s 			page 20


 1045 03de E5070000 		.4byte	0x7e5
 1046 03e2 00       		.byte	0
 1047 03e3 13       		.uleb128 0x13
 1048 03e4 01       		.byte	0x1
 1049 03e5 7F000000 		.4byte	.LASF48
 1050 03e9 01       		.byte	0x1
 1051 03ea 49       		.byte	0x49
 1052 03eb 01       		.byte	0x1
 1053 03ec 00000000 		.4byte	.LFB64
 1054 03f0 0A000000 		.4byte	.LFE64
 1055 03f4 02       		.byte	0x2
 1056 03f5 7D       		.byte	0x7d
 1057 03f6 00       		.sleb128 0
 1058 03f7 01       		.byte	0x1
 1059 03f8 0A040000 		.4byte	0x40a
 1060 03fc 15       		.uleb128 0x15
 1061 03fd 0E010000 		.4byte	.LASF50
 1062 0401 01       		.byte	0x1
 1063 0402 49       		.byte	0x49
 1064 0403 7C010000 		.4byte	0x17c
 1065 0407 01       		.byte	0x1
 1066 0408 50       		.byte	0x50
 1067 0409 00       		.byte	0
 1068 040a 16       		.uleb128 0x16
 1069 040b 01       		.byte	0x1
 1070 040c AC000000 		.4byte	.LASF49
 1071 0410 01       		.byte	0x1
 1072 0411 5C       		.byte	0x5c
 1073 0412 01       		.byte	0x1
 1074 0413 00000000 		.4byte	.LFB65
 1075 0417 50000000 		.4byte	.LFE65
 1076 041b 00000000 		.4byte	.LLST0
 1077 041f 01       		.byte	0x1
 1078 0420 CD040000 		.4byte	0x4cd
 1079 0424 17       		.uleb128 0x17
 1080 0425 0E010000 		.4byte	.LASF50
 1081 0429 01       		.byte	0x1
 1082 042a 5C       		.byte	0x5c
 1083 042b 7C010000 		.4byte	0x17c
 1084 042f 20000000 		.4byte	.LLST1
 1085 0433 17       		.uleb128 0x17
 1086 0434 78000000 		.4byte	.LASF22
 1087 0438 01       		.byte	0x1
 1088 0439 5C       		.byte	0x5c
 1089 043a AE030000 		.4byte	0x3ae
 1090 043e 54000000 		.4byte	.LLST2
 1091 0442 18       		.uleb128 0x18
 1092 0443 0A000000 		.4byte	.LBB2
 1093 0447 10000000 		.4byte	.LBE2
 1094 044b 5F040000 		.4byte	0x45f
 1095 044f 19       		.uleb128 0x19
 1096 0450 746D7000 		.ascii	"tmp\000"
 1097 0454 01       		.byte	0x1
 1098 0455 60       		.byte	0x60
 1099 0456 7B000000 		.4byte	0x7b
 1100 045a 88000000 		.4byte	.LLST3
 1101 045e 00       		.byte	0
ARM GAS  /tmp/ccp1ATIv.s 			page 21


 1102 045f 18       		.uleb128 0x18
 1103 0460 36000000 		.4byte	.LBB3
 1104 0464 3E000000 		.4byte	.LBE3
 1105 0468 7C040000 		.4byte	0x47c
 1106 046c 19       		.uleb128 0x19
 1107 046d 746D7000 		.ascii	"tmp\000"
 1108 0471 01       		.byte	0x1
 1109 0472 67       		.byte	0x67
 1110 0473 7B000000 		.4byte	0x7b
 1111 0477 9B000000 		.4byte	.LLST4
 1112 047b 00       		.byte	0
 1113 047c 1A       		.uleb128 0x1a
 1114 047d 14000000 		.4byte	.LVL6
 1115 0481 F0070000 		.4byte	0x7f0
 1116 0485 1B       		.uleb128 0x1b
 1117 0486 22000000 		.4byte	.LVL7
 1118 048a FA070000 		.4byte	0x7fa
 1119 048e 9C040000 		.4byte	0x49c
 1120 0492 1C       		.uleb128 0x1c
 1121 0493 01       		.byte	0x1
 1122 0494 50       		.byte	0x50
 1123 0495 05       		.byte	0x5
 1124 0496 03       		.byte	0x3
 1125 0497 10000000 		.4byte	.LC1
 1126 049b 00       		.byte	0
 1127 049c 1B       		.uleb128 0x1b
 1128 049d 2E000000 		.4byte	.LVL8
 1129 04a1 0E080000 		.4byte	0x80e
 1130 04a5 B0040000 		.4byte	0x4b0
 1131 04a9 1C       		.uleb128 0x1c
 1132 04aa 01       		.byte	0x1
 1133 04ab 50       		.byte	0x50
 1134 04ac 02       		.byte	0x2
 1135 04ad 74       		.byte	0x74
 1136 04ae 00       		.sleb128 0
 1137 04af 00       		.byte	0
 1138 04b0 1A       		.uleb128 0x1a
 1139 04b1 36000000 		.4byte	.LVL9
 1140 04b5 23080000 		.4byte	0x823
 1141 04b9 1D       		.uleb128 0x1d
 1142 04ba 44000000 		.4byte	.LVL14
 1143 04be FA070000 		.4byte	0x7fa
 1144 04c2 1C       		.uleb128 0x1c
 1145 04c3 01       		.byte	0x1
 1146 04c4 50       		.byte	0x50
 1147 04c5 05       		.byte	0x5
 1148 04c6 03       		.byte	0x3
 1149 04c7 00000000 		.4byte	.LC0
 1150 04cb 00       		.byte	0
 1151 04cc 00       		.byte	0
 1152 04cd 16       		.uleb128 0x16
 1153 04ce 01       		.byte	0x1
 1154 04cf ED020000 		.4byte	.LASF51
 1155 04d3 01       		.byte	0x1
 1156 04d4 71       		.byte	0x71
 1157 04d5 01       		.byte	0x1
 1158 04d6 00000000 		.4byte	.LFB66
ARM GAS  /tmp/ccp1ATIv.s 			page 22


 1159 04da 44000000 		.4byte	.LFE66
 1160 04de AE000000 		.4byte	.LLST5
 1161 04e2 01       		.byte	0x1
 1162 04e3 81050000 		.4byte	0x581
 1163 04e7 17       		.uleb128 0x17
 1164 04e8 0E010000 		.4byte	.LASF50
 1165 04ec 01       		.byte	0x1
 1166 04ed 71       		.byte	0x71
 1167 04ee 7C010000 		.4byte	0x17c
 1168 04f2 CE000000 		.4byte	.LLST6
 1169 04f6 18       		.uleb128 0x18
 1170 04f7 06000000 		.4byte	.LBB4
 1171 04fb 0C000000 		.4byte	.LBE4
 1172 04ff 13050000 		.4byte	0x513
 1173 0503 19       		.uleb128 0x19
 1174 0504 746D7000 		.ascii	"tmp\000"
 1175 0508 01       		.byte	0x1
 1176 0509 75       		.byte	0x75
 1177 050a 7B000000 		.4byte	0x7b
 1178 050e 02010000 		.4byte	.LLST7
 1179 0512 00       		.byte	0
 1180 0513 18       		.uleb128 0x18
 1181 0514 2C000000 		.4byte	.LBB5
 1182 0518 34000000 		.4byte	.LBE5
 1183 051c 30050000 		.4byte	0x530
 1184 0520 19       		.uleb128 0x19
 1185 0521 746D7000 		.ascii	"tmp\000"
 1186 0525 01       		.byte	0x1
 1187 0526 7A       		.byte	0x7a
 1188 0527 7B000000 		.4byte	0x7b
 1189 052b 15010000 		.4byte	.LLST8
 1190 052f 00       		.byte	0
 1191 0530 1A       		.uleb128 0x1a
 1192 0531 10000000 		.4byte	.LVL19
 1193 0535 F0070000 		.4byte	0x7f0
 1194 0539 1B       		.uleb128 0x1b
 1195 053a 1E000000 		.4byte	.LVL20
 1196 053e FA070000 		.4byte	0x7fa
 1197 0542 50050000 		.4byte	0x550
 1198 0546 1C       		.uleb128 0x1c
 1199 0547 01       		.byte	0x1
 1200 0548 50       		.byte	0x50
 1201 0549 05       		.byte	0x5
 1202 054a 03       		.byte	0x3
 1203 054b 2C000000 		.4byte	.LC3
 1204 054f 00       		.byte	0
 1205 0550 1B       		.uleb128 0x1b
 1206 0551 24000000 		.4byte	.LVL21
 1207 0555 2D080000 		.4byte	0x82d
 1208 0559 64050000 		.4byte	0x564
 1209 055d 1C       		.uleb128 0x1c
 1210 055e 01       		.byte	0x1
 1211 055f 50       		.byte	0x50
 1212 0560 02       		.byte	0x2
 1213 0561 74       		.byte	0x74
 1214 0562 00       		.sleb128 0
 1215 0563 00       		.byte	0
ARM GAS  /tmp/ccp1ATIv.s 			page 23


 1216 0564 1A       		.uleb128 0x1a
 1217 0565 2C000000 		.4byte	.LVL22
 1218 0569 23080000 		.4byte	0x823
 1219 056d 1D       		.uleb128 0x1d
 1220 056e 3A000000 		.4byte	.LVL27
 1221 0572 FA070000 		.4byte	0x7fa
 1222 0576 1C       		.uleb128 0x1c
 1223 0577 01       		.byte	0x1
 1224 0578 50       		.byte	0x50
 1225 0579 05       		.byte	0x5
 1226 057a 03       		.byte	0x3
 1227 057b 20000000 		.4byte	.LC2
 1228 057f 00       		.byte	0
 1229 0580 00       		.byte	0
 1230 0581 16       		.uleb128 0x16
 1231 0582 01       		.byte	0x1
 1232 0583 60020000 		.4byte	.LASF52
 1233 0587 01       		.byte	0x1
 1234 0588 8C       		.byte	0x8c
 1235 0589 01       		.byte	0x1
 1236 058a 00000000 		.4byte	.LFB67
 1237 058e 44000000 		.4byte	.LFE67
 1238 0592 28010000 		.4byte	.LLST9
 1239 0596 01       		.byte	0x1
 1240 0597 30060000 		.4byte	0x630
 1241 059b 17       		.uleb128 0x17
 1242 059c 0E010000 		.4byte	.LASF50
 1243 05a0 01       		.byte	0x1
 1244 05a1 8C       		.byte	0x8c
 1245 05a2 7C010000 		.4byte	0x17c
 1246 05a6 48010000 		.4byte	.LLST10
 1247 05aa 17       		.uleb128 0x17
 1248 05ab DE000000 		.4byte	.LASF23
 1249 05af 01       		.byte	0x1
 1250 05b0 8C       		.byte	0x8c
 1251 05b1 EE020000 		.4byte	0x2ee
 1252 05b5 7C010000 		.4byte	.LLST11
 1253 05b9 18       		.uleb128 0x18
 1254 05ba 08000000 		.4byte	.LBB6
 1255 05be 0E000000 		.4byte	.LBE6
 1256 05c2 D6050000 		.4byte	0x5d6
 1257 05c6 19       		.uleb128 0x19
 1258 05c7 746D7000 		.ascii	"tmp\000"
 1259 05cb 01       		.byte	0x1
 1260 05cc 90       		.byte	0x90
 1261 05cd 7B000000 		.4byte	0x7b
 1262 05d1 B6010000 		.4byte	.LLST12
 1263 05d5 00       		.byte	0
 1264 05d6 18       		.uleb128 0x18
 1265 05d7 2C000000 		.4byte	.LBB7
 1266 05db 34000000 		.4byte	.LBE7
 1267 05df F3050000 		.4byte	0x5f3
 1268 05e3 19       		.uleb128 0x19
 1269 05e4 746D7000 		.ascii	"tmp\000"
 1270 05e8 01       		.byte	0x1
 1271 05e9 94       		.byte	0x94
 1272 05ea 7B000000 		.4byte	0x7b
ARM GAS  /tmp/ccp1ATIv.s 			page 24


 1273 05ee C9010000 		.4byte	.LLST13
 1274 05f2 00       		.byte	0
 1275 05f3 1A       		.uleb128 0x1a
 1276 05f4 12000000 		.4byte	.LVL32
 1277 05f8 F0070000 		.4byte	0x7f0
 1278 05fc 1B       		.uleb128 0x1b
 1279 05fd 1E000000 		.4byte	.LVL33
 1280 0601 FA070000 		.4byte	0x7fa
 1281 0605 13060000 		.4byte	0x613
 1282 0609 1C       		.uleb128 0x1c
 1283 060a 01       		.byte	0x1
 1284 060b 50       		.byte	0x50
 1285 060c 05       		.byte	0x5
 1286 060d 03       		.byte	0x3
 1287 060e 50000000 		.4byte	.LC5
 1288 0612 00       		.byte	0
 1289 0613 1A       		.uleb128 0x1a
 1290 0614 2C000000 		.4byte	.LVL34
 1291 0618 23080000 		.4byte	0x823
 1292 061c 1D       		.uleb128 0x1d
 1293 061d 3A000000 		.4byte	.LVL39
 1294 0621 FA070000 		.4byte	0x7fa
 1295 0625 1C       		.uleb128 0x1c
 1296 0626 01       		.byte	0x1
 1297 0627 50       		.byte	0x50
 1298 0628 05       		.byte	0x5
 1299 0629 03       		.byte	0x3
 1300 062a 3C000000 		.4byte	.LC4
 1301 062e 00       		.byte	0
 1302 062f 00       		.byte	0
 1303 0630 16       		.uleb128 0x16
 1304 0631 01       		.byte	0x1
 1305 0632 95000000 		.4byte	.LASF53
 1306 0636 01       		.byte	0x1
 1307 0637 A5       		.byte	0xa5
 1308 0638 01       		.byte	0x1
 1309 0639 00000000 		.4byte	.LFB68
 1310 063d 4C000000 		.4byte	.LFE68
 1311 0641 DC010000 		.4byte	.LLST14
 1312 0645 01       		.byte	0x1
 1313 0646 0E070000 		.4byte	0x70e
 1314 064a 17       		.uleb128 0x17
 1315 064b 0E010000 		.4byte	.LASF50
 1316 064f 01       		.byte	0x1
 1317 0650 A5       		.byte	0xa5
 1318 0651 7C010000 		.4byte	0x17c
 1319 0655 FC010000 		.4byte	.LLST15
 1320 0659 17       		.uleb128 0x17
 1321 065a 58020000 		.4byte	.LASF54
 1322 065e 01       		.byte	0x1
 1323 065f A6       		.byte	0xa6
 1324 0660 E2020000 		.4byte	0x2e2
 1325 0664 30020000 		.4byte	.LLST16
 1326 0668 17       		.uleb128 0x17
 1327 0669 A6000000 		.4byte	.LASF55
 1328 066d 01       		.byte	0x1
 1329 066e A7       		.byte	0xa7
ARM GAS  /tmp/ccp1ATIv.s 			page 25


 1330 066f EE020000 		.4byte	0x2ee
 1331 0673 6A020000 		.4byte	.LLST17
 1332 0677 18       		.uleb128 0x18
 1333 0678 0E000000 		.4byte	.LBB8
 1334 067c 14000000 		.4byte	.LBE8
 1335 0680 94060000 		.4byte	0x694
 1336 0684 19       		.uleb128 0x19
 1337 0685 746D7000 		.ascii	"tmp\000"
 1338 0689 01       		.byte	0x1
 1339 068a AC       		.byte	0xac
 1340 068b 7B000000 		.4byte	0x7b
 1341 068f A4020000 		.4byte	.LLST18
 1342 0693 00       		.byte	0
 1343 0694 18       		.uleb128 0x18
 1344 0695 32000000 		.4byte	.LBB9
 1345 0699 3A000000 		.4byte	.LBE9
 1346 069d B1060000 		.4byte	0x6b1
 1347 06a1 19       		.uleb128 0x19
 1348 06a2 746D7000 		.ascii	"tmp\000"
 1349 06a6 01       		.byte	0x1
 1350 06a7 B0       		.byte	0xb0
 1351 06a8 7B000000 		.4byte	0x7b
 1352 06ac B7020000 		.4byte	.LLST19
 1353 06b0 00       		.byte	0
 1354 06b1 1A       		.uleb128 0x1a
 1355 06b2 18000000 		.4byte	.LVL44
 1356 06b6 F0070000 		.4byte	0x7f0
 1357 06ba 1B       		.uleb128 0x1b
 1358 06bb 24000000 		.4byte	.LVL45
 1359 06bf FA070000 		.4byte	0x7fa
 1360 06c3 D1060000 		.4byte	0x6d1
 1361 06c7 1C       		.uleb128 0x1c
 1362 06c8 01       		.byte	0x1
 1363 06c9 50       		.byte	0x50
 1364 06ca 05       		.byte	0x5
 1365 06cb 03       		.byte	0x3
 1366 06cc 80000000 		.4byte	.LC7
 1367 06d0 00       		.byte	0
 1368 06d1 1B       		.uleb128 0x1b
 1369 06d2 2E000000 		.4byte	.LVL46
 1370 06d6 42080000 		.4byte	0x842
 1371 06da F1060000 		.4byte	0x6f1
 1372 06de 1C       		.uleb128 0x1c
 1373 06df 01       		.byte	0x1
 1374 06e0 52       		.byte	0x52
 1375 06e1 02       		.byte	0x2
 1376 06e2 76       		.byte	0x76
 1377 06e3 00       		.sleb128 0
 1378 06e4 1C       		.uleb128 0x1c
 1379 06e5 01       		.byte	0x1
 1380 06e6 51       		.byte	0x51
 1381 06e7 02       		.byte	0x2
 1382 06e8 75       		.byte	0x75
 1383 06e9 00       		.sleb128 0
 1384 06ea 1C       		.uleb128 0x1c
 1385 06eb 01       		.byte	0x1
 1386 06ec 50       		.byte	0x50
ARM GAS  /tmp/ccp1ATIv.s 			page 26


 1387 06ed 02       		.byte	0x2
 1388 06ee 74       		.byte	0x74
 1389 06ef 00       		.sleb128 0
 1390 06f0 00       		.byte	0
 1391 06f1 1A       		.uleb128 0x1a
 1392 06f2 32000000 		.4byte	.LVL47
 1393 06f6 23080000 		.4byte	0x823
 1394 06fa 1D       		.uleb128 0x1d
 1395 06fb 40000000 		.4byte	.LVL52
 1396 06ff FA070000 		.4byte	0x7fa
 1397 0703 1C       		.uleb128 0x1c
 1398 0704 01       		.byte	0x1
 1399 0705 50       		.byte	0x50
 1400 0706 05       		.byte	0x5
 1401 0707 03       		.byte	0x3
 1402 0708 68000000 		.4byte	.LC6
 1403 070c 00       		.byte	0
 1404 070d 00       		.byte	0
 1405 070e 16       		.uleb128 0x16
 1406 070f 01       		.byte	0x1
 1407 0710 59010000 		.4byte	.LASF56
 1408 0714 01       		.byte	0x1
 1409 0715 C1       		.byte	0xc1
 1410 0716 01       		.byte	0x1
 1411 0717 00000000 		.4byte	.LFB69
 1412 071b 48000000 		.4byte	.LFE69
 1413 071f CA020000 		.4byte	.LLST20
 1414 0723 01       		.byte	0x1
 1415 0724 D7070000 		.4byte	0x7d7
 1416 0728 17       		.uleb128 0x17
 1417 0729 0E010000 		.4byte	.LASF50
 1418 072d 01       		.byte	0x1
 1419 072e C1       		.byte	0xc1
 1420 072f 7C010000 		.4byte	0x17c
 1421 0733 EA020000 		.4byte	.LLST21
 1422 0737 17       		.uleb128 0x17
 1423 0738 58020000 		.4byte	.LASF54
 1424 073c 01       		.byte	0x1
 1425 073d C1       		.byte	0xc1
 1426 073e E2020000 		.4byte	0x2e2
 1427 0742 1E030000 		.4byte	.LLST22
 1428 0746 18       		.uleb128 0x18
 1429 0747 0C000000 		.4byte	.LBB10
 1430 074b 12000000 		.4byte	.LBE10
 1431 074f 63070000 		.4byte	0x763
 1432 0753 19       		.uleb128 0x19
 1433 0754 746D7000 		.ascii	"tmp\000"
 1434 0758 01       		.byte	0x1
 1435 0759 C6       		.byte	0xc6
 1436 075a 7B000000 		.4byte	0x7b
 1437 075e 58030000 		.4byte	.LLST23
 1438 0762 00       		.byte	0
 1439 0763 18       		.uleb128 0x18
 1440 0764 2E000000 		.4byte	.LBB11
 1441 0768 36000000 		.4byte	.LBE11
 1442 076c 80070000 		.4byte	0x780
 1443 0770 19       		.uleb128 0x19
ARM GAS  /tmp/ccp1ATIv.s 			page 27


 1444 0771 746D7000 		.ascii	"tmp\000"
 1445 0775 01       		.byte	0x1
 1446 0776 CA       		.byte	0xca
 1447 0777 7B000000 		.4byte	0x7b
 1448 077b 6B030000 		.4byte	.LLST24
 1449 077f 00       		.byte	0
 1450 0780 1A       		.uleb128 0x1a
 1451 0781 16000000 		.4byte	.LVL57
 1452 0785 F0070000 		.4byte	0x7f0
 1453 0789 1B       		.uleb128 0x1b
 1454 078a 22000000 		.4byte	.LVL58
 1455 078e FA070000 		.4byte	0x7fa
 1456 0792 A0070000 		.4byte	0x7a0
 1457 0796 1C       		.uleb128 0x1c
 1458 0797 01       		.byte	0x1
 1459 0798 50       		.byte	0x50
 1460 0799 05       		.byte	0x5
 1461 079a 03       		.byte	0x3
 1462 079b 98000000 		.4byte	.LC8
 1463 079f 00       		.byte	0
 1464 07a0 1B       		.uleb128 0x1b
 1465 07a1 2A000000 		.4byte	.LVL59
 1466 07a5 61080000 		.4byte	0x861
 1467 07a9 BA070000 		.4byte	0x7ba
 1468 07ad 1C       		.uleb128 0x1c
 1469 07ae 01       		.byte	0x1
 1470 07af 51       		.byte	0x51
 1471 07b0 02       		.byte	0x2
 1472 07b1 75       		.byte	0x75
 1473 07b2 00       		.sleb128 0
 1474 07b3 1C       		.uleb128 0x1c
 1475 07b4 01       		.byte	0x1
 1476 07b5 50       		.byte	0x50
 1477 07b6 02       		.byte	0x2
 1478 07b7 74       		.byte	0x74
 1479 07b8 00       		.sleb128 0
 1480 07b9 00       		.byte	0
 1481 07ba 1A       		.uleb128 0x1a
 1482 07bb 2E000000 		.4byte	.LVL60
 1483 07bf 23080000 		.4byte	0x823
 1484 07c3 1D       		.uleb128 0x1d
 1485 07c4 3C000000 		.4byte	.LVL65
 1486 07c8 FA070000 		.4byte	0x7fa
 1487 07cc 1C       		.uleb128 0x1c
 1488 07cd 01       		.byte	0x1
 1489 07ce 50       		.byte	0x50
 1490 07cf 05       		.byte	0x5
 1491 07d0 03       		.byte	0x3
 1492 07d1 68000000 		.4byte	.LC6
 1493 07d5 00       		.byte	0
 1494 07d6 00       		.byte	0
 1495 07d7 1E       		.uleb128 0x1e
 1496 07d8 1A030000 		.4byte	.LASF67
 1497 07dc 07       		.byte	0x7
 1498 07dd 0706     		.2byte	0x607
 1499 07df D0000000 		.4byte	0xd0
 1500 07e3 01       		.byte	0x1
ARM GAS  /tmp/ccp1ATIv.s 			page 28


 1501 07e4 01       		.byte	0x1
 1502 07e5 1F       		.uleb128 0x1f
 1503 07e6 01       		.byte	0x1
 1504 07e7 19020000 		.4byte	.LASF57
 1505 07eb 04       		.byte	0x4
 1506 07ec D101     		.2byte	0x1d1
 1507 07ee 01       		.byte	0x1
 1508 07ef 01       		.byte	0x1
 1509 07f0 20       		.uleb128 0x20
 1510 07f1 01       		.byte	0x1
 1511 07f2 77010000 		.4byte	.LASF58
 1512 07f6 06       		.byte	0x6
 1513 07f7 E0       		.byte	0xe0
 1514 07f8 01       		.byte	0x1
 1515 07f9 01       		.byte	0x1
 1516 07fa 21       		.uleb128 0x21
 1517 07fb 01       		.byte	0x1
 1518 07fc 03010000 		.4byte	.LASF59
 1519 0800 06       		.byte	0x6
 1520 0801 EF       		.byte	0xef
 1521 0802 01       		.byte	0x1
 1522 0803 01       		.byte	0x1
 1523 0804 0E080000 		.4byte	0x80e
 1524 0808 10       		.uleb128 0x10
 1525 0809 AE000000 		.4byte	0xae
 1526 080d 00       		.byte	0
 1527 080e 22       		.uleb128 0x22
 1528 080f 01       		.byte	0x1
 1529 0810 EB000000 		.4byte	.LASF60
 1530 0814 04       		.byte	0x4
 1531 0815 D201     		.2byte	0x1d2
 1532 0817 01       		.byte	0x1
 1533 0818 01       		.byte	0x1
 1534 0819 23080000 		.4byte	0x823
 1535 081d 10       		.uleb128 0x10
 1536 081e 7C010000 		.4byte	0x17c
 1537 0822 00       		.byte	0
 1538 0823 20       		.uleb128 0x20
 1539 0824 01       		.byte	0x1
 1540 0825 48010000 		.4byte	.LASF61
 1541 0829 06       		.byte	0x6
 1542 082a E1       		.byte	0xe1
 1543 082b 01       		.byte	0x1
 1544 082c 01       		.byte	0x1
 1545 082d 22       		.uleb128 0x22
 1546 082e 01       		.byte	0x1
 1547 082f 05000000 		.4byte	.LASF62
 1548 0833 04       		.byte	0x4
 1549 0834 D301     		.2byte	0x1d3
 1550 0836 01       		.byte	0x1
 1551 0837 01       		.byte	0x1
 1552 0838 42080000 		.4byte	0x842
 1553 083c 10       		.uleb128 0x10
 1554 083d 7C010000 		.4byte	0x17c
 1555 0841 00       		.byte	0
 1556 0842 22       		.uleb128 0x22
 1557 0843 01       		.byte	0x1
ARM GAS  /tmp/ccp1ATIv.s 			page 29


 1558 0844 31010000 		.4byte	.LASF63
 1559 0848 04       		.byte	0x4
 1560 0849 D401     		.2byte	0x1d4
 1561 084b 01       		.byte	0x1
 1562 084c 01       		.byte	0x1
 1563 084d 61080000 		.4byte	0x861
 1564 0851 10       		.uleb128 0x10
 1565 0852 7C010000 		.4byte	0x17c
 1566 0856 10       		.uleb128 0x10
 1567 0857 E2020000 		.4byte	0x2e2
 1568 085b 10       		.uleb128 0x10
 1569 085c EE020000 		.4byte	0x2ee
 1570 0860 00       		.byte	0
 1571 0861 23       		.uleb128 0x23
 1572 0862 01       		.byte	0x1
 1573 0863 45000000 		.4byte	.LASF68
 1574 0867 04       		.byte	0x4
 1575 0868 D701     		.2byte	0x1d7
 1576 086a 01       		.byte	0x1
 1577 086b 01       		.byte	0x1
 1578 086c 10       		.uleb128 0x10
 1579 086d 7C010000 		.4byte	0x17c
 1580 0871 10       		.uleb128 0x10
 1581 0872 E2020000 		.4byte	0x2e2
 1582 0876 00       		.byte	0
 1583 0877 00       		.byte	0
 1584              		.section	.debug_abbrev,"",%progbits
 1585              	.Ldebug_abbrev0:
 1586 0000 01       		.uleb128 0x1
 1587 0001 11       		.uleb128 0x11
 1588 0002 01       		.byte	0x1
 1589 0003 25       		.uleb128 0x25
 1590 0004 0E       		.uleb128 0xe
 1591 0005 13       		.uleb128 0x13
 1592 0006 0B       		.uleb128 0xb
 1593 0007 03       		.uleb128 0x3
 1594 0008 0E       		.uleb128 0xe
 1595 0009 1B       		.uleb128 0x1b
 1596 000a 0E       		.uleb128 0xe
 1597 000b 55       		.uleb128 0x55
 1598 000c 06       		.uleb128 0x6
 1599 000d 11       		.uleb128 0x11
 1600 000e 01       		.uleb128 0x1
 1601 000f 52       		.uleb128 0x52
 1602 0010 01       		.uleb128 0x1
 1603 0011 10       		.uleb128 0x10
 1604 0012 06       		.uleb128 0x6
 1605 0013 00       		.byte	0
 1606 0014 00       		.byte	0
 1607 0015 02       		.uleb128 0x2
 1608 0016 24       		.uleb128 0x24
 1609 0017 00       		.byte	0
 1610 0018 0B       		.uleb128 0xb
 1611 0019 0B       		.uleb128 0xb
 1612 001a 3E       		.uleb128 0x3e
 1613 001b 0B       		.uleb128 0xb
 1614 001c 03       		.uleb128 0x3
ARM GAS  /tmp/ccp1ATIv.s 			page 30


 1615 001d 08       		.uleb128 0x8
 1616 001e 00       		.byte	0
 1617 001f 00       		.byte	0
 1618 0020 03       		.uleb128 0x3
 1619 0021 24       		.uleb128 0x24
 1620 0022 00       		.byte	0
 1621 0023 0B       		.uleb128 0xb
 1622 0024 0B       		.uleb128 0xb
 1623 0025 3E       		.uleb128 0x3e
 1624 0026 0B       		.uleb128 0xb
 1625 0027 03       		.uleb128 0x3
 1626 0028 0E       		.uleb128 0xe
 1627 0029 00       		.byte	0
 1628 002a 00       		.byte	0
 1629 002b 04       		.uleb128 0x4
 1630 002c 16       		.uleb128 0x16
 1631 002d 00       		.byte	0
 1632 002e 03       		.uleb128 0x3
 1633 002f 0E       		.uleb128 0xe
 1634 0030 3A       		.uleb128 0x3a
 1635 0031 0B       		.uleb128 0xb
 1636 0032 3B       		.uleb128 0x3b
 1637 0033 0B       		.uleb128 0xb
 1638 0034 49       		.uleb128 0x49
 1639 0035 13       		.uleb128 0x13
 1640 0036 00       		.byte	0
 1641 0037 00       		.byte	0
 1642 0038 05       		.uleb128 0x5
 1643 0039 35       		.uleb128 0x35
 1644 003a 00       		.byte	0
 1645 003b 49       		.uleb128 0x49
 1646 003c 13       		.uleb128 0x13
 1647 003d 00       		.byte	0
 1648 003e 00       		.byte	0
 1649 003f 06       		.uleb128 0x6
 1650 0040 0F       		.uleb128 0xf
 1651 0041 00       		.byte	0
 1652 0042 0B       		.uleb128 0xb
 1653 0043 0B       		.uleb128 0xb
 1654 0044 49       		.uleb128 0x49
 1655 0045 13       		.uleb128 0x13
 1656 0046 00       		.byte	0
 1657 0047 00       		.byte	0
 1658 0048 07       		.uleb128 0x7
 1659 0049 26       		.uleb128 0x26
 1660 004a 00       		.byte	0
 1661 004b 49       		.uleb128 0x49
 1662 004c 13       		.uleb128 0x13
 1663 004d 00       		.byte	0
 1664 004e 00       		.byte	0
 1665 004f 08       		.uleb128 0x8
 1666 0050 01       		.uleb128 0x1
 1667 0051 01       		.byte	0x1
 1668 0052 49       		.uleb128 0x49
 1669 0053 13       		.uleb128 0x13
 1670 0054 01       		.uleb128 0x1
 1671 0055 13       		.uleb128 0x13
ARM GAS  /tmp/ccp1ATIv.s 			page 31


 1672 0056 00       		.byte	0
 1673 0057 00       		.byte	0
 1674 0058 09       		.uleb128 0x9
 1675 0059 21       		.uleb128 0x21
 1676 005a 00       		.byte	0
 1677 005b 49       		.uleb128 0x49
 1678 005c 13       		.uleb128 0x13
 1679 005d 2F       		.uleb128 0x2f
 1680 005e 0B       		.uleb128 0xb
 1681 005f 00       		.byte	0
 1682 0060 00       		.byte	0
 1683 0061 0A       		.uleb128 0xa
 1684 0062 04       		.uleb128 0x4
 1685 0063 01       		.byte	0x1
 1686 0064 0B       		.uleb128 0xb
 1687 0065 0B       		.uleb128 0xb
 1688 0066 3A       		.uleb128 0x3a
 1689 0067 0B       		.uleb128 0xb
 1690 0068 3B       		.uleb128 0x3b
 1691 0069 0B       		.uleb128 0xb
 1692 006a 01       		.uleb128 0x1
 1693 006b 13       		.uleb128 0x13
 1694 006c 00       		.byte	0
 1695 006d 00       		.byte	0
 1696 006e 0B       		.uleb128 0xb
 1697 006f 28       		.uleb128 0x28
 1698 0070 00       		.byte	0
 1699 0071 03       		.uleb128 0x3
 1700 0072 0E       		.uleb128 0xe
 1701 0073 1C       		.uleb128 0x1c
 1702 0074 0D       		.uleb128 0xd
 1703 0075 00       		.byte	0
 1704 0076 00       		.byte	0
 1705 0077 0C       		.uleb128 0xc
 1706 0078 13       		.uleb128 0x13
 1707 0079 01       		.byte	0x1
 1708 007a 03       		.uleb128 0x3
 1709 007b 0E       		.uleb128 0xe
 1710 007c 0B       		.uleb128 0xb
 1711 007d 0B       		.uleb128 0xb
 1712 007e 3A       		.uleb128 0x3a
 1713 007f 0B       		.uleb128 0xb
 1714 0080 3B       		.uleb128 0x3b
 1715 0081 05       		.uleb128 0x5
 1716 0082 01       		.uleb128 0x1
 1717 0083 13       		.uleb128 0x13
 1718 0084 00       		.byte	0
 1719 0085 00       		.byte	0
 1720 0086 0D       		.uleb128 0xd
 1721 0087 0D       		.uleb128 0xd
 1722 0088 00       		.byte	0
 1723 0089 03       		.uleb128 0x3
 1724 008a 0E       		.uleb128 0xe
 1725 008b 3A       		.uleb128 0x3a
 1726 008c 0B       		.uleb128 0xb
 1727 008d 3B       		.uleb128 0x3b
 1728 008e 05       		.uleb128 0x5
ARM GAS  /tmp/ccp1ATIv.s 			page 32


 1729 008f 49       		.uleb128 0x49
 1730 0090 13       		.uleb128 0x13
 1731 0091 38       		.uleb128 0x38
 1732 0092 0A       		.uleb128 0xa
 1733 0093 00       		.byte	0
 1734 0094 00       		.byte	0
 1735 0095 0E       		.uleb128 0xe
 1736 0096 0D       		.uleb128 0xd
 1737 0097 00       		.byte	0
 1738 0098 03       		.uleb128 0x3
 1739 0099 08       		.uleb128 0x8
 1740 009a 3A       		.uleb128 0x3a
 1741 009b 0B       		.uleb128 0xb
 1742 009c 3B       		.uleb128 0x3b
 1743 009d 05       		.uleb128 0x5
 1744 009e 49       		.uleb128 0x49
 1745 009f 13       		.uleb128 0x13
 1746 00a0 38       		.uleb128 0x38
 1747 00a1 0A       		.uleb128 0xa
 1748 00a2 00       		.byte	0
 1749 00a3 00       		.byte	0
 1750 00a4 0F       		.uleb128 0xf
 1751 00a5 15       		.uleb128 0x15
 1752 00a6 01       		.byte	0x1
 1753 00a7 27       		.uleb128 0x27
 1754 00a8 0C       		.uleb128 0xc
 1755 00a9 01       		.uleb128 0x1
 1756 00aa 13       		.uleb128 0x13
 1757 00ab 00       		.byte	0
 1758 00ac 00       		.byte	0
 1759 00ad 10       		.uleb128 0x10
 1760 00ae 05       		.uleb128 0x5
 1761 00af 00       		.byte	0
 1762 00b0 49       		.uleb128 0x49
 1763 00b1 13       		.uleb128 0x13
 1764 00b2 00       		.byte	0
 1765 00b3 00       		.byte	0
 1766 00b4 11       		.uleb128 0x11
 1767 00b5 13       		.uleb128 0x13
 1768 00b6 01       		.byte	0x1
 1769 00b7 0B       		.uleb128 0xb
 1770 00b8 0B       		.uleb128 0xb
 1771 00b9 3A       		.uleb128 0x3a
 1772 00ba 0B       		.uleb128 0xb
 1773 00bb 3B       		.uleb128 0x3b
 1774 00bc 05       		.uleb128 0x5
 1775 00bd 01       		.uleb128 0x1
 1776 00be 13       		.uleb128 0x13
 1777 00bf 00       		.byte	0
 1778 00c0 00       		.byte	0
 1779 00c1 12       		.uleb128 0x12
 1780 00c2 16       		.uleb128 0x16
 1781 00c3 00       		.byte	0
 1782 00c4 03       		.uleb128 0x3
 1783 00c5 0E       		.uleb128 0xe
 1784 00c6 3A       		.uleb128 0x3a
 1785 00c7 0B       		.uleb128 0xb
ARM GAS  /tmp/ccp1ATIv.s 			page 33


 1786 00c8 3B       		.uleb128 0x3b
 1787 00c9 05       		.uleb128 0x5
 1788 00ca 49       		.uleb128 0x49
 1789 00cb 13       		.uleb128 0x13
 1790 00cc 00       		.byte	0
 1791 00cd 00       		.byte	0
 1792 00ce 13       		.uleb128 0x13
 1793 00cf 2E       		.uleb128 0x2e
 1794 00d0 01       		.byte	0x1
 1795 00d1 3F       		.uleb128 0x3f
 1796 00d2 0C       		.uleb128 0xc
 1797 00d3 03       		.uleb128 0x3
 1798 00d4 0E       		.uleb128 0xe
 1799 00d5 3A       		.uleb128 0x3a
 1800 00d6 0B       		.uleb128 0xb
 1801 00d7 3B       		.uleb128 0x3b
 1802 00d8 0B       		.uleb128 0xb
 1803 00d9 27       		.uleb128 0x27
 1804 00da 0C       		.uleb128 0xc
 1805 00db 11       		.uleb128 0x11
 1806 00dc 01       		.uleb128 0x1
 1807 00dd 12       		.uleb128 0x12
 1808 00de 01       		.uleb128 0x1
 1809 00df 40       		.uleb128 0x40
 1810 00e0 0A       		.uleb128 0xa
 1811 00e1 9742     		.uleb128 0x2117
 1812 00e3 0C       		.uleb128 0xc
 1813 00e4 01       		.uleb128 0x1
 1814 00e5 13       		.uleb128 0x13
 1815 00e6 00       		.byte	0
 1816 00e7 00       		.byte	0
 1817 00e8 14       		.uleb128 0x14
 1818 00e9 898201   		.uleb128 0x4109
 1819 00ec 00       		.byte	0
 1820 00ed 11       		.uleb128 0x11
 1821 00ee 01       		.uleb128 0x1
 1822 00ef 9542     		.uleb128 0x2115
 1823 00f1 0C       		.uleb128 0xc
 1824 00f2 31       		.uleb128 0x31
 1825 00f3 13       		.uleb128 0x13
 1826 00f4 00       		.byte	0
 1827 00f5 00       		.byte	0
 1828 00f6 15       		.uleb128 0x15
 1829 00f7 05       		.uleb128 0x5
 1830 00f8 00       		.byte	0
 1831 00f9 03       		.uleb128 0x3
 1832 00fa 0E       		.uleb128 0xe
 1833 00fb 3A       		.uleb128 0x3a
 1834 00fc 0B       		.uleb128 0xb
 1835 00fd 3B       		.uleb128 0x3b
 1836 00fe 0B       		.uleb128 0xb
 1837 00ff 49       		.uleb128 0x49
 1838 0100 13       		.uleb128 0x13
 1839 0101 02       		.uleb128 0x2
 1840 0102 0A       		.uleb128 0xa
 1841 0103 00       		.byte	0
 1842 0104 00       		.byte	0
ARM GAS  /tmp/ccp1ATIv.s 			page 34


 1843 0105 16       		.uleb128 0x16
 1844 0106 2E       		.uleb128 0x2e
 1845 0107 01       		.byte	0x1
 1846 0108 3F       		.uleb128 0x3f
 1847 0109 0C       		.uleb128 0xc
 1848 010a 03       		.uleb128 0x3
 1849 010b 0E       		.uleb128 0xe
 1850 010c 3A       		.uleb128 0x3a
 1851 010d 0B       		.uleb128 0xb
 1852 010e 3B       		.uleb128 0x3b
 1853 010f 0B       		.uleb128 0xb
 1854 0110 27       		.uleb128 0x27
 1855 0111 0C       		.uleb128 0xc
 1856 0112 11       		.uleb128 0x11
 1857 0113 01       		.uleb128 0x1
 1858 0114 12       		.uleb128 0x12
 1859 0115 01       		.uleb128 0x1
 1860 0116 40       		.uleb128 0x40
 1861 0117 06       		.uleb128 0x6
 1862 0118 9742     		.uleb128 0x2117
 1863 011a 0C       		.uleb128 0xc
 1864 011b 01       		.uleb128 0x1
 1865 011c 13       		.uleb128 0x13
 1866 011d 00       		.byte	0
 1867 011e 00       		.byte	0
 1868 011f 17       		.uleb128 0x17
 1869 0120 05       		.uleb128 0x5
 1870 0121 00       		.byte	0
 1871 0122 03       		.uleb128 0x3
 1872 0123 0E       		.uleb128 0xe
 1873 0124 3A       		.uleb128 0x3a
 1874 0125 0B       		.uleb128 0xb
 1875 0126 3B       		.uleb128 0x3b
 1876 0127 0B       		.uleb128 0xb
 1877 0128 49       		.uleb128 0x49
 1878 0129 13       		.uleb128 0x13
 1879 012a 02       		.uleb128 0x2
 1880 012b 06       		.uleb128 0x6
 1881 012c 00       		.byte	0
 1882 012d 00       		.byte	0
 1883 012e 18       		.uleb128 0x18
 1884 012f 0B       		.uleb128 0xb
 1885 0130 01       		.byte	0x1
 1886 0131 11       		.uleb128 0x11
 1887 0132 01       		.uleb128 0x1
 1888 0133 12       		.uleb128 0x12
 1889 0134 01       		.uleb128 0x1
 1890 0135 01       		.uleb128 0x1
 1891 0136 13       		.uleb128 0x13
 1892 0137 00       		.byte	0
 1893 0138 00       		.byte	0
 1894 0139 19       		.uleb128 0x19
 1895 013a 34       		.uleb128 0x34
 1896 013b 00       		.byte	0
 1897 013c 03       		.uleb128 0x3
 1898 013d 08       		.uleb128 0x8
 1899 013e 3A       		.uleb128 0x3a
ARM GAS  /tmp/ccp1ATIv.s 			page 35


 1900 013f 0B       		.uleb128 0xb
 1901 0140 3B       		.uleb128 0x3b
 1902 0141 0B       		.uleb128 0xb
 1903 0142 49       		.uleb128 0x49
 1904 0143 13       		.uleb128 0x13
 1905 0144 02       		.uleb128 0x2
 1906 0145 06       		.uleb128 0x6
 1907 0146 00       		.byte	0
 1908 0147 00       		.byte	0
 1909 0148 1A       		.uleb128 0x1a
 1910 0149 898201   		.uleb128 0x4109
 1911 014c 00       		.byte	0
 1912 014d 11       		.uleb128 0x11
 1913 014e 01       		.uleb128 0x1
 1914 014f 31       		.uleb128 0x31
 1915 0150 13       		.uleb128 0x13
 1916 0151 00       		.byte	0
 1917 0152 00       		.byte	0
 1918 0153 1B       		.uleb128 0x1b
 1919 0154 898201   		.uleb128 0x4109
 1920 0157 01       		.byte	0x1
 1921 0158 11       		.uleb128 0x11
 1922 0159 01       		.uleb128 0x1
 1923 015a 31       		.uleb128 0x31
 1924 015b 13       		.uleb128 0x13
 1925 015c 01       		.uleb128 0x1
 1926 015d 13       		.uleb128 0x13
 1927 015e 00       		.byte	0
 1928 015f 00       		.byte	0
 1929 0160 1C       		.uleb128 0x1c
 1930 0161 8A8201   		.uleb128 0x410a
 1931 0164 00       		.byte	0
 1932 0165 02       		.uleb128 0x2
 1933 0166 0A       		.uleb128 0xa
 1934 0167 9142     		.uleb128 0x2111
 1935 0169 0A       		.uleb128 0xa
 1936 016a 00       		.byte	0
 1937 016b 00       		.byte	0
 1938 016c 1D       		.uleb128 0x1d
 1939 016d 898201   		.uleb128 0x4109
 1940 0170 01       		.byte	0x1
 1941 0171 11       		.uleb128 0x11
 1942 0172 01       		.uleb128 0x1
 1943 0173 31       		.uleb128 0x31
 1944 0174 13       		.uleb128 0x13
 1945 0175 00       		.byte	0
 1946 0176 00       		.byte	0
 1947 0177 1E       		.uleb128 0x1e
 1948 0178 34       		.uleb128 0x34
 1949 0179 00       		.byte	0
 1950 017a 03       		.uleb128 0x3
 1951 017b 0E       		.uleb128 0xe
 1952 017c 3A       		.uleb128 0x3a
 1953 017d 0B       		.uleb128 0xb
 1954 017e 3B       		.uleb128 0x3b
 1955 017f 05       		.uleb128 0x5
 1956 0180 49       		.uleb128 0x49
ARM GAS  /tmp/ccp1ATIv.s 			page 36


 1957 0181 13       		.uleb128 0x13
 1958 0182 3F       		.uleb128 0x3f
 1959 0183 0C       		.uleb128 0xc
 1960 0184 3C       		.uleb128 0x3c
 1961 0185 0C       		.uleb128 0xc
 1962 0186 00       		.byte	0
 1963 0187 00       		.byte	0
 1964 0188 1F       		.uleb128 0x1f
 1965 0189 2E       		.uleb128 0x2e
 1966 018a 00       		.byte	0
 1967 018b 3F       		.uleb128 0x3f
 1968 018c 0C       		.uleb128 0xc
 1969 018d 03       		.uleb128 0x3
 1970 018e 0E       		.uleb128 0xe
 1971 018f 3A       		.uleb128 0x3a
 1972 0190 0B       		.uleb128 0xb
 1973 0191 3B       		.uleb128 0x3b
 1974 0192 05       		.uleb128 0x5
 1975 0193 27       		.uleb128 0x27
 1976 0194 0C       		.uleb128 0xc
 1977 0195 3C       		.uleb128 0x3c
 1978 0196 0C       		.uleb128 0xc
 1979 0197 00       		.byte	0
 1980 0198 00       		.byte	0
 1981 0199 20       		.uleb128 0x20
 1982 019a 2E       		.uleb128 0x2e
 1983 019b 00       		.byte	0
 1984 019c 3F       		.uleb128 0x3f
 1985 019d 0C       		.uleb128 0xc
 1986 019e 03       		.uleb128 0x3
 1987 019f 0E       		.uleb128 0xe
 1988 01a0 3A       		.uleb128 0x3a
 1989 01a1 0B       		.uleb128 0xb
 1990 01a2 3B       		.uleb128 0x3b
 1991 01a3 0B       		.uleb128 0xb
 1992 01a4 27       		.uleb128 0x27
 1993 01a5 0C       		.uleb128 0xc
 1994 01a6 3C       		.uleb128 0x3c
 1995 01a7 0C       		.uleb128 0xc
 1996 01a8 00       		.byte	0
 1997 01a9 00       		.byte	0
 1998 01aa 21       		.uleb128 0x21
 1999 01ab 2E       		.uleb128 0x2e
 2000 01ac 01       		.byte	0x1
 2001 01ad 3F       		.uleb128 0x3f
 2002 01ae 0C       		.uleb128 0xc
 2003 01af 03       		.uleb128 0x3
 2004 01b0 0E       		.uleb128 0xe
 2005 01b1 3A       		.uleb128 0x3a
 2006 01b2 0B       		.uleb128 0xb
 2007 01b3 3B       		.uleb128 0x3b
 2008 01b4 0B       		.uleb128 0xb
 2009 01b5 27       		.uleb128 0x27
 2010 01b6 0C       		.uleb128 0xc
 2011 01b7 3C       		.uleb128 0x3c
 2012 01b8 0C       		.uleb128 0xc
 2013 01b9 01       		.uleb128 0x1
ARM GAS  /tmp/ccp1ATIv.s 			page 37


 2014 01ba 13       		.uleb128 0x13
 2015 01bb 00       		.byte	0
 2016 01bc 00       		.byte	0
 2017 01bd 22       		.uleb128 0x22
 2018 01be 2E       		.uleb128 0x2e
 2019 01bf 01       		.byte	0x1
 2020 01c0 3F       		.uleb128 0x3f
 2021 01c1 0C       		.uleb128 0xc
 2022 01c2 03       		.uleb128 0x3
 2023 01c3 0E       		.uleb128 0xe
 2024 01c4 3A       		.uleb128 0x3a
 2025 01c5 0B       		.uleb128 0xb
 2026 01c6 3B       		.uleb128 0x3b
 2027 01c7 05       		.uleb128 0x5
 2028 01c8 27       		.uleb128 0x27
 2029 01c9 0C       		.uleb128 0xc
 2030 01ca 3C       		.uleb128 0x3c
 2031 01cb 0C       		.uleb128 0xc
 2032 01cc 01       		.uleb128 0x1
 2033 01cd 13       		.uleb128 0x13
 2034 01ce 00       		.byte	0
 2035 01cf 00       		.byte	0
 2036 01d0 23       		.uleb128 0x23
 2037 01d1 2E       		.uleb128 0x2e
 2038 01d2 01       		.byte	0x1
 2039 01d3 3F       		.uleb128 0x3f
 2040 01d4 0C       		.uleb128 0xc
 2041 01d5 03       		.uleb128 0x3
 2042 01d6 0E       		.uleb128 0xe
 2043 01d7 3A       		.uleb128 0x3a
 2044 01d8 0B       		.uleb128 0xb
 2045 01d9 3B       		.uleb128 0x3b
 2046 01da 05       		.uleb128 0x5
 2047 01db 27       		.uleb128 0x27
 2048 01dc 0C       		.uleb128 0xc
 2049 01dd 3C       		.uleb128 0x3c
 2050 01de 0C       		.uleb128 0xc
 2051 01df 00       		.byte	0
 2052 01e0 00       		.byte	0
 2053 01e1 00       		.byte	0
 2054              		.section	.debug_loc,"",%progbits
 2055              	.Ldebug_loc0:
 2056              	.LLST0:
 2057 0000 00000000 		.4byte	.LFB65
 2058 0004 02000000 		.4byte	.LCFI0
 2059 0008 0200     		.2byte	0x2
 2060 000a 7D       		.byte	0x7d
 2061 000b 00       		.sleb128 0
 2062 000c 02000000 		.4byte	.LCFI0
 2063 0010 50000000 		.4byte	.LFE65
 2064 0014 0200     		.2byte	0x2
 2065 0016 7D       		.byte	0x7d
 2066 0017 10       		.sleb128 16
 2067 0018 00000000 		.4byte	0
 2068 001c 00000000 		.4byte	0
 2069              	.LLST1:
 2070 0020 00000000 		.4byte	.LVL2
ARM GAS  /tmp/ccp1ATIv.s 			page 38


 2071 0024 0A000000 		.4byte	.LVL3
 2072 0028 0100     		.2byte	0x1
 2073 002a 50       		.byte	0x50
 2074 002b 0A000000 		.4byte	.LVL3
 2075 002f 3E000000 		.4byte	.LVL12
 2076 0033 0100     		.2byte	0x1
 2077 0035 54       		.byte	0x54
 2078 0036 3E000000 		.4byte	.LVL12
 2079 003a 40000000 		.4byte	.LVL13
 2080 003e 0100     		.2byte	0x1
 2081 0040 50       		.byte	0x50
 2082 0041 40000000 		.4byte	.LVL13
 2083 0045 50000000 		.4byte	.LFE65
 2084 0049 0100     		.2byte	0x1
 2085 004b 54       		.byte	0x54
 2086 004c 00000000 		.4byte	0
 2087 0050 00000000 		.4byte	0
 2088              	.LLST2:
 2089 0054 00000000 		.4byte	.LVL2
 2090 0058 0A000000 		.4byte	.LVL3
 2091 005c 0100     		.2byte	0x1
 2092 005e 51       		.byte	0x51
 2093 005f 0A000000 		.4byte	.LVL3
 2094 0063 3E000000 		.4byte	.LVL12
 2095 0067 0100     		.2byte	0x1
 2096 0069 55       		.byte	0x55
 2097 006a 3E000000 		.4byte	.LVL12
 2098 006e 43000000 		.4byte	.LVL14-1
 2099 0072 0100     		.2byte	0x1
 2100 0074 51       		.byte	0x51
 2101 0075 43000000 		.4byte	.LVL14-1
 2102 0079 50000000 		.4byte	.LFE65
 2103 007d 0100     		.2byte	0x1
 2104 007f 55       		.byte	0x55
 2105 0080 00000000 		.4byte	0
 2106 0084 00000000 		.4byte	0
 2107              	.LLST3:
 2108 0088 10000000 		.4byte	.LVL5
 2109 008c 13000000 		.4byte	.LVL6-1
 2110 0090 0100     		.2byte	0x1
 2111 0092 53       		.byte	0x53
 2112 0093 00000000 		.4byte	0
 2113 0097 00000000 		.4byte	0
 2114              	.LLST4:
 2115 009b 3C000000 		.4byte	.LVL11
 2116 009f 3E000000 		.4byte	.LVL12
 2117 00a3 0100     		.2byte	0x1
 2118 00a5 53       		.byte	0x53
 2119 00a6 00000000 		.4byte	0
 2120 00aa 00000000 		.4byte	0
 2121              	.LLST5:
 2122 00ae 00000000 		.4byte	.LFB66
 2123 00b2 02000000 		.4byte	.LCFI1
 2124 00b6 0200     		.2byte	0x2
 2125 00b8 7D       		.byte	0x7d
 2126 00b9 00       		.sleb128 0
 2127 00ba 02000000 		.4byte	.LCFI1
ARM GAS  /tmp/ccp1ATIv.s 			page 39


 2128 00be 44000000 		.4byte	.LFE66
 2129 00c2 0200     		.2byte	0x2
 2130 00c4 7D       		.byte	0x7d
 2131 00c5 08       		.sleb128 8
 2132 00c6 00000000 		.4byte	0
 2133 00ca 00000000 		.4byte	0
 2134              	.LLST6:
 2135 00ce 00000000 		.4byte	.LVL15
 2136 00d2 06000000 		.4byte	.LVL16
 2137 00d6 0100     		.2byte	0x1
 2138 00d8 50       		.byte	0x50
 2139 00d9 06000000 		.4byte	.LVL16
 2140 00dd 34000000 		.4byte	.LVL25
 2141 00e1 0100     		.2byte	0x1
 2142 00e3 54       		.byte	0x54
 2143 00e4 34000000 		.4byte	.LVL25
 2144 00e8 36000000 		.4byte	.LVL26
 2145 00ec 0100     		.2byte	0x1
 2146 00ee 50       		.byte	0x50
 2147 00ef 36000000 		.4byte	.LVL26
 2148 00f3 44000000 		.4byte	.LFE66
 2149 00f7 0100     		.2byte	0x1
 2150 00f9 54       		.byte	0x54
 2151 00fa 00000000 		.4byte	0
 2152 00fe 00000000 		.4byte	0
 2153              	.LLST7:
 2154 0102 0C000000 		.4byte	.LVL18
 2155 0106 0F000000 		.4byte	.LVL19-1
 2156 010a 0100     		.2byte	0x1
 2157 010c 53       		.byte	0x53
 2158 010d 00000000 		.4byte	0
 2159 0111 00000000 		.4byte	0
 2160              	.LLST8:
 2161 0115 32000000 		.4byte	.LVL24
 2162 0119 34000000 		.4byte	.LVL25
 2163 011d 0100     		.2byte	0x1
 2164 011f 53       		.byte	0x53
 2165 0120 00000000 		.4byte	0
 2166 0124 00000000 		.4byte	0
 2167              	.LLST9:
 2168 0128 00000000 		.4byte	.LFB67
 2169 012c 02000000 		.4byte	.LCFI2
 2170 0130 0200     		.2byte	0x2
 2171 0132 7D       		.byte	0x7d
 2172 0133 00       		.sleb128 0
 2173 0134 02000000 		.4byte	.LCFI2
 2174 0138 44000000 		.4byte	.LFE67
 2175 013c 0200     		.2byte	0x2
 2176 013e 7D       		.byte	0x7d
 2177 013f 10       		.sleb128 16
 2178 0140 00000000 		.4byte	0
 2179 0144 00000000 		.4byte	0
 2180              	.LLST10:
 2181 0148 00000000 		.4byte	.LVL28
 2182 014c 08000000 		.4byte	.LVL29
 2183 0150 0100     		.2byte	0x1
 2184 0152 50       		.byte	0x50
ARM GAS  /tmp/ccp1ATIv.s 			page 40


 2185 0153 08000000 		.4byte	.LVL29
 2186 0157 34000000 		.4byte	.LVL37
 2187 015b 0100     		.2byte	0x1
 2188 015d 54       		.byte	0x54
 2189 015e 34000000 		.4byte	.LVL37
 2190 0162 36000000 		.4byte	.LVL38
 2191 0166 0100     		.2byte	0x1
 2192 0168 50       		.byte	0x50
 2193 0169 36000000 		.4byte	.LVL38
 2194 016d 44000000 		.4byte	.LFE67
 2195 0171 0100     		.2byte	0x1
 2196 0173 54       		.byte	0x54
 2197 0174 00000000 		.4byte	0
 2198 0178 00000000 		.4byte	0
 2199              	.LLST11:
 2200 017c 00000000 		.4byte	.LVL28
 2201 0180 08000000 		.4byte	.LVL29
 2202 0184 0100     		.2byte	0x1
 2203 0186 51       		.byte	0x51
 2204 0187 08000000 		.4byte	.LVL29
 2205 018b 34000000 		.4byte	.LVL37
 2206 018f 0400     		.2byte	0x4
 2207 0191 F3       		.byte	0xf3
 2208 0192 01       		.uleb128 0x1
 2209 0193 51       		.byte	0x51
 2210 0194 9F       		.byte	0x9f
 2211 0195 34000000 		.4byte	.LVL37
 2212 0199 39000000 		.4byte	.LVL39-1
 2213 019d 0100     		.2byte	0x1
 2214 019f 51       		.byte	0x51
 2215 01a0 39000000 		.4byte	.LVL39-1
 2216 01a4 44000000 		.4byte	.LFE67
 2217 01a8 0400     		.2byte	0x4
 2218 01aa F3       		.byte	0xf3
 2219 01ab 01       		.uleb128 0x1
 2220 01ac 51       		.byte	0x51
 2221 01ad 9F       		.byte	0x9f
 2222 01ae 00000000 		.4byte	0
 2223 01b2 00000000 		.4byte	0
 2224              	.LLST12:
 2225 01b6 0E000000 		.4byte	.LVL31
 2226 01ba 11000000 		.4byte	.LVL32-1
 2227 01be 0100     		.2byte	0x1
 2228 01c0 53       		.byte	0x53
 2229 01c1 00000000 		.4byte	0
 2230 01c5 00000000 		.4byte	0
 2231              	.LLST13:
 2232 01c9 32000000 		.4byte	.LVL36
 2233 01cd 34000000 		.4byte	.LVL37
 2234 01d1 0100     		.2byte	0x1
 2235 01d3 53       		.byte	0x53
 2236 01d4 00000000 		.4byte	0
 2237 01d8 00000000 		.4byte	0
 2238              	.LLST14:
 2239 01dc 00000000 		.4byte	.LFB68
 2240 01e0 02000000 		.4byte	.LCFI3
 2241 01e4 0200     		.2byte	0x2
ARM GAS  /tmp/ccp1ATIv.s 			page 41


 2242 01e6 7D       		.byte	0x7d
 2243 01e7 00       		.sleb128 0
 2244 01e8 02000000 		.4byte	.LCFI3
 2245 01ec 4C000000 		.4byte	.LFE68
 2246 01f0 0200     		.2byte	0x2
 2247 01f2 7D       		.byte	0x7d
 2248 01f3 10       		.sleb128 16
 2249 01f4 00000000 		.4byte	0
 2250 01f8 00000000 		.4byte	0
 2251              	.LLST15:
 2252 01fc 00000000 		.4byte	.LVL40
 2253 0200 0E000000 		.4byte	.LVL41
 2254 0204 0100     		.2byte	0x1
 2255 0206 50       		.byte	0x50
 2256 0207 0E000000 		.4byte	.LVL41
 2257 020b 3A000000 		.4byte	.LVL50
 2258 020f 0100     		.2byte	0x1
 2259 0211 54       		.byte	0x54
 2260 0212 3A000000 		.4byte	.LVL50
 2261 0216 3C000000 		.4byte	.LVL51
 2262 021a 0100     		.2byte	0x1
 2263 021c 50       		.byte	0x50
 2264 021d 3C000000 		.4byte	.LVL51
 2265 0221 4C000000 		.4byte	.LFE68
 2266 0225 0100     		.2byte	0x1
 2267 0227 54       		.byte	0x54
 2268 0228 00000000 		.4byte	0
 2269 022c 00000000 		.4byte	0
 2270              	.LLST16:
 2271 0230 00000000 		.4byte	.LVL40
 2272 0234 0E000000 		.4byte	.LVL41
 2273 0238 0100     		.2byte	0x1
 2274 023a 51       		.byte	0x51
 2275 023b 0E000000 		.4byte	.LVL41
 2276 023f 3A000000 		.4byte	.LVL50
 2277 0243 0400     		.2byte	0x4
 2278 0245 F3       		.byte	0xf3
 2279 0246 01       		.uleb128 0x1
 2280 0247 51       		.byte	0x51
 2281 0248 9F       		.byte	0x9f
 2282 0249 3A000000 		.4byte	.LVL50
 2283 024d 3F000000 		.4byte	.LVL52-1
 2284 0251 0100     		.2byte	0x1
 2285 0253 51       		.byte	0x51
 2286 0254 3F000000 		.4byte	.LVL52-1
 2287 0258 4C000000 		.4byte	.LFE68
 2288 025c 0400     		.2byte	0x4
 2289 025e F3       		.byte	0xf3
 2290 025f 01       		.uleb128 0x1
 2291 0260 51       		.byte	0x51
 2292 0261 9F       		.byte	0x9f
 2293 0262 00000000 		.4byte	0
 2294 0266 00000000 		.4byte	0
 2295              	.LLST17:
 2296 026a 00000000 		.4byte	.LVL40
 2297 026e 0E000000 		.4byte	.LVL41
 2298 0272 0100     		.2byte	0x1
ARM GAS  /tmp/ccp1ATIv.s 			page 42


 2299 0274 52       		.byte	0x52
 2300 0275 0E000000 		.4byte	.LVL41
 2301 0279 3A000000 		.4byte	.LVL50
 2302 027d 0400     		.2byte	0x4
 2303 027f F3       		.byte	0xf3
 2304 0280 01       		.uleb128 0x1
 2305 0281 52       		.byte	0x52
 2306 0282 9F       		.byte	0x9f
 2307 0283 3A000000 		.4byte	.LVL50
 2308 0287 3F000000 		.4byte	.LVL52-1
 2309 028b 0100     		.2byte	0x1
 2310 028d 52       		.byte	0x52
 2311 028e 3F000000 		.4byte	.LVL52-1
 2312 0292 4C000000 		.4byte	.LFE68
 2313 0296 0400     		.2byte	0x4
 2314 0298 F3       		.byte	0xf3
 2315 0299 01       		.uleb128 0x1
 2316 029a 52       		.byte	0x52
 2317 029b 9F       		.byte	0x9f
 2318 029c 00000000 		.4byte	0
 2319 02a0 00000000 		.4byte	0
 2320              	.LLST18:
 2321 02a4 14000000 		.4byte	.LVL43
 2322 02a8 17000000 		.4byte	.LVL44-1
 2323 02ac 0100     		.2byte	0x1
 2324 02ae 53       		.byte	0x53
 2325 02af 00000000 		.4byte	0
 2326 02b3 00000000 		.4byte	0
 2327              	.LLST19:
 2328 02b7 38000000 		.4byte	.LVL49
 2329 02bb 3A000000 		.4byte	.LVL50
 2330 02bf 0100     		.2byte	0x1
 2331 02c1 53       		.byte	0x53
 2332 02c2 00000000 		.4byte	0
 2333 02c6 00000000 		.4byte	0
 2334              	.LLST20:
 2335 02ca 00000000 		.4byte	.LFB69
 2336 02ce 02000000 		.4byte	.LCFI4
 2337 02d2 0200     		.2byte	0x2
 2338 02d4 7D       		.byte	0x7d
 2339 02d5 00       		.sleb128 0
 2340 02d6 02000000 		.4byte	.LCFI4
 2341 02da 48000000 		.4byte	.LFE69
 2342 02de 0200     		.2byte	0x2
 2343 02e0 7D       		.byte	0x7d
 2344 02e1 10       		.sleb128 16
 2345 02e2 00000000 		.4byte	0
 2346 02e6 00000000 		.4byte	0
 2347              	.LLST21:
 2348 02ea 00000000 		.4byte	.LVL53
 2349 02ee 0C000000 		.4byte	.LVL54
 2350 02f2 0100     		.2byte	0x1
 2351 02f4 50       		.byte	0x50
 2352 02f5 0C000000 		.4byte	.LVL54
 2353 02f9 36000000 		.4byte	.LVL63
 2354 02fd 0100     		.2byte	0x1
 2355 02ff 54       		.byte	0x54
ARM GAS  /tmp/ccp1ATIv.s 			page 43


 2356 0300 36000000 		.4byte	.LVL63
 2357 0304 38000000 		.4byte	.LVL64
 2358 0308 0100     		.2byte	0x1
 2359 030a 50       		.byte	0x50
 2360 030b 38000000 		.4byte	.LVL64
 2361 030f 48000000 		.4byte	.LFE69
 2362 0313 0100     		.2byte	0x1
 2363 0315 54       		.byte	0x54
 2364 0316 00000000 		.4byte	0
 2365 031a 00000000 		.4byte	0
 2366              	.LLST22:
 2367 031e 00000000 		.4byte	.LVL53
 2368 0322 0C000000 		.4byte	.LVL54
 2369 0326 0100     		.2byte	0x1
 2370 0328 51       		.byte	0x51
 2371 0329 0C000000 		.4byte	.LVL54
 2372 032d 36000000 		.4byte	.LVL63
 2373 0331 0400     		.2byte	0x4
 2374 0333 F3       		.byte	0xf3
 2375 0334 01       		.uleb128 0x1
 2376 0335 51       		.byte	0x51
 2377 0336 9F       		.byte	0x9f
 2378 0337 36000000 		.4byte	.LVL63
 2379 033b 3B000000 		.4byte	.LVL65-1
 2380 033f 0100     		.2byte	0x1
 2381 0341 51       		.byte	0x51
 2382 0342 3B000000 		.4byte	.LVL65-1
 2383 0346 48000000 		.4byte	.LFE69
 2384 034a 0400     		.2byte	0x4
 2385 034c F3       		.byte	0xf3
 2386 034d 01       		.uleb128 0x1
 2387 034e 51       		.byte	0x51
 2388 034f 9F       		.byte	0x9f
 2389 0350 00000000 		.4byte	0
 2390 0354 00000000 		.4byte	0
 2391              	.LLST23:
 2392 0358 12000000 		.4byte	.LVL56
 2393 035c 15000000 		.4byte	.LVL57-1
 2394 0360 0100     		.2byte	0x1
 2395 0362 53       		.byte	0x53
 2396 0363 00000000 		.4byte	0
 2397 0367 00000000 		.4byte	0
 2398              	.LLST24:
 2399 036b 34000000 		.4byte	.LVL62
 2400 036f 36000000 		.4byte	.LVL63
 2401 0373 0100     		.2byte	0x1
 2402 0375 53       		.byte	0x53
 2403 0376 00000000 		.4byte	0
 2404 037a 00000000 		.4byte	0
 2405              		.section	.debug_aranges,"",%progbits
 2406 0000 4C000000 		.4byte	0x4c
 2407 0004 0200     		.2byte	0x2
 2408 0006 00000000 		.4byte	.Ldebug_info0
 2409 000a 04       		.byte	0x4
 2410 000b 00       		.byte	0
 2411 000c 0000     		.2byte	0
 2412 000e 0000     		.2byte	0
ARM GAS  /tmp/ccp1ATIv.s 			page 44


 2413 0010 00000000 		.4byte	.LFB63
 2414 0014 04000000 		.4byte	.LFE63-.LFB63
 2415 0018 00000000 		.4byte	.LFB64
 2416 001c 0A000000 		.4byte	.LFE64-.LFB64
 2417 0020 00000000 		.4byte	.LFB65
 2418 0024 50000000 		.4byte	.LFE65-.LFB65
 2419 0028 00000000 		.4byte	.LFB66
 2420 002c 44000000 		.4byte	.LFE66-.LFB66
 2421 0030 00000000 		.4byte	.LFB67
 2422 0034 44000000 		.4byte	.LFE67-.LFB67
 2423 0038 00000000 		.4byte	.LFB68
 2424 003c 4C000000 		.4byte	.LFE68-.LFB68
 2425 0040 00000000 		.4byte	.LFB69
 2426 0044 48000000 		.4byte	.LFE69-.LFB69
 2427 0048 00000000 		.4byte	0
 2428 004c 00000000 		.4byte	0
 2429              		.section	.debug_ranges,"",%progbits
 2430              	.Ldebug_ranges0:
 2431 0000 00000000 		.4byte	.LFB63
 2432 0004 04000000 		.4byte	.LFE63
 2433 0008 00000000 		.4byte	.LFB64
 2434 000c 0A000000 		.4byte	.LFE64
 2435 0010 00000000 		.4byte	.LFB65
 2436 0014 50000000 		.4byte	.LFE65
 2437 0018 00000000 		.4byte	.LFB66
 2438 001c 44000000 		.4byte	.LFE66
 2439 0020 00000000 		.4byte	.LFB67
 2440 0024 44000000 		.4byte	.LFE67
 2441 0028 00000000 		.4byte	.LFB68
 2442 002c 4C000000 		.4byte	.LFE68
 2443 0030 00000000 		.4byte	.LFB69
 2444 0034 48000000 		.4byte	.LFE69
 2445 0038 00000000 		.4byte	0
 2446 003c 00000000 		.4byte	0
 2447              		.section	.debug_line,"",%progbits
 2448              	.Ldebug_line0:
 2449 0000 3B020000 		.section	.debug_str,"MS",%progbits,1
 2449      02003E01 
 2449      00000201 
 2449      FB0E0D00 
 2449      01010101 
 2450              	.LASF30:
 2451 0000 43434552 		.ascii	"CCER\000"
 2451      00
 2452              	.LASF62:
 2453 0005 70776D5F 		.ascii	"pwm_lld_stop\000"
 2453      6C6C645F 
 2453      73746F70 
 2453      00
 2454              	.LASF32:
 2455 0012 444D4152 		.ascii	"DMAR\000"
 2455      00
 2456              	.LASF21:
 2457 0017 73746174 		.ascii	"state\000"
 2457      6500
 2458              	.LASF29:
 2459 001d 43434D52 		.ascii	"CCMR2\000"
ARM GAS  /tmp/ccp1ATIv.s 			page 45


 2459      3200
 2460              	.LASF33:
 2461 0023 43434D52 		.ascii	"CCMR3\000"
 2461      3300
 2462              	.LASF3:
 2463 0029 73686F72 		.ascii	"short int\000"
 2463      7420696E 
 2463      7400
 2464              	.LASF39:
 2465 0033 70776D63 		.ascii	"pwmcnt_t\000"
 2465      6E745F74 
 2465      00
 2466              	.LASF14:
 2467 003c 73697A65 		.ascii	"sizetype\000"
 2467      74797065 
 2467      00
 2468              	.LASF68:
 2469 0045 70776D5F 		.ascii	"pwm_lld_disable_channel\000"
 2469      6C6C645F 
 2469      64697361 
 2469      626C655F 
 2469      6368616E 
 2470              	.LASF38:
 2471 005d 70776D63 		.ascii	"pwmchannel_t\000"
 2471      68616E6E 
 2471      656C5F74 
 2471      00
 2472              	.LASF40:
 2473 006a 6D6F6465 		.ascii	"mode\000"
 2473      00
 2474              	.LASF44:
 2475 006f 6368616E 		.ascii	"channels\000"
 2475      6E656C73 
 2475      00
 2476              	.LASF22:
 2477 0078 636F6E66 		.ascii	"config\000"
 2477      696700
 2478              	.LASF48:
 2479 007f 70776D4F 		.ascii	"pwmObjectInit\000"
 2479      626A6563 
 2479      74496E69 
 2479      7400
 2480              	.LASF4:
 2481 008d 75696E74 		.ascii	"uint8_t\000"
 2481      385F7400 
 2482              	.LASF53:
 2483 0095 70776D45 		.ascii	"pwmEnableChannel\000"
 2483      6E61626C 
 2483      65436861 
 2483      6E6E656C 
 2483      00
 2484              	.LASF55:
 2485 00a6 77696474 		.ascii	"width\000"
 2485      6800
 2486              	.LASF49:
 2487 00ac 70776D53 		.ascii	"pwmStart\000"
 2487      74617274 
ARM GAS  /tmp/ccp1ATIv.s 			page 46


 2487      00
 2488              	.LASF11:
 2489 00b5 6C6F6E67 		.ascii	"long long int\000"
 2489      206C6F6E 
 2489      6720696E 
 2489      7400
 2490              	.LASF8:
 2491 00c3 6C6F6E67 		.ascii	"long int\000"
 2491      20696E74 
 2491      00
 2492              	.LASF47:
 2493 00cc 70776D49 		.ascii	"pwmInit\000"
 2493      6E697400 
 2494              	.LASF34:
 2495 00d4 43435235 		.ascii	"CCR5\000"
 2495      00
 2496              	.LASF35:
 2497 00d9 43435236 		.ascii	"CCR6\000"
 2497      00
 2498              	.LASF23:
 2499 00de 70657269 		.ascii	"period\000"
 2499      6F6400
 2500              	.LASF28:
 2501 00e5 43434D52 		.ascii	"CCMR1\000"
 2501      3100
 2502              	.LASF60:
 2503 00eb 70776D5F 		.ascii	"pwm_lld_start\000"
 2503      6C6C645F 
 2503      73746172 
 2503      7400
 2504              	.LASF46:
 2505 00f9 50574D43 		.ascii	"PWMConfig\000"
 2505      6F6E6669 
 2505      6700
 2506              	.LASF59:
 2507 0103 63684462 		.ascii	"chDbgPanic\000"
 2507      6750616E 
 2507      696300
 2508              	.LASF50:
 2509 010e 70776D70 		.ascii	"pwmp\000"
 2509      00
 2510              	.LASF26:
 2511 0113 534D4352 		.ascii	"SMCR\000"
 2511      00
 2512              	.LASF16:
 2513 0118 50574D5F 		.ascii	"PWM_UNINIT\000"
 2513      554E494E 
 2513      495400
 2514              	.LASF2:
 2515 0123 756E7369 		.ascii	"unsigned char\000"
 2515      676E6564 
 2515      20636861 
 2515      7200
 2516              	.LASF63:
 2517 0131 70776D5F 		.ascii	"pwm_lld_enable_channel\000"
 2517      6C6C645F 
 2517      656E6162 
ARM GAS  /tmp/ccp1ATIv.s 			page 47


 2517      6C655F63 
 2517      68616E6E 
 2518              	.LASF61:
 2519 0148 6462675F 		.ascii	"dbg_check_unlock\000"
 2519      63686563 
 2519      6B5F756E 
 2519      6C6F636B 
 2519      00
 2520              	.LASF56:
 2521 0159 70776D44 		.ascii	"pwmDisableChannel\000"
 2521      69736162 
 2521      6C654368 
 2521      616E6E65 
 2521      6C00
 2522              	.LASF1:
 2523 016b 7369676E 		.ascii	"signed char\000"
 2523      65642063 
 2523      68617200 
 2524              	.LASF58:
 2525 0177 6462675F 		.ascii	"dbg_check_lock\000"
 2525      63686563 
 2525      6B5F6C6F 
 2525      636B00
 2526              	.LASF12:
 2527 0186 6C6F6E67 		.ascii	"long long unsigned int\000"
 2527      206C6F6E 
 2527      6720756E 
 2527      7369676E 
 2527      65642069 
 2528              	.LASF9:
 2529 019d 75696E74 		.ascii	"uint32_t\000"
 2529      33325F74 
 2529      00
 2530              	.LASF0:
 2531 01a6 756E7369 		.ascii	"unsigned int\000"
 2531      676E6564 
 2531      20696E74 
 2531      00
 2532              	.LASF64:
 2533 01b3 474E5520 		.ascii	"GNU C 4.7.4 20130913 (release) [ARM/embedded-4_7-br"
 2533      4320342E 
 2533      372E3420 
 2533      32303133 
 2533      30393133 
 2534 01e6 616E6368 		.ascii	"anch revision 202601]\000"
 2534      20726576 
 2534      6973696F 
 2534      6E203230 
 2534      32363031 
 2535              	.LASF31:
 2536 01fc 42445452 		.ascii	"BDTR\000"
 2536      00
 2537              	.LASF27:
 2538 0201 44494552 		.ascii	"DIER\000"
 2538      00
 2539              	.LASF6:
 2540 0206 73686F72 		.ascii	"short unsigned int\000"
ARM GAS  /tmp/ccp1ATIv.s 			page 48


 2540      7420756E 
 2540      7369676E 
 2540      65642069 
 2540      6E7400
 2541              	.LASF57:
 2542 0219 70776D5F 		.ascii	"pwm_lld_init\000"
 2542      6C6C645F 
 2542      696E6974 
 2542      00
 2543              	.LASF15:
 2544 0226 63686172 		.ascii	"char\000"
 2544      00
 2545              	.LASF5:
 2546 022b 75696E74 		.ascii	"uint16_t\000"
 2546      31365F74 
 2546      00
 2547              	.LASF36:
 2548 0234 73746D33 		.ascii	"stm32_tim_t\000"
 2548      325F7469 
 2548      6D5F7400 
 2549              	.LASF20:
 2550 0240 50574D44 		.ascii	"PWMDriver\000"
 2550      72697665 
 2550      7200
 2551              	.LASF7:
 2552 024a 696E7433 		.ascii	"int32_t\000"
 2552      325F7400 
 2553              	.LASF13:
 2554 0252 5F426F6F 		.ascii	"_Bool\000"
 2554      6C00
 2555              	.LASF54:
 2556 0258 6368616E 		.ascii	"channel\000"
 2556      6E656C00 
 2557              	.LASF52:
 2558 0260 70776D43 		.ascii	"pwmChangePeriod\000"
 2558      68616E67 
 2558      65506572 
 2558      696F6400 
 2559              	.LASF10:
 2560 0270 6C6F6E67 		.ascii	"long unsigned int\000"
 2560      20756E73 
 2560      69676E65 
 2560      6420696E 
 2560      7400
 2561              	.LASF24:
 2562 0282 636C6F63 		.ascii	"clock\000"
 2562      6B00
 2563              	.LASF65:
 2564 0288 2E2E2F2E 		.ascii	"../../os/hal/src/pwm.c\000"
 2564      2E2F6F73 
 2564      2F68616C 
 2564      2F737263 
 2564      2F70776D 
 2565              	.LASF66:
 2566 029f 2F686F6D 		.ascii	"/home/ondra6ak/Documents/ARM/ChibiOS/demos/dortII_0"
 2566      652F6F6E 
 2566      64726136 
ARM GAS  /tmp/ccp1ATIv.s 			page 49


 2566      616B2F44 
 2566      6F63756D 
 2567 02d2 2E3200   		.ascii	".2\000"
 2568              	.LASF18:
 2569 02d5 50574D5F 		.ascii	"PWM_READY\000"
 2569      52454144 
 2569      5900
 2570              	.LASF17:
 2571 02df 50574D5F 		.ascii	"PWM_STOP\000"
 2571      53544F50 
 2571      00
 2572              	.LASF45:
 2573 02e8 64696572 		.ascii	"dier\000"
 2573      00
 2574              	.LASF51:
 2575 02ed 70776D53 		.ascii	"pwmStop\000"
 2575      746F7000 
 2576              	.LASF43:
 2577 02f5 66726571 		.ascii	"frequency\000"
 2577      75656E63 
 2577      7900
 2578              	.LASF42:
 2579 02ff 50574D43 		.ascii	"PWMChannelConfig\000"
 2579      68616E6E 
 2579      656C436F 
 2579      6E666967 
 2579      00
 2580              	.LASF37:
 2581 0310 70776D6D 		.ascii	"pwmmode_t\000"
 2581      6F64655F 
 2581      7400
 2582              	.LASF67:
 2583 031a 49544D5F 		.ascii	"ITM_RxBuffer\000"
 2583      52784275 
 2583      66666572 
 2583      00
 2584              	.LASF19:
 2585 0327 70776D73 		.ascii	"pwmstate_t\000"
 2585      74617465 
 2585      5F7400
 2586              	.LASF25:
 2587 0332 70776D63 		.ascii	"pwmcallback_t\000"
 2587      616C6C62 
 2587      61636B5F 
 2587      7400
 2588              	.LASF41:
 2589 0340 63616C6C 		.ascii	"callback\000"
 2589      6261636B 
 2589      00
 2590              		.ident	"GCC: (GNU Tools for ARM Embedded Processors) 4.7.4 20130913 (release) [ARM/embedded-4_7-br
ARM GAS  /tmp/ccp1ATIv.s 			page 50


DEFINED SYMBOLS
                            *ABS*:00000000 pwm.c
     /tmp/ccp1ATIv.s:19     .text.pwmInit:00000000 $t
     /tmp/ccp1ATIv.s:25     .text.pwmInit:00000000 pwmInit
     /tmp/ccp1ATIv.s:41     .text.pwmObjectInit:00000000 $t
     /tmp/ccp1ATIv.s:47     .text.pwmObjectInit:00000000 pwmObjectInit
     /tmp/ccp1ATIv.s:68     .text.pwmStart:00000000 $t
     /tmp/ccp1ATIv.s:74     .text.pwmStart:00000000 pwmStart
     /tmp/ccp1ATIv.s:158    .text.pwmStart:00000048 $d
     /tmp/ccp1ATIv.s:164    .text.pwmStop:00000000 $t
     /tmp/ccp1ATIv.s:170    .text.pwmStop:00000000 pwmStop
     /tmp/ccp1ATIv.s:240    .text.pwmStop:0000003c $d
     /tmp/ccp1ATIv.s:246    .text.pwmChangePeriod:00000000 $t
     /tmp/ccp1ATIv.s:252    .text.pwmChangePeriod:00000000 pwmChangePeriod
     /tmp/ccp1ATIv.s:325    .text.pwmChangePeriod:0000003c $d
     /tmp/ccp1ATIv.s:331    .text.pwmEnableChannel:00000000 $t
     /tmp/ccp1ATIv.s:337    .text.pwmEnableChannel:00000000 pwmEnableChannel
     /tmp/ccp1ATIv.s:414    .text.pwmEnableChannel:00000044 $d
     /tmp/ccp1ATIv.s:420    .text.pwmDisableChannel:00000000 $t
     /tmp/ccp1ATIv.s:426    .text.pwmDisableChannel:00000000 pwmDisableChannel
     /tmp/ccp1ATIv.s:501    .text.pwmDisableChannel:00000040 $d
     /tmp/ccp1ATIv.s:507    .rodata.str1.4:00000000 $d
                     .debug_frame:00000010 $d
     /tmp/ccp1ATIv.s:245    .text.pwmStop:00000044 $t
     /tmp/ccp1ATIv.s:330    .text.pwmChangePeriod:00000044 $t
     /tmp/ccp1ATIv.s:419    .text.pwmEnableChannel:0000004c $t
     /tmp/ccp1ATIv.s:506    .text.pwmDisableChannel:00000048 $t

UNDEFINED SYMBOLS
pwm_lld_init
dbg_check_lock
chDbgPanic
pwm_lld_start
dbg_check_unlock
pwm_lld_stop
pwm_lld_enable_channel
pwm_lld_disable_channel
