ARM GAS  /tmp/ccV6xoTv.s 			page 1


   1              		.syntax unified
   2              		.cpu cortex-m3
   3              		.fpu softvfp
   4              		.eabi_attribute 20, 1
   5              		.eabi_attribute 21, 1
   6              		.eabi_attribute 23, 3
   7              		.eabi_attribute 24, 1
   8              		.eabi_attribute 25, 1
   9              		.eabi_attribute 26, 1
  10              		.eabi_attribute 30, 2
  11              		.eabi_attribute 34, 1
  12              		.eabi_attribute 18, 4
  13              		.thumb
  14              		.file	"pwm_lld.c"
  15              		.text
  16              	.Ltext0:
  17              		.cfi_sections	.debug_frame
  18              		.section	.text.VectorB4,"ax",%progbits
  19              		.align	2
  20              		.p2align 4,,15
  21              		.global	VectorB4
  22              		.thumb
  23              		.thumb_func
  24              		.type	VectorB4, %function
  25              	VectorB4:
  26              	.LFB64:
  27              		.file 1 "../../os/hal/platforms/STM32/TIMv1/pwm_lld.c"
  28              		.loc 1 216 0
  29              		.cfi_startproc
  30              		@ args = 0, pretend = 0, frame = 0
  31              		@ frame_needed = 0, uses_anonymous_args = 0
  32 0000 38B5     		push	{r3, r4, r5, lr}
  33              	.LCFI0:
  34              		.cfi_def_cfa_offset 16
  35              		.cfi_offset 3, -16
  36              		.cfi_offset 4, -12
  37              		.cfi_offset 5, -8
  38              		.cfi_offset 14, -4
  39              	.LBB4:
  40              	.LBB5:
  41              		.loc 1 115 0
  42 0002 1E4D     		ldr	r5, .L27
  43              	.LBE5:
  44              	.LBE4:
  45              		.loc 1 218 0
  46 0004 FFF7FEFF 		bl	dbg_check_enter_isr
  47              	.LVL0:
  48              	.LBB8:
  49              	.LBB6:
  50              		.loc 1 115 0
  51 0008 2B69     		ldr	r3, [r5, #16]
  52 000a 1A69     		ldr	r2, [r3, #16]
  53              	.LVL1:
  54              		.loc 1 116 0
  55 000c DC68     		ldr	r4, [r3, #12]
  56 000e 1440     		ands	r4, r4, r2
  57 0010 A4B2     		uxth	r4, r4
ARM GAS  /tmp/ccV6xoTv.s 			page 2


  58              	.LVL2:
  59              		.loc 1 117 0
  60 0012 E1B2     		uxtb	r1, r4
  61              		.loc 1 118 0
  62 0014 04F00200 		and	r0, r4, #2
  63              		.loc 1 117 0
  64 0018 C943     		mvns	r1, r1
  65              		.loc 1 118 0
  66 001a 82B2     		uxth	r2, r0
  67              		.loc 1 117 0
  68 001c 1961     		str	r1, [r3, #16]
  69              		.loc 1 118 0
  70 001e 002A     		cmp	r2, #0
  71 0020 27D1     		bne	.L23
  72              	.L2:
  73              		.loc 1 120 0
  74 0022 04F00400 		and	r0, r4, #4
  75 0026 82B2     		uxth	r2, r0
  76 0028 002A     		cmp	r2, #0
  77 002a 1DD1     		bne	.L24
  78              	.L3:
  79              		.loc 1 122 0
  80 002c 04F00800 		and	r0, r4, #8
  81 0030 82B2     		uxth	r2, r0
  82 0032 A2B9     		cbnz	r2, .L25
  83              	.L4:
  84              		.loc 1 124 0
  85 0034 04F01000 		and	r0, r4, #16
  86 0038 82B2     		uxth	r2, r0
  87 003a 5AB9     		cbnz	r2, .L26
  88              	.L5:
  89              		.loc 1 126 0
  90 003c E307     		lsls	r3, r4, #31
  91 003e 03D5     		bpl	.L6
  92              		.loc 1 127 0
  93 0040 6A68     		ldr	r2, [r5, #4]
  94 0042 0E48     		ldr	r0, .L27
  95 0044 9368     		ldr	r3, [r2, #8]
  96 0046 9847     		blx	r3
  97              	.LVL3:
  98              	.L6:
  99              	.LBE6:
 100              	.LBE8:
 101              		.loc 1 222 0
 102 0048 FFF7FEFF 		bl	dbg_check_leave_isr
 103              	.LVL4:
 104              		.loc 1 223 0
 105 004c BDE83840 		pop	{r3, r4, r5, lr}
 106              		.loc 1 222 0
 107 0050 FFF7FEBF 		b	_port_irq_epilogue
 108              	.LVL5:
 109              	.L26:
 110              	.LBB9:
 111              	.LBB7:
 112              		.loc 1 125 0
 113 0054 6B68     		ldr	r3, [r5, #4]
 114 0056 0948     		ldr	r0, .L27
ARM GAS  /tmp/ccV6xoTv.s 			page 3


 115 0058 996A     		ldr	r1, [r3, #40]
 116 005a 8847     		blx	r1
 117              	.LVL6:
 118 005c EEE7     		b	.L5
 119              	.L25:
 120              		.loc 1 123 0
 121 005e 6B68     		ldr	r3, [r5, #4]
 122 0060 0648     		ldr	r0, .L27
 123 0062 196A     		ldr	r1, [r3, #32]
 124 0064 8847     		blx	r1
 125              	.LVL7:
 126 0066 E5E7     		b	.L4
 127              	.L24:
 128              		.loc 1 121 0
 129 0068 6B68     		ldr	r3, [r5, #4]
 130 006a 0448     		ldr	r0, .L27
 131 006c 9969     		ldr	r1, [r3, #24]
 132 006e 8847     		blx	r1
 133              	.LVL8:
 134 0070 DCE7     		b	.L3
 135              	.L23:
 136              		.loc 1 119 0
 137 0072 6B68     		ldr	r3, [r5, #4]
 138 0074 2846     		mov	r0, r5
 139 0076 1969     		ldr	r1, [r3, #16]
 140 0078 8847     		blx	r1
 141              	.LVL9:
 142 007a D2E7     		b	.L2
 143              	.L28:
 144              		.align	2
 145              	.L27:
 146 007c 00000000 		.word	.LANCHOR0
 147              	.LBE7:
 148              	.LBE9:
 149              		.cfi_endproc
 150              	.LFE64:
 151              		.size	VectorB4, .-VectorB4
 152              		.section	.text.pwm_lld_init,"ax",%progbits
 153              		.align	2
 154              		.p2align 4,,15
 155              		.global	pwm_lld_init
 156              		.thumb
 157              		.thumb_func
 158              		.type	pwm_lld_init, %function
 159              	pwm_lld_init:
 160              	.LFB65:
 161              		.loc 1 345 0
 162              		.cfi_startproc
 163              		@ args = 0, pretend = 0, frame = 0
 164              		@ frame_needed = 0, uses_anonymous_args = 0
 165 0000 10B5     		push	{r4, lr}
 166              	.LCFI1:
 167              		.cfi_def_cfa_offset 8
 168              		.cfi_offset 4, -8
 169              		.cfi_offset 14, -4
 170              		.loc 1 361 0
 171 0002 40F20004 		movw	r4, #:lower16:.LANCHOR0
ARM GAS  /tmp/ccV6xoTv.s 			page 4


 172 0006 C0F20004 		movt	r4, #:upper16:.LANCHOR0
 173 000a 2046     		mov	r0, r4
 174 000c FFF7FEFF 		bl	pwmObjectInit
 175              	.LVL10:
 176              		.loc 1 362 0
 177 0010 4FF48063 		mov	r3, #1024
 178 0014 C4F20003 		movt	r3, 16384
 179 0018 2361     		str	r3, [r4, #16]
 180 001a 10BD     		pop	{r4, pc}
 181              		.cfi_endproc
 182              	.LFE65:
 183              		.size	pwm_lld_init, .-pwm_lld_init
 184 001c AFF30080 		.section	.text.pwm_lld_start,"ax",%progbits
 185              		.align	2
 186              		.p2align 4,,15
 187              		.global	pwm_lld_start
 188              		.thumb
 189              		.thumb_func
 190              		.type	pwm_lld_start, %function
 191              	pwm_lld_start:
 192              	.LFB66:
 193              		.loc 1 399 0
 194              		.cfi_startproc
 195              		@ args = 0, pretend = 0, frame = 0
 196              		@ frame_needed = 0, uses_anonymous_args = 0
 197              	.LVL11:
 198              		.loc 1 403 0
 199 0000 0378     		ldrb	r3, [r0, #0]	@ zero_extendqisi2
 200              		.loc 1 399 0
 201 0002 70B5     		push	{r4, r5, r6, lr}
 202              	.LCFI2:
 203              		.cfi_def_cfa_offset 16
 204              		.cfi_offset 4, -16
 205              		.cfi_offset 5, -12
 206              		.cfi_offset 6, -8
 207              		.cfi_offset 14, -4
 208              		.loc 1 403 0
 209 0004 012B     		cmp	r3, #1
 210              		.loc 1 399 0
 211 0006 0446     		mov	r4, r0
 212              		.loc 1 403 0
 213 0008 71D0     		beq	.L59
 214              		.loc 1 484 0
 215 000a 4268     		ldr	r2, [r0, #4]
 216              		.loc 1 483 0
 217 000c 0369     		ldr	r3, [r0, #16]
 218              		.loc 1 484 0
 219 000e 106B     		ldr	r0, [r2, #48]
 220              	.LVL12:
 221              		.loc 1 483 0
 222 0010 0021     		movs	r1, #0
 223              		.loc 1 484 0
 224 0012 20F0FF05 		bic	r5, r0, #255
 225              		.loc 1 483 0
 226 0016 1960     		str	r1, [r3, #0]
 227              		.loc 1 484 0
 228 0018 DD60     		str	r5, [r3, #12]
ARM GAS  /tmp/ccV6xoTv.s 			page 5


 229              		.loc 1 486 0
 230 001a 1961     		str	r1, [r3, #16]
 231              		.loc 1 487 0
 232 001c 5963     		str	r1, [r3, #52]
 233              		.loc 1 488 0
 234 001e 9963     		str	r1, [r3, #56]
 235              		.loc 1 489 0
 236 0020 D963     		str	r1, [r3, #60]
 237              		.loc 1 490 0
 238 0022 1964     		str	r1, [r3, #64]
 239              		.loc 1 491 0
 240 0024 5962     		str	r1, [r3, #36]
 241              	.L33:
 242              		.loc 1 495 0
 243 0026 E168     		ldr	r1, [r4, #12]
 244 0028 1668     		ldr	r6, [r2, #0]
 245 002a B1FBF6F0 		udiv	r0, r1, r6
 246 002e 451E     		subs	r5, r0, #1
 247              	.LVL13:
 248              		.loc 1 496 0
 249 0030 B5F5803F 		cmp	r5, #65536
 250 0034 03D2     		bcs	.L34
 251              		.loc 1 496 0 is_stmt 0 discriminator 2
 252 0036 06FB00F0 		mul	r0, r6, r0
 253 003a 8142     		cmp	r1, r0
 254 003c 04D0     		beq	.L35
 255              	.L34:
 256              		.loc 1 496 0 discriminator 1
 257 003e 3E48     		ldr	r0, .L67
 258 0040 FFF7FEFF 		bl	chDbgPanic
 259              	.LVL14:
 260 0044 6268     		ldr	r2, [r4, #4]
 261 0046 2369     		ldr	r3, [r4, #16]
 262              	.L35:
 263              		.loc 1 500 0 is_stmt 1
 264 0048 2489     		ldrh	r4, [r4, #8]
 265              	.LVL15:
 266              		.loc 1 505 0
 267 004a D168     		ldr	r1, [r2, #12]
 268              		.loc 1 501 0
 269 004c D06A     		ldr	r0, [r2, #44]
 270              		.loc 1 500 0
 271 004e 013C     		subs	r4, r4, #1
 272              		.loc 1 505 0
 273 0050 01F00F01 		and	r1, r1, #15
 274              		.loc 1 499 0
 275 0054 ADB2     		uxth	r5, r5
 276              	.LVL16:
 277              		.loc 1 500 0
 278 0056 A4B2     		uxth	r4, r4
 279              		.loc 1 505 0
 280 0058 0129     		cmp	r1, #1
 281              		.loc 1 499 0
 282 005a 9D62     		str	r5, [r3, #40]
 283              		.loc 1 500 0
 284 005c DC62     		str	r4, [r3, #44]
 285              		.loc 1 501 0
ARM GAS  /tmp/ccV6xoTv.s 			page 6


 286 005e 5860     		str	r0, [r3, #4]
 287              	.LVL17:
 288              		.loc 1 505 0
 289 0060 03D0     		beq	.L36
 290              		.loc 1 504 0
 291 0062 0229     		cmp	r1, #2
 292 0064 0CBF     		ite	eq
 293 0066 0321     		moveq	r1, #3
 294 0068 0021     		movne	r1, #0
 295              	.L36:
 296              	.LVL18:
 297              		.loc 1 513 0
 298 006a 5069     		ldr	r0, [r2, #20]
 299 006c 00F00F00 		and	r0, r0, #15
 300 0070 0128     		cmp	r0, #1
 301 0072 21D0     		beq	.L40
 302 0074 0228     		cmp	r0, #2
 303 0076 1DD0     		beq	.L60
 304              		.loc 1 521 0
 305 0078 D069     		ldr	r0, [r2, #28]
 306 007a 00F00F00 		and	r0, r0, #15
 307 007e 0128     		cmp	r0, #1
 308 0080 21D0     		beq	.L43
 309              	.LVL19:
 310              	.L63:
 311 0082 0228     		cmp	r0, #2
 312 0084 2ED0     		beq	.L61
 313              	.LVL20:
 314              		.loc 1 529 0
 315 0086 506A     		ldr	r0, [r2, #36]
 316 0088 00F00F00 		and	r0, r0, #15
 317 008c 0128     		cmp	r0, #1
 318 008e 21D0     		beq	.L46
 319              	.LVL21:
 320              	.L64:
 321 0090 0228     		cmp	r0, #2
 322 0092 22D0     		beq	.L62
 323              	.L45:
 324              	.LVL22:
 325              		.loc 1 575 0
 326 0094 0120     		movs	r0, #1
 327              		.loc 1 574 0
 328 0096 1962     		str	r1, [r3, #32]
 329              		.loc 1 575 0
 330 0098 5861     		str	r0, [r3, #20]
 331              		.loc 1 576 0
 332 009a D968     		ldr	r1, [r3, #12]
 333              	.LVL23:
 334 009c 9268     		ldr	r2, [r2, #8]
 335 009e 002A     		cmp	r2, #0
 336 00a0 0CBF     		ite	eq
 337 00a2 0846     		moveq	r0, r1
 338 00a4 41F00100 		orrne	r0, r1, #1
 339              		.loc 1 577 0
 340 00a8 0021     		movs	r1, #0
 341              		.loc 1 586 0
 342 00aa 8522     		movs	r2, #133
ARM GAS  /tmp/ccV6xoTv.s 			page 7


 343              		.loc 1 576 0
 344 00ac D860     		str	r0, [r3, #12]
 345              		.loc 1 577 0
 346 00ae 1961     		str	r1, [r3, #16]
 347              		.loc 1 586 0
 348 00b0 1A60     		str	r2, [r3, #0]
 349 00b2 70BD     		pop	{r4, r5, r6, pc}
 350              	.LVL24:
 351              	.L60:
 352              		.loc 1 515 0
 353 00b4 41F02001 		orr	r1, r1, #32
 354              	.LVL25:
 355              	.L40:
 356              		.loc 1 521 0
 357 00b8 D069     		ldr	r0, [r2, #28]
 358              		.loc 1 517 0
 359 00ba 41F01001 		orr	r1, r1, #16
 360              	.LVL26:
 361              		.loc 1 521 0
 362 00be 00F00F00 		and	r0, r0, #15
 363 00c2 0128     		cmp	r0, #1
 364 00c4 DDD1     		bne	.L63
 365              	.LVL27:
 366              	.L43:
 367              		.loc 1 525 0
 368 00c6 41F48071 		orr	r1, r1, #256
 369              	.LVL28:
 370              	.L65:
 371              		.loc 1 529 0
 372 00ca 506A     		ldr	r0, [r2, #36]
 373 00cc 00F00F00 		and	r0, r0, #15
 374 00d0 0128     		cmp	r0, #1
 375 00d2 DDD1     		bne	.L64
 376              	.LVL29:
 377              	.L46:
 378              		.loc 1 533 0
 379 00d4 41F48051 		orr	r1, r1, #4096
 380              	.LVL30:
 381 00d8 DCE7     		b	.L45
 382              	.LVL31:
 383              	.L62:
 384              		.loc 1 531 0
 385 00da 41F40051 		orr	r1, r1, #8192
 386              	.LVL32:
 387              		.loc 1 533 0
 388 00de 41F48051 		orr	r1, r1, #4096
 389              	.LVL33:
 390 00e2 D7E7     		b	.L45
 391              	.LVL34:
 392              	.L61:
 393              		.loc 1 523 0
 394 00e4 41F40071 		orr	r1, r1, #512
 395              	.LVL35:
 396              		.loc 1 525 0
 397 00e8 41F48071 		orr	r1, r1, #256
 398              	.LVL36:
 399 00ec EDE7     		b	.L65
ARM GAS  /tmp/ccV6xoTv.s 			page 8


 400              	.LVL37:
 401              	.L59:
 402              		.loc 1 426 0
 403 00ee 134A     		ldr	r2, .L67+4
 404 00f0 9042     		cmp	r0, r2
 405 00f2 08D0     		beq	.L66
 406              	.LVL38:
 407              	.L32:
 408              		.loc 1 476 0
 409 00f4 2369     		ldr	r3, [r4, #16]
 410 00f6 46F66800 		movw	r0, #26728
 411 00fa C0F20110 		movt	r0, 257
 412 00fe 9861     		str	r0, [r3, #24]
 413 0100 6268     		ldr	r2, [r4, #4]
 414              		.loc 1 478 0
 415 0102 D861     		str	r0, [r3, #28]
 416 0104 8FE7     		b	.L33
 417              	.LVL39:
 418              	.L66:
 419              		.loc 1 427 0
 420 0106 4FF48056 		mov	r6, #4096
 421 010a C4F20206 		movt	r6, 16386
 422 010e F369     		ldr	r3, [r6, #28]
 423              		.loc 1 428 0
 424 0110 0022     		movs	r2, #0
 425              		.loc 1 427 0
 426 0112 43F00200 		orr	r0, r3, #2
 427              	.LVL40:
 428 0116 F061     		str	r0, [r6, #28]
 429              		.loc 1 428 0
 430 0118 3169     		ldr	r1, [r6, #16]
 431              		.loc 1 429 0
 432 011a 1D20     		movs	r0, #29
 433              		.loc 1 428 0
 434 011c 41F00205 		orr	r5, r1, #2
 435 0120 3561     		str	r5, [r6, #16]
 436 0122 3261     		str	r2, [r6, #16]
 437              		.loc 1 431 0
 438 0124 4FF4A246 		mov	r6, #20736
 439              		.loc 1 429 0
 440 0128 7021     		movs	r1, #112
 441              		.loc 1 431 0
 442 012a C0F22526 		movt	r6, 549
 443              		.loc 1 429 0
 444 012e FFF7FEFF 		bl	nvicEnableVector
 445              	.LVL41:
 446              		.loc 1 431 0
 447 0132 E660     		str	r6, [r4, #12]
 448 0134 DEE7     		b	.L32
 449              	.L68:
 450 0136 00BF     		.align	2
 451              	.L67:
 452 0138 00000000 		.word	.LC0
 453 013c 00000000 		.word	.LANCHOR0
 454              		.cfi_endproc
 455              	.LFE66:
 456              		.size	pwm_lld_start, .-pwm_lld_start
ARM GAS  /tmp/ccV6xoTv.s 			page 9


 457              		.section	.text.pwm_lld_stop,"ax",%progbits
 458              		.align	2
 459              		.p2align 4,,15
 460              		.global	pwm_lld_stop
 461              		.thumb
 462              		.thumb_func
 463              		.type	pwm_lld_stop, %function
 464              	pwm_lld_stop:
 465              	.LFB67:
 466              		.loc 1 597 0
 467              		.cfi_startproc
 468              		@ args = 0, pretend = 0, frame = 0
 469              		@ frame_needed = 0, uses_anonymous_args = 0
 470              	.LVL42:
 471 0000 08B5     		push	{r3, lr}
 472              	.LCFI3:
 473              		.cfi_def_cfa_offset 8
 474              		.cfi_offset 3, -8
 475              		.cfi_offset 14, -4
 476              		.loc 1 600 0
 477 0002 0378     		ldrb	r3, [r0, #0]	@ zero_extendqisi2
 478 0004 022B     		cmp	r3, #2
 479 0006 00D0     		beq	.L73
 480              	.LVL43:
 481              	.L69:
 482 0008 08BD     		pop	{r3, pc}
 483              	.LVL44:
 484              	.L73:
 485              		.loc 1 622 0
 486 000a 0A4B     		ldr	r3, .L74
 487              		.loc 1 601 0
 488 000c 0169     		ldr	r1, [r0, #16]
 489 000e 0022     		movs	r2, #0
 490              		.loc 1 622 0
 491 0010 9842     		cmp	r0, r3
 492              		.loc 1 601 0
 493 0012 0A60     		str	r2, [r1, #0]
 494              		.loc 1 602 0
 495 0014 CA60     		str	r2, [r1, #12]
 496              		.loc 1 603 0
 497 0016 0A61     		str	r2, [r1, #16]
 498              		.loc 1 622 0
 499 0018 F6D1     		bne	.L69
 500              		.loc 1 623 0
 501 001a 1D20     		movs	r0, #29
 502              	.LVL45:
 503 001c FFF7FEFF 		bl	nvicDisableVector
 504              	.LVL46:
 505              		.loc 1 624 0
 506 0020 4FF48050 		mov	r0, #4096
 507 0024 C4F20200 		movt	r0, 16386
 508 0028 C169     		ldr	r1, [r0, #28]
 509 002a 21F00202 		bic	r2, r1, #2
 510 002e C261     		str	r2, [r0, #28]
 511 0030 EAE7     		b	.L69
 512              	.L75:
 513 0032 00BF     		.align	2
ARM GAS  /tmp/ccV6xoTv.s 			page 10


 514              	.L74:
 515 0034 00000000 		.word	.LANCHOR0
 516              		.cfi_endproc
 517              	.LFE67:
 518              		.size	pwm_lld_stop, .-pwm_lld_stop
 519 0038 AFF30080 		.section	.text.pwm_lld_enable_channel,"ax",%progbits
 519      AFF30080 
 520              		.align	2
 521              		.p2align 4,,15
 522              		.global	pwm_lld_enable_channel
 523              		.thumb
 524              		.thumb_func
 525              		.type	pwm_lld_enable_channel, %function
 526              	pwm_lld_enable_channel:
 527              	.LFB68:
 528              		.loc 1 669 0
 529              		.cfi_startproc
 530              		@ args = 0, pretend = 0, frame = 0
 531              		@ frame_needed = 0, uses_anonymous_args = 0
 532              		@ link register save eliminated.
 533              	.LVL47:
 534 0000 30B4     		push	{r4, r5}
 535              	.LCFI4:
 536              		.cfi_def_cfa_offset 8
 537              		.cfi_offset 4, -8
 538              		.cfi_offset 5, -4
 539              		.loc 1 674 0
 540 0002 4468     		ldr	r4, [r0, #4]
 541              		.loc 1 671 0
 542 0004 0369     		ldr	r3, [r0, #16]
 543              		.loc 1 674 0
 544 0006 04EBC104 		add	r4, r4, r1, lsl #3
 545              		.loc 1 671 0
 546 000a 01F10C05 		add	r5, r1, #12
 547              		.loc 1 674 0
 548 000e 2069     		ldr	r0, [r4, #16]
 549              	.LVL48:
 550              		.loc 1 671 0
 551 0010 03EB8505 		add	r5, r3, r5, lsl #2
 552 0014 6A60     		str	r2, [r5, #4]
 553              		.loc 1 674 0
 554 0016 50B1     		cbz	r0, .L76
 555              	.LBB10:
 556              		.loc 1 678 0
 557 0018 0222     		movs	r2, #2
 558              	.LVL49:
 559 001a 02FA01F1 		lsl	r1, r2, r1
 560              	.LVL50:
 561              		.loc 1 675 0
 562 001e D868     		ldr	r0, [r3, #12]
 563              	.LVL51:
 564              		.loc 1 678 0
 565 0020 0142     		tst	r1, r0
 566 0022 04D1     		bne	.L76
 567              		.loc 1 679 0
 568 0024 41EA0002 		orr	r2, r1, r0
 569              		.loc 1 680 0
ARM GAS  /tmp/ccV6xoTv.s 			page 11


 570 0028 C943     		mvns	r1, r1
 571              		.loc 1 679 0
 572 002a DA60     		str	r2, [r3, #12]
 573              		.loc 1 680 0
 574 002c 1961     		str	r1, [r3, #16]
 575              	.LVL52:
 576              	.L76:
 577              	.LBE10:
 578              		.loc 1 683 0
 579 002e 30BC     		pop	{r4, r5}
 580 0030 7047     		bx	lr
 581              		.cfi_endproc
 582              	.LFE68:
 583              		.size	pwm_lld_enable_channel, .-pwm_lld_enable_channel
 584 0032 00BFAFF3 		.section	.text.pwm_lld_disable_channel,"ax",%progbits
 584      0080AFF3 
 584      0080AFF3 
 584      0080
 585              		.align	2
 586              		.p2align 4,,15
 587              		.global	pwm_lld_disable_channel
 588              		.thumb
 589              		.thumb_func
 590              		.type	pwm_lld_disable_channel, %function
 591              	pwm_lld_disable_channel:
 592              	.LFB69:
 593              		.loc 1 697 0
 594              		.cfi_startproc
 595              		@ args = 0, pretend = 0, frame = 0
 596              		@ frame_needed = 0, uses_anonymous_args = 0
 597              		@ link register save eliminated.
 598              	.LVL53:
 599              		.loc 1 700 0
 600 0000 0222     		movs	r2, #2
 601 0002 02FA01F2 		lsl	r2, r2, r1
 602              		.loc 1 699 0
 603 0006 0369     		ldr	r3, [r0, #16]
 604 0008 0C31     		adds	r1, r1, #12
 605              	.LVL54:
 606 000a 03EB8101 		add	r1, r3, r1, lsl #2
 607 000e 0020     		movs	r0, #0
 608              	.LVL55:
 609 0010 4860     		str	r0, [r1, #4]
 610              		.loc 1 700 0
 611 0012 D968     		ldr	r1, [r3, #12]
 612 0014 21EA0202 		bic	r2, r1, r2
 613 0018 DA60     		str	r2, [r3, #12]
 614 001a 7047     		bx	lr
 615              		.cfi_endproc
 616              	.LFE69:
 617              		.size	pwm_lld_disable_channel, .-pwm_lld_disable_channel
 618              		.global	PWMD3
 619 001c AFF30080 		.section	.bss.PWMD3,"aw",%nobits
 620              		.align	2
 621              		.set	.LANCHOR0,. + 0
 622              		.type	PWMD3, %object
 623              		.size	PWMD3, 20
ARM GAS  /tmp/ccV6xoTv.s 			page 12


 624              	PWMD3:
 625 0000 00000000 		.space	20
 625      00000000 
 625      00000000 
 625      00000000 
 625      00000000 
 626              		.section	.rodata.str1.4,"aMS",%progbits,1
 627              		.align	2
 628              	.LC0:
 629 0000 70776D5F 		.ascii	"pwm_lld_start(), #1\000"
 629      6C6C645F 
 629      73746172 
 629      7428292C 
 629      20233100 
 630              		.text
 631              	.Letext0:
 632              		.file 2 "/usr/bin/../lib/gcc/arm-none-eabi/4.7.4/../../../../arm-none-eabi/include/stdint.h"
 633              		.file 3 "../../os/hal/platforms/STM32F1xx/stm32f10x.h"
 634              		.file 4 "../../os/hal/include/pwm.h"
 635              		.file 5 "../../os/hal/platforms/STM32/TIMv1/pwm_lld.h"
 636              		.file 6 "../../os/hal/platforms/STM32/TIMv1/stm32_tim.h"
 637              		.file 7 "../../os/ports/common/ARMCMx/CMSIS/include/core_cm3.h"
 638              		.file 8 "../../os/kernel/include/chdebug.h"
 639              		.file 9 "../../os/ports/GCC/ARMCMx/chcore_v7m.h"
 640              		.file 10 "../../os/ports/common/ARMCMx/nvic.h"