ARM GAS  /tmp/cccJqtMK.s 			page 1


   1              		.syntax unified
   2              		.cpu cortex-m3
   3              		.fpu softvfp
   4              		.eabi_attribute 20, 1
   5              		.eabi_attribute 21, 1
   6              		.eabi_attribute 23, 3
   7              		.eabi_attribute 24, 1
   8              		.eabi_attribute 25, 1
   9              		.eabi_attribute 26, 1
  10              		.eabi_attribute 30, 2
  11              		.eabi_attribute 34, 1
  12              		.eabi_attribute 18, 4
  13              		.thumb
  14              		.file	"shell.c"
  15              		.text
  16              	.Ltext0:
  17              		.cfi_sections	.debug_frame
  18              		.section	.text._strtok.constprop.2,"ax",%progbits
  19              		.align	2
  20              		.p2align 4,,15
  21              		.thumb
  22              		.thumb_func
  23              		.type	_strtok.constprop.2, %function
  24              	_strtok.constprop.2:
  25              	.LFB77:
  26              		.file 1 "../../os/various/shell.c"
  27              		.loc 1 37 0
  28              		.cfi_startproc
  29              		@ args = 0, pretend = 0, frame = 0
  30              		@ frame_needed = 0, uses_anonymous_args = 0
  31              	.LVL0:
  32 0000 38B5     		push	{r3, r4, r5, lr}
  33              	.LCFI0:
  34              		.cfi_def_cfa_offset 16
  35              		.cfi_offset 3, -16
  36              		.cfi_offset 4, -12
  37              		.cfi_offset 5, -8
  38              		.cfi_offset 14, -4
  39              		.loc 1 39 0
  40 0002 0446     		mov	r4, r0
  41              		.loc 1 37 0
  42 0004 0D46     		mov	r5, r1
  43              		.loc 1 39 0
  44 0006 98B1     		cbz	r0, .L2
  45              		.loc 1 40 0
  46 0008 2860     		str	r0, [r5, #0]
  47              	.LVL1:
  48              	.L3:
  49              		.loc 1 46 0
  50 000a 0C49     		ldr	r1, .L14
  51              	.LVL2:
  52 000c 2046     		mov	r0, r4
  53              	.LVL3:
  54 000e FFF7FEFF 		bl	strspn
  55              	.LVL4:
  56 0012 2418     		adds	r4, r4, r0
  57              	.LVL5:
ARM GAS  /tmp/cccJqtMK.s 			page 2


  58              		.loc 1 47 0
  59 0014 2046     		mov	r0, r4
  60 0016 0949     		ldr	r1, .L14
  61 0018 FFF7FEFF 		bl	strpbrk
  62              	.LVL6:
  63 001c 2860     		str	r0, [r5, #0]
  64              		.loc 1 48 0
  65 001e 18B1     		cbz	r0, .L5
  66              		.loc 1 49 0
  67 0020 0023     		movs	r3, #0
  68 0022 00F8013B 		strb	r3, [r0], #1
  69 0026 2860     		str	r0, [r5, #0]
  70              	.L5:
  71              		.loc 1 51 0
  72 0028 2078     		ldrb	r0, [r4, #0]	@ zero_extendqisi2
  73 002a 20B1     		cbz	r0, .L6
  74              		.loc 1 52 0
  75 002c 2046     		mov	r0, r4
  76 002e 38BD     		pop	{r3, r4, r5, pc}
  77              	.LVL7:
  78              	.L2:
  79              		.loc 1 41 0
  80 0030 0C68     		ldr	r4, [r1, #0]
  81              	.LVL8:
  82              		.loc 1 43 0
  83 0032 002C     		cmp	r4, #0
  84 0034 E9D1     		bne	.L3
  85              	.LVL9:
  86              	.L6:
  87              		.loc 1 44 0
  88 0036 0024     		movs	r4, #0
  89              	.LVL10:
  90              		.loc 1 52 0
  91 0038 2046     		mov	r0, r4
  92 003a 38BD     		pop	{r3, r4, r5, pc}
  93              	.L15:
  94              		.align	2
  95              	.L14:
  96 003c 00000000 		.word	.LC0
  97              		.cfi_endproc
  98              	.LFE77:
  99              		.size	_strtok.constprop.2, .-_strtok.constprop.2
 100              		.section	.text.cmd_systime,"ax",%progbits
 101              		.align	2
 102              		.p2align 4,,15
 103              		.thumb
 104              		.thumb_func
 105              		.type	cmd_systime, %function
 106              	cmd_systime:
 107              	.LFB67:
 108              		.loc 1 99 0
 109              		.cfi_startproc
 110              		@ args = 0, pretend = 0, frame = 0
 111              		@ frame_needed = 0, uses_anonymous_args = 0
 112              		@ link register save eliminated.
 113              	.LVL11:
 114              		.loc 1 102 0
ARM GAS  /tmp/cccJqtMK.s 			page 3


 115 0000 0029     		cmp	r1, #0
 116 0002 03DD     		ble	.L17
 117              	.LVL12:
 118              	.LBB6:
 119              	.LBB7:
 120              		.loc 1 56 0
 121 0004 0449     		ldr	r1, .L18
 122              	.LVL13:
 123 0006 054A     		ldr	r2, .L18+4
 124              	.LVL14:
 125              	.LBE7:
 126              	.LBE6:
 127              		.loc 1 107 0
 128              	.LBB9:
 129              	.LBB8:
 130              		.loc 1 56 0
 131 0008 FFF7FEBF 		b	chprintf
 132              	.LVL15:
 133              	.L17:
 134              	.LBE8:
 135              	.LBE9:
 136              	.LBB10:
 137              	.LBB11:
 138              		.loc 1 106 0
 139 000c 044B     		ldr	r3, .L18+8
 140 000e 0549     		ldr	r1, .L18+12
 141              	.LVL16:
 142 0010 DA68     		ldr	r2, [r3, #12]
 143              	.LVL17:
 144              	.LBE11:
 145              	.LBE10:
 146              		.loc 1 107 0
 147              	.LBB13:
 148              	.LBB12:
 149              		.loc 1 106 0
 150 0012 FFF7FEBF 		b	chprintf
 151              	.LVL18:
 152              	.L19:
 153 0016 00BF     		.align	2
 154              	.L18:
 155 0018 04000000 		.word	.LC1
 156 001c 10000000 		.word	.LC2
 157 0020 00000000 		.word	vtlist
 158 0024 18000000 		.word	.LC3
 159              	.LBE12:
 160              	.LBE13:
 161              		.cfi_endproc
 162              	.LFE67:
 163              		.size	cmd_systime, .-cmd_systime
 164 0028 AFF30080 		.section	.text.cmd_info,"ax",%progbits
 164      AFF30080 
 165              		.align	2
 166              		.p2align 4,,15
 167              		.thumb
 168              		.thumb_func
 169              		.type	cmd_info, %function
 170              	cmd_info:
ARM GAS  /tmp/cccJqtMK.s 			page 4


 171              	.LFB66:
 172              		.loc 1 67 0
 173              		.cfi_startproc
 174              		@ args = 0, pretend = 0, frame = 0
 175              		@ frame_needed = 0, uses_anonymous_args = 0
 176              	.LVL19:
 177 0000 10B5     		push	{r4, lr}
 178              	.LCFI1:
 179              		.cfi_def_cfa_offset 8
 180              		.cfi_offset 4, -8
 181              		.cfi_offset 14, -4
 182              		.loc 1 70 0
 183 0002 0029     		cmp	r1, #0
 184              		.loc 1 67 0
 185 0004 82B0     		sub	sp, sp, #8
 186              	.LCFI2:
 187              		.cfi_def_cfa_offset 16
 188              		.loc 1 67 0
 189 0006 0446     		mov	r4, r0
 190              		.loc 1 70 0
 191 0008 06DD     		ble	.L21
 192              	.LVL20:
 193              	.LBB18:
 194              	.LBB19:
 195              		.loc 1 56 0
 196 000a 1949     		ldr	r1, .L22
 197              	.LVL21:
 198 000c 194A     		ldr	r2, .L22+4
 199              	.LVL22:
 200              	.LBE19:
 201              	.LBE18:
 202              		.loc 1 97 0
 203 000e 02B0     		add	sp, sp, #8
 204 0010 BDE81040 		pop	{r4, lr}
 205              	.LBB21:
 206              	.LBB20:
 207              		.loc 1 56 0
 208 0014 FFF7FEBF 		b	chprintf
 209              	.LVL23:
 210              	.L21:
 211              	.LBE20:
 212              	.LBE21:
 213              	.LBB22:
 214              	.LBB23:
 215              		.loc 1 75 0
 216 0018 1749     		ldr	r1, .L22+8
 217              	.LVL24:
 218 001a 184A     		ldr	r2, .L22+12
 219              	.LVL25:
 220 001c FFF7FEFF 		bl	chprintf
 221              	.LVL26:
 222              		.loc 1 77 0
 223 0020 2046     		mov	r0, r4
 224 0022 1749     		ldr	r1, .L22+16
 225 0024 174A     		ldr	r2, .L22+20
 226 0026 FFF7FEFF 		bl	chprintf
 227              	.LVL27:
ARM GAS  /tmp/cccJqtMK.s 			page 5


 228              		.loc 1 79 0
 229 002a 2046     		mov	r0, r4
 230 002c 1649     		ldr	r1, .L22+24
 231 002e 174A     		ldr	r2, .L22+28
 232 0030 FFF7FEFF 		bl	chprintf
 233              	.LVL28:
 234              		.loc 1 81 0
 235 0034 2046     		mov	r0, r4
 236 0036 1649     		ldr	r1, .L22+32
 237 0038 164A     		ldr	r2, .L22+36
 238 003a FFF7FEFF 		bl	chprintf
 239              	.LVL29:
 240              		.loc 1 84 0
 241 003e 2046     		mov	r0, r4
 242 0040 1549     		ldr	r1, .L22+40
 243 0042 164A     		ldr	r2, .L22+44
 244 0044 FFF7FEFF 		bl	chprintf
 245              	.LVL30:
 246              		.loc 1 87 0
 247 0048 2046     		mov	r0, r4
 248 004a 1549     		ldr	r1, .L22+48
 249 004c 154A     		ldr	r2, .L22+52
 250 004e FFF7FEFF 		bl	chprintf
 251              	.LVL31:
 252              		.loc 1 90 0
 253 0052 2046     		mov	r0, r4
 254 0054 1449     		ldr	r1, .L22+56
 255 0056 154A     		ldr	r2, .L22+60
 256 0058 FFF7FEFF 		bl	chprintf
 257              	.LVL32:
 258              		.loc 1 94 0
 259 005c 144B     		ldr	r3, .L22+64
 260 005e 2046     		mov	r0, r4
 261 0060 0093     		str	r3, [sp, #0]
 262 0062 1449     		ldr	r1, .L22+68
 263 0064 144A     		ldr	r2, .L22+72
 264 0066 154B     		ldr	r3, .L22+76
 265 0068 FFF7FEFF 		bl	chprintf
 266              	.LVL33:
 267              	.LBE23:
 268              	.LBE22:
 269              		.loc 1 97 0
 270 006c 02B0     		add	sp, sp, #8
 271 006e 10BD     		pop	{r4, pc}
 272              	.L23:
 273              		.align	2
 274              	.L22:
 275 0070 04000000 		.word	.LC1
 276 0074 20000000 		.word	.LC4
 277 0078 28000000 		.word	.LC5
 278 007c 3C000000 		.word	.LC6
 279 0080 4C000000 		.word	.LC7
 280 0084 60000000 		.word	.LC8
 281 0088 A8000000 		.word	.LC9
 282 008c BC000000 		.word	.LC10
 283 0090 C4000000 		.word	.LC11
 284 0094 D8000000 		.word	.LC12
ARM GAS  /tmp/cccJqtMK.s 			page 6


 285 0098 E4000000 		.word	.LC13
 286 009c F8000000 		.word	.LC14
 287 00a0 10010000 		.word	.LC15
 288 00a4 24010000 		.word	.LC16
 289 00a8 40010000 		.word	.LC17
 290 00ac 54010000 		.word	.LC18
 291 00b0 94010000 		.word	.LC22
 292 00b4 6C010000 		.word	.LC19
 293 00b8 84010000 		.word	.LC20
 294 00bc 90010000 		.word	.LC21
 295              		.cfi_endproc
 296              	.LFE66:
 297              		.size	cmd_info, .-cmd_info
 298              		.section	.text.shellInit,"ax",%progbits
 299              		.align	2
 300              		.p2align 4,,15
 301              		.global	shellInit
 302              		.thumb
 303              		.thumb_func
 304              		.type	shellInit, %function
 305              	shellInit:
 306              	.LFB70:
 307              		.loc 1 204 0
 308              		.cfi_startproc
 309              		@ args = 0, pretend = 0, frame = 0
 310              		@ frame_needed = 0, uses_anonymous_args = 0
 311              		@ link register save eliminated.
 312              		.loc 1 206 0
 313 0000 40F20003 		movw	r3, #:lower16:.LANCHOR0
 314 0004 C0F20003 		movt	r3, #:upper16:.LANCHOR0
 315 0008 1B60     		str	r3, [r3, #0]
 316 000a 7047     		bx	lr
 317              		.cfi_endproc
 318              	.LFE70:
 319              		.size	shellInit, .-shellInit
 320 000c AFF30080 		.section	.text.shellExit,"ax",%progbits
 321              		.align	2
 322              		.p2align 4,,15
 323              		.global	shellExit
 324              		.thumb
 325              		.thumb_func
 326              		.type	shellExit, %function
 327              	shellExit:
 328              	.LFB71:
 329              		.loc 1 218 0
 330              		.cfi_startproc
 331              		@ args = 0, pretend = 0, frame = 0
 332              		@ frame_needed = 0, uses_anonymous_args = 0
 333              	.LVL34:
 334 0000 10B5     		push	{r4, lr}
 335              	.LCFI3:
 336              		.cfi_def_cfa_offset 8
 337              		.cfi_offset 4, -8
 338              		.cfi_offset 14, -4
 339              	.LBB24:
 340              		.loc 1 222 0
 341 0002 2023     		movs	r3, #32
ARM GAS  /tmp/cccJqtMK.s 			page 7


 342              	.LVL35:
 343              	.LBE24:
 344              		.loc 1 218 0
 345 0004 0446     		mov	r4, r0
 346              	.LBB25:
 347              		.loc 1 222 0
 348              	@ 222 "../../os/various/shell.c" 1
 349 0006 83F31188 		msr     BASEPRI, r3
 350              	@ 0 "" 2
 351              	.LVL36:
 352              		.thumb
 353              	.LBE25:
 354 000a FFF7FEFF 		bl	dbg_check_lock
 355              	.LVL37:
 356              		.loc 1 223 0
 357 000e 40F20000 		movw	r0, #:lower16:.LANCHOR0
 358 0012 C0F20000 		movt	r0, #:upper16:.LANCHOR0
 359 0016 0021     		movs	r1, #0
 360 0018 FFF7FEFF 		bl	chEvtBroadcastFlagsI
 361              	.LVL38:
 362              		.loc 1 224 0
 363 001c 2046     		mov	r0, r4
 364              		.loc 1 225 0
 365 001e BDE81040 		pop	{r4, lr}
 366              		.loc 1 224 0
 367 0022 FFF7FEBF 		b	chThdExitS
 368              	.LVL39:
 369              		.cfi_endproc
 370              	.LFE71:
 371              		.size	shellExit, .-shellExit
 372 0026 00BFAFF3 		.section	.text.shellCreate,"ax",%progbits
 372      0080AFF3 
 372      0080
 373              		.align	2
 374              		.p2align 4,,15
 375              		.global	shellCreate
 376              		.thumb
 377              		.thumb_func
 378              		.type	shellCreate, %function
 379              	shellCreate:
 380              	.LFB72:
 381              		.loc 1 240 0
 382              		.cfi_startproc
 383              		@ args = 0, pretend = 0, frame = 0
 384              		@ frame_needed = 0, uses_anonymous_args = 0
 385              	.LVL40:
 386 0000 00B5     		push	{lr}
 387              	.LCFI4:
 388              		.cfi_def_cfa_offset 4
 389              		.cfi_offset 14, -4
 390              		.loc 1 242 0
 391 0002 40F20003 		movw	r3, #:lower16:shell_thread
 392              		.loc 1 240 0
 393 0006 83B0     		sub	sp, sp, #12
 394              	.LCFI5:
 395              		.cfi_def_cfa_offset 16
 396              		.loc 1 242 0
ARM GAS  /tmp/cccJqtMK.s 			page 8


 397 0008 0090     		str	r0, [sp, #0]
 398 000a C0F20003 		movt	r3, #:upper16:shell_thread
 399 000e 0020     		movs	r0, #0
 400              	.LVL41:
 401 0010 FFF7FEFF 		bl	chThdCreateFromHeap
 402              	.LVL42:
 403              		.loc 1 243 0
 404 0014 03B0     		add	sp, sp, #12
 405 0016 00BD     		pop	{pc}
 406              		.cfi_endproc
 407              	.LFE72:
 408              		.size	shellCreate, .-shellCreate
 409 0018 AFF30080 		.section	.text.shellCreateStatic,"ax",%progbits
 409      AFF30080 
 410              		.align	2
 411              		.p2align 4,,15
 412              		.global	shellCreateStatic
 413              		.thumb
 414              		.thumb_func
 415              		.type	shellCreateStatic, %function
 416              	shellCreateStatic:
 417              	.LFB73:
 418              		.loc 1 258 0
 419              		.cfi_startproc
 420              		@ args = 0, pretend = 0, frame = 0
 421              		@ frame_needed = 0, uses_anonymous_args = 0
 422              	.LVL43:
 423 0000 00B5     		push	{lr}
 424              	.LCFI6:
 425              		.cfi_def_cfa_offset 4
 426              		.cfi_offset 14, -4
 427 0002 83B0     		sub	sp, sp, #12
 428              	.LCFI7:
 429              		.cfi_def_cfa_offset 16
 430              		.loc 1 260 0
 431 0004 0090     		str	r0, [sp, #0]
 432 0006 0846     		mov	r0, r1
 433              	.LVL44:
 434 0008 1146     		mov	r1, r2
 435              	.LVL45:
 436 000a 1A46     		mov	r2, r3
 437              	.LVL46:
 438 000c 40F20003 		movw	r3, #:lower16:shell_thread
 439              	.LVL47:
 440 0010 C0F20003 		movt	r3, #:upper16:shell_thread
 441 0014 FFF7FEFF 		bl	chThdCreateStatic
 442              	.LVL48:
 443              		.loc 1 261 0
 444 0018 03B0     		add	sp, sp, #12
 445 001a 00BD     		pop	{pc}
 446              		.cfi_endproc
 447              	.LFE73:
 448              		.size	shellCreateStatic, .-shellCreateStatic
 449 001c AFF30080 		.section	.text.shellGetLine,"ax",%progbits
 450              		.align	2
 451              		.p2align 4,,15
 452              		.global	shellGetLine
ARM GAS  /tmp/cccJqtMK.s 			page 9


 453              		.thumb
 454              		.thumb_func
 455              		.type	shellGetLine, %function
 456              	shellGetLine:
 457              	.LFB74:
 458              		.loc 1 275 0
 459              		.cfi_startproc
 460              		@ args = 0, pretend = 0, frame = 8
 461              		@ frame_needed = 0, uses_anonymous_args = 0
 462              	.LVL49:
 463 0000 F0B5     		push	{r4, r5, r6, r7, lr}
 464              	.LCFI8:
 465              		.cfi_def_cfa_offset 20
 466              		.cfi_offset 4, -20
 467              		.cfi_offset 5, -16
 468              		.cfi_offset 6, -12
 469              		.cfi_offset 7, -8
 470              		.cfi_offset 14, -4
 471              	.LBB26:
 472              		.loc 1 303 0
 473 0002 013A     		subs	r2, r2, #1
 474              	.LVL50:
 475              	.LBE26:
 476              		.loc 1 275 0
 477 0004 83B0     		sub	sp, sp, #12
 478              	.LCFI9:
 479              		.cfi_def_cfa_offset 32
 480              		.loc 1 275 0
 481 0006 0E46     		mov	r6, r1
 482              	.LVL51:
 483 0008 0446     		mov	r4, r0
 484              		.loc 1 276 0
 485 000a 0D46     		mov	r5, r1
 486              	.LBB27:
 487              		.loc 1 303 0
 488 000c 8F18     		adds	r7, r1, r2
 489              	.LVL52:
 490              	.L40:
 491              		.loc 1 281 0
 492 000e 2368     		ldr	r3, [r4, #0]
 493 0010 0122     		movs	r2, #1
 494 0012 0DF10701 		add	r1, sp, #7
 495 0016 5B68     		ldr	r3, [r3, #4]
 496 0018 2046     		mov	r0, r4
 497 001a 9847     		blx	r3
 498              	.LVL53:
 499 001c 38B3     		cbz	r0, .L37
 500              		.loc 1 283 0
 501 001e 9DF80710 		ldrb	r1, [sp, #7]	@ zero_extendqisi2
 502 0022 0429     		cmp	r1, #4
 503 0024 26D0     		beq	.L41
 504              		.loc 1 287 0
 505 0026 0829     		cmp	r1, #8
 506 0028 0ED0     		beq	.L42
 507              		.loc 1 296 0
 508 002a 0D29     		cmp	r1, #13
 509 002c 28D0     		beq	.L43
ARM GAS  /tmp/cccJqtMK.s 			page 10


 510              		.loc 1 301 0
 511 002e 1F29     		cmp	r1, #31
 512 0030 EDD9     		bls	.L40
 513              		.loc 1 303 0
 514 0032 BD42     		cmp	r5, r7
 515 0034 EBD2     		bcs	.L40
 516              		.loc 1 304 0
 517 0036 2268     		ldr	r2, [r4, #0]
 518 0038 2046     		mov	r0, r4
 519 003a 9368     		ldr	r3, [r2, #8]
 520 003c 9847     		blx	r3
 521              	.LVL54:
 522              		.loc 1 305 0
 523 003e 9DF80700 		ldrb	r0, [sp, #7]	@ zero_extendqisi2
 524              	.LVL55:
 525 0042 05F8010B 		strb	r0, [r5], #1
 526              	.LVL56:
 527 0046 E2E7     		b	.L40
 528              	.LVL57:
 529              	.L42:
 530              		.loc 1 288 0
 531 0048 B542     		cmp	r5, r6
 532 004a E0D0     		beq	.L40
 533              		.loc 1 289 0
 534 004c 2268     		ldr	r2, [r4, #0]
 535 004e 2046     		mov	r0, r4
 536 0050 9368     		ldr	r3, [r2, #8]
 537 0052 9847     		blx	r3
 538              	.LVL58:
 539              		.loc 1 290 0
 540 0054 2068     		ldr	r0, [r4, #0]
 541 0056 2021     		movs	r1, #32
 542 0058 8268     		ldr	r2, [r0, #8]
 543 005a 2046     		mov	r0, r4
 544 005c 9047     		blx	r2
 545              	.LVL59:
 546              		.loc 1 291 0
 547 005e 2168     		ldr	r1, [r4, #0]
 548 0060 2046     		mov	r0, r4
 549 0062 8B68     		ldr	r3, [r1, #8]
 550 0064 9DF80710 		ldrb	r1, [sp, #7]	@ zero_extendqisi2
 551 0068 9847     		blx	r3
 552              	.LVL60:
 553              		.loc 1 292 0
 554 006a 013D     		subs	r5, r5, #1
 555              	.LVL61:
 556 006c CFE7     		b	.L40
 557              	.L37:
 558              		.loc 1 282 0
 559 006e 0120     		movs	r0, #1
 560              	.L30:
 561              	.LBE27:
 562              		.loc 1 308 0
 563 0070 03B0     		add	sp, sp, #12
 564 0072 F0BD     		pop	{r4, r5, r6, r7, pc}
 565              	.L41:
 566              	.LBB28:
ARM GAS  /tmp/cccJqtMK.s 			page 11


 567              		.loc 1 284 0
 568 0074 2046     		mov	r0, r4
 569 0076 0649     		ldr	r1, .L44
 570 0078 FFF7FEFF 		bl	chprintf
 571              	.LVL62:
 572              		.loc 1 285 0
 573 007c 0120     		movs	r0, #1
 574 007e F7E7     		b	.L30
 575              	.L43:
 576              		.loc 1 297 0
 577 0080 2046     		mov	r0, r4
 578 0082 0449     		ldr	r1, .L44+4
 579 0084 FFF7FEFF 		bl	chprintf
 580              	.LVL63:
 581              		.loc 1 298 0
 582 0088 0020     		movs	r0, #0
 583 008a 2870     		strb	r0, [r5, #0]
 584 008c F0E7     		b	.L30
 585              	.L45:
 586 008e 00BF     		.align	2
 587              	.L44:
 588 0090 A0010000 		.word	.LC23
 589 0094 A4010000 		.word	.LC24
 590              	.LBE28:
 591              		.cfi_endproc
 592              	.LFE74:
 593              		.size	shellGetLine, .-shellGetLine
 594 0098 AFF30080 		.section	.text.shell_thread,"ax",%progbits
 594      AFF30080 
 595              		.align	2
 596              		.p2align 4,,15
 597              		.thumb
 598              		.thumb_func
 599              		.type	shell_thread, %function
 600              	shell_thread:
 601              	.LFB69:
 602              		.loc 1 141 0
 603              		.cfi_startproc
 604              		@ args = 0, pretend = 0, frame = 88
 605              		@ frame_needed = 0, uses_anonymous_args = 0
 606              	.LVL64:
 607 0000 2DE9F043 		push	{r4, r5, r6, r7, r8, r9, lr}
 608              	.LCFI10:
 609              		.cfi_def_cfa_offset 28
 610              		.cfi_offset 4, -28
 611              		.cfi_offset 5, -24
 612              		.cfi_offset 6, -20
 613              		.cfi_offset 7, -16
 614              		.cfi_offset 8, -12
 615              		.cfi_offset 9, -8
 616              		.cfi_offset 14, -4
 617              		.loc 1 148 0
 618 0004 664B     		ldr	r3, .L100
 619              		.loc 1 143 0
 620 0006 0568     		ldr	r5, [r0, #0]
 621              	.LVL65:
 622              		.loc 1 148 0
ARM GAS  /tmp/cccJqtMK.s 			page 12


 623 0008 9969     		ldr	r1, [r3, #24]
 624 000a 664A     		ldr	r2, .L100+4
 625              		.loc 1 144 0
 626 000c 4768     		ldr	r7, [r0, #4]
 627              	.LVL66:
 628              		.loc 1 141 0
 629 000e 97B0     		sub	sp, sp, #92
 630              	.LCFI11:
 631              		.cfi_def_cfa_offset 120
 632              		.loc 1 148 0
 633 0010 8A61     		str	r2, [r1, #24]
 634              		.loc 1 149 0
 635 0012 2846     		mov	r0, r5
 636              	.LVL67:
 637 0014 6449     		ldr	r1, .L100+8
 638 0016 FFF7FEFF 		bl	chprintf
 639              	.LVL68:
 640              	.LBB41:
 641              	.LBB42:
 642              		.loc 1 61 0
 643 001a DFF8AC81 		ldr	r8, .L100+40
 644              	.L95:
 645              	.LBE42:
 646              	.LBE41:
 647              		.loc 1 151 0
 648 001e 2846     		mov	r0, r5
 649 0020 6249     		ldr	r1, .L100+12
 650 0022 FFF7FEFF 		bl	chprintf
 651              	.LVL69:
 652              		.loc 1 152 0
 653 0026 2846     		mov	r0, r5
 654 0028 06A9     		add	r1, sp, #24
 655 002a 4022     		movs	r2, #64
 656 002c FFF7FEFF 		bl	shellGetLine
 657              	.LVL70:
 658 0030 0446     		mov	r4, r0
 659 0032 0028     		cmp	r0, #0
 660 0034 30D1     		bne	.L98
 661              		.loc 1 156 0
 662 0036 6946     		mov	r1, sp
 663 0038 06A8     		add	r0, sp, #24
 664 003a FFF7FEFF 		bl	_strtok.constprop.2
 665              	.LVL71:
 666              		.loc 1 159 0
 667 003e 6946     		mov	r1, sp
 668              		.loc 1 156 0
 669 0040 0646     		mov	r6, r0
 670              	.LVL72:
 671              		.loc 1 159 0
 672 0042 2046     		mov	r0, r4
 673              	.LVL73:
 674 0044 FFF7FEFF 		bl	_strtok.constprop.2
 675              	.LVL74:
 676 0048 0346     		mov	r3, r0
 677 004a 0028     		cmp	r0, #0
 678 004c 2FD0     		beq	.L69
 679 004e 2046     		mov	r0, r4
ARM GAS  /tmp/cccJqtMK.s 			page 13


 680              	.LVL75:
 681 0050 6946     		mov	r1, sp
 682              		.loc 1 165 0
 683 0052 0193     		str	r3, [sp, #4]
 684              	.LVL76:
 685              		.loc 1 159 0
 686 0054 FFF7FEFF 		bl	_strtok.constprop.2
 687              	.LVL77:
 688 0058 0246     		mov	r2, r0
 689 005a 0028     		cmp	r0, #0
 690 005c 49D0     		beq	.L70
 691 005e 2046     		mov	r0, r4
 692              	.LVL78:
 693 0060 6946     		mov	r1, sp
 694              		.loc 1 165 0
 695 0062 0292     		str	r2, [sp, #8]
 696              	.LVL79:
 697              		.loc 1 159 0
 698 0064 FFF7FEFF 		bl	_strtok.constprop.2
 699              	.LVL80:
 700 0068 0346     		mov	r3, r0
 701 006a 0028     		cmp	r0, #0
 702 006c 43D0     		beq	.L71
 703 006e 2046     		mov	r0, r4
 704              	.LVL81:
 705 0070 6946     		mov	r1, sp
 706              		.loc 1 165 0
 707 0072 0393     		str	r3, [sp, #12]
 708              	.LVL82:
 709              		.loc 1 159 0
 710 0074 FFF7FEFF 		bl	_strtok.constprop.2
 711              	.LVL83:
 712 0078 0246     		mov	r2, r0
 713 007a 0028     		cmp	r0, #0
 714 007c 3DD0     		beq	.L72
 715 007e 2046     		mov	r0, r4
 716              	.LVL84:
 717 0080 6946     		mov	r1, sp
 718              		.loc 1 165 0
 719 0082 0492     		str	r2, [sp, #16]
 720              	.LVL85:
 721              		.loc 1 159 0
 722 0084 FFF7FEFF 		bl	_strtok.constprop.2
 723              	.LVL86:
 724 0088 0028     		cmp	r0, #0
 725 008a 38D0     		beq	.L73
 726              		.loc 1 161 0
 727 008c 2846     		mov	r0, r5
 728              	.LVL87:
 729 008e 4849     		ldr	r1, .L100+16
 730 0090 FFF7FEFF 		bl	chprintf
 731              	.LVL88:
 732              		.loc 1 167 0
 733 0094 0594     		str	r4, [sp, #20]
 734 0096 C2E7     		b	.L95
 735              	.LVL89:
 736              	.L98:
ARM GAS  /tmp/cccJqtMK.s 			page 14


 737              		.loc 1 153 0
 738 0098 2846     		mov	r0, r5
 739 009a 4649     		ldr	r1, .L100+20
 740 009c FFF7FEFF 		bl	chprintf
 741              	.LVL90:
 742              	.L49:
 743              		.loc 1 194 0
 744 00a0 0020     		movs	r0, #0
 745 00a2 FFF7FEFF 		bl	shellExit
 746              	.LVL91:
 747              		.loc 1 197 0
 748 00a6 0020     		movs	r0, #0
 749 00a8 17B0     		add	sp, sp, #92
 750 00aa BDE8F083 		pop	{r4, r5, r6, r7, r8, r9, pc}
 751              	.LVL92:
 752              	.L69:
 753              		.loc 1 158 0
 754 00ae 0446     		mov	r4, r0
 755              	.LVL93:
 756              	.L50:
 757              		.loc 1 167 0
 758 00b0 16A8     		add	r0, sp, #88
 759              	.LVL94:
 760 00b2 00EB8401 		add	r1, r0, r4, lsl #2
 761 00b6 0023     		movs	r3, #0
 762 00b8 41F8543C 		str	r3, [r1, #-84]
 763              		.loc 1 168 0
 764 00bc 002E     		cmp	r6, #0
 765 00be AED0     		beq	.L95
 766              		.loc 1 169 0
 767 00c0 3046     		mov	r0, r6
 768 00c2 3D49     		ldr	r1, .L100+24
 769 00c4 FFF7FEFF 		bl	strcasecmp
 770              	.LVL95:
 771 00c8 38B9     		cbnz	r0, .L52
 772              		.loc 1 170 0
 773 00ca 002C     		cmp	r4, #0
 774 00cc E8D0     		beq	.L49
 775              	.LVL96:
 776              	.LBB44:
 777              	.LBB45:
 778              		.loc 1 56 0
 779 00ce 2846     		mov	r0, r5
 780 00d0 3A49     		ldr	r1, .L100+28
 781 00d2 394A     		ldr	r2, .L100+24
 782 00d4 FFF7FEFF 		bl	chprintf
 783              	.LVL97:
 784              	.LBE45:
 785              	.LBE44:
 786              		.loc 1 172 0
 787 00d8 A1E7     		b	.L95
 788              	.LVL98:
 789              	.L52:
 790              		.loc 1 176 0
 791 00da 3046     		mov	r0, r6
 792 00dc 3849     		ldr	r1, .L100+32
 793 00de FFF7FEFF 		bl	strcasecmp
ARM GAS  /tmp/cccJqtMK.s 			page 15


 794              	.LVL99:
 795 00e2 70B9     		cbnz	r0, .L99
 796              	.LBB46:
 797              	.LBB47:
 798              		.loc 1 56 0
 799 00e4 2846     		mov	r0, r5
 800              	.LBE47:
 801              	.LBE46:
 802              		.loc 1 177 0
 803 00e6 1CB3     		cbz	r4, .L57
 804              	.LVL100:
 805              	.LBB49:
 806              	.LBB48:
 807              		.loc 1 56 0
 808 00e8 3449     		ldr	r1, .L100+28
 809 00ea 354A     		ldr	r2, .L100+32
 810 00ec FFF7FEFF 		bl	chprintf
 811              	.LVL101:
 812              	.LBE48:
 813              	.LBE49:
 814              		.loc 1 179 0
 815 00f0 95E7     		b	.L95
 816              	.LVL102:
 817              	.L70:
 818              		.loc 1 165 0
 819 00f2 0124     		movs	r4, #1
 820 00f4 DCE7     		b	.L50
 821              	.LVL103:
 822              	.L71:
 823 00f6 0224     		movs	r4, #2
 824 00f8 DAE7     		b	.L50
 825              	.LVL104:
 826              	.L72:
 827 00fa 0324     		movs	r4, #3
 828 00fc D8E7     		b	.L50
 829              	.LVL105:
 830              	.L73:
 831              		.loc 1 159 0
 832 00fe 0424     		movs	r4, #4
 833 0100 D6E7     		b	.L50
 834              	.LVL106:
 835              	.L99:
 836              	.LBB50:
 837              	.LBB51:
 838              		.loc 1 121 0
 839 0102 D8F80000 		ldr	r0, [r8, #0]
 840 0106 0028     		cmp	r0, #0
 841 0108 32D0     		beq	.L56
 842 010a DFF8BC90 		ldr	r9, .L100+40
 843 010e 03E0     		b	.L65
 844              	.LVL107:
 845              	.L64:
 846 0110 59F8080F 		ldr	r0, [r9, #8]!
 847              	.LVL108:
 848 0114 0028     		cmp	r0, #0
 849 0116 2BD0     		beq	.L56
 850              	.LVL109:
ARM GAS  /tmp/cccJqtMK.s 			page 16


 851              	.L65:
 852              		.loc 1 122 0
 853 0118 3146     		mov	r1, r6
 854 011a FFF7FEFF 		bl	strcasecmp
 855              	.LVL110:
 856 011e 0028     		cmp	r0, #0
 857 0120 F6D1     		bne	.L64
 858              	.LVL111:
 859              	.L97:
 860              	.LBE51:
 861              	.LBE50:
 862              	.LBB52:
 863              	.LBB53:
 864              		.loc 1 123 0
 865 0122 D9F80430 		ldr	r3, [r9, #4]
 866 0126 2846     		mov	r0, r5
 867 0128 2146     		mov	r1, r4
 868 012a 01AA     		add	r2, sp, #4
 869 012c 9847     		blx	r3
 870              	.LVL112:
 871 012e 76E7     		b	.L95
 872              	.LVL113:
 873              	.L57:
 874              	.LBE53:
 875              	.LBE52:
 876              		.loc 1 181 0
 877 0130 2449     		ldr	r1, .L100+36
 878 0132 FFF7FEFF 		bl	chprintf
 879              	.LVL114:
 880              	.LBB55:
 881              	.LBB43:
 882              		.loc 1 61 0
 883 0136 D8F80020 		ldr	r2, [r8, #0]
 884 013a 42B1     		cbz	r2, .L62
 885 013c 224C     		ldr	r4, .L100+40
 886              	.LVL115:
 887              	.L61:
 888              		.loc 1 62 0
 889 013e 2846     		mov	r0, r5
 890 0140 2249     		ldr	r1, .L100+44
 891 0142 FFF7FEFF 		bl	chprintf
 892              	.LVL116:
 893              		.loc 1 61 0
 894 0146 54F8082F 		ldr	r2, [r4, #8]!
 895 014a 002A     		cmp	r2, #0
 896 014c F7D1     		bne	.L61
 897              	.L62:
 898              	.LBE43:
 899              	.LBE55:
 900              		.loc 1 183 0
 901 014e 57B1     		cbz	r7, .L60
 902              	.LVL117:
 903              	.LBB56:
 904              	.LBB57:
 905              		.loc 1 61 0
 906 0150 3A68     		ldr	r2, [r7, #0]
 907 0152 42B1     		cbz	r2, .L60
ARM GAS  /tmp/cccJqtMK.s 			page 17


 908 0154 3C46     		mov	r4, r7
 909              	.LVL118:
 910              	.L63:
 911              		.loc 1 62 0
 912 0156 2846     		mov	r0, r5
 913 0158 1C49     		ldr	r1, .L100+44
 914 015a FFF7FEFF 		bl	chprintf
 915              	.LVL119:
 916              		.loc 1 61 0
 917 015e 54F8082F 		ldr	r2, [r4, #8]!
 918 0162 002A     		cmp	r2, #0
 919 0164 F7D1     		bne	.L63
 920              	.L60:
 921              	.LBE57:
 922              	.LBE56:
 923              		.loc 1 185 0
 924 0166 2846     		mov	r0, r5
 925 0168 1949     		ldr	r1, .L100+48
 926 016a FFF7FEFF 		bl	chprintf
 927              	.LVL120:
 928 016e 56E7     		b	.L95
 929              	.LVL121:
 930              	.L56:
 931              		.loc 1 187 0
 932 0170 67B1     		cbz	r7, .L68
 933              	.LVL122:
 934              	.LBB58:
 935              	.LBB54:
 936              		.loc 1 121 0
 937 0172 3868     		ldr	r0, [r7, #0]
 938 0174 50B1     		cbz	r0, .L68
 939 0176 B946     		mov	r9, r7
 940 0178 02E0     		b	.L67
 941              	.LVL123:
 942              	.L66:
 943 017a 59F8080F 		ldr	r0, [r9, #8]!
 944              	.LVL124:
 945 017e 28B1     		cbz	r0, .L68
 946              	.LVL125:
 947              	.L67:
 948              		.loc 1 122 0
 949 0180 3146     		mov	r1, r6
 950 0182 FFF7FEFF 		bl	strcasecmp
 951              	.LVL126:
 952 0186 0028     		cmp	r0, #0
 953 0188 F7D1     		bne	.L66
 954 018a CAE7     		b	.L97
 955              	.LVL127:
 956              	.L68:
 957              	.LBE54:
 958              	.LBE58:
 959              		.loc 1 189 0
 960 018c 2846     		mov	r0, r5
 961 018e 1149     		ldr	r1, .L100+52
 962 0190 3246     		mov	r2, r6
 963 0192 FFF7FEFF 		bl	chprintf
 964              	.LVL128:
ARM GAS  /tmp/cccJqtMK.s 			page 18


 965              		.loc 1 190 0
 966 0196 2846     		mov	r0, r5
 967 0198 0F49     		ldr	r1, .L100+56
 968 019a FFF7FEFF 		bl	chprintf
 969              	.LVL129:
 970 019e 3EE7     		b	.L95
 971              	.L101:
 972              		.align	2
 973              	.L100:
 974 01a0 00000000 		.word	rlist
 975 01a4 A8010000 		.word	.LC25
 976 01a8 B0010000 		.word	.LC26
 977 01ac C8010000 		.word	.LC27
 978 01b0 DC010000 		.word	.LC29
 979 01b4 D0010000 		.word	.LC28
 980 01b8 F4010000 		.word	.LC30
 981 01bc 04000000 		.word	.LC1
 982 01c0 FC010000 		.word	.LC31
 983 01c4 04020000 		.word	.LC32
 984 01c8 00000000 		.word	.LANCHOR1
 985 01cc 1C020000 		.word	.LC33
 986 01d0 A4010000 		.word	.LC24
 987 01d4 20020000 		.word	.LC34
 988 01d8 24020000 		.word	.LC35
 989              		.cfi_endproc
 990              	.LFE69:
 991              		.size	shell_thread, .-shell_thread
 992              		.global	shell_terminated
 993 01dc AFF30080 		.section	.data.local_commands,"aw",%progbits
 994              		.align	2
 995              		.set	.LANCHOR1,. + 0
 996              		.type	local_commands, %object
 997              		.size	local_commands, 24
 998              	local_commands:
 999 0000 20000000 		.word	.LC4
 1000 0004 00000000 		.word	cmd_info
 1001 0008 10000000 		.word	.LC2
 1002 000c 00000000 		.word	cmd_systime
 1003 0010 00000000 		.word	0
 1004 0014 00000000 		.word	0
 1005              		.section	.rodata.str1.4,"aMS",%progbits,1
 1006              		.align	2
 1007              	.LC0:
 1008 0000 200900   		.ascii	" \011\000"
 1009 0003 00       		.space	1
 1010              	.LC1:
 1011 0004 55736167 		.ascii	"Usage: %s\015\012\000"
 1011      653A2025 
 1011      730D0A00 
 1012              	.LC2:
 1013 0010 73797374 		.ascii	"systime\000"
 1013      696D6500 
 1014              	.LC3:
 1015 0018 256C750D 		.ascii	"%lu\015\012\000"
 1015      0A00
 1016 001e 0000     		.space	2
 1017              	.LC4:
ARM GAS  /tmp/cccJqtMK.s 			page 19


 1018 0020 696E666F 		.ascii	"info\000"
 1018      00
 1019 0025 000000   		.space	3
 1020              	.LC5:
 1021 0028 4B65726E 		.ascii	"Kernel:       %s\015\012\000"
 1021      656C3A20 
 1021      20202020 
 1021      20202573 
 1021      0D0A00
 1022 003b 00       		.space	1
 1023              	.LC6:
 1024 003c 322E372E 		.ascii	"2.7.0unstable\000"
 1024      30756E73 
 1024      7461626C 
 1024      6500
 1025 004a 0000     		.space	2
 1026              	.LC7:
 1027 004c 436F6D70 		.ascii	"Compiler:     %s\015\012\000"
 1027      696C6572 
 1027      3A202020 
 1027      20202573 
 1027      0D0A00
 1028 005f 00       		.space	1
 1029              	.LC8:
 1030 0060 47434320 		.ascii	"GCC 4.7.4 20130913 (release) [ARM/embedded-4_7-bran"
 1030      342E372E 
 1030      34203230 
 1030      31333039 
 1030      31332028 
 1031 0093 63682072 		.ascii	"ch revision 202601]\000"
 1031      65766973 
 1031      696F6E20 
 1031      32303236 
 1031      30315D00 
 1032 00a7 00       		.space	1
 1033              	.LC9:
 1034 00a8 41726368 		.ascii	"Architecture: %s\015\012\000"
 1034      69746563 
 1034      74757265 
 1034      3A202573 
 1034      0D0A00
 1035 00bb 00       		.space	1
 1036              	.LC10:
 1037 00bc 41524D76 		.ascii	"ARMv7-M\000"
 1037      372D4D00 
 1038              	.LC11:
 1039 00c4 436F7265 		.ascii	"Core Variant: %s\015\012\000"
 1039      20566172 
 1039      69616E74 
 1039      3A202573 
 1039      0D0A00
 1040 00d7 00       		.space	1
 1041              	.LC12:
 1042 00d8 436F7274 		.ascii	"Cortex-M3\000"
 1042      65782D4D 
 1042      3300
 1043 00e2 0000     		.space	2
ARM GAS  /tmp/cccJqtMK.s 			page 20


 1044              	.LC13:
 1045 00e4 506F7274 		.ascii	"Port Info:    %s\015\012\000"
 1045      20496E66 
 1045      6F3A2020 
 1045      20202573 
 1045      0D0A00
 1046 00f7 00       		.space	1
 1047              	.LC14:
 1048 00f8 41647661 		.ascii	"Advanced kernel mode\000"
 1048      6E636564 
 1048      206B6572 
 1048      6E656C20 
 1048      6D6F6465 
 1049 010d 000000   		.space	3
 1050              	.LC15:
 1051 0110 506C6174 		.ascii	"Platform:     %s\015\012\000"
 1051      666F726D 
 1051      3A202020 
 1051      20202573 
 1051      0D0A00
 1052 0123 00       		.space	1
 1053              	.LC16:
 1054 0124 53544D33 		.ascii	"STM32F10x Connectivity Line\000"
 1054      32463130 
 1054      7820436F 
 1054      6E6E6563 
 1054      74697669 
 1055              	.LC17:
 1056 0140 426F6172 		.ascii	"Board:        %s\015\012\000"
 1056      643A2020 
 1056      20202020 
 1056      20202573 
 1056      0D0A00
 1057 0153 00       		.space	1
 1058              	.LC18:
 1059 0154 4D4C4142 		.ascii	"MLAB STM32F107RxT01A\000"
 1059      2053544D 
 1059      33324631 
 1059      30375278 
 1059      54303141 
 1060 0169 000000   		.space	3
 1061              	.LC19:
 1062 016c 4275696C 		.ascii	"Build time:   %s%s%s\015\012\000"
 1062      64207469 
 1062      6D653A20 
 1062      20202573 
 1062      25732573 
 1063 0183 00       		.space	1
 1064              	.LC20:
 1065 0184 4E6F7620 		.ascii	"Nov 17 2013\000"
 1065      31372032 
 1065      30313300 
 1066              	.LC21:
 1067 0190 202D2000 		.ascii	" - \000"
 1068              	.LC22:
 1069 0194 31313A31 		.ascii	"11:12:46\000"
 1069      323A3436 
ARM GAS  /tmp/cccJqtMK.s 			page 21


 1069      00
 1070 019d 000000   		.space	3
 1071              	.LC23:
 1072 01a0 5E4400   		.ascii	"^D\000"
 1073 01a3 00       		.space	1
 1074              	.LC24:
 1075 01a4 0D0A00   		.ascii	"\015\012\000"
 1076 01a7 00       		.space	1
 1077              	.LC25:
 1078 01a8 7368656C 		.ascii	"shell\000"
 1078      6C00
 1079 01ae 0000     		.space	2
 1080              	.LC26:
 1081 01b0 0D0A4368 		.ascii	"\015\012ChibiOS/RT Shell\015\012\000"
 1081      6962694F 
 1081      532F5254 
 1081      20536865 
 1081      6C6C0D0A 
 1082 01c5 000000   		.space	3
 1083              	.LC27:
 1084 01c8 63683E20 		.ascii	"ch> \000"
 1084      00
 1085 01cd 000000   		.space	3
 1086              	.LC28:
 1087 01d0 0D0A6C6F 		.ascii	"\015\012logout\000"
 1087      676F7574 
 1087      00
 1088 01d9 000000   		.space	3
 1089              	.LC29:
 1090 01dc 746F6F20 		.ascii	"too many arguments\015\012\000"
 1090      6D616E79 
 1090      20617267 
 1090      756D656E 
 1090      74730D0A 
 1091 01f1 000000   		.space	3
 1092              	.LC30:
 1093 01f4 65786974 		.ascii	"exit\000"
 1093      00
 1094 01f9 000000   		.space	3
 1095              	.LC31:
 1096 01fc 68656C70 		.ascii	"help\000"
 1096      00
 1097 0201 000000   		.space	3
 1098              	.LC32:
 1099 0204 436F6D6D 		.ascii	"Commands: help exit \000"
 1099      616E6473 
 1099      3A206865 
 1099      6C702065 
 1099      78697420 
 1100 0219 000000   		.space	3
 1101              	.LC33:
 1102 021c 25732000 		.ascii	"%s \000"
 1103              	.LC34:
 1104 0220 257300   		.ascii	"%s\000"
 1105 0223 00       		.space	1
 1106              	.LC35:
 1107 0224 203F0D0A 		.ascii	" ?\015\012\000"
ARM GAS  /tmp/cccJqtMK.s 			page 22


 1107      00
 1108 0229 000000   		.section	.bss.shell_terminated,"aw",%nobits
 1109              		.align	2
 1110              		.set	.LANCHOR0,. + 0
 1111              		.type	shell_terminated, %object
 1112              		.size	shell_terminated, 4
 1113              	shell_terminated:
 1114 0000 00000000 		.space	4
 1115              		.text
 1116              	.Letext0:
 1117              		.file 2 "/usr/bin/../lib/gcc/arm-none-eabi/4.7.4/include/stddef.h"
 1118              		.file 3 "/usr/bin/../lib/gcc/arm-none-eabi/4.7.4/../../../../arm-none-eabi/include/stdint.h"
 1119              		.file 4 "../../os/ports/GCC/ARMCMx/chtypes.h"
 1120              		.file 5 "../../os/kernel/include/chlists.h"
 1121              		.file 6 "../../os/kernel/include/chthreads.h"
 1122              		.file 7 "../../os/ports/GCC/ARMCMx/chcore_v7m.h"
 1123              		.file 8 "../../os/kernel/include/chvt.h"
 1124              		.file 9 "../../os/kernel/include/chschd.h"
 1125              		.file 10 "../../os/kernel/include/chmtx.h"
 1126              		.file 11 "../../os/kernel/include/chevents.h"
 1127              		.file 12 "../../os/kernel/include/chmemcore.h"
 1128              		.file 13 "../../os/kernel/include/chheap.h"
 1129              		.file 14 "../../os/kernel/include/chstreams.h"
 1130              		.file 15 "../../os/various/shell.h"
 1131              		.file 16 "../../os/ports/common/ARMCMx/CMSIS/include/core_cm3.h"
 1132              		.file 17 "/usr/bin/../lib/gcc/arm-none-eabi/4.7.4/../../../../arm-none-eabi/include/string.h"
 1133              		.file 18 "../../os/various/chprintf.h"
 1134              		.file 19 "../../os/kernel/include/chdynamic.h"
 1135              		.file 20 "../../os/kernel/include/chdebug.h"