ARM GAS  /tmp/ccUo3kN5.s 			page 1


   1              		.syntax unified
   2              		.cpu cortex-m3
   3              		.fpu softvfp
   4              		.eabi_attribute 20, 1
   5              		.eabi_attribute 21, 1
   6              		.eabi_attribute 23, 3
   7              		.eabi_attribute 24, 1
   8              		.eabi_attribute 25, 1
   9              		.eabi_attribute 26, 1
  10              		.eabi_attribute 30, 2
  11              		.eabi_attribute 34, 1
  12              		.eabi_attribute 18, 4
  13              		.thumb
  14              		.file	"test.c"
  15              		.text
  16              	.Ltext0:
  17              		.cfi_sections	.debug_frame
  18              		.section	.text.tmr,"ax",%progbits
  19              		.align	2
  20              		.p2align 4,,15
  21              		.thumb
  22              		.thumb_func
  23              		.type	tmr, %function
  24              	tmr:
  25              	.LFB77:
  26              		.file 1 "../../test/test.c"
  27              		.loc 1 261 0
  28              		.cfi_startproc
  29              		@ args = 0, pretend = 0, frame = 0
  30              		@ frame_needed = 0, uses_anonymous_args = 0
  31              		@ link register save eliminated.
  32              	.LVL0:
  33              		.loc 1 264 0
  34 0000 40F20003 		movw	r3, #:lower16:.LANCHOR0
  35 0004 C0F20003 		movt	r3, #:upper16:.LANCHOR0
  36 0008 0122     		movs	r2, #1
  37 000a 1A70     		strb	r2, [r3, #0]
  38 000c 7047     		bx	lr
  39              		.cfi_endproc
  40              	.LFE77:
  41              		.size	tmr, .-tmr
  42              		.section	.text.print_line,"ax",%progbits
  43              		.align	2
  44              		.p2align 4,,15
  45              		.thumb
  46              		.thumb_func
  47              		.type	print_line, %function
  48              	print_line:
  49              	.LFB80:
  50              		.loc 1 300 0
  51              		.cfi_startproc
  52              		@ args = 0, pretend = 0, frame = 0
  53              		@ frame_needed = 0, uses_anonymous_args = 0
  54              	.LVL1:
  55 0000 38B5     		push	{r3, r4, r5, lr}
  56              	.LCFI0:
  57              		.cfi_def_cfa_offset 16
ARM GAS  /tmp/ccUo3kN5.s 			page 2


  58              		.cfi_offset 3, -16
  59              		.cfi_offset 4, -12
  60              		.cfi_offset 5, -8
  61              		.cfi_offset 14, -4
  62 0002 0B4D     		ldr	r5, .L7
  63              		.loc 1 300 0
  64 0004 4C24     		movs	r4, #76
  65              	.LVL2:
  66              	.L3:
  67              		.loc 1 304 0 discriminator 2
  68 0006 2868     		ldr	r0, [r5, #0]
  69 0008 2D21     		movs	r1, #45
  70 000a 0368     		ldr	r3, [r0, #0]
  71 000c 013C     		subs	r4, r4, #1
  72 000e 9A68     		ldr	r2, [r3, #8]
  73 0010 9047     		blx	r2
  74              	.LVL3:
  75 0012 2868     		ldr	r0, [r5, #0]
  76 0014 0168     		ldr	r1, [r0, #0]
  77 0016 8B68     		ldr	r3, [r1, #8]
  78 0018 2D21     		movs	r1, #45
  79 001a 9847     		blx	r3
  80              	.LVL4:
  81              		.loc 1 303 0 discriminator 2
  82 001c 013C     		subs	r4, r4, #1
  83 001e F2D1     		bne	.L3
  84              		.loc 1 305 0
  85 0020 0348     		ldr	r0, .L7
  86 0022 0449     		ldr	r1, .L7+4
  87 0024 0068     		ldr	r0, [r0, #0]
  88 0026 0268     		ldr	r2, [r0, #0]
  89 0028 1368     		ldr	r3, [r2, #0]
  90 002a 0222     		movs	r2, #2
  91 002c 9847     		blx	r3
  92              	.LVL5:
  93 002e 38BD     		pop	{r3, r4, r5, pc}
  94              	.L8:
  95              		.align	2
  96              	.L7:
  97 0030 00000000 		.word	.LANCHOR1
  98 0034 00000000 		.word	.LC0
  99              		.cfi_endproc
 100              	.LFE80:
 101              		.size	print_line, .-print_line
 102 0038 AFF30080 		.section	.text.test_printn,"ax",%progbits
 102      AFF30080 
 103              		.align	2
 104              		.p2align 4,,15
 105              		.global	test_printn
 106              		.thumb
 107              		.thumb_func
 108              		.type	test_printn, %function
 109              	test_printn:
 110              	.LFB63:
 111              		.loc 1 91 0
 112              		.cfi_startproc
 113              		@ args = 0, pretend = 0, frame = 16
ARM GAS  /tmp/ccUo3kN5.s 			page 3


 114              		@ frame_needed = 0, uses_anonymous_args = 0
 115              	.LVL6:
 116 0000 F0B5     		push	{r4, r5, r6, r7, lr}
 117              	.LCFI1:
 118              		.cfi_def_cfa_offset 20
 119              		.cfi_offset 4, -20
 120              		.cfi_offset 5, -16
 121              		.cfi_offset 6, -12
 122              		.cfi_offset 7, -8
 123              		.cfi_offset 14, -4
 124 0002 85B0     		sub	sp, sp, #20
 125              	.LCFI2:
 126              		.cfi_def_cfa_offset 40
 127              		.loc 1 94 0
 128 0004 0028     		cmp	r0, #0
 129 0006 37D0     		beq	.L23
 130              	.LBB50:
 131              	.LBB51:
 132              		.loc 1 91 0
 133 0008 0DF10105 		add	r5, sp, #1
 134              	.LBE51:
 135              	.LBE50:
 136              		.loc 1 99 0
 137 000c 4CF6CD46 		movw	r6, #52429
 138              	.LBB54:
 139              	.LBB52:
 140              		.loc 1 91 0
 141 0010 2B46     		mov	r3, r5
 142              	.LBE52:
 143              	.LBE54:
 144              		.loc 1 99 0
 145 0012 CCF6CC46 		movt	r6, 52428
 146              	.LVL7:
 147              	.L12:
 148 0016 A6FB0012 		umull	r1, r2, r6, r0
 149 001a D408     		lsrs	r4, r2, #3
 150 001c 04EB8401 		add	r1, r4, r4, lsl #2
 151 0020 A0EB4100 		sub	r0, r0, r1, lsl #1
 152 0024 3030     		adds	r0, r0, #48
 153 0026 C1B2     		uxtb	r1, r0
 154              		.loc 1 98 0
 155 0028 2046     		mov	r0, r4
 156              		.loc 1 99 0
 157 002a 03F8011C 		strb	r1, [r3, #-1]
 158              	.LVL8:
 159              		.loc 1 91 0
 160 002e 1C46     		mov	r4, r3
 161 0030 0133     		adds	r3, r3, #1
 162              	.LVL9:
 163              		.loc 1 98 0
 164 0032 0028     		cmp	r0, #0
 165 0034 EFD1     		bne	.L12
 166              		.loc 1 100 0 discriminator 1
 167 0036 6A46     		mov	r2, sp
 168 0038 9442     		cmp	r4, r2
 169 003a 1BD9     		bls	.L9
 170 003c 601B     		subs	r0, r4, r5
ARM GAS  /tmp/ccUo3kN5.s 			page 4


 171              	.LVL10:
 172 003e C307     		lsls	r3, r0, #31
 173 0040 114F     		ldr	r7, .L25
 174 0042 11D5     		bpl	.L15
 175              		.loc 1 101 0
 176 0044 3868     		ldr	r0, [r7, #0]
 177              	.LVL11:
 178 0046 0368     		ldr	r3, [r0, #0]
 179 0048 9A68     		ldr	r2, [r3, #8]
 180 004a 9047     		blx	r2
 181              	.LVL12:
 182 004c 14F8021C 		ldrb	r1, [r4, #-2]	@ zero_extendqisi2
 183 0050 013C     		subs	r4, r4, #1
 184 0052 09E0     		b	.L15
 185              	.L24:
 186 0054 3868     		ldr	r0, [r7, #0]
 187 0056 14F8021C 		ldrb	r1, [r4, #-2]	@ zero_extendqisi2
 188 005a 0368     		ldr	r3, [r0, #0]
 189 005c 661E     		subs	r6, r4, #1
 190 005e 9A68     		ldr	r2, [r3, #8]
 191 0060 9047     		blx	r2
 192              	.LVL13:
 193 0062 16F8021C 		ldrb	r1, [r6, #-2]	@ zero_extendqisi2
 194 0066 023C     		subs	r4, r4, #2
 195              	.L15:
 196 0068 3868     		ldr	r0, [r7, #0]
 197 006a 0368     		ldr	r3, [r0, #0]
 198 006c 9A68     		ldr	r2, [r3, #8]
 199 006e 9047     		blx	r2
 200              	.LVL14:
 201              		.loc 1 100 0
 202 0070 AC42     		cmp	r4, r5
 203 0072 EFD1     		bne	.L24
 204              	.L9:
 205              		.loc 1 103 0
 206 0074 05B0     		add	sp, sp, #20
 207 0076 F0BD     		pop	{r4, r5, r6, r7, pc}
 208              	.LVL15:
 209              	.L23:
 210              	.LBB55:
 211              	.LBB53:
 212              		.loc 1 95 0
 213 0078 0348     		ldr	r0, .L25
 214              	.LVL16:
 215 007a 3021     		movs	r1, #48
 216 007c 0068     		ldr	r0, [r0, #0]
 217 007e 0368     		ldr	r3, [r0, #0]
 218 0080 9A68     		ldr	r2, [r3, #8]
 219 0082 9047     		blx	r2
 220              	.LVL17:
 221 0084 F6E7     		b	.L9
 222              	.L26:
 223 0086 00BF     		.align	2
 224              	.L25:
 225 0088 00000000 		.word	.LANCHOR1
 226              	.LBE53:
 227              	.LBE55:
ARM GAS  /tmp/ccUo3kN5.s 			page 5


 228              		.cfi_endproc
 229              	.LFE63:
 230              		.size	test_printn, .-test_printn
 231 008c AFF30080 		.section	.text.test_print,"ax",%progbits
 232              		.align	2
 233              		.p2align 4,,15
 234              		.global	test_print
 235              		.thumb
 236              		.thumb_func
 237              		.type	test_print, %function
 238              	test_print:
 239              	.LFB64:
 240              		.loc 1 110 0
 241              		.cfi_startproc
 242              		@ args = 0, pretend = 0, frame = 0
 243              		@ frame_needed = 0, uses_anonymous_args = 0
 244              	.LVL18:
 245 0000 38B5     		push	{r3, r4, r5, lr}
 246              	.LCFI3:
 247              		.cfi_def_cfa_offset 16
 248              		.cfi_offset 3, -16
 249              		.cfi_offset 4, -12
 250              		.cfi_offset 5, -8
 251              		.cfi_offset 14, -4
 252              		.loc 1 112 0
 253 0002 0178     		ldrb	r1, [r0, #0]	@ zero_extendqisi2
 254 0004 49B1     		cbz	r1, .L27
 255 0006 054D     		ldr	r5, .L32
 256 0008 0446     		mov	r4, r0
 257              	.LVL19:
 258              	.L29:
 259              		.loc 1 113 0
 260 000a 2868     		ldr	r0, [r5, #0]
 261 000c 0368     		ldr	r3, [r0, #0]
 262 000e 9A68     		ldr	r2, [r3, #8]
 263 0010 9047     		blx	r2
 264              	.LVL20:
 265              		.loc 1 112 0
 266 0012 14F8011F 		ldrb	r1, [r4, #1]!	@ zero_extendqisi2
 267 0016 0029     		cmp	r1, #0
 268 0018 F7D1     		bne	.L29
 269              	.L27:
 270 001a 38BD     		pop	{r3, r4, r5, pc}
 271              	.L33:
 272              		.align	2
 273              	.L32:
 274 001c 00000000 		.word	.LANCHOR1
 275              		.cfi_endproc
 276              	.LFE64:
 277              		.size	test_print, .-test_print
 278              		.section	.text.test_println,"ax",%progbits
 279              		.align	2
 280              		.p2align 4,,15
 281              		.global	test_println
 282              		.thumb
 283              		.thumb_func
 284              		.type	test_println, %function
ARM GAS  /tmp/ccUo3kN5.s 			page 6


 285              	test_println:
 286              	.LFB65:
 287              		.loc 1 121 0
 288              		.cfi_startproc
 289              		@ args = 0, pretend = 0, frame = 0
 290              		@ frame_needed = 0, uses_anonymous_args = 0
 291              	.LVL21:
 292 0000 38B5     		push	{r3, r4, r5, lr}
 293              	.LCFI4:
 294              		.cfi_def_cfa_offset 16
 295              		.cfi_offset 3, -16
 296              		.cfi_offset 4, -12
 297              		.cfi_offset 5, -8
 298              		.cfi_offset 14, -4
 299              	.LBB56:
 300              	.LBB57:
 301              		.loc 1 112 0
 302 0002 0178     		ldrb	r1, [r0, #0]	@ zero_extendqisi2
 303 0004 084D     		ldr	r5, .L40
 304 0006 41B1     		cbz	r1, .L37
 305 0008 0446     		mov	r4, r0
 306              	.LVL22:
 307              	.L36:
 308              		.loc 1 113 0
 309 000a 2868     		ldr	r0, [r5, #0]
 310 000c 0368     		ldr	r3, [r0, #0]
 311 000e 9A68     		ldr	r2, [r3, #8]
 312 0010 9047     		blx	r2
 313              	.LVL23:
 314              		.loc 1 112 0
 315 0012 14F8011F 		ldrb	r1, [r4, #1]!	@ zero_extendqisi2
 316 0016 0029     		cmp	r1, #0
 317 0018 F7D1     		bne	.L36
 318              	.L37:
 319              	.LBE57:
 320              	.LBE56:
 321              		.loc 1 124 0
 322 001a 2868     		ldr	r0, [r5, #0]
 323 001c 0349     		ldr	r1, .L40+4
 324 001e 0368     		ldr	r3, [r0, #0]
 325 0020 0222     		movs	r2, #2
 326 0022 1B68     		ldr	r3, [r3, #0]
 327 0024 9847     		blx	r3
 328              	.LVL24:
 329 0026 38BD     		pop	{r3, r4, r5, pc}
 330              	.L41:
 331              		.align	2
 332              	.L40:
 333 0028 00000000 		.word	.LANCHOR1
 334 002c 00000000 		.word	.LC0
 335              		.cfi_endproc
 336              	.LFE65:
 337              		.size	test_println, .-test_println
 338              		.section	.text.test_emit_token,"ax",%progbits
 339              		.align	2
 340              		.p2align 4,,15
 341              		.global	test_emit_token
ARM GAS  /tmp/ccUo3kN5.s 			page 7


 342              		.thumb
 343              		.thumb_func
 344              		.type	test_emit_token, %function
 345              	test_emit_token:
 346              	.LFB68:
 347              		.loc 1 147 0
 348              		.cfi_startproc
 349              		@ args = 0, pretend = 0, frame = 0
 350              		@ frame_needed = 0, uses_anonymous_args = 0
 351              	.LVL25:
 352 0000 10B5     		push	{r4, lr}
 353              	.LCFI5:
 354              		.cfi_def_cfa_offset 8
 355              		.cfi_offset 4, -8
 356              		.cfi_offset 14, -4
 357              	.LBB58:
 358              		.loc 1 149 0
 359 0002 2023     		movs	r3, #32
 360              	.LVL26:
 361              	.LBE58:
 362              		.loc 1 147 0
 363 0004 0446     		mov	r4, r0
 364              	.LBB59:
 365              		.loc 1 149 0
 366              	@ 149 "../../test/test.c" 1
 367 0006 83F31188 		msr     BASEPRI, r3
 368              	@ 0 "" 2
 369              	.LVL27:
 370              		.thumb
 371              	.LBE59:
 372 000a FFF7FEFF 		bl	dbg_check_lock
 373              	.LVL28:
 374              		.loc 1 150 0
 375 000e 40F20003 		movw	r3, #:lower16:.LANCHOR2
 376 0012 C0F20003 		movt	r3, #:upper16:.LANCHOR2
 377 0016 1A68     		ldr	r2, [r3, #0]
 378 0018 02F8014B 		strb	r4, [r2], #1
 379 001c 1A60     		str	r2, [r3, #0]
 380              		.loc 1 151 0
 381 001e FFF7FEFF 		bl	dbg_check_unlock
 382              	.LVL29:
 383              	.LBB60:
 384 0022 0023     		movs	r3, #0
 385              	.LVL30:
 386              	@ 151 "../../test/test.c" 1
 387 0024 83F31188 		msr     BASEPRI, r3
 388              	@ 0 "" 2
 389              	.LVL31:
 390              		.thumb
 391 0028 10BD     		pop	{r4, pc}
 392              	.LBE60:
 393              		.cfi_endproc
 394              	.LFE68:
 395              		.size	test_emit_token, .-test_emit_token
 396 002a 00BFAFF3 		.section	.text._test_fail,"ax",%progbits
 396      0080
 397              		.align	2
ARM GAS  /tmp/ccUo3kN5.s 			page 8


 398              		.p2align 4,,15
 399              		.global	_test_fail
 400              		.thumb
 401              		.thumb_func
 402              		.type	_test_fail, %function
 403              	_test_fail:
 404              	.LFB69:
 405              		.loc 1 157 0
 406              		.cfi_startproc
 407              		@ args = 0, pretend = 0, frame = 0
 408              		@ frame_needed = 0, uses_anonymous_args = 0
 409              		@ link register save eliminated.
 410              	.LVL32:
 411 0000 10B4     		push	{r4}
 412              	.LCFI6:
 413              		.cfi_def_cfa_offset 4
 414              		.cfi_offset 4, -4
 415              		.loc 1 159 0
 416 0002 40F20001 		movw	r1, #:lower16:.LANCHOR3
 417              		.loc 1 160 0
 418 0006 40F20002 		movw	r2, #:lower16:.LANCHOR4
 419              		.loc 1 161 0
 420 000a 40F20004 		movw	r4, #:lower16:.LANCHOR5
 421              		.loc 1 159 0
 422 000e 0123     		movs	r3, #1
 423 0010 C0F20001 		movt	r1, #:upper16:.LANCHOR3
 424              		.loc 1 160 0
 425 0014 C0F20002 		movt	r2, #:upper16:.LANCHOR4
 426              		.loc 1 161 0
 427 0018 C0F20004 		movt	r4, #:upper16:.LANCHOR5
 428 001c 2060     		str	r0, [r4, #0]
 429              		.loc 1 159 0
 430 001e 0B70     		strb	r3, [r1, #0]
 431              		.loc 1 160 0
 432 0020 1370     		strb	r3, [r2, #0]
 433              		.loc 1 163 0
 434 0022 1846     		mov	r0, r3
 435              	.LVL33:
 436 0024 10BC     		pop	{r4}
 437 0026 7047     		bx	lr
 438              		.cfi_endproc
 439              	.LFE69:
 440              		.size	_test_fail, .-_test_fail
 441 0028 AFF30080 		.section	.text._test_assert,"ax",%progbits
 441      AFF30080 
 442              		.align	2
 443              		.p2align 4,,15
 444              		.global	_test_assert
 445              		.thumb
 446              		.thumb_func
 447              		.type	_test_assert, %function
 448              	_test_assert:
 449              	.LFB70:
 450              		.loc 1 165 0
 451              		.cfi_startproc
 452              		@ args = 0, pretend = 0, frame = 0
 453              		@ frame_needed = 0, uses_anonymous_args = 0
ARM GAS  /tmp/ccUo3kN5.s 			page 9


 454              		@ link register save eliminated.
 455              	.LVL34:
 456              		.loc 1 167 0
 457 0000 41B9     		cbnz	r1, .L46
 458              	.LVL35:
 459              	.LBB61:
 460              	.LBB62:
 461              		.loc 1 159 0
 462 0002 054A     		ldr	r2, .L47
 463 0004 0123     		movs	r3, #1
 464 0006 1370     		strb	r3, [r2, #0]
 465              		.loc 1 160 0
 466 0008 0449     		ldr	r1, .L47+4
 467              	.LVL36:
 468              		.loc 1 161 0
 469 000a 054A     		ldr	r2, .L47+8
 470              		.loc 1 160 0
 471 000c 0B70     		strb	r3, [r1, #0]
 472              		.loc 1 161 0
 473 000e 1060     		str	r0, [r2, #0]
 474              	.LBE62:
 475              	.LBE61:
 476              		.loc 1 168 0
 477 0010 1846     		mov	r0, r3
 478              	.LVL37:
 479 0012 7047     		bx	lr
 480              	.LVL38:
 481              	.L46:
 482              		.loc 1 169 0
 483 0014 0020     		movs	r0, #0
 484              	.LVL39:
 485              		.loc 1 170 0
 486 0016 7047     		bx	lr
 487              	.L48:
 488              		.align	2
 489              	.L47:
 490 0018 00000000 		.word	.LANCHOR3
 491 001c 00000000 		.word	.LANCHOR4
 492 0020 00000000 		.word	.LANCHOR5
 493              		.cfi_endproc
 494              	.LFE70:
 495              		.size	_test_assert, .-_test_assert
 496 0024 AFF30080 		.section	.text._test_assert_sequence,"ax",%progbits
 496      AFF30080 
 496      AFF30080 
 497              		.align	2
 498              		.p2align 4,,15
 499              		.global	_test_assert_sequence
 500              		.thumb
 501              		.thumb_func
 502              		.type	_test_assert_sequence, %function
 503              	_test_assert_sequence:
 504              	.LFB71:
 505              		.loc 1 172 0
 506              		.cfi_startproc
 507              		@ args = 0, pretend = 0, frame = 0
 508              		@ frame_needed = 0, uses_anonymous_args = 0
ARM GAS  /tmp/ccUo3kN5.s 			page 10


 509              		@ link register save eliminated.
 510              	.LVL40:
 511 0000 2DE9F001 		push	{r4, r5, r6, r7, r8}
 512              	.LCFI7:
 513              		.cfi_def_cfa_offset 20
 514              		.cfi_offset 4, -20
 515              		.cfi_offset 5, -16
 516              		.cfi_offset 6, -12
 517              		.cfi_offset 7, -8
 518              		.cfi_offset 8, -4
 519 0004 DFF87880 		ldr	r8, .L66+12
 520              		.loc 1 173 0
 521 0008 DFF878C0 		ldr	ip, .L66+16
 522 000c D8F80070 		ldr	r7, [r8, #0]
 523 0010 6346     		mov	r3, ip
 524 0012 CCEB0702 		rsb	r2, ip, r7
 525 0016 D207     		lsls	r2, r2, #31
 526 0018 15D5     		bpl	.L50
 527              	.LVL41:
 528              		.loc 1 174 0
 529 001a 6745     		cmp	r7, ip
 530 001c 18D9     		bls	.L63
 531              		.loc 1 175 0
 532 001e 11F8012B 		ldrb	r2, [r1], #1	@ zero_extendqisi2
 533              	.LVL42:
 534 0022 9CF80040 		ldrb	r4, [ip, #0]	@ zero_extendqisi2
 535 0026 0CF10103 		add	r3, ip, #1
 536 002a 9442     		cmp	r4, r2
 537 002c 0BD0     		beq	.L50
 538 002e 15E0     		b	.L65
 539              	.LVL43:
 540              	.L52:
 541 0030 1E78     		ldrb	r6, [r3, #0]	@ zero_extendqisi2
 542 0032 12F8015B 		ldrb	r5, [r2], #1	@ zero_extendqisi2
 543              	.LVL44:
 544 0036 631C     		adds	r3, r4, #1
 545 0038 AE42     		cmp	r6, r5
 546 003a 0FD1     		bne	.L65
 547 003c 4D78     		ldrb	r5, [r1, #1]	@ zero_extendqisi2
 548 003e 2478     		ldrb	r4, [r4, #0]	@ zero_extendqisi2
 549 0040 511C     		adds	r1, r2, #1
 550              	.LVL45:
 551 0042 AC42     		cmp	r4, r5
 552 0044 0AD1     		bne	.L65
 553              	.L50:
 554              	.LVL46:
 555              		.loc 1 174 0 discriminator 1
 556 0046 9F42     		cmp	r7, r3
 557              		.loc 1 175 0 discriminator 1
 558 0048 0A46     		mov	r2, r1
 559 004a 03F10104 		add	r4, r3, #1
 560              		.loc 1 174 0 discriminator 1
 561 004e EFD8     		bhi	.L52
 562              	.L63:
 563              		.loc 1 178 0
 564 0050 0B78     		ldrb	r3, [r1, #0]	@ zero_extendqisi2
 565 0052 1BB9     		cbnz	r3, .L65
ARM GAS  /tmp/ccUo3kN5.s 			page 11


 566              	.LBB63:
 567              	.LBB64:
 568              		.loc 1 132 0
 569 0054 C8F800C0 		str	ip, [r8, #0]
 570              	.LBE64:
 571              	.LBE63:
 572              		.loc 1 181 0
 573 0058 1846     		mov	r0, r3
 574              	.LVL47:
 575 005a 07E0     		b	.L51
 576              	.LVL48:
 577              	.L65:
 578              	.LBB65:
 579              	.LBB66:
 580              		.loc 1 159 0
 581 005c 054A     		ldr	r2, .L66
 582 005e 0121     		movs	r1, #1
 583 0060 1170     		strb	r1, [r2, #0]
 584              		.loc 1 160 0
 585 0062 054B     		ldr	r3, .L66+4
 586              		.loc 1 161 0
 587 0064 054A     		ldr	r2, .L66+8
 588              		.loc 1 160 0
 589 0066 1970     		strb	r1, [r3, #0]
 590              		.loc 1 161 0
 591 0068 1060     		str	r0, [r2, #0]
 592              	.LBE66:
 593              	.LBE65:
 594              		.loc 1 179 0
 595 006a 0846     		mov	r0, r1
 596              	.LVL49:
 597              	.L51:
 598              		.loc 1 182 0
 599 006c BDE8F001 		pop	{r4, r5, r6, r7, r8}
 600 0070 7047     		bx	lr
 601              	.L67:
 602 0072 00BF     		.align	2
 603              	.L66:
 604 0074 00000000 		.word	.LANCHOR3
 605 0078 00000000 		.word	.LANCHOR4
 606 007c 00000000 		.word	.LANCHOR5
 607 0080 00000000 		.word	.LANCHOR2
 608 0084 00000000 		.word	.LANCHOR6
 609              		.cfi_endproc
 610              	.LFE71:
 611              		.size	_test_assert_sequence, .-_test_assert_sequence
 612 0088 AFF30080 		.section	.text._test_assert_time_window,"ax",%progbits
 612      AFF30080 
 613              		.align	2
 614              		.p2align 4,,15
 615              		.global	_test_assert_time_window
 616              		.thumb
 617              		.thumb_func
 618              		.type	_test_assert_time_window, %function
 619              	_test_assert_time_window:
 620              	.LFB72:
 621              		.loc 1 184 0
ARM GAS  /tmp/ccUo3kN5.s 			page 12


 622              		.cfi_startproc
 623              		@ args = 0, pretend = 0, frame = 0
 624              		@ frame_needed = 0, uses_anonymous_args = 0
 625              		@ link register save eliminated.
 626              	.LVL50:
 627              		.loc 1 186 0
 628 0000 084B     		ldr	r3, .L71
 629 0002 521A     		subs	r2, r2, r1
 630              	.LVL51:
 631 0004 DB68     		ldr	r3, [r3, #12]
 632 0006 591A     		subs	r1, r3, r1
 633              	.LVL52:
 634              	.LBB67:
 635              	.LBB68:
 636              		.loc 1 167 0
 637 0008 9142     		cmp	r1, r2
 638 000a 08D3     		bcc	.L70
 639              	.LVL53:
 640              	.LBB69:
 641              	.LBB70:
 642              		.loc 1 159 0
 643 000c 064A     		ldr	r2, .L71+4
 644 000e 0123     		movs	r3, #1
 645 0010 1370     		strb	r3, [r2, #0]
 646              		.loc 1 160 0
 647 0012 0649     		ldr	r1, .L71+8
 648              		.loc 1 161 0
 649 0014 064A     		ldr	r2, .L71+12
 650              		.loc 1 160 0
 651 0016 0B70     		strb	r3, [r1, #0]
 652              		.loc 1 161 0
 653 0018 1060     		str	r0, [r2, #0]
 654              		.loc 1 168 0
 655 001a 1846     		mov	r0, r3
 656              	.LVL54:
 657 001c 7047     		bx	lr
 658              	.LVL55:
 659              	.L70:
 660              	.LBE70:
 661              	.LBE69:
 662              		.loc 1 169 0
 663 001e 0020     		movs	r0, #0
 664              	.LVL56:
 665              	.LBE68:
 666              	.LBE67:
 667              		.loc 1 187 0
 668 0020 7047     		bx	lr
 669              	.L72:
 670 0022 00BF     		.align	2
 671              	.L71:
 672 0024 00000000 		.word	vtlist
 673 0028 00000000 		.word	.LANCHOR3
 674 002c 00000000 		.word	.LANCHOR4
 675 0030 00000000 		.word	.LANCHOR5
 676              		.cfi_endproc
 677              	.LFE72:
 678              		.size	_test_assert_time_window, .-_test_assert_time_window
ARM GAS  /tmp/ccUo3kN5.s 			page 13


 679 0034 AFF30080 		.section	.text.test_terminate_threads,"ax",%progbits
 679      AFF30080 
 679      AFF30080 
 680              		.align	2
 681              		.p2align 4,,15
 682              		.global	test_terminate_threads
 683              		.thumb
 684              		.thumb_func
 685              		.type	test_terminate_threads, %function
 686              	test_terminate_threads:
 687              	.LFB73:
 688              		.loc 1 196 0
 689              		.cfi_startproc
 690              		@ args = 0, pretend = 0, frame = 0
 691              		@ frame_needed = 0, uses_anonymous_args = 0
 692              	.LVL57:
 693 0000 10B5     		push	{r4, lr}
 694              	.LCFI8:
 695              		.cfi_def_cfa_offset 8
 696              		.cfi_offset 4, -8
 697              		.cfi_offset 14, -4
 698              		.loc 1 200 0
 699 0002 0C4C     		ldr	r4, .L91
 700 0004 2068     		ldr	r0, [r4, #0]
 701 0006 08B1     		cbz	r0, .L74
 702              		.loc 1 201 0
 703 0008 FFF7FEFF 		bl	chThdTerminate
 704              	.LVL58:
 705              	.L74:
 706              		.loc 1 200 0
 707 000c 6068     		ldr	r0, [r4, #4]
 708 000e 08B1     		cbz	r0, .L75
 709              		.loc 1 201 0
 710 0010 FFF7FEFF 		bl	chThdTerminate
 711              	.LVL59:
 712              	.L75:
 713              		.loc 1 200 0
 714 0014 A068     		ldr	r0, [r4, #8]
 715 0016 08B1     		cbz	r0, .L76
 716              		.loc 1 201 0
 717 0018 FFF7FEFF 		bl	chThdTerminate
 718              	.LVL60:
 719              	.L76:
 720              		.loc 1 200 0
 721 001c E068     		ldr	r0, [r4, #12]
 722 001e 08B1     		cbz	r0, .L77
 723              		.loc 1 201 0
 724 0020 FFF7FEFF 		bl	chThdTerminate
 725              	.LVL61:
 726              	.L77:
 727              		.loc 1 200 0
 728 0024 2069     		ldr	r0, [r4, #16]
 729 0026 18B1     		cbz	r0, .L73
 730              		.loc 1 202 0
 731 0028 BDE81040 		pop	{r4, lr}
 732              		.loc 1 201 0
 733 002c FFF7FEBF 		b	chThdTerminate
ARM GAS  /tmp/ccUo3kN5.s 			page 14


 734              	.LVL62:
 735              	.L73:
 736 0030 10BD     		pop	{r4, pc}
 737              	.L92:
 738 0032 00BF     		.align	2
 739              	.L91:
 740 0034 00000000 		.word	.LANCHOR7
 741              		.cfi_endproc
 742              	.LFE73:
 743              		.size	test_terminate_threads, .-test_terminate_threads
 744 0038 AFF30080 		.section	.text.test_wait_threads,"ax",%progbits
 744      AFF30080 
 745              		.align	2
 746              		.p2align 4,,15
 747              		.global	test_wait_threads
 748              		.thumb
 749              		.thumb_func
 750              		.type	test_wait_threads, %function
 751              	test_wait_threads:
 752              	.LFB74:
 753              		.loc 1 207 0
 754              		.cfi_startproc
 755              		@ args = 0, pretend = 0, frame = 0
 756              		@ frame_needed = 0, uses_anonymous_args = 0
 757              	.LVL63:
 758 0000 10B5     		push	{r4, lr}
 759              	.LCFI9:
 760              		.cfi_def_cfa_offset 8
 761              		.cfi_offset 4, -8
 762              		.cfi_offset 14, -4
 763              		.loc 1 211 0
 764 0002 124C     		ldr	r4, .L114
 765 0004 2068     		ldr	r0, [r4, #0]
 766 0006 18B1     		cbz	r0, .L94
 767              		.loc 1 212 0
 768 0008 FFF7FEFF 		bl	chThdWait
 769              	.LVL64:
 770              		.loc 1 213 0
 771 000c 0023     		movs	r3, #0
 772 000e 2360     		str	r3, [r4, #0]
 773              	.L94:
 774              	.LVL65:
 775              		.loc 1 211 0
 776 0010 6068     		ldr	r0, [r4, #4]
 777 0012 20B1     		cbz	r0, .L95
 778              		.loc 1 212 0
 779 0014 FFF7FEFF 		bl	chThdWait
 780              	.LVL66:
 781              		.loc 1 213 0
 782 0018 0C48     		ldr	r0, .L114
 783 001a 0022     		movs	r2, #0
 784 001c 4260     		str	r2, [r0, #4]
 785              	.L95:
 786              	.LVL67:
 787              		.loc 1 211 0
 788 001e A068     		ldr	r0, [r4, #8]
 789 0020 20B1     		cbz	r0, .L96
ARM GAS  /tmp/ccUo3kN5.s 			page 15


 790              		.loc 1 212 0
 791 0022 FFF7FEFF 		bl	chThdWait
 792              	.LVL68:
 793              		.loc 1 213 0
 794 0026 094B     		ldr	r3, .L114
 795 0028 0021     		movs	r1, #0
 796 002a 9960     		str	r1, [r3, #8]
 797              	.L96:
 798              	.LVL69:
 799              		.loc 1 211 0
 800 002c E068     		ldr	r0, [r4, #12]
 801 002e 20B1     		cbz	r0, .L97
 802              		.loc 1 212 0
 803 0030 FFF7FEFF 		bl	chThdWait
 804              	.LVL70:
 805              		.loc 1 213 0
 806 0034 0548     		ldr	r0, .L114
 807 0036 0022     		movs	r2, #0
 808 0038 C260     		str	r2, [r0, #12]
 809              	.L97:
 810              	.LVL71:
 811              		.loc 1 211 0
 812 003a 2069     		ldr	r0, [r4, #16]
 813 003c 20B1     		cbz	r0, .L93
 814              		.loc 1 212 0
 815 003e FFF7FEFF 		bl	chThdWait
 816              	.LVL72:
 817              		.loc 1 213 0
 818 0042 024B     		ldr	r3, .L114
 819 0044 0021     		movs	r1, #0
 820 0046 1961     		str	r1, [r3, #16]
 821              	.LVL73:
 822              	.L93:
 823 0048 10BD     		pop	{r4, pc}
 824              	.L115:
 825 004a 00BF     		.align	2
 826              	.L114:
 827 004c 00000000 		.word	.LANCHOR7
 828              		.cfi_endproc
 829              	.LFE74:
 830              		.size	test_wait_threads, .-test_wait_threads
 831              		.section	.text.test_cpu_pulse,"ax",%progbits
 832              		.align	2
 833              		.p2align 4,,15
 834              		.global	test_cpu_pulse
 835              		.thumb
 836              		.thumb_func
 837              		.type	test_cpu_pulse, %function
 838              	test_cpu_pulse:
 839              	.LFB75:
 840              		.loc 1 224 0
 841              		.cfi_startproc
 842              		@ args = 0, pretend = 0, frame = 0
 843              		@ frame_needed = 0, uses_anonymous_args = 0
 844              		@ link register save eliminated.
 845              	.LVL74:
 846              		.loc 1 228 0
ARM GAS  /tmp/ccUo3kN5.s 			page 16


 847 0000 4FF47A73 		mov	r3, #1000
 848 0004 03FB00F0 		mul	r0, r3, r0
 849              	.LVL75:
 850              		.loc 1 227 0
 851 0008 0E4A     		ldr	r2, .L128
 852              		.loc 1 228 0
 853 000a 44F6D353 		movw	r3, #19923
 854 000e 411E     		subs	r1, r0, #1
 855              		.loc 1 224 0
 856 0010 10B4     		push	{r4}
 857              	.LCFI10:
 858              		.cfi_def_cfa_offset 4
 859              		.cfi_offset 4, -4
 860              		.loc 1 228 0
 861 0012 C1F26203 		movt	r3, 4194
 862              		.loc 1 227 0
 863 0016 9469     		ldr	r4, [r2, #24]
 864              		.loc 1 228 0
 865 0018 A3FB0123 		umull	r2, r3, r3, r1
 866              		.loc 1 227 0
 867 001c 626A     		ldr	r2, [r4, #36]
 868              	.LVL76:
 869              		.loc 1 228 0
 870 001e 501C     		adds	r0, r2, #1
 871 0020 00EB9311 		add	r1, r0, r3, lsr #6
 872              	.LVL77:
 873              	.L126:
 874              		.loc 1 235 0
 875 0024 8A42     		cmp	r2, r1
 876              		.loc 1 230 0
 877 0026 636A     		ldr	r3, [r4, #36]
 878              	.LVL78:
 879              		.loc 1 235 0
 880 0028 03D2     		bcs	.L117
 881              		.loc 1 235 0 is_stmt 0 discriminator 1
 882 002a 9A42     		cmp	r2, r3
 883 002c 03D9     		bls	.L127
 884              	.LVL79:
 885              	.L124:
 886              		.loc 1 237 0 is_stmt 1
 887 002e 10BC     		pop	{r4}
 888 0030 7047     		bx	lr
 889              	.LVL80:
 890              	.L117:
 891              		.loc 1 236 0
 892 0032 9A42     		cmp	r2, r3
 893 0034 F6D9     		bls	.L126
 894              	.L127:
 895              		.loc 1 236 0 is_stmt 0 discriminator 2
 896 0036 9942     		cmp	r1, r3
 897 0038 94BF     		ite	ls
 898 003a 0023     		movls	r3, #0
 899              	.LVL81:
 900 003c 0123     		movhi	r3, #1
 901 003e 002B     		cmp	r3, #0
 902 0040 F0D1     		bne	.L126
 903 0042 F4E7     		b	.L124
ARM GAS  /tmp/ccUo3kN5.s 			page 17


 904              	.L129:
 905              		.align	2
 906              	.L128:
 907 0044 00000000 		.word	rlist
 908              		.cfi_endproc
 909              	.LFE75:
 910              		.size	test_cpu_pulse, .-test_cpu_pulse
 911 0048 AFF30080 		.section	.text.test_wait_tick,"ax",%progbits
 911      AFF30080 
 912              		.align	2
 913              		.p2align 4,,15
 914              		.global	test_wait_tick
 915              		.thumb
 916              		.thumb_func
 917              		.type	test_wait_tick, %function
 918              	test_wait_tick:
 919              	.LFB76:
 920              		.loc 1 245 0 is_stmt 1
 921              		.cfi_startproc
 922              		@ args = 0, pretend = 0, frame = 0
 923              		@ frame_needed = 0, uses_anonymous_args = 0
 924 0000 08B5     		push	{r3, lr}
 925              	.LCFI11:
 926              		.cfi_def_cfa_offset 8
 927              		.cfi_offset 3, -8
 928              		.cfi_offset 14, -4
 929              		.loc 1 247 0
 930 0002 0120     		movs	r0, #1
 931 0004 FFF7FEFF 		bl	chThdSleep
 932              	.LVL82:
 933              		.loc 1 248 0
 934 0008 40F20003 		movw	r3, #:lower16:vtlist
 935 000c C0F20003 		movt	r3, #:upper16:vtlist
 936 0010 D868     		ldr	r0, [r3, #12]
 937              		.loc 1 249 0
 938 0012 08BD     		pop	{r3, pc}
 939              		.cfi_endproc
 940              	.LFE76:
 941              		.size	test_wait_tick, .-test_wait_tick
 942 0014 AFF30080 		.section	.text.test_start_timer,"ax",%progbits
 942      AFF30080 
 942      AFF30080 
 943              		.align	2
 944              		.p2align 4,,15
 945              		.global	test_start_timer
 946              		.thumb
 947              		.thumb_func
 948              		.type	test_start_timer, %function
 949              	test_start_timer:
 950              	.LFB78:
 951              		.loc 1 272 0
 952              		.cfi_startproc
 953              		@ args = 0, pretend = 0, frame = 0
 954              		@ frame_needed = 0, uses_anonymous_args = 0
 955              	.LVL83:
 956 0000 38B5     		push	{r3, r4, r5, lr}
 957              	.LCFI12:
ARM GAS  /tmp/ccUo3kN5.s 			page 18


 958              		.cfi_def_cfa_offset 16
 959              		.cfi_offset 3, -16
 960              		.cfi_offset 4, -12
 961              		.cfi_offset 5, -8
 962              		.cfi_offset 14, -4
 963              		.loc 1 275 0
 964 0002 40F20003 		movw	r3, #:lower16:.LANCHOR0
 965 0006 C0F20003 		movt	r3, #:upper16:.LANCHOR0
 966 000a 0024     		movs	r4, #0
 967 000c 1C70     		strb	r4, [r3, #0]
 968              		.loc 1 272 0
 969 000e 0546     		mov	r5, r0
 970              	.LVL84:
 971              	.LBB71:
 972              		.loc 1 276 0
 973 0010 2023     		movs	r3, #32
 974              	.LVL85:
 975              	@ 276 "../../test/test.c" 1
 976 0012 83F31188 		msr     BASEPRI, r3
 977              	@ 0 "" 2
 978              	.LVL86:
 979              		.thumb
 980              	.LBE71:
 981 0016 FFF7FEFF 		bl	dbg_check_lock
 982              	.LVL87:
 983              		.loc 1 274 0
 984 001a 4FF47A70 		mov	r0, #1000
 985 001e 00FB05F5 		mul	r5, r0, r5
 986              	.LVL88:
 987 0022 44F6D351 		movw	r1, #19923
 988 0026 013D     		subs	r5, r5, #1
 989 0028 C1F26201 		movt	r1, 4194
 990 002c A1FB0523 		umull	r2, r3, r1, r5
 991 0030 9A09     		lsrs	r2, r3, #6
 992              		.loc 1 276 0
 993 0032 511C     		adds	r1, r2, #1
 994 0034 40F20000 		movw	r0, #:lower16:.LANCHOR8
 995 0038 40F20002 		movw	r2, #:lower16:tmr
 996 003c 2346     		mov	r3, r4
 997 003e C0F20000 		movt	r0, #:upper16:.LANCHOR8
 998 0042 C0F20002 		movt	r2, #:upper16:tmr
 999 0046 FFF7FEFF 		bl	chVTSetI
 1000              	.LVL89:
 1001 004a FFF7FEFF 		bl	dbg_check_unlock
 1002              	.LVL90:
 1003              	.LBB72:
 1004 004e 2346     		mov	r3, r4
 1005              	.LVL91:
 1006              	@ 276 "../../test/test.c" 1
 1007 0050 83F31188 		msr     BASEPRI, r3
 1008              	@ 0 "" 2
 1009              	.LVL92:
 1010              		.thumb
 1011 0054 38BD     		pop	{r3, r4, r5, pc}
 1012              	.LBE72:
 1013              		.cfi_endproc
 1014              	.LFE78:
ARM GAS  /tmp/ccUo3kN5.s 			page 19


 1015              		.size	test_start_timer, .-test_start_timer
 1016 0056 00BFAFF3 		.section	.text.TestThread,"ax",%progbits
 1016      0080AFF3 
 1016      0080
 1017              		.align	2
 1018              		.p2align 4,,15
 1019              		.global	TestThread
 1020              		.thumb
 1021              		.thumb_func
 1022              		.type	TestThread, %function
 1023              	TestThread:
 1024              	.LFB81:
 1025              		.loc 1 314 0
 1026              		.cfi_startproc
 1027              		@ args = 0, pretend = 0, frame = 8
 1028              		@ frame_needed = 0, uses_anonymous_args = 0
 1029              	.LVL93:
 1030 0000 2DE9F04F 		push	{r4, r5, r6, r7, r8, r9, sl, fp, lr}
 1031              	.LCFI13:
 1032              		.cfi_def_cfa_offset 36
 1033              		.cfi_offset 4, -36
 1034              		.cfi_offset 5, -32
 1035              		.cfi_offset 6, -28
 1036              		.cfi_offset 7, -24
 1037              		.cfi_offset 8, -20
 1038              		.cfi_offset 9, -16
 1039              		.cfi_offset 10, -12
 1040              		.cfi_offset 11, -8
 1041              		.cfi_offset 14, -4
 1042              		.loc 1 317 0
 1043 0004 9C4C     		ldr	r4, .L205
 1044              		.loc 1 314 0
 1045 0006 83B0     		sub	sp, sp, #12
 1046              	.LCFI14:
 1047              		.cfi_def_cfa_offset 48
 1048              		.loc 1 317 0
 1049 0008 2060     		str	r0, [r4, #0]
 1050              		.loc 1 318 0
 1051 000a 9C48     		ldr	r0, .L205+4
 1052              	.LVL94:
 1053 000c FFF7FEFF 		bl	test_println
 1054              	.LVL95:
 1055              		.loc 1 319 0
 1056 0010 9B48     		ldr	r0, .L205+8
 1057 0012 FFF7FEFF 		bl	test_println
 1058              	.LVL96:
 1059 0016 9B4D     		ldr	r5, .L205+12
 1060              		.loc 1 320 0
 1061 0018 9B48     		ldr	r0, .L205+16
 1062 001a FFF7FEFF 		bl	test_println
 1063              	.LVL97:
 1064              		.loc 1 112 0
 1065 001e 2A21     		movs	r1, #42
 1066              	.LVL98:
 1067              	.L133:
 1068              	.LBB109:
 1069              	.LBB110:
ARM GAS  /tmp/ccUo3kN5.s 			page 20


 1070              		.loc 1 113 0
 1071 0020 2068     		ldr	r0, [r4, #0]
 1072 0022 0368     		ldr	r3, [r0, #0]
 1073 0024 9A68     		ldr	r2, [r3, #8]
 1074 0026 9047     		blx	r2
 1075              	.LVL99:
 1076              		.loc 1 112 0
 1077 0028 15F8011F 		ldrb	r1, [r5, #1]!	@ zero_extendqisi2
 1078 002c 0029     		cmp	r1, #0
 1079 002e F7D1     		bne	.L133
 1080              	.LBE110:
 1081              	.LBE109:
 1082              		.loc 1 322 0
 1083 0030 9648     		ldr	r0, .L205+20
 1084 0032 974E     		ldr	r6, .L205+24
 1085 0034 FFF7FEFF 		bl	test_println
 1086              	.LVL100:
 1087              		.loc 1 112 0
 1088 0038 2A21     		movs	r1, #42
 1089              	.LVL101:
 1090              	.L135:
 1091              	.LBB111:
 1092              	.LBB112:
 1093              		.loc 1 113 0
 1094 003a 2068     		ldr	r0, [r4, #0]
 1095 003c 0768     		ldr	r7, [r0, #0]
 1096 003e BD68     		ldr	r5, [r7, #8]
 1097 0040 A847     		blx	r5
 1098              	.LVL102:
 1099              		.loc 1 112 0
 1100 0042 16F8011F 		ldrb	r1, [r6, #1]!	@ zero_extendqisi2
 1101 0046 0029     		cmp	r1, #0
 1102 0048 F7D1     		bne	.L135
 1103              	.LBE112:
 1104              	.LBE111:
 1105              		.loc 1 324 0
 1106 004a 9248     		ldr	r0, .L205+28
 1107 004c 924E     		ldr	r6, .L205+32
 1108 004e FFF7FEFF 		bl	test_println
 1109              	.LVL103:
 1110              		.loc 1 112 0
 1111 0052 2A21     		movs	r1, #42
 1112              	.LVL104:
 1113              	.L137:
 1114              	.LBB113:
 1115              	.LBB114:
 1116              		.loc 1 113 0
 1117 0054 2068     		ldr	r0, [r4, #0]
 1118 0056 0368     		ldr	r3, [r0, #0]
 1119 0058 9A68     		ldr	r2, [r3, #8]
 1120 005a 9047     		blx	r2
 1121              	.LVL105:
 1122              		.loc 1 112 0
 1123 005c 16F8011F 		ldrb	r1, [r6, #1]!	@ zero_extendqisi2
 1124 0060 0029     		cmp	r1, #0
 1125 0062 F7D1     		bne	.L137
 1126              	.LBE114:
ARM GAS  /tmp/ccUo3kN5.s 			page 21


 1127              	.LBE113:
 1128              		.loc 1 327 0
 1129 0064 8D48     		ldr	r0, .L205+36
 1130 0066 8E4F     		ldr	r7, .L205+40
 1131 0068 FFF7FEFF 		bl	test_println
 1132              	.LVL106:
 1133              		.loc 1 112 0
 1134 006c 2A21     		movs	r1, #42
 1135              	.LVL107:
 1136              	.L139:
 1137              	.LBB115:
 1138              	.LBB116:
 1139              		.loc 1 113 0
 1140 006e 2068     		ldr	r0, [r4, #0]
 1141 0070 0568     		ldr	r5, [r0, #0]
 1142 0072 AE68     		ldr	r6, [r5, #8]
 1143 0074 B047     		blx	r6
 1144              	.LVL108:
 1145              		.loc 1 112 0
 1146 0076 17F8011F 		ldrb	r1, [r7, #1]!	@ zero_extendqisi2
 1147 007a 0029     		cmp	r1, #0
 1148 007c F7D1     		bne	.L139
 1149              	.LBE116:
 1150              	.LBE115:
 1151              		.loc 1 330 0
 1152 007e 8948     		ldr	r0, .L205+44
 1153 0080 894F     		ldr	r7, .L205+48
 1154 0082 FFF7FEFF 		bl	test_println
 1155              	.LVL109:
 1156              		.loc 1 112 0
 1157 0086 2A21     		movs	r1, #42
 1158              	.LVL110:
 1159              	.L141:
 1160              	.LBB117:
 1161              	.LBB118:
 1162              		.loc 1 113 0
 1163 0088 2068     		ldr	r0, [r4, #0]
 1164 008a 0368     		ldr	r3, [r0, #0]
 1165 008c 9A68     		ldr	r2, [r3, #8]
 1166 008e 9047     		blx	r2
 1167              	.LVL111:
 1168              		.loc 1 112 0
 1169 0090 17F8011F 		ldrb	r1, [r7, #1]!	@ zero_extendqisi2
 1170 0094 0029     		cmp	r1, #0
 1171 0096 F7D1     		bne	.L141
 1172              	.LBE118:
 1173              	.LBE117:
 1174              		.loc 1 333 0
 1175 0098 8448     		ldr	r0, .L205+52
 1176 009a 854D     		ldr	r5, .L205+56
 1177 009c FFF7FEFF 		bl	test_println
 1178              	.LVL112:
 1179              		.loc 1 112 0
 1180 00a0 2A21     		movs	r1, #42
 1181              	.LVL113:
 1182              	.L143:
 1183              	.LBB119:
ARM GAS  /tmp/ccUo3kN5.s 			page 22


 1184              	.LBB120:
 1185              		.loc 1 113 0
 1186 00a2 2068     		ldr	r0, [r4, #0]
 1187 00a4 0668     		ldr	r6, [r0, #0]
 1188 00a6 B768     		ldr	r7, [r6, #8]
 1189 00a8 B847     		blx	r7
 1190              	.LVL114:
 1191              		.loc 1 112 0
 1192 00aa 15F8011F 		ldrb	r1, [r5, #1]!	@ zero_extendqisi2
 1193 00ae 0029     		cmp	r1, #0
 1194 00b0 F7D1     		bne	.L143
 1195              	.LBE120:
 1196              	.LBE119:
 1197              		.loc 1 337 0
 1198 00b2 8048     		ldr	r0, .L205+60
 1199 00b4 804D     		ldr	r5, .L205+64
 1200 00b6 FFF7FEFF 		bl	test_println
 1201              	.LVL115:
 1202              		.loc 1 112 0
 1203 00ba 2A21     		movs	r1, #42
 1204              	.LVL116:
 1205              	.L145:
 1206              	.LBB121:
 1207              	.LBB122:
 1208              		.loc 1 113 0
 1209 00bc 2068     		ldr	r0, [r4, #0]
 1210 00be 0368     		ldr	r3, [r0, #0]
 1211 00c0 9A68     		ldr	r2, [r3, #8]
 1212 00c2 9047     		blx	r2
 1213              	.LVL117:
 1214              		.loc 1 112 0
 1215 00c4 15F8011F 		ldrb	r1, [r5, #1]!	@ zero_extendqisi2
 1216 00c8 0029     		cmp	r1, #0
 1217 00ca F7D1     		bne	.L145
 1218              	.LBE122:
 1219              	.LBE121:
 1220              		.loc 1 341 0
 1221 00cc 7B48     		ldr	r0, .L205+68
 1222 00ce 7C4E     		ldr	r6, .L205+72
 1223 00d0 FFF7FEFF 		bl	test_println
 1224              	.LVL118:
 1225              		.loc 1 112 0
 1226 00d4 2A21     		movs	r1, #42
 1227              	.LVL119:
 1228              	.L147:
 1229              	.LBB123:
 1230              	.LBB124:
 1231              		.loc 1 113 0
 1232 00d6 2068     		ldr	r0, [r4, #0]
 1233 00d8 0768     		ldr	r7, [r0, #0]
 1234 00da BD68     		ldr	r5, [r7, #8]
 1235 00dc A847     		blx	r5
 1236              	.LVL120:
 1237              		.loc 1 112 0
 1238 00de 16F8011F 		ldrb	r1, [r6, #1]!	@ zero_extendqisi2
 1239 00e2 0029     		cmp	r1, #0
 1240 00e4 F7D1     		bne	.L147
ARM GAS  /tmp/ccUo3kN5.s 			page 23


 1241              	.LBE124:
 1242              	.LBE123:
 1243              		.loc 1 345 0
 1244 00e6 7748     		ldr	r0, .L205+76
 1245 00e8 0091     		str	r1, [sp, #0]
 1246 00ea FFF7FEFF 		bl	test_println
 1247              	.LVL121:
 1248              		.loc 1 347 0
 1249 00ee 6348     		ldr	r0, .L205+4
 1250 00f0 FFF7FEFF 		bl	test_println
 1251              	.LVL122:
 1252              		.loc 1 349 0
 1253 00f4 0099     		ldr	r1, [sp, #0]
 1254 00f6 7448     		ldr	r0, .L205+80
 1255 00f8 40F20003 		movw	r3, #:lower16:.LANCHOR4
 1256 00fc C0F20003 		movt	r3, #:upper16:.LANCHOR4
 1257 0100 724F     		ldr	r7, .L205+84
 1258              	.LBB125:
 1259              	.LBB126:
 1260              	.LBB127:
 1261              	.LBB128:
 1262              		.loc 1 132 0
 1263 0102 734E     		ldr	r6, .L205+88
 1264 0104 DFF8FC91 		ldr	r9, .L205+140
 1265 0108 0190     		str	r0, [sp, #4]
 1266              	.LBE128:
 1267              	.LBE127:
 1268              	.LBE126:
 1269              	.LBE125:
 1270              		.loc 1 349 0
 1271 010a 1970     		strb	r1, [r3, #0]
 1272              	.LVL123:
 1273              		.loc 1 350 0
 1274 010c 8A46     		mov	sl, r1
 1275              	.LVL124:
 1276              	.L172:
 1277 010e 0AF1010A 		add	sl, sl, #1
 1278              		.loc 1 112 0 discriminator 1
 1279 0112 4FF00008 		mov	r8, #0
 1280              	.L201:
 1281              	.LVL125:
 1282              		.loc 1 353 0 discriminator 1
 1283 0116 57F8042B 		ldr	r2, [r7], #4
 1284 011a 002A     		cmp	r2, #0
 1285 011c 00F08480 		beq	.L203
 1286              	.L166:
 1287 0120 6C4D     		ldr	r5, .L205+92
 1288              		.loc 1 354 0
 1289 0122 FFF7FEFF 		bl	print_line
 1290              	.LVL126:
 1291              		.loc 1 112 0
 1292 0126 2D21     		movs	r1, #45
 1293              	.LVL127:
 1294              	.L149:
 1295              	.LBB133:
 1296              	.LBB134:
 1297              		.loc 1 113 0
ARM GAS  /tmp/ccUo3kN5.s 			page 24


 1298 0128 2068     		ldr	r0, [r4, #0]
 1299 012a 0268     		ldr	r2, [r0, #0]
 1300 012c 9368     		ldr	r3, [r2, #8]
 1301 012e 9847     		blx	r3
 1302              	.LVL128:
 1303              		.loc 1 112 0
 1304 0130 15F8011F 		ldrb	r1, [r5, #1]!	@ zero_extendqisi2
 1305 0134 0029     		cmp	r1, #0
 1306 0136 F7D1     		bne	.L149
 1307              	.LBE134:
 1308              	.LBE133:
 1309              		.loc 1 356 0
 1310 0138 5046     		mov	r0, sl
 1311 013a FFF7FEFF 		bl	test_printn
 1312              	.LVL129:
 1313              	.LBB135:
 1314              	.LBB136:
 1315              		.loc 1 113 0
 1316 013e 4E48     		ldr	r0, .L205
 1317 0140 2E21     		movs	r1, #46
 1318 0142 0068     		ldr	r0, [r0, #0]
 1319              	.LVL130:
 1320              	.LBE136:
 1321              	.LBE135:
 1322              		.loc 1 358 0
 1323 0144 08F10108 		add	r8, r8, #1
 1324              	.LVL131:
 1325              	.LBB138:
 1326              	.LBB137:
 1327              		.loc 1 113 0
 1328 0148 0568     		ldr	r5, [r0, #0]
 1329 014a AA68     		ldr	r2, [r5, #8]
 1330 014c 9047     		blx	r2
 1331              	.LVL132:
 1332 014e 624D     		ldr	r5, .L205+96
 1333              	.LBE137:
 1334              	.LBE138:
 1335              		.loc 1 358 0
 1336 0150 4046     		mov	r0, r8
 1337 0152 FFF7FEFF 		bl	test_printn
 1338              	.LVL133:
 1339              		.loc 1 112 0
 1340 0156 2021     		movs	r1, #32
 1341              	.LVL134:
 1342              	.L151:
 1343              	.LBB139:
 1344              	.LBB140:
 1345              		.loc 1 113 0
 1346 0158 2068     		ldr	r0, [r4, #0]
 1347 015a 0368     		ldr	r3, [r0, #0]
 1348 015c 9A68     		ldr	r2, [r3, #8]
 1349 015e 9047     		blx	r2
 1350              	.LVL135:
 1351              		.loc 1 112 0
 1352 0160 15F8011F 		ldrb	r1, [r5, #1]!	@ zero_extendqisi2
 1353 0164 0029     		cmp	r1, #0
 1354 0166 F7D1     		bne	.L151
ARM GAS  /tmp/ccUo3kN5.s 			page 25


 1355              	.LBE140:
 1356              	.LBE139:
 1357              		.loc 1 360 0
 1358 0168 57F8041C 		ldr	r1, [r7, #-4]
 1359 016c 0D68     		ldr	r5, [r1, #0]
 1360              	.LVL136:
 1361              	.LBB141:
 1362              	.LBB142:
 1363              		.loc 1 112 0
 1364 016e 2978     		ldrb	r1, [r5, #0]	@ zero_extendqisi2
 1365 0170 39B1     		cbz	r1, .L156
 1366              	.LVL137:
 1367              	.L155:
 1368              		.loc 1 113 0
 1369 0172 2068     		ldr	r0, [r4, #0]
 1370 0174 0368     		ldr	r3, [r0, #0]
 1371 0176 9A68     		ldr	r2, [r3, #8]
 1372 0178 9047     		blx	r2
 1373              	.LVL138:
 1374              		.loc 1 112 0
 1375 017a 15F8011F 		ldrb	r1, [r5, #1]!	@ zero_extendqisi2
 1376 017e 0029     		cmp	r1, #0
 1377 0180 F7D1     		bne	.L155
 1378              	.L156:
 1379              	.LBE142:
 1380              	.LBE141:
 1381              		.loc 1 361 0
 1382 0182 5648     		ldr	r0, .L205+100
 1383 0184 FFF7FEFF 		bl	test_println
 1384              	.LVL139:
 1385              		.loc 1 363 0
 1386 0188 C820     		movs	r0, #200
 1387 018a FFF7FEFF 		bl	chThdSleep
 1388              	.LVL140:
 1389              	.LBB143:
 1390              	.LBB131:
 1391              		.loc 1 289 0
 1392 018e 5448     		ldr	r0, .L205+104
 1393              	.LBE131:
 1394              	.LBE143:
 1395              		.loc 1 365 0
 1396 0190 57F804BC 		ldr	fp, [r7, #-4]
 1397              	.LVL141:
 1398              	.LBB144:
 1399              	.LBB132:
 1400              		.loc 1 287 0
 1401 0194 0021     		movs	r1, #0
 1402              		.loc 1 289 0
 1403 0196 0160     		str	r1, [r0, #0]
 1404 0198 4160     		str	r1, [r0, #4]
 1405 019a 8160     		str	r1, [r0, #8]
 1406 019c C160     		str	r1, [r0, #12]
 1407 019e 0161     		str	r1, [r0, #16]
 1408              		.loc 1 287 0
 1409 01a0 504D     		ldr	r5, .L205+108
 1410              		.loc 1 291 0
 1411 01a2 DBF80430 		ldr	r3, [fp, #4]
ARM GAS  /tmp/ccUo3kN5.s 			page 26


 1412              	.LBB130:
 1413              	.LBB129:
 1414              		.loc 1 132 0
 1415 01a6 C6F80090 		str	r9, [r6, #0]
 1416              	.LBE129:
 1417              	.LBE130:
 1418              		.loc 1 287 0
 1419 01aa 2970     		strb	r1, [r5, #0]
 1420              	.LVL142:
 1421              		.loc 1 291 0
 1422 01ac 03B1     		cbz	r3, .L154
 1423              		.loc 1 292 0
 1424 01ae 9847     		blx	r3
 1425              	.LVL143:
 1426              	.L154:
 1427              		.loc 1 293 0
 1428 01b0 DBF80C20 		ldr	r2, [fp, #12]
 1429 01b4 9047     		blx	r2
 1430              	.LVL144:
 1431              		.loc 1 294 0
 1432 01b6 DBF80800 		ldr	r0, [fp, #8]
 1433 01ba 00B1     		cbz	r0, .L157
 1434              		.loc 1 295 0
 1435 01bc 8047     		blx	r0
 1436              	.LVL145:
 1437              	.L157:
 1438              		.loc 1 297 0
 1439 01be FFF7FEFF 		bl	test_wait_threads
 1440              	.LVL146:
 1441              	.LBE132:
 1442              	.LBE144:
 1443              		.loc 1 366 0
 1444 01c2 2978     		ldrb	r1, [r5, #0]	@ zero_extendqisi2
 1445 01c4 0029     		cmp	r1, #0
 1446 01c6 00F09F80 		beq	.L158
 1447 01ca 474D     		ldr	r5, .L205+112
 1448              		.loc 1 112 0
 1449 01cc 2D21     		movs	r1, #45
 1450              	.L159:
 1451              	.LBB145:
 1452              	.LBB146:
 1453              		.loc 1 113 0
 1454 01ce 2068     		ldr	r0, [r4, #0]
 1455              	.LVL147:
 1456 01d0 0368     		ldr	r3, [r0, #0]
 1457 01d2 9A68     		ldr	r2, [r3, #8]
 1458 01d4 9047     		blx	r2
 1459              	.LVL148:
 1460              		.loc 1 112 0
 1461 01d6 15F8011F 		ldrb	r1, [r5, #1]!	@ zero_extendqisi2
 1462 01da 0029     		cmp	r1, #0
 1463 01dc F7D1     		bne	.L159
 1464              	.LBE146:
 1465              	.LBE145:
 1466              		.loc 1 368 0
 1467 01de 4348     		ldr	r0, .L205+116
 1468 01e0 434D     		ldr	r5, .L205+120
ARM GAS  /tmp/ccUo3kN5.s 			page 27


 1469 01e2 0068     		ldr	r0, [r0, #0]
 1470 01e4 FFF7FEFF 		bl	test_printn
 1471              	.LVL149:
 1472              		.loc 1 112 0
 1473 01e8 2021     		movs	r1, #32
 1474              	.LVL150:
 1475              	.L161:
 1476              	.LBB147:
 1477              	.LBB148:
 1478              		.loc 1 113 0
 1479 01ea 2068     		ldr	r0, [r4, #0]
 1480 01ec 0368     		ldr	r3, [r0, #0]
 1481 01ee 9A68     		ldr	r2, [r3, #8]
 1482 01f0 9047     		blx	r2
 1483              	.LVL151:
 1484              		.loc 1 112 0
 1485 01f2 15F8011F 		ldrb	r1, [r5, #1]!	@ zero_extendqisi2
 1486 01f6 0029     		cmp	r1, #0
 1487 01f8 F7D1     		bne	.L161
 1488              	.LVL152:
 1489              	.LBE148:
 1490              	.LBE147:
 1491              	.LBB149:
 1492              	.LBB150:
 1493              		.loc 1 138 0
 1494 01fa 3168     		ldr	r1, [r6, #0]
 1495 01fc 4945     		cmp	r1, r9
 1496 01fe 0BD9     		bls	.L165
 1497              	.LBE150:
 1498              	.LBE149:
 1499              		.loc 1 314 0
 1500 0200 3C4D     		ldr	r5, .L205+124
 1501              	.LVL153:
 1502              	.L164:
 1503              	.LBB152:
 1504              	.LBB151:
 1505              		.loc 1 139 0
 1506 0202 2068     		ldr	r0, [r4, #0]
 1507 0204 15F8011C 		ldrb	r1, [r5, #-1]	@ zero_extendqisi2
 1508 0208 0368     		ldr	r3, [r0, #0]
 1509 020a 9A68     		ldr	r2, [r3, #8]
 1510 020c 9047     		blx	r2
 1511              	.LVL154:
 1512              		.loc 1 138 0
 1513 020e 3068     		ldr	r0, [r6, #0]
 1514              		.loc 1 314 0
 1515 0210 2946     		mov	r1, r5
 1516              	.LVL155:
 1517 0212 0135     		adds	r5, r5, #1
 1518              		.loc 1 138 0
 1519 0214 8142     		cmp	r1, r0
 1520 0216 F4D3     		bcc	.L164
 1521              	.LVL156:
 1522              	.L165:
 1523              	.LBE151:
 1524              	.LBE152:
 1525              		.loc 1 371 0
ARM GAS  /tmp/ccUo3kN5.s 			page 28


 1526 0218 3748     		ldr	r0, .L205+128
 1527 021a FFF7FEFF 		bl	test_println
 1528              	.LVL157:
 1529              		.loc 1 353 0
 1530 021e 57F8042B 		ldr	r2, [r7], #4
 1531 0222 002A     		cmp	r2, #0
 1532 0224 7FF47CAF 		bne	.L166
 1533              	.LVL158:
 1534              	.L203:
 1535              		.loc 1 351 0
 1536 0228 019D     		ldr	r5, [sp, #4]
 1537 022a 55F8047F 		ldr	r7, [r5, #4]!
 1538 022e 0195     		str	r5, [sp, #4]
 1539 0230 002F     		cmp	r7, #0
 1540 0232 7FF46CAF 		bne	.L172
 1541              		.loc 1 379 0
 1542 0236 FFF7FEFF 		bl	print_line
 1543              	.LVL159:
 1544 023a 304D     		ldr	r5, .L205+132
 1545              		.loc 1 380 0
 1546 023c 0F48     		ldr	r0, .L205+4
 1547 023e FFF7FEFF 		bl	test_println
 1548              	.LVL160:
 1549              		.loc 1 112 0
 1550 0242 4621     		movs	r1, #70
 1551              	.LVL161:
 1552              	.L169:
 1553              	.LBB153:
 1554              	.LBB154:
 1555              		.loc 1 113 0
 1556 0244 2068     		ldr	r0, [r4, #0]
 1557 0246 0368     		ldr	r3, [r0, #0]
 1558 0248 9A68     		ldr	r2, [r3, #8]
 1559 024a 9047     		blx	r2
 1560              	.LVL162:
 1561              		.loc 1 112 0
 1562 024c 15F8011F 		ldrb	r1, [r5, #1]!	@ zero_extendqisi2
 1563 0250 0029     		cmp	r1, #0
 1564 0252 F7D1     		bne	.L169
 1565              	.LBE154:
 1566              	.LBE153:
 1567              		.loc 1 382 0
 1568 0254 40F20000 		movw	r0, #:lower16:.LANCHOR4
 1569 0258 C0F20000 		movt	r0, #:upper16:.LANCHOR4
 1570 025c 0178     		ldrb	r1, [r0, #0]	@ zero_extendqisi2
 1571 025e 0029     		cmp	r1, #0
 1572 0260 56D1     		bne	.L204
 1573              		.loc 1 385 0
 1574 0262 2748     		ldr	r0, .L205+136
 1575 0264 FFF7FEFF 		bl	test_println
 1576              	.LVL163:
 1577              	.L171:
 1578              		.loc 1 387 0
 1579 0268 40F20003 		movw	r3, #:lower16:.LANCHOR4
 1580 026c C0F20003 		movt	r3, #:upper16:.LANCHOR4
 1581 0270 1878     		ldrb	r0, [r3, #0]	@ zero_extendqisi2
 1582              		.loc 1 388 0
ARM GAS  /tmp/ccUo3kN5.s 			page 29


 1583 0272 03B0     		add	sp, sp, #12
 1584 0274 BDE8F08F 		pop	{r4, r5, r6, r7, r8, r9, sl, fp, pc}
 1585              	.L206:
 1586              		.align	2
 1587              	.L205:
 1588 0278 00000000 		.word	.LANCHOR1
 1589 027c 04000000 		.word	.LC1
 1590 0280 08000000 		.word	.LC2
 1591 0284 28000000 		.word	.LC4
 1592 0288 24000000 		.word	.LC3
 1593 028c 90000000 		.word	.LC12
 1594 0290 A0000000 		.word	.LC13
 1595 0294 B4000000 		.word	.LC14
 1596 0298 CC000000 		.word	.LC15
 1597 029c E0000000 		.word	.LC16
 1598 02a0 28010000 		.word	.LC17
 1599 02a4 3C010000 		.word	.LC18
 1600 02a8 44010000 		.word	.LC19
 1601 02ac 58010000 		.word	.LC20
 1602 02b0 64010000 		.word	.LC21
 1603 02b4 78010000 		.word	.LC22
 1604 02b8 90010000 		.word	.LC23
 1605 02bc A4010000 		.word	.LC24
 1606 02c0 C0010000 		.word	.LC25
 1607 02c4 D4010000 		.word	.LC26
 1608 02c8 00000000 		.word	.LANCHOR9
 1609 02cc 00000000 		.word	patternthd
 1610 02d0 00000000 		.word	.LANCHOR2
 1611 02d4 3C000000 		.word	.LC5
 1612 02d8 EC010000 		.word	.LC27
 1613 02dc 4C000000 		.word	.LC6
 1614 02e0 00000000 		.word	.LANCHOR7
 1615 02e4 00000000 		.word	.LANCHOR3
 1616 02e8 50000000 		.word	.LC7
 1617 02ec 00000000 		.word	.LANCHOR5
 1618 02f0 F0010000 		.word	.LC28
 1619 02f4 01000000 		.word	.LANCHOR6+1
 1620 02f8 68000000 		.word	.LC8
 1621 02fc F4010000 		.word	.LC29
 1622 0300 88000000 		.word	.LC11
 1623 0304 00000000 		.word	.LANCHOR6
 1624              	.LVL164:
 1625              	.L158:
 1626              		.loc 1 374 0
 1627 0308 0348     		ldr	r0, .L207
 1628 030a FFF7FEFF 		bl	test_println
 1629              	.LVL165:
 1630 030e 02E7     		b	.L201
 1631              	.LVL166:
 1632              	.L204:
 1633              		.loc 1 383 0
 1634 0310 0248     		ldr	r0, .L207+4
 1635 0312 FFF7FEFF 		bl	test_println
 1636              	.LVL167:
 1637 0316 A7E7     		b	.L171
 1638              	.L208:
 1639              		.align	2
ARM GAS  /tmp/ccUo3kN5.s 			page 30


 1640              	.L207:
 1641 0318 6C000000 		.word	.LC9
 1642 031c 80000000 		.word	.LC10
 1643              		.cfi_endproc
 1644              	.LFE81:
 1645              		.size	TestThread, .-TestThread
 1646              		.global	test_timer_done
 1647              		.global	wa
 1648              		.global	threads
 1649              		.global	test
 1650              		.section	.bss.test,"aw",%nobits
 1651              		.align	3
 1652              		.type	test, %object
 1653              		.size	test, 1520
 1654              	test:
 1655 0000 00000000 		.space	1520
 1655      00000000 
 1655      00000000 
 1655      00000000 
 1655      00000000 
 1656              		.section	.bss.failpoint,"aw",%nobits
 1657              		.align	2
 1658              		.set	.LANCHOR5,. + 0
 1659              		.type	failpoint, %object
 1660              		.size	failpoint, 4
 1661              	failpoint:
 1662 0000 00000000 		.space	4
 1663              		.section	.bss.local_fail,"aw",%nobits
 1664              		.set	.LANCHOR3,. + 0
 1665              		.type	local_fail, %object
 1666              		.size	local_fail, 1
 1667              	local_fail:
 1668 0000 00       		.space	1
 1669              		.section	.bss.test_timer_done,"aw",%nobits
 1670              		.set	.LANCHOR0,. + 0
 1671              		.type	test_timer_done, %object
 1672              		.size	test_timer_done, 1
 1673              	test_timer_done:
 1674 0000 00       		.space	1
 1675              		.section	.rodata.wa,"a",%progbits
 1676              		.align	2
 1677              		.type	wa, %object
 1678              		.size	wa, 20
 1679              	wa:
 1680 0000 00000000 		.word	test
 1681 0004 30010000 		.word	test+304
 1682 0008 60020000 		.word	test+608
 1683 000c 90030000 		.word	test+912
 1684 0010 C0040000 		.word	test+1216
 1685              		.section	.bss.tokp,"aw",%nobits
 1686              		.align	2
 1687              		.set	.LANCHOR2,. + 0
 1688              		.type	tokp, %object
 1689              		.size	tokp, 4
 1690              	tokp:
 1691 0000 00000000 		.space	4
 1692              		.section	.bss.global_fail,"aw",%nobits
ARM GAS  /tmp/ccUo3kN5.s 			page 31


 1693              		.set	.LANCHOR4,. + 0
 1694              		.type	global_fail, %object
 1695              		.size	global_fail, 1
 1696              	global_fail:
 1697 0000 00       		.space	1
 1698              		.section	.rodata.str1.4,"aMS",%progbits,1
 1699              		.align	2
 1700              	.LC0:
 1701 0000 0D0A00   		.ascii	"\015\012\000"
 1702 0003 00       		.space	1
 1703              	.LC1:
 1704 0004 00       		.ascii	"\000"
 1705 0005 000000   		.space	3
 1706              	.LC2:
 1707 0008 2A2A2A20 		.ascii	"*** ChibiOS/RT test suite\000"
 1707      43686962 
 1707      694F532F 
 1707      52542074 
 1707      65737420 
 1708 0022 0000     		.space	2
 1709              	.LC3:
 1710 0024 2A2A2A00 		.ascii	"***\000"
 1711              	.LC4:
 1712 0028 2A2A2A20 		.ascii	"*** Kernel:       \000"
 1712      4B65726E 
 1712      656C3A20 
 1712      20202020 
 1712      202000
 1713 003b 00       		.space	1
 1714              	.LC5:
 1715 003c 2D2D2D20 		.ascii	"--- Test Case \000"
 1715      54657374 
 1715      20436173 
 1715      652000
 1716 004b 00       		.space	1
 1717              	.LC6:
 1718 004c 2900     		.ascii	")\000"
 1719 004e 0000     		.space	2
 1720              	.LC7:
 1721 0050 2D2D2D20 		.ascii	"--- Result: FAILURE (#\000"
 1721      52657375 
 1721      6C743A20 
 1721      4641494C 
 1721      55524520 
 1722 0067 00       		.space	1
 1723              	.LC8:
 1724 0068 5D2900   		.ascii	"])\000"
 1725 006b 00       		.space	1
 1726              	.LC9:
 1727 006c 2D2D2D20 		.ascii	"--- Result: SUCCESS\000"
 1727      52657375 
 1727      6C743A20 
 1727      53554343 
 1727      45535300 
 1728              	.LC10:
 1729 0080 4641494C 		.ascii	"FAILURE\000"
 1729      55524500 
ARM GAS  /tmp/ccUo3kN5.s 			page 32


 1730              	.LC11:
 1731 0088 53554343 		.ascii	"SUCCESS\000"
 1731      45535300 
 1732              	.LC12:
 1733 0090 322E372E 		.ascii	"2.7.0unstable\000"
 1733      30756E73 
 1733      7461626C 
 1733      6500
 1734 009e 0000     		.space	2
 1735              	.LC13:
 1736 00a0 2A2A2A20 		.ascii	"*** Compiled:     \000"
 1736      436F6D70 
 1736      696C6564 
 1736      3A202020 
 1736      202000
 1737 00b3 00       		.space	1
 1738              	.LC14:
 1739 00b4 4E6F7620 		.ascii	"Nov 17 2013 - 11:12:43\000"
 1739      31372032 
 1739      30313320 
 1739      2D203131 
 1739      3A31323A 
 1740 00cb 00       		.space	1
 1741              	.LC15:
 1742 00cc 2A2A2A20 		.ascii	"*** Compiler:     \000"
 1742      436F6D70 
 1742      696C6572 
 1742      3A202020 
 1742      202000
 1743 00df 00       		.space	1
 1744              	.LC16:
 1745 00e0 47434320 		.ascii	"GCC 4.7.4 20130913 (release) [ARM/embedded-4_7-bran"
 1745      342E372E 
 1745      34203230 
 1745      31333039 
 1745      31332028 
 1746 0113 63682072 		.ascii	"ch revision 202601]\000"
 1746      65766973 
 1746      696F6E20 
 1746      32303236 
 1746      30315D00 
 1747 0127 00       		.space	1
 1748              	.LC17:
 1749 0128 2A2A2A20 		.ascii	"*** Architecture: \000"
 1749      41726368 
 1749      69746563 
 1749      74757265 
 1749      3A2000
 1750 013b 00       		.space	1
 1751              	.LC18:
 1752 013c 41524D76 		.ascii	"ARMv7-M\000"
 1752      372D4D00 
 1753              	.LC19:
 1754 0144 2A2A2A20 		.ascii	"*** Core Variant: \000"
 1754      436F7265 
 1754      20566172 
 1754      69616E74 
ARM GAS  /tmp/ccUo3kN5.s 			page 33


 1754      3A2000
 1755 0157 00       		.space	1
 1756              	.LC20:
 1757 0158 436F7274 		.ascii	"Cortex-M3\000"
 1757      65782D4D 
 1757      3300
 1758 0162 0000     		.space	2
 1759              	.LC21:
 1760 0164 2A2A2A20 		.ascii	"*** Port Info:    \000"
 1760      506F7274 
 1760      20496E66 
 1760      6F3A2020 
 1760      202000
 1761 0177 00       		.space	1
 1762              	.LC22:
 1763 0178 41647661 		.ascii	"Advanced kernel mode\000"
 1763      6E636564 
 1763      206B6572 
 1763      6E656C20 
 1763      6D6F6465 
 1764 018d 000000   		.space	3
 1765              	.LC23:
 1766 0190 2A2A2A20 		.ascii	"*** Platform:     \000"
 1766      506C6174 
 1766      666F726D 
 1766      3A202020 
 1766      202000
 1767 01a3 00       		.space	1
 1768              	.LC24:
 1769 01a4 53544D33 		.ascii	"STM32F10x Connectivity Line\000"
 1769      32463130 
 1769      7820436F 
 1769      6E6E6563 
 1769      74697669 
 1770              	.LC25:
 1771 01c0 2A2A2A20 		.ascii	"*** Test Board:   \000"
 1771      54657374 
 1771      20426F61 
 1771      72643A20 
 1771      202000
 1772 01d3 00       		.space	1
 1773              	.LC26:
 1774 01d4 4D4C4142 		.ascii	"MLAB STM32F107RxT01A\000"
 1774      2053544D 
 1774      33324631 
 1774      30375278 
 1774      54303141 
 1775 01e9 000000   		.space	3
 1776              	.LC27:
 1777 01ec 202800   		.ascii	" (\000"
 1778 01ef 00       		.space	1
 1779              	.LC28:
 1780 01f0 205B00   		.ascii	" [\000"
 1781 01f3 00       		.space	1
 1782              	.LC29:
 1783 01f4 46696E61 		.ascii	"Final result: \000"
 1783      6C207265 
ARM GAS  /tmp/ccUo3kN5.s 			page 34


 1783      73756C74 
 1783      3A2000
 1784 0203 00       		.section	.bss.vt,"aw",%nobits
 1785              		.align	2
 1786              		.set	.LANCHOR8,. + 0
 1787              		.type	vt, %object
 1788              		.size	vt, 20
 1789              	vt:
 1790 0000 00000000 		.space	20
 1790      00000000 
 1790      00000000 
 1790      00000000 
 1790      00000000 
 1791              		.section	.bss.threads,"aw",%nobits
 1792              		.align	2
 1793              		.set	.LANCHOR7,. + 0
 1794              		.type	threads, %object
 1795              		.size	threads, 20
 1796              	threads:
 1797 0000 00000000 		.space	20
 1797      00000000 
 1797      00000000 
 1797      00000000 
 1797      00000000 
 1798              		.section	.rodata.patterns,"a",%progbits
 1799              		.align	2
 1800              		.set	.LANCHOR9,. + 0
 1801              		.type	patterns, %object
 1802              		.size	patterns, 48
 1803              	patterns:
 1804 0000 00000000 		.word	patternthd
 1805 0004 00000000 		.word	patternsem
 1806 0008 00000000 		.word	patternmtx
 1807 000c 00000000 		.word	patternmsg
 1808 0010 00000000 		.word	patternmbox
 1809 0014 00000000 		.word	patternevt
 1810 0018 00000000 		.word	patternheap
 1811 001c 00000000 		.word	patternpools
 1812 0020 00000000 		.word	patterndyn
 1813 0024 00000000 		.word	patternqueues
 1814 0028 00000000 		.word	patternbmk
 1815 002c 00000000 		.word	0
 1816              		.section	.bss.chp,"aw",%nobits
 1817              		.align	2
 1818              		.set	.LANCHOR1,. + 0
 1819              		.type	chp, %object
 1820              		.size	chp, 4
 1821              	chp:
 1822 0000 00000000 		.space	4
 1823              		.section	.bss.tokens_buffer,"aw",%nobits
 1824              		.align	2
 1825              		.set	.LANCHOR6,. + 0
 1826              		.type	tokens_buffer, %object
 1827              		.size	tokens_buffer, 16
 1828              	tokens_buffer:
 1829 0000 00000000 		.space	16
 1829      00000000 
ARM GAS  /tmp/ccUo3kN5.s 			page 35


 1829      00000000 
 1829      00000000 
 1830              		.text
 1831              	.Letext0:
 1832              		.file 2 "/usr/bin/../lib/gcc/arm-none-eabi/4.7.4/include/stddef.h"
 1833              		.file 3 "/usr/bin/../lib/gcc/arm-none-eabi/4.7.4/../../../../arm-none-eabi/include/stdint.h"
 1834              		.file 4 "../../os/ports/GCC/ARMCMx/chtypes.h"
 1835              		.file 5 "../../os/kernel/include/chlists.h"
 1836              		.file 6 "../../os/kernel/include/chthreads.h"
 1837              		.file 7 "../../os/ports/GCC/ARMCMx/chcore_v7m.h"
 1838              		.file 8 "../../os/kernel/include/chvt.h"
 1839              		.file 9 "../../os/kernel/include/chschd.h"
 1840              		.file 10 "../../os/kernel/include/chmtx.h"
 1841              		.file 11 "../../os/kernel/include/chstreams.h"
 1842              		.file 12 "../../test/test.h"
 1843              		.file 13 "../../os/ports/common/ARMCMx/CMSIS/include/core_cm3.h"
 1844              		.file 14 "../../test/testthd.h"
 1845              		.file 15 "../../test/testsem.h"
 1846              		.file 16 "../../test/testmtx.h"
 1847              		.file 17 "../../test/testmsg.h"
 1848              		.file 18 "../../test/testmbox.h"
 1849              		.file 19 "../../test/testevt.h"
 1850              		.file 20 "../../test/testheap.h"
 1851              		.file 21 "../../test/testpools.h"
 1852              		.file 22 "../../test/testdyn.h"
 1853              		.file 23 "../../test/testqueues.h"
 1854              		.file 24 "../../test/testbmk.h"
 1855              		.file 25 "../../os/kernel/include/chdebug.h"