ARM GAS  /tmp/ccxBGOiR.s 			page 1


   1              		.syntax unified
   2              		.cpu cortex-m3
   3              		.fpu softvfp
   4              		.eabi_attribute 20, 1
   5              		.eabi_attribute 21, 1
   6              		.eabi_attribute 23, 3
   7              		.eabi_attribute 24, 1
   8              		.eabi_attribute 25, 1
   9              		.eabi_attribute 26, 1
  10              		.eabi_attribute 30, 2
  11              		.eabi_attribute 34, 1
  12              		.eabi_attribute 18, 4
  13              		.thumb
  14              		.file	"testqueues.c"
  15              		.text
  16              	.Ltext0:
  17              		.cfi_sections	.debug_frame
  18              		.section	.text.notify,"ax",%progbits
  19              		.align	2
  20              		.p2align 4,,15
  21              		.thumb
  22              		.thumb_func
  23              		.type	notify, %function
  24              	notify:
  25              	.LFB7:
  26              		.file 1 "../../test/testqueues.c"
  27              		.loc 1 57 0
  28              		.cfi_startproc
  29              		@ args = 0, pretend = 0, frame = 0
  30              		@ frame_needed = 0, uses_anonymous_args = 0
  31              		@ link register save eliminated.
  32              	.LVL0:
  33 0000 7047     		bx	lr
  34              		.cfi_endproc
  35              	.LFE7:
  36              		.size	notify, .-notify
  37 0002 00BFAFF3 		.section	.text.thread2,"ax",%progbits
  37      0080AFF3 
  37      0080AFF3 
  37      0080
  38              		.align	2
  39              		.p2align 4,,15
  40              		.thumb
  41              		.thumb_func
  42              		.type	thread2, %function
  43              	thread2:
  44              	.LFB12:
  45              		.loc 1 170 0
  46              		.cfi_startproc
  47              		@ args = 0, pretend = 0, frame = 0
  48              		@ frame_needed = 0, uses_anonymous_args = 0
  49              	.LVL1:
  50              		.loc 1 173 0
  51 0000 40F20000 		movw	r0, #:lower16:.LANCHOR0
  52              	.LVL2:
  53              		.loc 1 170 0
  54 0004 08B5     		push	{r3, lr}
ARM GAS  /tmp/ccxBGOiR.s 			page 2


  55              	.LCFI0:
  56              		.cfi_def_cfa_offset 8
  57              		.cfi_offset 3, -8
  58              		.cfi_offset 14, -4
  59              		.loc 1 173 0
  60 0006 0021     		movs	r1, #0
  61 0008 C822     		movs	r2, #200
  62 000a C0F20000 		movt	r0, #:upper16:.LANCHOR0
  63 000e FFF7FEFF 		bl	chOQPutTimeout
  64              	.LVL3:
  65              		.loc 1 175 0
  66 0012 0020     		movs	r0, #0
  67 0014 08BD     		pop	{r3, pc}
  68              		.cfi_endproc
  69              	.LFE12:
  70              		.size	thread2, .-thread2
  71 0016 00BFAFF3 		.section	.text.queues2_setup,"ax",%progbits
  71      0080AFF3 
  71      0080
  72              		.align	2
  73              		.p2align 4,,15
  74              		.thumb
  75              		.thumb_func
  76              		.type	queues2_setup, %function
  77              	queues2_setup:
  78              	.LFB11:
  79              		.loc 1 165 0
  80              		.cfi_startproc
  81              		@ args = 0, pretend = 0, frame = 0
  82              		@ frame_needed = 0, uses_anonymous_args = 0
  83 0000 00B5     		push	{lr}
  84              	.LCFI1:
  85              		.cfi_def_cfa_offset 4
  86              		.cfi_offset 14, -4
  87              		.loc 1 167 0
  88 0002 40F20003 		movw	r3, #:lower16:wa
  89 0006 0020     		movs	r0, #0
  90              		.loc 1 165 0
  91 0008 83B0     		sub	sp, sp, #12
  92              	.LCFI2:
  93              		.cfi_def_cfa_offset 16
  94              		.loc 1 167 0
  95 000a C0F20003 		movt	r3, #:upper16:wa
  96 000e 1968     		ldr	r1, [r3, #0]
  97 0010 0090     		str	r0, [sp, #0]
  98 0012 40F20003 		movw	r3, #:lower16:notify
  99 0016 40F20000 		movw	r0, #:lower16:.LANCHOR0
 100 001a C0F20000 		movt	r0, #:upper16:.LANCHOR0
 101 001e 0422     		movs	r2, #4
 102 0020 C0F20003 		movt	r3, #:upper16:notify
 103 0024 FFF7FEFF 		bl	chOQInit
 104              	.LVL4:
 105              		.loc 1 168 0
 106 0028 03B0     		add	sp, sp, #12
 107 002a 00BD     		pop	{pc}
 108              		.cfi_endproc
 109              	.LFE11:
ARM GAS  /tmp/ccxBGOiR.s 			page 3


 110              		.size	queues2_setup, .-queues2_setup
 111 002c AFF30080 		.section	.text.thread1,"ax",%progbits
 112              		.align	2
 113              		.p2align 4,,15
 114              		.thumb
 115              		.thumb_func
 116              		.type	thread1, %function
 117              	thread1:
 118              	.LFB9:
 119              		.loc 1 83 0
 120              		.cfi_startproc
 121              		@ args = 0, pretend = 0, frame = 0
 122              		@ frame_needed = 0, uses_anonymous_args = 0
 123              	.LVL5:
 124              		.loc 1 86 0
 125 0000 40F20000 		movw	r0, #:lower16:.LANCHOR1
 126              	.LVL6:
 127              		.loc 1 83 0
 128 0004 08B5     		push	{r3, lr}
 129              	.LCFI3:
 130              		.cfi_def_cfa_offset 8
 131              		.cfi_offset 3, -8
 132              		.cfi_offset 14, -4
 133              		.loc 1 86 0
 134 0006 C821     		movs	r1, #200
 135 0008 C0F20000 		movt	r0, #:upper16:.LANCHOR1
 136 000c FFF7FEFF 		bl	chIQGetTimeout
 137              	.LVL7:
 138              		.loc 1 88 0
 139 0010 0020     		movs	r0, #0
 140 0012 08BD     		pop	{r3, pc}
 141              		.cfi_endproc
 142              	.LFE9:
 143              		.size	thread1, .-thread1
 144 0014 AFF30080 		.section	.text.queues1_setup,"ax",%progbits
 144      AFF30080 
 144      AFF30080 
 145              		.align	2
 146              		.p2align 4,,15
 147              		.thumb
 148              		.thumb_func
 149              		.type	queues1_setup, %function
 150              	queues1_setup:
 151              	.LFB8:
 152              		.loc 1 78 0
 153              		.cfi_startproc
 154              		@ args = 0, pretend = 0, frame = 0
 155              		@ frame_needed = 0, uses_anonymous_args = 0
 156 0000 00B5     		push	{lr}
 157              	.LCFI4:
 158              		.cfi_def_cfa_offset 4
 159              		.cfi_offset 14, -4
 160              		.loc 1 80 0
 161 0002 40F20003 		movw	r3, #:lower16:wa
 162 0006 0020     		movs	r0, #0
 163              		.loc 1 78 0
 164 0008 83B0     		sub	sp, sp, #12
ARM GAS  /tmp/ccxBGOiR.s 			page 4


 165              	.LCFI5:
 166              		.cfi_def_cfa_offset 16
 167              		.loc 1 80 0
 168 000a C0F20003 		movt	r3, #:upper16:wa
 169 000e 1968     		ldr	r1, [r3, #0]
 170 0010 0090     		str	r0, [sp, #0]
 171 0012 40F20003 		movw	r3, #:lower16:notify
 172 0016 40F20000 		movw	r0, #:lower16:.LANCHOR1
 173 001a C0F20000 		movt	r0, #:upper16:.LANCHOR1
 174 001e 0422     		movs	r2, #4
 175 0020 C0F20003 		movt	r3, #:upper16:notify
 176 0024 FFF7FEFF 		bl	chIQInit
 177              	.LVL8:
 178              		.loc 1 81 0
 179 0028 03B0     		add	sp, sp, #12
 180 002a 00BD     		pop	{pc}
 181              		.cfi_endproc
 182              	.LFE8:
 183              		.size	queues1_setup, .-queues1_setup
 184 002c AFF30080 		.section	.text.queues2_execute,"ax",%progbits
 185              		.align	2
 186              		.p2align 4,,15
 187              		.thumb
 188              		.thumb_func
 189              		.type	queues2_execute, %function
 190              	queues2_execute:
 191              	.LFB13:
 192              		.loc 1 177 0
 193              		.cfi_startproc
 194              		@ args = 0, pretend = 0, frame = 0
 195              		@ frame_needed = 0, uses_anonymous_args = 0
 196 0000 2DE9F041 		push	{r4, r5, r6, r7, r8, lr}
 197              	.LCFI6:
 198              		.cfi_def_cfa_offset 24
 199              		.cfi_offset 4, -24
 200              		.cfi_offset 5, -20
 201              		.cfi_offset 6, -16
 202              		.cfi_offset 7, -12
 203              		.cfi_offset 8, -8
 204              		.cfi_offset 14, -4
 205              	.LBB96:
 206              		.loc 1 182 0
 207 0004 2023     		movs	r3, #32
 208              	.LVL9:
 209              	.LBE96:
 210              		.loc 1 177 0
 211 0006 82B0     		sub	sp, sp, #8
 212              	.LCFI7:
 213              		.cfi_def_cfa_offset 32
 214              	.LBB97:
 215              		.loc 1 182 0
 216              	@ 182 "../../test/testqueues.c" 1
 217 0008 83F31188 		msr     BASEPRI, r3
 218              	@ 0 "" 2
 219              	.LVL10:
 220              		.thumb
 221              	.LBE97:
ARM GAS  /tmp/ccxBGOiR.s 			page 5


 222 000c BC4D     		ldr	r5, .L31
 223 000e FFF7FEFF 		bl	dbg_check_lock
 224              	.LVL11:
 225 0012 6A69     		ldr	r2, [r5, #20]
 226 0014 AB69     		ldr	r3, [r5, #24]
 227 0016 9A42     		cmp	r2, r3
 228 0018 00F08C81 		beq	.L26
 229 001c 0021     		movs	r1, #0
 230              	.L7:
 231              		.loc 1 182 0 is_stmt 0 discriminator 4
 232 001e 0120     		movs	r0, #1
 233 0020 FFF7FEFF 		bl	_test_assert
 234              	.LVL12:
 235 0024 0646     		mov	r6, r0
 236 0026 0028     		cmp	r0, #0
 237 0028 40F07681 		bne	.L23
 238              	.LBB98:
 239              	.LBB99:
 240              		.loc 1 182 0
 241 002c FFF7FEFF 		bl	dbg_check_unlock
 242              	.LVL13:
 243              	.LBB100:
 244 0030 3346     		mov	r3, r6
 245              	.LVL14:
 246              	@ 182 "../../test/testqueues.c" 1
 247 0032 83F31188 		msr     BASEPRI, r3
 248              	@ 0 "" 2
 249              	.LVL15:
 250              		.thumb
 251              	.LBE100:
 252              		.loc 1 186 0 is_stmt 1
 253 0036 B24C     		ldr	r4, .L31
 254 0038 4121     		movs	r1, #65
 255 003a 2046     		mov	r0, r4
 256 003c 4FF0FF32 		mov	r2, #-1
 257 0040 FFF7FEFF 		bl	chOQPutTimeout
 258              	.LVL16:
 259 0044 4221     		movs	r1, #66
 260 0046 2046     		mov	r0, r4
 261 0048 4FF0FF32 		mov	r2, #-1
 262 004c FFF7FEFF 		bl	chOQPutTimeout
 263              	.LVL17:
 264 0050 4321     		movs	r1, #67
 265 0052 2046     		mov	r0, r4
 266 0054 4FF0FF32 		mov	r2, #-1
 267 0058 FFF7FEFF 		bl	chOQPutTimeout
 268              	.LVL18:
 269 005c 2046     		mov	r0, r4
 270 005e 4421     		movs	r1, #68
 271 0060 4FF0FF32 		mov	r2, #-1
 272 0064 FFF7FEFF 		bl	chOQPutTimeout
 273              	.LVL19:
 274              	.LBB101:
 275              		.loc 1 187 0
 276 0068 2023     		movs	r3, #32
 277              	.LVL20:
 278              	@ 187 "../../test/testqueues.c" 1
ARM GAS  /tmp/ccxBGOiR.s 			page 6


 279 006a 83F31188 		msr     BASEPRI, r3
 280              	@ 0 "" 2
 281              	.LVL21:
 282              		.thumb
 283              	.LBE101:
 284 006e FFF7FEFF 		bl	dbg_check_lock
 285              	.LVL22:
 286 0072 AD68     		ldr	r5, [r5, #8]
 287 0074 0220     		movs	r0, #2
 288 0076 D5F10101 		rsbs	r1, r5, #1
 289 007a 38BF     		it	cc
 290 007c 0021     		movcc	r1, #0
 291 007e FFF7FEFF 		bl	_test_assert
 292              	.LVL23:
 293 0082 0546     		mov	r5, r0
 294 0084 0028     		cmp	r0, #0
 295 0086 40F04F81 		bne	.L27
 296 008a FFF7FEFF 		bl	dbg_check_unlock
 297              	.LVL24:
 298              	.LBB102:
 299 008e 2B46     		mov	r3, r5
 300              	.LVL25:
 301              	@ 187 "../../test/testqueues.c" 1
 302 0090 83F31188 		msr     BASEPRI, r3
 303              	@ 0 "" 2
 304              	.LVL26:
 305              		.thumb
 306              	.LBE102:
 307              	.LBB103:
 308              	.LBB104:
 309              		.loc 1 193 0
 310 0094 2023     		movs	r3, #32
 311              	.LVL27:
 312              	@ 193 "../../test/testqueues.c" 1
 313 0096 83F31188 		msr     BASEPRI, r3
 314              	@ 0 "" 2
 315              	.LVL28:
 316              		.thumb
 317              	.LBE104:
 318 009a FFF7FEFF 		bl	dbg_check_lock
 319              	.LVL29:
 320              		.loc 1 194 0
 321 009e 2046     		mov	r0, r4
 322 00a0 FFF7FEFF 		bl	chOQGetI
 323              	.LVL30:
 324 00a4 0646     		mov	r6, r0
 325              	.LVL31:
 326              		.loc 1 195 0
 327 00a6 FFF7FEFF 		bl	dbg_check_unlock
 328              	.LVL32:
 329              	.LBB105:
 330 00aa 2B46     		mov	r3, r5
 331              	.LVL33:
 332              	@ 195 "../../test/testqueues.c" 1
 333 00ac 83F31188 		msr     BASEPRI, r3
 334              	@ 0 "" 2
 335              	.LVL34:
ARM GAS  /tmp/ccxBGOiR.s 			page 7


 336              		.thumb
 337              	.LBE105:
 338              		.loc 1 196 0
 339 00b0 F0B2     		uxtb	r0, r6
 340 00b2 FFF7FEFF 		bl	test_emit_token
 341              	.LVL35:
 342              	.LBB106:
 343              		.loc 1 193 0
 344 00b6 2023     		movs	r3, #32
 345              	@ 193 "../../test/testqueues.c" 1
 346 00b8 83F31188 		msr     BASEPRI, r3
 347              	@ 0 "" 2
 348              	.LVL36:
 349              		.thumb
 350              	.LBE106:
 351 00bc FFF7FEFF 		bl	dbg_check_lock
 352              	.LVL37:
 353              		.loc 1 194 0
 354 00c0 2046     		mov	r0, r4
 355 00c2 FFF7FEFF 		bl	chOQGetI
 356              	.LVL38:
 357 00c6 0646     		mov	r6, r0
 358              	.LVL39:
 359              		.loc 1 195 0
 360 00c8 FFF7FEFF 		bl	dbg_check_unlock
 361              	.LVL40:
 362              	.LBB107:
 363 00cc 2B46     		mov	r3, r5
 364              	@ 195 "../../test/testqueues.c" 1
 365 00ce 83F31188 		msr     BASEPRI, r3
 366              	@ 0 "" 2
 367              	.LVL41:
 368              		.thumb
 369              	.LBE107:
 370              		.loc 1 196 0
 371 00d2 F0B2     		uxtb	r0, r6
 372 00d4 FFF7FEFF 		bl	test_emit_token
 373              	.LVL42:
 374              	.LBB108:
 375              		.loc 1 193 0
 376 00d8 2023     		movs	r3, #32
 377              	@ 193 "../../test/testqueues.c" 1
 378 00da 83F31188 		msr     BASEPRI, r3
 379              	@ 0 "" 2
 380              	.LVL43:
 381              		.thumb
 382              	.LBE108:
 383 00de FFF7FEFF 		bl	dbg_check_lock
 384              	.LVL44:
 385              		.loc 1 194 0
 386 00e2 2046     		mov	r0, r4
 387 00e4 FFF7FEFF 		bl	chOQGetI
 388              	.LVL45:
 389 00e8 0646     		mov	r6, r0
 390              	.LVL46:
 391              		.loc 1 195 0
 392 00ea FFF7FEFF 		bl	dbg_check_unlock
ARM GAS  /tmp/ccxBGOiR.s 			page 8


 393              	.LVL47:
 394              	.LBB109:
 395 00ee 2B46     		mov	r3, r5
 396              	@ 195 "../../test/testqueues.c" 1
 397 00f0 83F31188 		msr     BASEPRI, r3
 398              	@ 0 "" 2
 399              	.LVL48:
 400              		.thumb
 401              	.LBE109:
 402              		.loc 1 196 0
 403 00f4 F0B2     		uxtb	r0, r6
 404 00f6 FFF7FEFF 		bl	test_emit_token
 405              	.LVL49:
 406              	.LBB110:
 407              		.loc 1 193 0
 408 00fa 2023     		movs	r3, #32
 409              	@ 193 "../../test/testqueues.c" 1
 410 00fc 83F31188 		msr     BASEPRI, r3
 411              	@ 0 "" 2
 412              	.LVL50:
 413              		.thumb
 414              	.LBE110:
 415 0100 FFF7FEFF 		bl	dbg_check_lock
 416              	.LVL51:
 417              		.loc 1 194 0
 418 0104 2046     		mov	r0, r4
 419 0106 FFF7FEFF 		bl	chOQGetI
 420              	.LVL52:
 421 010a 0646     		mov	r6, r0
 422              	.LVL53:
 423              		.loc 1 195 0
 424 010c FFF7FEFF 		bl	dbg_check_unlock
 425              	.LVL54:
 426              	.LBB111:
 427 0110 2B46     		mov	r3, r5
 428              	@ 195 "../../test/testqueues.c" 1
 429 0112 83F31188 		msr     BASEPRI, r3
 430              	@ 0 "" 2
 431              	.LVL55:
 432              		.thumb
 433              	.LBE111:
 434              		.loc 1 196 0
 435 0116 F0B2     		uxtb	r0, r6
 436 0118 FFF7FEFF 		bl	test_emit_token
 437              	.LVL56:
 438              	.LBE103:
 439              	.LBB112:
 440              		.loc 1 198 0
 441 011c 2023     		movs	r3, #32
 442              	.LVL57:
 443              	@ 198 "../../test/testqueues.c" 1
 444 011e 83F31188 		msr     BASEPRI, r3
 445              	@ 0 "" 2
 446              	.LVL58:
 447              		.thumb
 448              	.LBE112:
 449 0122 FFF7FEFF 		bl	dbg_check_lock
ARM GAS  /tmp/ccxBGOiR.s 			page 9


 450              	.LVL59:
 451 0126 6069     		ldr	r0, [r4, #20]
 452 0128 A269     		ldr	r2, [r4, #24]
 453 012a 9042     		cmp	r0, r2
 454 012c 00F00781 		beq	.L28
 455 0130 2946     		mov	r1, r5
 456              	.L11:
 457 0132 0320     		movs	r0, #3
 458 0134 FFF7FEFF 		bl	_test_assert
 459              	.LVL60:
 460 0138 0446     		mov	r4, r0
 461 013a 0028     		cmp	r0, #0
 462 013c 40F0EC80 		bne	.L23
 463 0140 FFF7FEFF 		bl	dbg_check_unlock
 464              	.LVL61:
 465              	.LBB113:
 466 0144 2346     		mov	r3, r4
 467              	.LVL62:
 468              	@ 198 "../../test/testqueues.c" 1
 469 0146 83F31188 		msr     BASEPRI, r3
 470              	@ 0 "" 2
 471              	.LVL63:
 472              		.thumb
 473              	.LBE113:
 474              		.loc 1 199 0
 475 014a 0420     		movs	r0, #4
 476 014c 6D49     		ldr	r1, .L31+4
 477 014e FFF7FEFF 		bl	_test_assert_sequence
 478              	.LVL64:
 479 0152 0446     		mov	r4, r0
 480 0154 0028     		cmp	r0, #0
 481 0156 40F0E480 		bne	.L6
 482              	.LBB114:
 483              		.loc 1 200 0
 484 015a 2023     		movs	r3, #32
 485              	.LVL65:
 486              	@ 200 "../../test/testqueues.c" 1
 487 015c 83F31188 		msr     BASEPRI, r3
 488              	@ 0 "" 2
 489              	.LVL66:
 490              		.thumb
 491              	.LBE114:
 492 0160 674D     		ldr	r5, .L31
 493 0162 FFF7FEFF 		bl	dbg_check_lock
 494              	.LVL67:
 495 0166 2846     		mov	r0, r5
 496 0168 FFF7FEFF 		bl	chOQGetI
 497              	.LVL68:
 498 016c 0330     		adds	r0, r0, #3
 499 016e 14BF     		ite	ne
 500 0170 0021     		movne	r1, #0
 501 0172 0121     		moveq	r1, #1
 502 0174 0520     		movs	r0, #5
 503 0176 FFF7FEFF 		bl	_test_assert
 504              	.LVL69:
 505 017a 0646     		mov	r6, r0
 506              	.LVL70:
ARM GAS  /tmp/ccxBGOiR.s 			page 10


 507 017c 0028     		cmp	r0, #0
 508 017e 40F0E380 		bne	.L24
 509 0182 FFF7FEFF 		bl	dbg_check_unlock
 510              	.LVL71:
 511              	.LBB115:
 512 0186 3346     		mov	r3, r6
 513              	.LVL72:
 514              	@ 200 "../../test/testqueues.c" 1
 515 0188 83F31188 		msr     BASEPRI, r3
 516              	@ 0 "" 2
 517              	.LVL73:
 518              		.thumb
 519              	.LBE115:
 520              		.loc 1 203 0
 521 018c 5E4C     		ldr	r4, .L31+8
 522 018e 0822     		movs	r2, #8
 523 0190 6668     		ldr	r6, [r4, #4]
 524 0192 2846     		mov	r0, r5
 525 0194 3146     		mov	r1, r6
 526 0196 FFF7FEFF 		bl	chOQWriteTimeout
 527              	.LVL74:
 528              		.loc 1 204 0
 529 019a B0F1040C 		subs	ip, r0, #4
 530 019e DCF10007 		rsbs	r7, ip, #0
 531 01a2 57EB0C01 		adcs	r1, r7, ip
 532 01a6 0620     		movs	r0, #6
 533              	.LVL75:
 534 01a8 FFF7FEFF 		bl	_test_assert
 535              	.LVL76:
 536 01ac 0746     		mov	r7, r0
 537 01ae 0028     		cmp	r0, #0
 538 01b0 40F0B780 		bne	.L6
 539              	.LBB116:
 540              		.loc 1 205 0
 541 01b4 2023     		movs	r3, #32
 542              	.LVL77:
 543              	@ 205 "../../test/testqueues.c" 1
 544 01b6 83F31188 		msr     BASEPRI, r3
 545              	@ 0 "" 2
 546              	.LVL78:
 547              		.thumb
 548              	.LBE116:
 549 01ba FFF7FEFF 		bl	dbg_check_lock
 550              	.LVL79:
 551 01be AB68     		ldr	r3, [r5, #8]
 552 01c0 0720     		movs	r0, #7
 553 01c2 D3F10101 		rsbs	r1, r3, #1
 554 01c6 38BF     		it	cc
 555 01c8 0021     		movcc	r1, #0
 556 01ca FFF7FEFF 		bl	_test_assert
 557              	.LVL80:
 558 01ce 8046     		mov	r8, r0
 559 01d0 0028     		cmp	r0, #0
 560 01d2 40F0BF80 		bne	.L29
 561 01d6 FFF7FEFF 		bl	dbg_check_unlock
 562              	.LVL81:
 563              	.LBB117:
ARM GAS  /tmp/ccxBGOiR.s 			page 11


 564 01da 4346     		mov	r3, r8
 565              	.LVL82:
 566              	@ 205 "../../test/testqueues.c" 1
 567 01dc 83F31188 		msr     BASEPRI, r3
 568              	@ 0 "" 2
 569              	.LVL83:
 570              		.thumb
 571              	.LBE117:
 572              		.loc 1 206 0
 573 01e0 4A49     		ldr	r1, .L31+12
 574 01e2 2068     		ldr	r0, [r4, #0]
 575 01e4 8A69     		ldr	r2, [r1, #24]
 576 01e6 4A4B     		ldr	r3, .L31+16
 577              	.LVL84:
 578 01e8 9468     		ldr	r4, [r2, #8]
 579 01ea 4FF49871 		mov	r1, #304
 580 01ee CDF80080 		str	r8, [sp, #0]
 581 01f2 621C     		adds	r2, r4, #1
 582 01f4 FFF7FEFF 		bl	chThdCreateStatic
 583              	.LVL85:
 584 01f8 4649     		ldr	r1, .L31+20
 585              	.LBB118:
 586              		.loc 1 207 0
 587 01fa 2023     		movs	r3, #32
 588              	.LVL86:
 589              	.LBE118:
 590              		.loc 1 206 0
 591 01fc 0860     		str	r0, [r1, #0]
 592              	.LBB119:
 593              		.loc 1 207 0
 594              	@ 207 "../../test/testqueues.c" 1
 595 01fe 83F31188 		msr     BASEPRI, r3
 596              	@ 0 "" 2
 597              	.LVL87:
 598              		.thumb
 599              	.LBE119:
 600 0202 FFF7FEFF 		bl	dbg_check_lock
 601              	.LVL88:
 602 0206 2869     		ldr	r0, [r5, #16]
 603 0208 EA68     		ldr	r2, [r5, #12]
 604 020a AB68     		ldr	r3, [r5, #8]
 605 020c 841A     		subs	r4, r0, r2
 606 020e E11A     		subs	r1, r4, r3
 607 0210 0820     		movs	r0, #8
 608 0212 B1F1040E 		subs	lr, r1, #4
 609 0216 DEF10002 		rsbs	r2, lr, #0
 610 021a 52EB0E01 		adcs	r1, r2, lr
 611 021e FFF7FEFF 		bl	_test_assert
 612              	.LVL89:
 613 0222 0446     		mov	r4, r0
 614 0224 0028     		cmp	r0, #0
 615 0226 40F09B80 		bne	.L30
 616 022a FFF7FEFF 		bl	dbg_check_unlock
 617              	.LVL90:
 618              	.LBB120:
 619 022e 2346     		mov	r3, r4
 620              	.LVL91:
ARM GAS  /tmp/ccxBGOiR.s 			page 12


 621              	@ 207 "../../test/testqueues.c" 1
 622 0230 83F31188 		msr     BASEPRI, r3
 623              	@ 0 "" 2
 624              	.LVL92:
 625              		.thumb
 626              	.LBE120:
 627              		.loc 1 208 0
 628 0234 FFF7FEFF 		bl	test_wait_threads
 629              	.LVL93:
 630              	.LBB121:
 631              		.loc 1 211 0
 632 0238 2023     		movs	r3, #32
 633              	.LVL94:
 634              	@ 211 "../../test/testqueues.c" 1
 635 023a 83F31188 		msr     BASEPRI, r3
 636              	@ 0 "" 2
 637              	.LVL95:
 638              		.thumb
 639              	.LBE121:
 640 023e FFF7FEFF 		bl	dbg_check_lock
 641              	.LVL96:
 642              		.loc 1 212 0
 643 0242 2846     		mov	r0, r5
 644 0244 FFF7FEFF 		bl	chOQResetI
 645              	.LVL97:
 646              		.loc 1 213 0
 647 0248 FFF7FEFF 		bl	dbg_check_unlock
 648              	.LVL98:
 649              	.LBB122:
 650 024c 2346     		mov	r3, r4
 651              	.LVL99:
 652              	@ 213 "../../test/testqueues.c" 1
 653 024e 83F31188 		msr     BASEPRI, r3
 654              	@ 0 "" 2
 655              	.LVL100:
 656              		.thumb
 657              	.LBE122:
 658              	.LBB123:
 659              		.loc 1 214 0
 660 0252 2023     		movs	r3, #32
 661              	.LVL101:
 662              	@ 214 "../../test/testqueues.c" 1
 663 0254 83F31188 		msr     BASEPRI, r3
 664              	@ 0 "" 2
 665              	.LVL102:
 666              		.thumb
 667              	.LBE123:
 668 0258 FFF7FEFF 		bl	dbg_check_lock
 669              	.LVL103:
 670 025c 2F69     		ldr	r7, [r5, #16]
 671 025e E868     		ldr	r0, [r5, #12]
 672 0260 AB68     		ldr	r3, [r5, #8]
 673 0262 391A     		subs	r1, r7, r0
 674 0264 0920     		movs	r0, #9
 675 0266 CA1A     		subs	r2, r1, r3
 676 0268 5742     		rsbs	r7, r2, #0
 677 026a 57EB0201 		adcs	r1, r7, r2
ARM GAS  /tmp/ccxBGOiR.s 			page 13


 678 026e FFF7FEFF 		bl	_test_assert
 679              	.LVL104:
 680 0272 0746     		mov	r7, r0
 681 0274 0028     		cmp	r0, #0
 682 0276 67D1     		bne	.L24
 683 0278 FFF7FEFF 		bl	dbg_check_unlock
 684              	.LVL105:
 685              	.LBB124:
 686 027c 3B46     		mov	r3, r7
 687              	.LVL106:
 688              	@ 214 "../../test/testqueues.c" 1
 689 027e 83F31188 		msr     BASEPRI, r3
 690              	@ 0 "" 2
 691              	.LVL107:
 692              		.thumb
 693              	.LBE124:
 694              		.loc 1 217 0
 695 0282 0222     		movs	r2, #2
 696 0284 3146     		mov	r1, r6
 697 0286 2846     		mov	r0, r5
 698 0288 FFF7FEFF 		bl	chOQWriteTimeout
 699              	.LVL108:
 700              		.loc 1 218 0
 701 028c 0238     		subs	r0, r0, #2
 702              	.LVL109:
 703 028e 4342     		rsbs	r3, r0, #0
 704 0290 53EB0001 		adcs	r1, r3, r0
 705 0294 0A20     		movs	r0, #10
 706              	.LVL110:
 707 0296 FFF7FEFF 		bl	_test_assert
 708              	.LVL111:
 709 029a 0346     		mov	r3, r0
 710 029c 0028     		cmp	r0, #0
 711 029e 40D1     		bne	.L6
 712              		.loc 1 219 0
 713 02a0 3146     		mov	r1, r6
 714 02a2 0222     		movs	r2, #2
 715 02a4 2846     		mov	r0, r5
 716 02a6 FFF7FEFF 		bl	chOQWriteTimeout
 717              	.LVL112:
 718              		.loc 1 220 0
 719 02aa 821E     		subs	r2, r0, #2
 720 02ac 5142     		rsbs	r1, r2, #0
 721 02ae 5141     		adcs	r1, r1, r2
 722 02b0 0B20     		movs	r0, #11
 723              	.LVL113:
 724 02b2 FFF7FEFF 		bl	_test_assert
 725              	.LVL114:
 726 02b6 0028     		cmp	r0, #0
 727 02b8 33D1     		bne	.L6
 728              	.LBB125:
 729              		.loc 1 221 0
 730 02ba 2023     		movs	r3, #32
 731              	.LVL115:
 732              	@ 221 "../../test/testqueues.c" 1
 733 02bc 83F31188 		msr     BASEPRI, r3
 734              	@ 0 "" 2
ARM GAS  /tmp/ccxBGOiR.s 			page 14


 735              	.LVL116:
 736              		.thumb
 737              	.LBE125:
 738 02c0 FFF7FEFF 		bl	dbg_check_lock
 739              	.LVL117:
 740 02c4 AB68     		ldr	r3, [r5, #8]
 741 02c6 0C20     		movs	r0, #12
 742 02c8 D3F10101 		rsbs	r1, r3, #1
 743 02cc 38BF     		it	cc
 744 02ce 0021     		movcc	r1, #0
 745 02d0 FFF7FEFF 		bl	_test_assert
 746              	.LVL118:
 747 02d4 00BB     		cbnz	r0, .L23
 748 02d6 FFF7FEFF 		bl	dbg_check_unlock
 749              	.LVL119:
 750              	.LBB126:
 751 02da 0023     		movs	r3, #0
 752              	.LVL120:
 753              	@ 221 "../../test/testqueues.c" 1
 754 02dc 83F31188 		msr     BASEPRI, r3
 755              	@ 0 "" 2
 756              	.LVL121:
 757              		.thumb
 758              	.LBE126:
 759              		.loc 1 224 0
 760 02e0 0A22     		movs	r2, #10
 761 02e2 1946     		mov	r1, r3
 762 02e4 0648     		ldr	r0, .L31
 763 02e6 FFF7FEFF 		bl	chOQPutTimeout
 764              	.LVL122:
 765 02ea B0F1FF30 		subs	r0, r0, #-1
 766 02ee 4242     		rsbs	r2, r0, #0
 767 02f0 52EB0001 		adcs	r1, r2, r0
 768 02f4 0D20     		movs	r0, #13
 769              	.LBE99:
 770              	.LBE98:
 771              		.loc 1 225 0
 772 02f6 02B0     		add	sp, sp, #8
 773 02f8 BDE8F041 		pop	{r4, r5, r6, r7, r8, lr}
 774              	.LBB135:
 775              	.LBB132:
 776              		.loc 1 224 0
 777 02fc FFF7FEBF 		b	_test_assert
 778              	.LVL123:
 779              	.L32:
 780              		.align	2
 781              	.L31:
 782 0300 00000000 		.word	.LANCHOR0
 783 0304 00000000 		.word	.LC0
 784 0308 00000000 		.word	wa
 785 030c 00000000 		.word	rlist
 786 0310 00000000 		.word	thread2
 787 0314 00000000 		.word	threads
 788              	.LVL124:
 789              	.L23:
 790              		.loc 1 221 0
 791 0318 FFF7FEFF 		bl	dbg_check_unlock
ARM GAS  /tmp/ccxBGOiR.s 			page 15


 792              	.LVL125:
 793              	.LBB127:
 794 031c 0023     		movs	r3, #0
 795              	.LVL126:
 796              	@ 221 "../../test/testqueues.c" 1
 797 031e 83F31188 		msr     BASEPRI, r3
 798              	@ 0 "" 2
 799              	.LVL127:
 800              		.thumb
 801              	.L6:
 802              	.LBE127:
 803              	.LBE132:
 804              	.LBE135:
 805              		.loc 1 225 0
 806 0322 02B0     		add	sp, sp, #8
 807 0324 BDE8F081 		pop	{r4, r5, r6, r7, r8, pc}
 808              	.LVL128:
 809              	.L27:
 810              	.LBB136:
 811              	.LBB133:
 812              		.loc 1 187 0
 813 0328 FFF7FEFF 		bl	dbg_check_unlock
 814              	.LVL129:
 815              	.LBB128:
 816 032c 3346     		mov	r3, r6
 817              	@ 187 "../../test/testqueues.c" 1
 818 032e 83F31188 		msr     BASEPRI, r3
 819              	@ 0 "" 2
 820              	.LVL130:
 821              		.thumb
 822 0332 F6E7     		b	.L6
 823              	.LVL131:
 824              	.L26:
 825              	.LBE128:
 826              	.LBE133:
 827              	.LBE136:
 828              		.loc 1 182 0 discriminator 1
 829 0334 A968     		ldr	r1, [r5, #8]
 830 0336 0031     		adds	r1, r1, #0
 831 0338 18BF     		it	ne
 832 033a 0121     		movne	r1, #1
 833 033c 6FE6     		b	.L7
 834              	.LVL132:
 835              	.L28:
 836              	.LBB137:
 837              	.LBB134:
 838              		.loc 1 198 0
 839 033e A468     		ldr	r4, [r4, #8]
 840 0340 211C     		adds	r1, r4, #0
 841 0342 18BF     		it	ne
 842 0344 0121     		movne	r1, #1
 843 0346 F4E6     		b	.L11
 844              	.LVL133:
 845              	.L24:
 846              		.loc 1 214 0
 847 0348 FFF7FEFF 		bl	dbg_check_unlock
 848              	.LVL134:
ARM GAS  /tmp/ccxBGOiR.s 			page 16


 849              	.LBB129:
 850 034c 2346     		mov	r3, r4
 851              	@ 214 "../../test/testqueues.c" 1
 852 034e 83F31188 		msr     BASEPRI, r3
 853              	@ 0 "" 2
 854              	.LVL135:
 855              		.thumb
 856 0352 E6E7     		b	.L6
 857              	.LVL136:
 858              	.L29:
 859              	.LBE129:
 860              		.loc 1 205 0
 861 0354 FFF7FEFF 		bl	dbg_check_unlock
 862              	.LVL137:
 863              	.LBB130:
 864 0358 3B46     		mov	r3, r7
 865              	@ 205 "../../test/testqueues.c" 1
 866 035a 83F31188 		msr     BASEPRI, r3
 867              	@ 0 "" 2
 868              	.LVL138:
 869              		.thumb
 870 035e E0E7     		b	.L6
 871              	.LVL139:
 872              	.L30:
 873              	.LBE130:
 874              		.loc 1 207 0
 875 0360 FFF7FEFF 		bl	dbg_check_unlock
 876              	.LVL140:
 877              	.LBB131:
 878 0364 4346     		mov	r3, r8
 879              	@ 207 "../../test/testqueues.c" 1
 880 0366 83F31188 		msr     BASEPRI, r3
 881              	@ 0 "" 2
 882              	.LVL141:
 883              		.thumb
 884 036a DAE7     		b	.L6
 885              	.LBE131:
 886              	.LBE134:
 887              	.LBE137:
 888              		.cfi_endproc
 889              	.LFE13:
 890              		.size	queues2_execute, .-queues2_execute
 891 036c AFF30080 		.section	.text.queues1_execute,"ax",%progbits
 892              		.align	2
 893              		.p2align 4,,15
 894              		.thumb
 895              		.thumb_func
 896              		.type	queues1_execute, %function
 897              	queues1_execute:
 898              	.LFB10:
 899              		.loc 1 90 0
 900              		.cfi_startproc
 901              		@ args = 0, pretend = 0, frame = 0
 902              		@ frame_needed = 0, uses_anonymous_args = 0
 903 0000 2DE9F043 		push	{r4, r5, r6, r7, r8, r9, lr}
 904              	.LCFI8:
 905              		.cfi_def_cfa_offset 28
ARM GAS  /tmp/ccxBGOiR.s 			page 17


 906              		.cfi_offset 4, -28
 907              		.cfi_offset 5, -24
 908              		.cfi_offset 6, -20
 909              		.cfi_offset 7, -16
 910              		.cfi_offset 8, -12
 911              		.cfi_offset 9, -8
 912              		.cfi_offset 14, -4
 913              	.LBB174:
 914              		.loc 1 95 0
 915 0004 2023     		movs	r3, #32
 916              	.LVL142:
 917              	.LBE174:
 918              		.loc 1 90 0
 919 0006 83B0     		sub	sp, sp, #12
 920              	.LCFI9:
 921              		.cfi_def_cfa_offset 40
 922              	.LBB175:
 923              		.loc 1 95 0
 924              	@ 95 "../../test/testqueues.c" 1
 925 0008 83F31188 		msr     BASEPRI, r3
 926              	@ 0 "" 2
 927              	.LVL143:
 928              		.thumb
 929              	.LBE175:
 930 000c C34C     		ldr	r4, .L52
 931 000e FFF7FEFF 		bl	dbg_check_lock
 932              	.LVL144:
 933 0012 A168     		ldr	r1, [r4, #8]
 934 0014 0120     		movs	r0, #1
 935 0016 D1F10101 		rsbs	r1, r1, #1
 936 001a 38BF     		it	cc
 937 001c 0021     		movcc	r1, #0
 938 001e FFF7FEFF 		bl	_test_assert
 939              	.LVL145:
 940 0022 0546     		mov	r5, r0
 941 0024 0028     		cmp	r0, #0
 942 0026 40F08A81 		bne	.L48
 943              	.LBB176:
 944              	.LBB177:
 945 002a FFF7FEFF 		bl	dbg_check_unlock
 946              	.LVL146:
 947              	.LBB178:
 948 002e 2B46     		mov	r3, r5
 949              	.LVL147:
 950              	@ 95 "../../test/testqueues.c" 1
 951 0030 83F31188 		msr     BASEPRI, r3
 952              	@ 0 "" 2
 953              	.LVL148:
 954              		.thumb
 955              	.LBE178:
 956              	.LBB179:
 957              		.loc 1 98 0
 958 0034 2023     		movs	r3, #32
 959              	.LVL149:
 960              	@ 98 "../../test/testqueues.c" 1
 961 0036 83F31188 		msr     BASEPRI, r3
 962              	@ 0 "" 2
ARM GAS  /tmp/ccxBGOiR.s 			page 18


 963              	.LVL150:
 964              		.thumb
 965              	.LBE179:
 966 003a FFF7FEFF 		bl	dbg_check_lock
 967              	.LVL151:
 968              		.loc 1 100 0
 969 003e 4121     		movs	r1, #65
 970 0040 2046     		mov	r0, r4
 971 0042 FFF7FEFF 		bl	chIQPutI
 972              	.LVL152:
 973 0046 4221     		movs	r1, #66
 974 0048 2046     		mov	r0, r4
 975 004a FFF7FEFF 		bl	chIQPutI
 976              	.LVL153:
 977 004e 4321     		movs	r1, #67
 978 0050 2046     		mov	r0, r4
 979 0052 FFF7FEFF 		bl	chIQPutI
 980              	.LVL154:
 981 0056 4421     		movs	r1, #68
 982 0058 2046     		mov	r0, r4
 983 005a FFF7FEFF 		bl	chIQPutI
 984              	.LVL155:
 985              		.loc 1 101 0
 986 005e FFF7FEFF 		bl	dbg_check_unlock
 987              	.LVL156:
 988              	.LBB180:
 989 0062 2B46     		mov	r3, r5
 990              	.LVL157:
 991              	@ 101 "../../test/testqueues.c" 1
 992 0064 83F31188 		msr     BASEPRI, r3
 993              	@ 0 "" 2
 994              	.LVL158:
 995              		.thumb
 996              	.LBE180:
 997              	.LBB181:
 998              		.loc 1 102 0
 999 0068 2023     		movs	r3, #32
 1000              	.LVL159:
 1001              	@ 102 "../../test/testqueues.c" 1
 1002 006a 83F31188 		msr     BASEPRI, r3
 1003              	@ 0 "" 2
 1004              	.LVL160:
 1005              		.thumb
 1006              	.LBE181:
 1007 006e FFF7FEFF 		bl	dbg_check_lock
 1008              	.LVL161:
 1009 0072 6269     		ldr	r2, [r4, #20]
 1010 0074 A369     		ldr	r3, [r4, #24]
 1011 0076 9A42     		cmp	r2, r3
 1012 0078 00F07581 		beq	.L49
 1013 007c 2946     		mov	r1, r5
 1014              	.L36:
 1015 007e 0220     		movs	r0, #2
 1016 0080 FFF7FEFF 		bl	_test_assert
 1017              	.LVL162:
 1018 0084 0646     		mov	r6, r0
 1019 0086 0028     		cmp	r0, #0
ARM GAS  /tmp/ccxBGOiR.s 			page 19


 1020 0088 40F05981 		bne	.L48
 1021 008c FFF7FEFF 		bl	dbg_check_unlock
 1022              	.LVL163:
 1023              	.LBB182:
 1024 0090 3346     		mov	r3, r6
 1025              	.LVL164:
 1026              	@ 102 "../../test/testqueues.c" 1
 1027 0092 83F31188 		msr     BASEPRI, r3
 1028              	@ 0 "" 2
 1029              	.LVL165:
 1030              		.thumb
 1031              	.LBE182:
 1032              	.LBB183:
 1033              		.loc 1 103 0
 1034 0096 2023     		movs	r3, #32
 1035              	.LVL166:
 1036              	@ 103 "../../test/testqueues.c" 1
 1037 0098 83F31188 		msr     BASEPRI, r3
 1038              	@ 0 "" 2
 1039              	.LVL167:
 1040              		.thumb
 1041              	.LBE183:
 1042 009c 9F4D     		ldr	r5, .L52
 1043 009e FFF7FEFF 		bl	dbg_check_lock
 1044              	.LVL168:
 1045 00a2 3146     		mov	r1, r6
 1046 00a4 2846     		mov	r0, r5
 1047 00a6 FFF7FEFF 		bl	chIQPutI
 1048              	.LVL169:
 1049 00aa 0430     		adds	r0, r0, #4
 1050 00ac 14BF     		ite	ne
 1051 00ae 0021     		movne	r1, #0
 1052 00b0 0121     		moveq	r1, #1
 1053 00b2 0320     		movs	r0, #3
 1054 00b4 FFF7FEFF 		bl	_test_assert
 1055              	.LVL170:
 1056 00b8 0746     		mov	r7, r0
 1057 00ba 0028     		cmp	r0, #0
 1058 00bc 40F04D81 		bne	.L50
 1059 00c0 FFF7FEFF 		bl	dbg_check_unlock
 1060              	.LVL171:
 1061              	.LBB184:
 1062 00c4 3B46     		mov	r3, r7
 1063              	.LVL172:
 1064              	@ 103 "../../test/testqueues.c" 1
 1065 00c6 83F31188 		msr     BASEPRI, r3
 1066              	@ 0 "" 2
 1067              	.LVL173:
 1068              		.thumb
 1069              	.LBE184:
 1070              		.loc 1 107 0
 1071 00ca 4FF0FF31 		mov	r1, #-1
 1072 00ce 2846     		mov	r0, r5
 1073 00d0 FFF7FEFF 		bl	chIQGetTimeout
 1074              	.LVL174:
 1075 00d4 C0B2     		uxtb	r0, r0
 1076 00d6 FFF7FEFF 		bl	test_emit_token
ARM GAS  /tmp/ccxBGOiR.s 			page 20


 1077              	.LVL175:
 1078 00da 4FF0FF31 		mov	r1, #-1
 1079 00de 2846     		mov	r0, r5
 1080 00e0 FFF7FEFF 		bl	chIQGetTimeout
 1081              	.LVL176:
 1082 00e4 C0B2     		uxtb	r0, r0
 1083 00e6 FFF7FEFF 		bl	test_emit_token
 1084              	.LVL177:
 1085 00ea 4FF0FF31 		mov	r1, #-1
 1086 00ee 2846     		mov	r0, r5
 1087 00f0 FFF7FEFF 		bl	chIQGetTimeout
 1088              	.LVL178:
 1089 00f4 C0B2     		uxtb	r0, r0
 1090 00f6 FFF7FEFF 		bl	test_emit_token
 1091              	.LVL179:
 1092 00fa 4FF0FF31 		mov	r1, #-1
 1093 00fe 2846     		mov	r0, r5
 1094 0100 FFF7FEFF 		bl	chIQGetTimeout
 1095              	.LVL180:
 1096 0104 C0B2     		uxtb	r0, r0
 1097 0106 FFF7FEFF 		bl	test_emit_token
 1098              	.LVL181:
 1099              	.LBB185:
 1100              		.loc 1 108 0
 1101 010a 2023     		movs	r3, #32
 1102              	.LVL182:
 1103              	@ 108 "../../test/testqueues.c" 1
 1104 010c 83F31188 		msr     BASEPRI, r3
 1105              	@ 0 "" 2
 1106              	.LVL183:
 1107              		.thumb
 1108              	.LBE185:
 1109 0110 FFF7FEFF 		bl	dbg_check_lock
 1110              	.LVL184:
 1111 0114 AE68     		ldr	r6, [r5, #8]
 1112 0116 0420     		movs	r0, #4
 1113 0118 D6F10101 		rsbs	r1, r6, #1
 1114 011c 38BF     		it	cc
 1115 011e 0021     		movcc	r1, #0
 1116 0120 FFF7FEFF 		bl	_test_assert
 1117              	.LVL185:
 1118 0124 0646     		mov	r6, r0
 1119 0126 0028     		cmp	r0, #0
 1120 0128 40F01181 		bne	.L47
 1121 012c FFF7FEFF 		bl	dbg_check_unlock
 1122              	.LVL186:
 1123              	.LBB186:
 1124 0130 3346     		mov	r3, r6
 1125              	.LVL187:
 1126              	@ 108 "../../test/testqueues.c" 1
 1127 0132 83F31188 		msr     BASEPRI, r3
 1128              	@ 0 "" 2
 1129              	.LVL188:
 1130              		.thumb
 1131              	.LBE186:
 1132              		.loc 1 109 0
 1133 0136 0520     		movs	r0, #5
ARM GAS  /tmp/ccxBGOiR.s 			page 21


 1134 0138 7949     		ldr	r1, .L52+4
 1135 013a FFF7FEFF 		bl	_test_assert_sequence
 1136              	.LVL189:
 1137 013e 0646     		mov	r6, r0
 1138 0140 0028     		cmp	r0, #0
 1139 0142 40F00181 		bne	.L33
 1140              	.LBB187:
 1141              		.loc 1 112 0
 1142 0146 2023     		movs	r3, #32
 1143              	.LVL190:
 1144              	@ 112 "../../test/testqueues.c" 1
 1145 0148 83F31188 		msr     BASEPRI, r3
 1146              	@ 0 "" 2
 1147              	.LVL191:
 1148              		.thumb
 1149              	.LBE187:
 1150 014c FFF7FEFF 		bl	dbg_check_lock
 1151              	.LVL192:
 1152              		.loc 1 114 0
 1153 0150 4121     		movs	r1, #65
 1154 0152 2846     		mov	r0, r5
 1155 0154 FFF7FEFF 		bl	chIQPutI
 1156              	.LVL193:
 1157 0158 4221     		movs	r1, #66
 1158 015a 2846     		mov	r0, r5
 1159 015c FFF7FEFF 		bl	chIQPutI
 1160              	.LVL194:
 1161 0160 4321     		movs	r1, #67
 1162 0162 2846     		mov	r0, r5
 1163 0164 FFF7FEFF 		bl	chIQPutI
 1164              	.LVL195:
 1165 0168 4421     		movs	r1, #68
 1166 016a 2846     		mov	r0, r5
 1167 016c FFF7FEFF 		bl	chIQPutI
 1168              	.LVL196:
 1169              		.loc 1 115 0
 1170 0170 FFF7FEFF 		bl	dbg_check_unlock
 1171              	.LVL197:
 1172              	.LBB188:
 1173 0174 3346     		mov	r3, r6
 1174              	.LVL198:
 1175              	@ 115 "../../test/testqueues.c" 1
 1176 0176 83F31188 		msr     BASEPRI, r3
 1177              	@ 0 "" 2
 1178              	.LVL199:
 1179              		.thumb
 1180              	.LBE188:
 1181              		.loc 1 118 0
 1182 017a DFF8B481 		ldr	r8, .L52+20
 1183 017e 0822     		movs	r2, #8
 1184 0180 D8F80460 		ldr	r6, [r8, #4]
 1185 0184 2846     		mov	r0, r5
 1186 0186 3146     		mov	r1, r6
 1187 0188 FFF7FEFF 		bl	chIQReadTimeout
 1188              	.LVL200:
 1189              		.loc 1 119 0
 1190 018c B0F1040C 		subs	ip, r0, #4
ARM GAS  /tmp/ccxBGOiR.s 			page 22


 1191 0190 DCF10007 		rsbs	r7, ip, #0
 1192 0194 57EB0C01 		adcs	r1, r7, ip
 1193 0198 0620     		movs	r0, #6
 1194              	.LVL201:
 1195 019a FFF7FEFF 		bl	_test_assert
 1196              	.LVL202:
 1197 019e 0746     		mov	r7, r0
 1198 01a0 0028     		cmp	r0, #0
 1199 01a2 40F0D180 		bne	.L33
 1200              	.LBB189:
 1201              		.loc 1 120 0
 1202 01a6 2023     		movs	r3, #32
 1203              	.LVL203:
 1204              	@ 120 "../../test/testqueues.c" 1
 1205 01a8 83F31188 		msr     BASEPRI, r3
 1206              	@ 0 "" 2
 1207              	.LVL204:
 1208              		.thumb
 1209              	.LBE189:
 1210 01ac FFF7FEFF 		bl	dbg_check_lock
 1211              	.LVL205:
 1212 01b0 A968     		ldr	r1, [r5, #8]
 1213 01b2 0720     		movs	r0, #7
 1214 01b4 D1F10101 		rsbs	r1, r1, #1
 1215 01b8 38BF     		it	cc
 1216 01ba 0021     		movcc	r1, #0
 1217 01bc FFF7FEFF 		bl	_test_assert
 1218              	.LVL206:
 1219 01c0 8146     		mov	r9, r0
 1220 01c2 0028     		cmp	r0, #0
 1221 01c4 40F0C380 		bne	.L47
 1222 01c8 FFF7FEFF 		bl	dbg_check_unlock
 1223              	.LVL207:
 1224              	.LBB190:
 1225 01cc 4B46     		mov	r3, r9
 1226              	.LVL208:
 1227              	@ 120 "../../test/testqueues.c" 1
 1228 01ce 83F31188 		msr     BASEPRI, r3
 1229              	@ 0 "" 2
 1230              	.LVL209:
 1231              		.thumb
 1232              	.LBE190:
 1233              	.LBB191:
 1234              		.loc 1 123 0
 1235 01d2 2023     		movs	r3, #32
 1236              	.LVL210:
 1237              	@ 123 "../../test/testqueues.c" 1
 1238 01d4 83F31188 		msr     BASEPRI, r3
 1239              	@ 0 "" 2
 1240              	.LVL211:
 1241              		.thumb
 1242              	.LBE191:
 1243 01d8 FFF7FEFF 		bl	dbg_check_lock
 1244              	.LVL212:
 1245              		.loc 1 125 0
 1246 01dc 4121     		movs	r1, #65
 1247 01de 2846     		mov	r0, r5
ARM GAS  /tmp/ccxBGOiR.s 			page 23


 1248 01e0 FFF7FEFF 		bl	chIQPutI
 1249              	.LVL213:
 1250 01e4 4221     		movs	r1, #66
 1251 01e6 2846     		mov	r0, r5
 1252 01e8 FFF7FEFF 		bl	chIQPutI
 1253              	.LVL214:
 1254 01ec 4321     		movs	r1, #67
 1255 01ee 2846     		mov	r0, r5
 1256 01f0 FFF7FEFF 		bl	chIQPutI
 1257              	.LVL215:
 1258 01f4 4421     		movs	r1, #68
 1259 01f6 2846     		mov	r0, r5
 1260 01f8 FFF7FEFF 		bl	chIQPutI
 1261              	.LVL216:
 1262              		.loc 1 126 0
 1263 01fc FFF7FEFF 		bl	dbg_check_unlock
 1264              	.LVL217:
 1265              	.LBB192:
 1266 0200 4B46     		mov	r3, r9
 1267              	.LVL218:
 1268              	@ 126 "../../test/testqueues.c" 1
 1269 0202 83F31188 		msr     BASEPRI, r3
 1270              	@ 0 "" 2
 1271              	.LVL219:
 1272              		.thumb
 1273              	.LBE192:
 1274              		.loc 1 129 0
 1275 0206 0222     		movs	r2, #2
 1276 0208 3146     		mov	r1, r6
 1277 020a 2846     		mov	r0, r5
 1278 020c FFF7FEFF 		bl	chIQReadTimeout
 1279              	.LVL220:
 1280              		.loc 1 130 0
 1281 0210 B0F1020E 		subs	lr, r0, #2
 1282 0214 DEF10002 		rsbs	r2, lr, #0
 1283 0218 52EB0E01 		adcs	r1, r2, lr
 1284 021c 0820     		movs	r0, #8
 1285              	.LVL221:
 1286 021e FFF7FEFF 		bl	_test_assert
 1287              	.LVL222:
 1288 0222 0028     		cmp	r0, #0
 1289 0224 40F09080 		bne	.L33
 1290              		.loc 1 131 0
 1291 0228 0222     		movs	r2, #2
 1292 022a 0346     		mov	r3, r0
 1293 022c 3146     		mov	r1, r6
 1294 022e 2846     		mov	r0, r5
 1295 0230 FFF7FEFF 		bl	chIQReadTimeout
 1296              	.LVL223:
 1297              		.loc 1 132 0
 1298 0234 831E     		subs	r3, r0, #2
 1299 0236 5842     		rsbs	r0, r3, #0
 1300              	.LVL224:
 1301 0238 50EB0301 		adcs	r1, r0, r3
 1302 023c 0920     		movs	r0, #9
 1303 023e FFF7FEFF 		bl	_test_assert
 1304              	.LVL225:
ARM GAS  /tmp/ccxBGOiR.s 			page 24


 1305 0242 0746     		mov	r7, r0
 1306 0244 0028     		cmp	r0, #0
 1307 0246 7FD1     		bne	.L33
 1308              	.LBB193:
 1309              		.loc 1 133 0
 1310 0248 2023     		movs	r3, #32
 1311              	.LVL226:
 1312              	@ 133 "../../test/testqueues.c" 1
 1313 024a 83F31188 		msr     BASEPRI, r3
 1314              	@ 0 "" 2
 1315              	.LVL227:
 1316              		.thumb
 1317              	.LBE193:
 1318 024e FFF7FEFF 		bl	dbg_check_lock
 1319              	.LVL228:
 1320 0252 AE68     		ldr	r6, [r5, #8]
 1321 0254 0A20     		movs	r0, #10
 1322 0256 D6F10101 		rsbs	r1, r6, #1
 1323 025a 38BF     		it	cc
 1324 025c 0021     		movcc	r1, #0
 1325 025e FFF7FEFF 		bl	_test_assert
 1326              	.LVL229:
 1327 0262 0646     		mov	r6, r0
 1328 0264 0028     		cmp	r0, #0
 1329 0266 72D1     		bne	.L47
 1330 0268 FFF7FEFF 		bl	dbg_check_unlock
 1331              	.LVL230:
 1332              	.LBB194:
 1333 026c 3346     		mov	r3, r6
 1334              	.LVL231:
 1335              	@ 133 "../../test/testqueues.c" 1
 1336 026e 83F31188 		msr     BASEPRI, r3
 1337              	@ 0 "" 2
 1338              	.LVL232:
 1339              		.thumb
 1340              	.LBE194:
 1341              	.LBB195:
 1342              		.loc 1 136 0
 1343 0272 2023     		movs	r3, #32
 1344              	.LVL233:
 1345              	@ 136 "../../test/testqueues.c" 1
 1346 0274 83F31188 		msr     BASEPRI, r3
 1347              	@ 0 "" 2
 1348              	.LVL234:
 1349              		.thumb
 1350              	.LBE195:
 1351 0278 FFF7FEFF 		bl	dbg_check_lock
 1352              	.LVL235:
 1353              		.loc 1 137 0
 1354 027c 3146     		mov	r1, r6
 1355 027e 2846     		mov	r0, r5
 1356 0280 FFF7FEFF 		bl	chIQPutI
 1357              	.LVL236:
 1358              		.loc 1 138 0
 1359 0284 2846     		mov	r0, r5
 1360 0286 FFF7FEFF 		bl	chIQResetI
 1361              	.LVL237:
ARM GAS  /tmp/ccxBGOiR.s 			page 25


 1362              		.loc 1 139 0
 1363 028a FFF7FEFF 		bl	dbg_check_unlock
 1364              	.LVL238:
 1365              	.LBB196:
 1366 028e 3346     		mov	r3, r6
 1367              	.LVL239:
 1368              	@ 139 "../../test/testqueues.c" 1
 1369 0290 83F31188 		msr     BASEPRI, r3
 1370              	@ 0 "" 2
 1371              	.LVL240:
 1372              		.thumb
 1373              	.LBE196:
 1374              	.LBB197:
 1375              		.loc 1 140 0
 1376 0294 2023     		movs	r3, #32
 1377              	.LVL241:
 1378              	@ 140 "../../test/testqueues.c" 1
 1379 0296 83F31188 		msr     BASEPRI, r3
 1380              	@ 0 "" 2
 1381              	.LVL242:
 1382              		.thumb
 1383              	.LBE197:
 1384 029a FFF7FEFF 		bl	dbg_check_lock
 1385              	.LVL243:
 1386 029e A968     		ldr	r1, [r5, #8]
 1387 02a0 0B20     		movs	r0, #11
 1388 02a2 D1F10101 		rsbs	r1, r1, #1
 1389 02a6 38BF     		it	cc
 1390 02a8 0021     		movcc	r1, #0
 1391 02aa FFF7FEFF 		bl	_test_assert
 1392              	.LVL244:
 1393 02ae 0028     		cmp	r0, #0
 1394 02b0 45D1     		bne	.L48
 1395 02b2 FFF7FEFF 		bl	dbg_check_unlock
 1396              	.LVL245:
 1397              	.LBB198:
 1398 02b6 0023     		movs	r3, #0
 1399              	.LVL246:
 1400              	@ 140 "../../test/testqueues.c" 1
 1401 02b8 83F31188 		msr     BASEPRI, r3
 1402              	@ 0 "" 2
 1403              	.LVL247:
 1404              		.thumb
 1405              	.LBE198:
 1406              		.loc 1 141 0
 1407 02bc 194A     		ldr	r2, .L52+8
 1408 02be 1D46     		mov	r5, r3
 1409 02c0 9369     		ldr	r3, [r2, #24]
 1410              	.LVL248:
 1411 02c2 D8F80000 		ldr	r0, [r8, #0]
 1412 02c6 9A68     		ldr	r2, [r3, #8]
 1413 02c8 4FF49871 		mov	r1, #304
 1414 02cc 0095     		str	r5, [sp, #0]
 1415 02ce 0132     		adds	r2, r2, #1
 1416 02d0 154B     		ldr	r3, .L52+12
 1417 02d2 FFF7FEFF 		bl	chThdCreateStatic
 1418              	.LVL249:
ARM GAS  /tmp/ccxBGOiR.s 			page 26


 1419 02d6 1549     		ldr	r1, .L52+16
 1420              	.LBB199:
 1421              		.loc 1 142 0
 1422 02d8 2023     		movs	r3, #32
 1423              	.LVL250:
 1424              	.LBE199:
 1425              		.loc 1 141 0
 1426 02da 0860     		str	r0, [r1, #0]
 1427              	.LBB200:
 1428              		.loc 1 142 0
 1429              	@ 142 "../../test/testqueues.c" 1
 1430 02dc 83F31188 		msr     BASEPRI, r3
 1431              	@ 0 "" 2
 1432              	.LVL251:
 1433              		.thumb
 1434              	.LBE200:
 1435 02e0 FFF7FEFF 		bl	dbg_check_lock
 1436              	.LVL252:
 1437 02e4 A468     		ldr	r4, [r4, #8]
 1438 02e6 0C20     		movs	r0, #12
 1439 02e8 631B     		subs	r3, r4, r5
 1440 02ea 5A42     		rsbs	r2, r3, #0
 1441 02ec 52EB0301 		adcs	r1, r2, r3
 1442 02f0 FFF7FEFF 		bl	_test_assert
 1443              	.LVL253:
 1444 02f4 0446     		mov	r4, r0
 1445 02f6 0028     		cmp	r0, #0
 1446 02f8 3AD1     		bne	.L51
 1447 02fa FFF7FEFF 		bl	dbg_check_unlock
 1448              	.LVL254:
 1449              	.LBB201:
 1450 02fe 2346     		mov	r3, r4
 1451              	.LVL255:
 1452              	@ 142 "../../test/testqueues.c" 1
 1453 0300 83F31188 		msr     BASEPRI, r3
 1454              	@ 0 "" 2
 1455              	.LVL256:
 1456              		.thumb
 1457              	.LBE201:
 1458              		.loc 1 143 0
 1459 0304 FFF7FEFF 		bl	test_wait_threads
 1460              	.LVL257:
 1461              		.loc 1 146 0
 1462 0308 0A21     		movs	r1, #10
 1463 030a 0448     		ldr	r0, .L52
 1464 030c FFF7FEFF 		bl	chIQGetTimeout
 1465              	.LVL258:
 1466 0310 B0F1FF30 		subs	r0, r0, #-1
 1467 0314 4142     		rsbs	r1, r0, #0
 1468 0316 4141     		adcs	r1, r1, r0
 1469 0318 0D20     		movs	r0, #13
 1470 031a 0BE0     		b	.L53
 1471              	.L54:
 1472              		.align	2
 1473              	.L52:
 1474 031c 00000000 		.word	.LANCHOR1
 1475 0320 00000000 		.word	.LC0
ARM GAS  /tmp/ccxBGOiR.s 			page 27


 1476 0324 00000000 		.word	rlist
 1477 0328 00000000 		.word	thread1
 1478 032c 00000000 		.word	threads
 1479 0330 00000000 		.word	wa
 1480              	.L53:
 1481              	.LBE177:
 1482              	.LBE176:
 1483              		.loc 1 147 0
 1484 0334 03B0     		add	sp, sp, #12
 1485 0336 BDE8F043 		pop	{r4, r5, r6, r7, r8, r9, lr}
 1486              	.LBB208:
 1487              	.LBB206:
 1488              		.loc 1 146 0
 1489 033a FFF7FEBF 		b	_test_assert
 1490              	.LVL259:
 1491              	.L48:
 1492              		.loc 1 140 0
 1493 033e FFF7FEFF 		bl	dbg_check_unlock
 1494              	.LVL260:
 1495              	.LBB202:
 1496 0342 0023     		movs	r3, #0
 1497              	.LVL261:
 1498              	@ 140 "../../test/testqueues.c" 1
 1499 0344 83F31188 		msr     BASEPRI, r3
 1500              	@ 0 "" 2
 1501              	.LVL262:
 1502              		.thumb
 1503              	.L33:
 1504              	.LBE202:
 1505              	.LBE206:
 1506              	.LBE208:
 1507              		.loc 1 147 0
 1508 0348 03B0     		add	sp, sp, #12
 1509 034a BDE8F083 		pop	{r4, r5, r6, r7, r8, r9, pc}
 1510              	.LVL263:
 1511              	.L47:
 1512              	.LBB209:
 1513              	.LBB207:
 1514              		.loc 1 133 0
 1515 034e FFF7FEFF 		bl	dbg_check_unlock
 1516              	.LVL264:
 1517              	.LBB203:
 1518 0352 3B46     		mov	r3, r7
 1519              	@ 133 "../../test/testqueues.c" 1
 1520 0354 83F31188 		msr     BASEPRI, r3
 1521              	@ 0 "" 2
 1522              	.LVL265:
 1523              		.thumb
 1524 0358 F6E7     		b	.L33
 1525              	.LVL266:
 1526              	.L50:
 1527              	.LBE203:
 1528              		.loc 1 103 0
 1529 035a FFF7FEFF 		bl	dbg_check_unlock
 1530              	.LVL267:
 1531              	.LBB204:
 1532 035e 3346     		mov	r3, r6
ARM GAS  /tmp/ccxBGOiR.s 			page 28


 1533              	@ 103 "../../test/testqueues.c" 1
 1534 0360 83F31188 		msr     BASEPRI, r3
 1535              	@ 0 "" 2
 1536              	.LVL268:
 1537              		.thumb
 1538 0364 F0E7     		b	.L33
 1539              	.LVL269:
 1540              	.L49:
 1541              	.LBE204:
 1542              		.loc 1 102 0
 1543 0366 A068     		ldr	r0, [r4, #8]
 1544 0368 011C     		adds	r1, r0, #0
 1545 036a 18BF     		it	ne
 1546 036c 0121     		movne	r1, #1
 1547 036e 86E6     		b	.L36
 1548              	.L51:
 1549              		.loc 1 142 0
 1550 0370 FFF7FEFF 		bl	dbg_check_unlock
 1551              	.LVL270:
 1552              	.LBB205:
 1553 0374 2B46     		mov	r3, r5
 1554              	@ 142 "../../test/testqueues.c" 1
 1555 0376 83F31188 		msr     BASEPRI, r3
 1556              	@ 0 "" 2
 1557              	.LVL271:
 1558              		.thumb
 1559 037a E5E7     		b	.L33
 1560              	.LBE205:
 1561              	.LBE207:
 1562              	.LBE209:
 1563              		.cfi_endproc
 1564              	.LFE10:
 1565              		.size	queues1_execute, .-queues1_execute
 1566              		.global	patternqueues
 1567              		.global	testqueues2
 1568              		.global	testqueues1
 1569 037c AFF30080 		.section	.rodata.testqueues1,"a",%progbits
 1570              		.align	2
 1571              		.type	testqueues1, %object
 1572              		.size	testqueues1, 16
 1573              	testqueues1:
 1574 0000 20000000 		.word	.LC2
 1575 0004 00000000 		.word	queues1_setup
 1576 0008 00000000 		.word	0
 1577 000c 00000000 		.word	queues1_execute
 1578              		.section	.rodata.testqueues2,"a",%progbits
 1579              		.align	2
 1580              		.type	testqueues2, %object
 1581              		.size	testqueues2, 16
 1582              	testqueues2:
 1583 0000 08000000 		.word	.LC1
 1584 0004 00000000 		.word	queues2_setup
 1585 0008 00000000 		.word	0
 1586 000c 00000000 		.word	queues2_execute
 1587              		.section	.rodata.str1.4,"aMS",%progbits,1
 1588              		.align	2
 1589              	.LC0:
ARM GAS  /tmp/ccxBGOiR.s 			page 29


 1590 0000 41424344 		.ascii	"ABCD\000"
 1590      00
 1591 0005 000000   		.space	3
 1592              	.LC1:
 1593 0008 51756575 		.ascii	"Queues, output queues\000"
 1593      65732C20 
 1593      6F757470 
 1593      75742071 
 1593      75657565 
 1594 001e 0000     		.space	2
 1595              	.LC2:
 1596 0020 51756575 		.ascii	"Queues, input queues\000"
 1596      65732C20 
 1596      696E7075 
 1596      74207175 
 1596      65756573 
 1597 0035 000000   		.section	.rodata.patternqueues,"a",%progbits
 1598              		.align	2
 1599              		.type	patternqueues, %object
 1600              		.size	patternqueues, 12
 1601              	patternqueues:
 1602 0000 00000000 		.word	testqueues1
 1603 0004 00000000 		.word	testqueues2
 1604 0008 00000000 		.word	0
 1605              		.section	.data.oq,"aw",%progbits
 1606              		.align	2
 1607              		.set	.LANCHOR0,. + 0
 1608              		.type	oq, %object
 1609              		.size	oq, 36
 1610              	oq:
 1611 0000 00000000 		.word	oq
 1612 0004 00000000 		.word	oq
 1613 0008 04000000 		.word	4
 1614 000c 30010000 		.word	test+304
 1615 0010 34010000 		.word	test+308
 1616 0014 30010000 		.word	test+304
 1617 0018 30010000 		.word	test+304
 1618 001c 00000000 		.word	notify
 1619 0020 00000000 		.word	0
 1620              		.section	.data.iq,"aw",%progbits
 1621              		.align	2
 1622              		.set	.LANCHOR1,. + 0
 1623              		.type	iq, %object
 1624              		.size	iq, 36
 1625              	iq:
 1626 0000 00000000 		.word	iq
 1627 0004 00000000 		.word	iq
 1628 0008 00000000 		.word	0
 1629 000c 00000000 		.word	test
 1630 0010 04000000 		.word	test+4
 1631 0014 00000000 		.word	test
 1632 0018 00000000 		.word	test
 1633 001c 00000000 		.word	notify
 1634 0020 00000000 		.word	0
 1635              		.text
 1636              	.Letext0:
 1637              		.file 2 "/usr/bin/../lib/gcc/arm-none-eabi/4.7.4/include/stddef.h"
ARM GAS  /tmp/ccxBGOiR.s 			page 30


 1638              		.file 3 "/usr/bin/../lib/gcc/arm-none-eabi/4.7.4/../../../../arm-none-eabi/include/stdint.h"
 1639              		.file 4 "../../os/ports/GCC/ARMCMx/chtypes.h"
 1640              		.file 5 "../../os/kernel/include/chlists.h"
 1641              		.file 6 "../../os/kernel/include/chthreads.h"
 1642              		.file 7 "../../os/ports/GCC/ARMCMx/chcore_v7m.h"
 1643              		.file 8 "../../os/kernel/include/chschd.h"
 1644              		.file 9 "../../os/kernel/include/chmtx.h"
 1645              		.file 10 "../../os/kernel/include/chqueues.h"
 1646              		.file 11 "../../test/test.h"
 1647              		.file 12 "../../os/kernel/include/chdebug.h"