ARM GAS  /tmp/cc4i3zQf.s 			page 1


   1              		.syntax unified
   2              		.cpu cortex-m3
   3              		.fpu softvfp
   4              		.eabi_attribute 20, 1
   5              		.eabi_attribute 21, 1
   6              		.eabi_attribute 23, 3
   7              		.eabi_attribute 24, 1
   8              		.eabi_attribute 25, 1
   9              		.eabi_attribute 26, 1
  10              		.eabi_attribute 30, 2
  11              		.eabi_attribute 34, 1
  12              		.eabi_attribute 18, 4
  13              		.thumb
  14              		.file	"chdebug.c"
  15              		.text
  16              	.Ltext0:
  17              		.cfi_sections	.debug_frame
  18              		.section	.text.dbg_check_disable,"ax",%progbits
  19              		.align	2
  20              		.p2align 4,,15
  21              		.global	dbg_check_disable
  22              		.thumb
  23              		.thumb_func
  24              		.type	dbg_check_disable, %function
  25              	dbg_check_disable:
  26              	.LFB7:
  27              		.file 1 "../../os/kernel/src/chdebug.c"
  28              		.loc 1 74 0
  29              		.cfi_startproc
  30              		@ args = 0, pretend = 0, frame = 0
  31              		@ frame_needed = 0, uses_anonymous_args = 0
  32              		@ link register save eliminated.
  33              		.loc 1 76 0
  34 0000 054B     		ldr	r3, .L5
  35 0002 1868     		ldr	r0, [r3, #0]
  36 0004 10B9     		cbnz	r0, .L2
  37              		.loc 1 76 0 is_stmt 0 discriminator 1
  38 0006 0549     		ldr	r1, .L5+4
  39 0008 0A68     		ldr	r2, [r1, #0]
  40 000a 22B1     		cbz	r2, .L1
  41              	.L2:
  42              	.LVL0:
  43              	.LBB28:
  44              	.LBB29:
  45              		.loc 1 266 0 is_stmt 1
  46 000c 0448     		ldr	r0, .L5+8
  47 000e 054B     		ldr	r3, .L5+12
  48 0010 1860     		str	r0, [r3, #0]
  49              	.LBE29:
  50              	.LBE28:
  51              		.loc 1 78 0
  52              	.LBB31:
  53              	.LBB30:
  54              		.loc 1 267 0
  55 0012 FFF7FEBF 		b	port_halt
  56              	.LVL1:
  57              	.L1:
ARM GAS  /tmp/cc4i3zQf.s 			page 2


  58 0016 7047     		bx	lr
  59              	.L6:
  60              		.align	2
  61              	.L5:
  62 0018 00000000 		.word	.LANCHOR0
  63 001c 00000000 		.word	.LANCHOR1
  64 0020 00000000 		.word	.LC0
  65 0024 00000000 		.word	.LANCHOR2
  66              	.LBE30:
  67              	.LBE31:
  68              		.cfi_endproc
  69              	.LFE7:
  70              		.size	dbg_check_disable, .-dbg_check_disable
  71 0028 AFF30080 		.section	.text.dbg_check_suspend,"ax",%progbits
  71      AFF30080 
  72              		.align	2
  73              		.p2align 4,,15
  74              		.global	dbg_check_suspend
  75              		.thumb
  76              		.thumb_func
  77              		.type	dbg_check_suspend, %function
  78              	dbg_check_suspend:
  79              	.LFB8:
  80              		.loc 1 85 0
  81              		.cfi_startproc
  82              		@ args = 0, pretend = 0, frame = 0
  83              		@ frame_needed = 0, uses_anonymous_args = 0
  84              		@ link register save eliminated.
  85              		.loc 1 87 0
  86 0000 054B     		ldr	r3, .L10
  87 0002 1868     		ldr	r0, [r3, #0]
  88 0004 10B9     		cbnz	r0, .L8
  89              		.loc 1 87 0 is_stmt 0 discriminator 1
  90 0006 0549     		ldr	r1, .L10+4
  91 0008 0A68     		ldr	r2, [r1, #0]
  92 000a 22B1     		cbz	r2, .L7
  93              	.L8:
  94              	.LVL2:
  95              	.LBB32:
  96              	.LBB33:
  97              		.loc 1 266 0 is_stmt 1
  98 000c 0448     		ldr	r0, .L10+8
  99 000e 054B     		ldr	r3, .L10+12
 100 0010 1860     		str	r0, [r3, #0]
 101              	.LBE33:
 102              	.LBE32:
 103              		.loc 1 89 0
 104              	.LBB35:
 105              	.LBB34:
 106              		.loc 1 267 0
 107 0012 FFF7FEBF 		b	port_halt
 108              	.LVL3:
 109              	.L7:
 110 0016 7047     		bx	lr
 111              	.L11:
 112              		.align	2
 113              	.L10:
ARM GAS  /tmp/cc4i3zQf.s 			page 3


 114 0018 00000000 		.word	.LANCHOR0
 115 001c 00000000 		.word	.LANCHOR1
 116 0020 08000000 		.word	.LC1
 117 0024 00000000 		.word	.LANCHOR2
 118              	.LBE34:
 119              	.LBE35:
 120              		.cfi_endproc
 121              	.LFE8:
 122              		.size	dbg_check_suspend, .-dbg_check_suspend
 123 0028 AFF30080 		.section	.text.dbg_check_enable,"ax",%progbits
 123      AFF30080 
 124              		.align	2
 125              		.p2align 4,,15
 126              		.global	dbg_check_enable
 127              		.thumb
 128              		.thumb_func
 129              		.type	dbg_check_enable, %function
 130              	dbg_check_enable:
 131              	.LFB9:
 132              		.loc 1 96 0
 133              		.cfi_startproc
 134              		@ args = 0, pretend = 0, frame = 0
 135              		@ frame_needed = 0, uses_anonymous_args = 0
 136              		@ link register save eliminated.
 137              		.loc 1 98 0
 138 0000 054B     		ldr	r3, .L15
 139 0002 1868     		ldr	r0, [r3, #0]
 140 0004 10B9     		cbnz	r0, .L13
 141              		.loc 1 98 0 is_stmt 0 discriminator 1
 142 0006 0549     		ldr	r1, .L15+4
 143 0008 0A68     		ldr	r2, [r1, #0]
 144 000a 22B1     		cbz	r2, .L12
 145              	.L13:
 146              	.LVL4:
 147              	.LBB36:
 148              	.LBB37:
 149              		.loc 1 266 0 is_stmt 1
 150 000c 0448     		ldr	r0, .L15+8
 151 000e 054B     		ldr	r3, .L15+12
 152 0010 1860     		str	r0, [r3, #0]
 153              	.LBE37:
 154              	.LBE36:
 155              		.loc 1 100 0
 156              	.LBB39:
 157              	.LBB38:
 158              		.loc 1 267 0
 159 0012 FFF7FEBF 		b	port_halt
 160              	.LVL5:
 161              	.L12:
 162 0016 7047     		bx	lr
 163              	.L16:
 164              		.align	2
 165              	.L15:
 166 0018 00000000 		.word	.LANCHOR0
 167 001c 00000000 		.word	.LANCHOR1
 168 0020 10000000 		.word	.LC2
 169 0024 00000000 		.word	.LANCHOR2
ARM GAS  /tmp/cc4i3zQf.s 			page 4


 170              	.LBE38:
 171              	.LBE39:
 172              		.cfi_endproc
 173              	.LFE9:
 174              		.size	dbg_check_enable, .-dbg_check_enable
 175 0028 AFF30080 		.section	.text.dbg_check_lock,"ax",%progbits
 175      AFF30080 
 176              		.align	2
 177              		.p2align 4,,15
 178              		.global	dbg_check_lock
 179              		.thumb
 180              		.thumb_func
 181              		.type	dbg_check_lock, %function
 182              	dbg_check_lock:
 183              	.LFB10:
 184              		.loc 1 107 0
 185              		.cfi_startproc
 186              		@ args = 0, pretend = 0, frame = 0
 187              		@ frame_needed = 0, uses_anonymous_args = 0
 188              		.loc 1 109 0
 189 0000 074B     		ldr	r3, .L25
 190              		.loc 1 107 0
 191 0002 10B5     		push	{r4, lr}
 192              	.LCFI0:
 193              		.cfi_def_cfa_offset 8
 194              		.cfi_offset 4, -8
 195              		.cfi_offset 14, -4
 196              		.loc 1 109 0
 197 0004 1868     		ldr	r0, [r3, #0]
 198 0006 074C     		ldr	r4, .L25+4
 199 0008 08B9     		cbnz	r0, .L18
 200              		.loc 1 109 0 is_stmt 0 discriminator 1
 201 000a 2168     		ldr	r1, [r4, #0]
 202 000c 21B1     		cbz	r1, .L19
 203              	.L18:
 204              	.LVL6:
 205              	.LBB40:
 206              	.LBB41:
 207              		.loc 1 266 0 is_stmt 1
 208 000e 064A     		ldr	r2, .L25+8
 209 0010 064B     		ldr	r3, .L25+12
 210 0012 1A60     		str	r2, [r3, #0]
 211              		.loc 1 267 0
 212 0014 FFF7FEFF 		bl	port_halt
 213              	.LVL7:
 214              	.L19:
 215              	.LBE41:
 216              	.LBE40:
 217              		.loc 1 111 0
 218 0018 0120     		movs	r0, #1
 219 001a 2060     		str	r0, [r4, #0]
 220 001c 10BD     		pop	{r4, pc}
 221              	.L26:
 222 001e 00BF     		.align	2
 223              	.L25:
 224 0020 00000000 		.word	.LANCHOR0
 225 0024 00000000 		.word	.LANCHOR1
ARM GAS  /tmp/cc4i3zQf.s 			page 5


 226 0028 18000000 		.word	.LC3
 227 002c 00000000 		.word	.LANCHOR2
 228              		.cfi_endproc
 229              	.LFE10:
 230              		.size	dbg_check_lock, .-dbg_check_lock
 231              		.section	.text.dbg_check_unlock,"ax",%progbits
 232              		.align	2
 233              		.p2align 4,,15
 234              		.global	dbg_check_unlock
 235              		.thumb
 236              		.thumb_func
 237              		.type	dbg_check_unlock, %function
 238              	dbg_check_unlock:
 239              	.LFB11:
 240              		.loc 1 119 0
 241              		.cfi_startproc
 242              		@ args = 0, pretend = 0, frame = 0
 243              		@ frame_needed = 0, uses_anonymous_args = 0
 244              		.loc 1 121 0
 245 0000 084B     		ldr	r3, .L32
 246              		.loc 1 119 0
 247 0002 10B5     		push	{r4, lr}
 248              	.LCFI1:
 249              		.cfi_def_cfa_offset 8
 250              		.cfi_offset 4, -8
 251              		.cfi_offset 14, -4
 252              		.loc 1 121 0
 253 0004 1868     		ldr	r0, [r3, #0]
 254 0006 084C     		ldr	r4, .L32+4
 255 0008 28B9     		cbnz	r0, .L28
 256              		.loc 1 121 0 is_stmt 0 discriminator 1
 257 000a 2168     		ldr	r1, [r4, #0]
 258 000c 0029     		cmp	r1, #0
 259 000e 02DD     		ble	.L28
 260              	.L29:
 261              		.loc 1 123 0 is_stmt 1
 262 0010 0020     		movs	r0, #0
 263 0012 2060     		str	r0, [r4, #0]
 264 0014 10BD     		pop	{r4, pc}
 265              	.L28:
 266              	.LVL8:
 267              	.LBB42:
 268              	.LBB43:
 269              		.loc 1 266 0
 270 0016 054A     		ldr	r2, .L32+8
 271 0018 054B     		ldr	r3, .L32+12
 272 001a 1A60     		str	r2, [r3, #0]
 273              		.loc 1 267 0
 274 001c FFF7FEFF 		bl	port_halt
 275              	.LVL9:
 276 0020 F6E7     		b	.L29
 277              	.L33:
 278 0022 00BF     		.align	2
 279              	.L32:
 280 0024 00000000 		.word	.LANCHOR0
 281 0028 00000000 		.word	.LANCHOR1
 282 002c 20000000 		.word	.LC4
ARM GAS  /tmp/cc4i3zQf.s 			page 6


 283 0030 00000000 		.word	.LANCHOR2
 284              	.LBE43:
 285              	.LBE42:
 286              		.cfi_endproc
 287              	.LFE11:
 288              		.size	dbg_check_unlock, .-dbg_check_unlock
 289 0034 AFF30080 		.section	.text.dbg_check_lock_from_isr,"ax",%progbits
 289      AFF30080 
 289      AFF30080 
 290              		.align	2
 291              		.p2align 4,,15
 292              		.global	dbg_check_lock_from_isr
 293              		.thumb
 294              		.thumb_func
 295              		.type	dbg_check_lock_from_isr, %function
 296              	dbg_check_lock_from_isr:
 297              	.LFB12:
 298              		.loc 1 131 0
 299              		.cfi_startproc
 300              		@ args = 0, pretend = 0, frame = 0
 301              		@ frame_needed = 0, uses_anonymous_args = 0
 302              		.loc 1 133 0
 303 0000 074B     		ldr	r3, .L42
 304              		.loc 1 131 0
 305 0002 10B5     		push	{r4, lr}
 306              	.LCFI2:
 307              		.cfi_def_cfa_offset 8
 308              		.cfi_offset 4, -8
 309              		.cfi_offset 14, -4
 310              		.loc 1 133 0
 311 0004 1868     		ldr	r0, [r3, #0]
 312 0006 074C     		ldr	r4, .L42+4
 313 0008 0028     		cmp	r0, #0
 314 000a 01DD     		ble	.L35
 315              		.loc 1 133 0 is_stmt 0 discriminator 1
 316 000c 2168     		ldr	r1, [r4, #0]
 317 000e 21B1     		cbz	r1, .L36
 318              	.L35:
 319              	.LVL10:
 320              	.LBB44:
 321              	.LBB45:
 322              		.loc 1 266 0 is_stmt 1
 323 0010 054A     		ldr	r2, .L42+8
 324 0012 064B     		ldr	r3, .L42+12
 325 0014 1A60     		str	r2, [r3, #0]
 326              		.loc 1 267 0
 327 0016 FFF7FEFF 		bl	port_halt
 328              	.LVL11:
 329              	.L36:
 330              	.LBE45:
 331              	.LBE44:
 332              		.loc 1 135 0
 333 001a 0120     		movs	r0, #1
 334 001c 2060     		str	r0, [r4, #0]
 335 001e 10BD     		pop	{r4, pc}
 336              	.L43:
 337              		.align	2
ARM GAS  /tmp/cc4i3zQf.s 			page 7


 338              	.L42:
 339 0020 00000000 		.word	.LANCHOR0
 340 0024 00000000 		.word	.LANCHOR1
 341 0028 28000000 		.word	.LC5
 342 002c 00000000 		.word	.LANCHOR2
 343              		.cfi_endproc
 344              	.LFE12:
 345              		.size	dbg_check_lock_from_isr, .-dbg_check_lock_from_isr
 346              		.section	.text.dbg_check_unlock_from_isr,"ax",%progbits
 347              		.align	2
 348              		.p2align 4,,15
 349              		.global	dbg_check_unlock_from_isr
 350              		.thumb
 351              		.thumb_func
 352              		.type	dbg_check_unlock_from_isr, %function
 353              	dbg_check_unlock_from_isr:
 354              	.LFB13:
 355              		.loc 1 143 0
 356              		.cfi_startproc
 357              		@ args = 0, pretend = 0, frame = 0
 358              		@ frame_needed = 0, uses_anonymous_args = 0
 359              		.loc 1 145 0
 360 0000 084B     		ldr	r3, .L49
 361              		.loc 1 143 0
 362 0002 10B5     		push	{r4, lr}
 363              	.LCFI3:
 364              		.cfi_def_cfa_offset 8
 365              		.cfi_offset 4, -8
 366              		.cfi_offset 14, -4
 367              		.loc 1 145 0
 368 0004 1868     		ldr	r0, [r3, #0]
 369 0006 084C     		ldr	r4, .L49+4
 370 0008 0028     		cmp	r0, #0
 371 000a 05DD     		ble	.L45
 372              		.loc 1 145 0 is_stmt 0 discriminator 1
 373 000c 2168     		ldr	r1, [r4, #0]
 374 000e 0029     		cmp	r1, #0
 375 0010 02DD     		ble	.L45
 376              	.L46:
 377              		.loc 1 147 0 is_stmt 1
 378 0012 0020     		movs	r0, #0
 379 0014 2060     		str	r0, [r4, #0]
 380 0016 10BD     		pop	{r4, pc}
 381              	.L45:
 382              	.LVL12:
 383              	.LBB46:
 384              	.LBB47:
 385              		.loc 1 266 0
 386 0018 044A     		ldr	r2, .L49+8
 387 001a 054B     		ldr	r3, .L49+12
 388 001c 1A60     		str	r2, [r3, #0]
 389              		.loc 1 267 0
 390 001e FFF7FEFF 		bl	port_halt
 391              	.LVL13:
 392 0022 F6E7     		b	.L46
 393              	.L50:
 394              		.align	2
ARM GAS  /tmp/cc4i3zQf.s 			page 8


 395              	.L49:
 396 0024 00000000 		.word	.LANCHOR0
 397 0028 00000000 		.word	.LANCHOR1
 398 002c 30000000 		.word	.LC6
 399 0030 00000000 		.word	.LANCHOR2
 400              	.LBE47:
 401              	.LBE46:
 402              		.cfi_endproc
 403              	.LFE13:
 404              		.size	dbg_check_unlock_from_isr, .-dbg_check_unlock_from_isr
 405 0034 AFF30080 		.section	.text.dbg_check_enter_isr,"ax",%progbits
 405      AFF30080 
 405      AFF30080 
 406              		.align	2
 407              		.p2align 4,,15
 408              		.global	dbg_check_enter_isr
 409              		.thumb
 410              		.thumb_func
 411              		.type	dbg_check_enter_isr, %function
 412              	dbg_check_enter_isr:
 413              	.LFB14:
 414              		.loc 1 155 0
 415              		.cfi_startproc
 416              		@ args = 0, pretend = 0, frame = 0
 417              		@ frame_needed = 0, uses_anonymous_args = 0
 418 0000 10B5     		push	{r4, lr}
 419              	.LCFI4:
 420              		.cfi_def_cfa_offset 8
 421              		.cfi_offset 4, -8
 422              		.cfi_offset 14, -4
 423              	.LBB48:
 424              		.loc 1 157 0
 425 0002 2023     		movs	r3, #32
 426              	.LVL14:
 427              	@ 157 "../../os/kernel/src/chdebug.c" 1
 428 0004 83F31188 		msr     BASEPRI, r3
 429              	@ 0 "" 2
 430              	.LVL15:
 431              		.thumb
 432              	.LBE48:
 433              		.loc 1 158 0
 434 0008 094C     		ldr	r4, .L57
 435 000a 2168     		ldr	r1, [r4, #0]
 436 000c 0029     		cmp	r1, #0
 437 000e 02DB     		blt	.L52
 438              		.loc 1 158 0 is_stmt 0 discriminator 1
 439 0010 084A     		ldr	r2, .L57+4
 440 0012 1068     		ldr	r0, [r2, #0]
 441 0014 28B1     		cbz	r0, .L53
 442              	.L52:
 443              	.LVL16:
 444              	.LBB49:
 445              	.LBB50:
 446              		.loc 1 266 0 is_stmt 1
 447 0016 0849     		ldr	r1, .L57+8
 448 0018 084B     		ldr	r3, .L57+12
 449              	.LVL17:
ARM GAS  /tmp/cc4i3zQf.s 			page 9


 450 001a 1960     		str	r1, [r3, #0]
 451              		.loc 1 267 0
 452 001c FFF7FEFF 		bl	port_halt
 453              	.LVL18:
 454 0020 2168     		ldr	r1, [r4, #0]
 455              	.LVL19:
 456              	.L53:
 457              	.LBE50:
 458              	.LBE49:
 459              		.loc 1 160 0
 460 0022 4A1C     		adds	r2, r1, #1
 461 0024 2260     		str	r2, [r4, #0]
 462              	.LBB51:
 463              		.loc 1 161 0
 464 0026 0023     		movs	r3, #0
 465              	.LVL20:
 466              	@ 161 "../../os/kernel/src/chdebug.c" 1
 467 0028 83F31188 		msr     BASEPRI, r3
 468              	@ 0 "" 2
 469              	.LVL21:
 470              		.thumb
 471 002c 10BD     		pop	{r4, pc}
 472              	.L58:
 473 002e 00BF     		.align	2
 474              	.L57:
 475 0030 00000000 		.word	.LANCHOR0
 476 0034 00000000 		.word	.LANCHOR1
 477 0038 38000000 		.word	.LC7
 478 003c 00000000 		.word	.LANCHOR2
 479              	.LBE51:
 480              		.cfi_endproc
 481              	.LFE14:
 482              		.size	dbg_check_enter_isr, .-dbg_check_enter_isr
 483              		.section	.text.dbg_check_leave_isr,"ax",%progbits
 484              		.align	2
 485              		.p2align 4,,15
 486              		.global	dbg_check_leave_isr
 487              		.thumb
 488              		.thumb_func
 489              		.type	dbg_check_leave_isr, %function
 490              	dbg_check_leave_isr:
 491              	.LFB15:
 492              		.loc 1 169 0
 493              		.cfi_startproc
 494              		@ args = 0, pretend = 0, frame = 0
 495              		@ frame_needed = 0, uses_anonymous_args = 0
 496 0000 10B5     		push	{r4, lr}
 497              	.LCFI5:
 498              		.cfi_def_cfa_offset 8
 499              		.cfi_offset 4, -8
 500              		.cfi_offset 14, -4
 501              	.LBB52:
 502              		.loc 1 171 0
 503 0002 2023     		movs	r3, #32
 504              	.LVL22:
 505              	@ 171 "../../os/kernel/src/chdebug.c" 1
 506 0004 83F31188 		msr     BASEPRI, r3
ARM GAS  /tmp/cc4i3zQf.s 			page 10


 507              	@ 0 "" 2
 508              	.LVL23:
 509              		.thumb
 510              	.LBE52:
 511              		.loc 1 172 0
 512 0008 094C     		ldr	r4, .L65
 513 000a 2168     		ldr	r1, [r4, #0]
 514 000c 0029     		cmp	r1, #0
 515 000e 02DD     		ble	.L60
 516              		.loc 1 172 0 is_stmt 0 discriminator 1
 517 0010 084A     		ldr	r2, .L65+4
 518 0012 1068     		ldr	r0, [r2, #0]
 519 0014 28B1     		cbz	r0, .L61
 520              	.L60:
 521              	.LVL24:
 522              	.LBB53:
 523              	.LBB54:
 524              		.loc 1 266 0 is_stmt 1
 525 0016 0849     		ldr	r1, .L65+8
 526 0018 084B     		ldr	r3, .L65+12
 527              	.LVL25:
 528 001a 1960     		str	r1, [r3, #0]
 529              		.loc 1 267 0
 530 001c FFF7FEFF 		bl	port_halt
 531              	.LVL26:
 532 0020 2168     		ldr	r1, [r4, #0]
 533              	.LVL27:
 534              	.L61:
 535              	.LBE54:
 536              	.LBE53:
 537              		.loc 1 174 0
 538 0022 4A1E     		subs	r2, r1, #1
 539 0024 2260     		str	r2, [r4, #0]
 540              	.LBB55:
 541              		.loc 1 175 0
 542 0026 0023     		movs	r3, #0
 543              	.LVL28:
 544              	@ 175 "../../os/kernel/src/chdebug.c" 1
 545 0028 83F31188 		msr     BASEPRI, r3
 546              	@ 0 "" 2
 547              	.LVL29:
 548              		.thumb
 549 002c 10BD     		pop	{r4, pc}
 550              	.L66:
 551 002e 00BF     		.align	2
 552              	.L65:
 553 0030 00000000 		.word	.LANCHOR0
 554 0034 00000000 		.word	.LANCHOR1
 555 0038 40000000 		.word	.LC8
 556 003c 00000000 		.word	.LANCHOR2
 557              	.LBE55:
 558              		.cfi_endproc
 559              	.LFE15:
 560              		.size	dbg_check_leave_isr, .-dbg_check_leave_isr
 561              		.section	.text.chDbgCheckClassI,"ax",%progbits
 562              		.align	2
 563              		.p2align 4,,15
ARM GAS  /tmp/cc4i3zQf.s 			page 11


 564              		.global	chDbgCheckClassI
 565              		.thumb
 566              		.thumb_func
 567              		.type	chDbgCheckClassI, %function
 568              	chDbgCheckClassI:
 569              	.LFB16:
 570              		.loc 1 186 0
 571              		.cfi_startproc
 572              		@ args = 0, pretend = 0, frame = 0
 573              		@ frame_needed = 0, uses_anonymous_args = 0
 574              		@ link register save eliminated.
 575              		.loc 1 188 0
 576 0000 064B     		ldr	r3, .L70
 577 0002 1868     		ldr	r0, [r3, #0]
 578 0004 0028     		cmp	r0, #0
 579 0006 04DB     		blt	.L68
 580              		.loc 1 188 0 is_stmt 0 discriminator 1
 581 0008 0549     		ldr	r1, .L70+4
 582 000a 0A68     		ldr	r2, [r1, #0]
 583 000c 002A     		cmp	r2, #0
 584 000e 00DD     		ble	.L68
 585 0010 7047     		bx	lr
 586              	.L68:
 587              	.LVL30:
 588              	.LBB56:
 589              	.LBB57:
 590              		.loc 1 266 0 is_stmt 1
 591 0012 0448     		ldr	r0, .L70+8
 592 0014 044B     		ldr	r3, .L70+12
 593 0016 1860     		str	r0, [r3, #0]
 594              	.LBE57:
 595              	.LBE56:
 596              		.loc 1 190 0
 597              	.LBB59:
 598              	.LBB58:
 599              		.loc 1 267 0
 600 0018 FFF7FEBF 		b	port_halt
 601              	.LVL31:
 602              	.L71:
 603              		.align	2
 604              	.L70:
 605 001c 00000000 		.word	.LANCHOR0
 606 0020 00000000 		.word	.LANCHOR1
 607 0024 48000000 		.word	.LC9
 608 0028 00000000 		.word	.LANCHOR2
 609              	.LBE58:
 610              	.LBE59:
 611              		.cfi_endproc
 612              	.LFE16:
 613              		.size	chDbgCheckClassI, .-chDbgCheckClassI
 614 002c AFF30080 		.section	.text.chDbgCheckClassS,"ax",%progbits
 615              		.align	2
 616              		.p2align 4,,15
 617              		.global	chDbgCheckClassS
 618              		.thumb
 619              		.thumb_func
 620              		.type	chDbgCheckClassS, %function
ARM GAS  /tmp/cc4i3zQf.s 			page 12


 621              	chDbgCheckClassS:
 622              	.LFB17:
 623              		.loc 1 200 0
 624              		.cfi_startproc
 625              		@ args = 0, pretend = 0, frame = 0
 626              		@ frame_needed = 0, uses_anonymous_args = 0
 627              		@ link register save eliminated.
 628              		.loc 1 202 0
 629 0000 064B     		ldr	r3, .L75
 630 0002 1868     		ldr	r0, [r3, #0]
 631 0004 20B9     		cbnz	r0, .L73
 632              		.loc 1 202 0 is_stmt 0 discriminator 1
 633 0006 0649     		ldr	r1, .L75+4
 634 0008 0A68     		ldr	r2, [r1, #0]
 635 000a 002A     		cmp	r2, #0
 636 000c 00DD     		ble	.L73
 637 000e 7047     		bx	lr
 638              	.L73:
 639              	.LVL32:
 640              	.LBB60:
 641              	.LBB61:
 642              		.loc 1 266 0 is_stmt 1
 643 0010 0448     		ldr	r0, .L75+8
 644 0012 054B     		ldr	r3, .L75+12
 645 0014 1860     		str	r0, [r3, #0]
 646              	.LBE61:
 647              	.LBE60:
 648              		.loc 1 204 0
 649              	.LBB63:
 650              	.LBB62:
 651              		.loc 1 267 0
 652 0016 FFF7FEBF 		b	port_halt
 653              	.LVL33:
 654              	.L76:
 655 001a 00BF     		.align	2
 656              	.L75:
 657 001c 00000000 		.word	.LANCHOR0
 658 0020 00000000 		.word	.LANCHOR1
 659 0024 50000000 		.word	.LC10
 660 0028 00000000 		.word	.LANCHOR2
 661              	.LBE62:
 662              	.LBE63:
 663              		.cfi_endproc
 664              	.LFE17:
 665              		.size	chDbgCheckClassS, .-chDbgCheckClassS
 666 002c AFF30080 		.section	.text._trace_init,"ax",%progbits
 667              		.align	2
 668              		.p2align 4,,15
 669              		.global	_trace_init
 670              		.thumb
 671              		.thumb_func
 672              		.type	_trace_init, %function
 673              	_trace_init:
 674              	.LFB18:
 675              		.loc 1 222 0
 676              		.cfi_startproc
 677              		@ args = 0, pretend = 0, frame = 0
ARM GAS  /tmp/cc4i3zQf.s 			page 13


 678              		@ frame_needed = 0, uses_anonymous_args = 0
 679              		@ link register save eliminated.
 680              		.loc 1 224 0
 681 0000 40F20003 		movw	r3, #:lower16:.LANCHOR3
 682 0004 C0F20003 		movt	r3, #:upper16:.LANCHOR3
 683 0008 1A46     		mov	r2, r3
 684 000a 4021     		movs	r1, #64
 685 000c 42F8081B 		str	r1, [r2], #8
 686              		.loc 1 225 0
 687 0010 5A60     		str	r2, [r3, #4]
 688 0012 7047     		bx	lr
 689              		.cfi_endproc
 690              	.LFE18:
 691              		.size	_trace_init, .-_trace_init
 692 0014 AFF30080 		.section	.text.dbg_trace,"ax",%progbits
 692      AFF30080 
 692      AFF30080 
 693              		.align	2
 694              		.p2align 4,,15
 695              		.global	dbg_trace
 696              		.thumb
 697              		.thumb_func
 698              		.type	dbg_trace, %function
 699              	dbg_trace:
 700              	.LFB19:
 701              		.loc 1 235 0
 702              		.cfi_startproc
 703              		@ args = 0, pretend = 0, frame = 0
 704              		@ frame_needed = 0, uses_anonymous_args = 0
 705              		@ link register save eliminated.
 706              	.LVL34:
 707              		.loc 1 237 0
 708 0000 0C49     		ldr	r1, .L81
 709              		.loc 1 235 0
 710 0002 10B4     		push	{r4}
 711              	.LCFI6:
 712              		.cfi_def_cfa_offset 4
 713              		.cfi_offset 4, -4
 714              		.loc 1 237 0
 715 0004 0C4A     		ldr	r2, .L81+4
 716 0006 CC68     		ldr	r4, [r1, #12]
 717              		.loc 1 238 0
 718 0008 0C49     		ldr	r1, .L81+8
 719              		.loc 1 237 0
 720 000a 5368     		ldr	r3, [r2, #4]
 721              		.loc 1 238 0
 722 000c 8969     		ldr	r1, [r1, #24]
 723              		.loc 1 237 0
 724 000e 1C60     		str	r4, [r3, #0]
 725              		.loc 1 238 0
 726 0010 5960     		str	r1, [r3, #4]
 727              		.loc 1 239 0
 728 0012 846A     		ldr	r4, [r0, #40]
 729              		.loc 1 241 0
 730 0014 03F11001 		add	r1, r3, #16
 731              		.loc 1 239 0
 732 0018 9C60     		str	r4, [r3, #8]
ARM GAS  /tmp/cc4i3zQf.s 			page 14


 733              		.loc 1 240 0
 734 001a 90F82040 		ldrb	r4, [r0, #32]	@ zero_extendqisi2
 735              		.loc 1 242 0
 736 001e 02F58160 		add	r0, r2, #1032
 737              	.LVL35:
 738              		.loc 1 241 0
 739 0022 8142     		cmp	r1, r0
 740              		.loc 1 240 0
 741 0024 1C73     		strb	r4, [r3, #12]
 742              		.loc 1 243 0
 743 0026 2ABF     		itet	cs
 744 0028 02F10803 		addcs	r3, r2, #8
 745              		.loc 1 241 0
 746 002c 5160     		strcc	r1, [r2, #4]
 747              		.loc 1 243 0
 748 002e 5360     		strcs	r3, [r2, #4]
 749              		.loc 1 244 0
 750 0030 10BC     		pop	{r4}
 751 0032 7047     		bx	lr
 752              	.L82:
 753              		.align	2
 754              	.L81:
 755 0034 00000000 		.word	vtlist
 756 0038 00000000 		.word	.LANCHOR3
 757 003c 00000000 		.word	rlist
 758              		.cfi_endproc
 759              	.LFE19:
 760              		.size	dbg_trace, .-dbg_trace
 761              		.section	.text.chDbgPanic,"ax",%progbits
 762              		.align	2
 763              		.p2align 4,,15
 764              		.global	chDbgPanic
 765              		.thumb
 766              		.thumb_func
 767              		.type	chDbgPanic, %function
 768              	chDbgPanic:
 769              	.LFB20:
 770              		.loc 1 264 0
 771              		.cfi_startproc
 772              		@ args = 0, pretend = 0, frame = 0
 773              		@ frame_needed = 0, uses_anonymous_args = 0
 774              		@ link register save eliminated.
 775              	.LVL36:
 776              		.loc 1 266 0
 777 0000 40F20003 		movw	r3, #:lower16:.LANCHOR2
 778 0004 C0F20003 		movt	r3, #:upper16:.LANCHOR2
 779 0008 1860     		str	r0, [r3, #0]
 780              		.loc 1 268 0
 781              		.loc 1 267 0
 782 000a FFF7FEBF 		b	port_halt
 783              	.LVL37:
 784              		.cfi_endproc
 785              	.LFE20:
 786              		.size	chDbgPanic, .-chDbgPanic
 787              		.global	dbg_panic_msg
 788              		.global	dbg_trace_buffer
 789              		.global	dbg_lock_cnt
ARM GAS  /tmp/cc4i3zQf.s 			page 15


 790              		.global	dbg_isr_cnt
 791 000e 00BF     		.section	.bss.dbg_isr_cnt,"aw",%nobits
 792              		.align	2
 793              		.set	.LANCHOR0,. + 0
 794              		.type	dbg_isr_cnt, %object
 795              		.size	dbg_isr_cnt, 4
 796              	dbg_isr_cnt:
 797 0000 00000000 		.space	4
 798              		.section	.bss.dbg_trace_buffer,"aw",%nobits
 799              		.align	2
 800              		.set	.LANCHOR3,. + 0
 801              		.type	dbg_trace_buffer, %object
 802              		.size	dbg_trace_buffer, 1032
 803              	dbg_trace_buffer:
 804 0000 00000000 		.space	1032
 804      00000000 
 804      00000000 
 804      00000000 
 804      00000000 
 805              		.section	.rodata.str1.4,"aMS",%progbits,1
 806              		.align	2
 807              	.LC0:
 808 0000 53562331 		.ascii	"SV#1\000"
 808      00
 809 0005 000000   		.space	3
 810              	.LC1:
 811 0008 53562332 		.ascii	"SV#2\000"
 811      00
 812 000d 000000   		.space	3
 813              	.LC2:
 814 0010 53562333 		.ascii	"SV#3\000"
 814      00
 815 0015 000000   		.space	3
 816              	.LC3:
 817 0018 53562334 		.ascii	"SV#4\000"
 817      00
 818 001d 000000   		.space	3
 819              	.LC4:
 820 0020 53562335 		.ascii	"SV#5\000"
 820      00
 821 0025 000000   		.space	3
 822              	.LC5:
 823 0028 53562336 		.ascii	"SV#6\000"
 823      00
 824 002d 000000   		.space	3
 825              	.LC6:
 826 0030 53562337 		.ascii	"SV#7\000"
 826      00
 827 0035 000000   		.space	3
 828              	.LC7:
 829 0038 53562338 		.ascii	"SV#8\000"
 829      00
 830 003d 000000   		.space	3
 831              	.LC8:
 832 0040 53562339 		.ascii	"SV#9\000"
 832      00
 833 0045 000000   		.space	3
ARM GAS  /tmp/cc4i3zQf.s 			page 16


 834              	.LC9:
 835 0048 53562331 		.ascii	"SV#10\000"
 835      3000
 836 004e 0000     		.space	2
 837              	.LC10:
 838 0050 53562331 		.ascii	"SV#11\000"
 838      3100
 839 0056 0000     		.section	.bss.dbg_lock_cnt,"aw",%nobits
 840              		.align	2
 841              		.set	.LANCHOR1,. + 0
 842              		.type	dbg_lock_cnt, %object
 843              		.size	dbg_lock_cnt, 4
 844              	dbg_lock_cnt:
 845 0000 00000000 		.space	4
 846              		.section	.bss.dbg_panic_msg,"aw",%nobits
 847              		.align	2
 848              		.set	.LANCHOR2,. + 0
 849              		.type	dbg_panic_msg, %object
 850              		.size	dbg_panic_msg, 4
 851              	dbg_panic_msg:
 852 0000 00000000 		.space	4
 853              		.text
 854              	.Letext0:
 855              		.file 2 "/usr/bin/../lib/gcc/arm-none-eabi/4.7.4/../../../../arm-none-eabi/include/stdint.h"
 856              		.file 3 "../../os/ports/GCC/ARMCMx/chtypes.h"
 857              		.file 4 "../../os/kernel/include/chlists.h"
 858              		.file 5 "../../os/kernel/include/chthreads.h"
 859              		.file 6 "../../os/ports/GCC/ARMCMx/chcore_v7m.h"
 860              		.file 7 "../../os/kernel/include/chvt.h"
 861              		.file 8 "../../os/kernel/include/chschd.h"
 862              		.file 9 "../../os/kernel/include/chmtx.h"
 863              		.file 10 "../../os/kernel/include/chdebug.h"