ARM GAS  /tmp/ccbjJPaS.s 			page 1


   1              		.syntax unified
   2              		.cpu cortex-m3
   3              		.fpu softvfp
   4              		.eabi_attribute 20, 1
   5              		.eabi_attribute 21, 1
   6              		.eabi_attribute 23, 3
   7              		.eabi_attribute 24, 1
   8              		.eabi_attribute 25, 1
   9              		.eabi_attribute 26, 1
  10              		.eabi_attribute 30, 2
  11              		.eabi_attribute 34, 1
  12              		.eabi_attribute 18, 4
  13              		.thumb
  14              		.file	"chmempools.c"
  15              		.text
  16              	.Ltext0:
  17              		.cfi_sections	.debug_frame
  18              		.section	.text.chPoolInit,"ax",%progbits
  19              		.align	2
  20              		.p2align 4,,15
  21              		.global	chPoolInit
  22              		.thumb
  23              		.thumb_func
  24              		.type	chPoolInit, %function
  25              	chPoolInit:
  26              	.LFB7:
  27              		.file 1 "../../os/kernel/src/chmempools.c"
  28              		.loc 1 55 0
  29              		.cfi_startproc
  30              		@ args = 0, pretend = 0, frame = 0
  31              		@ frame_needed = 0, uses_anonymous_args = 0
  32              	.LVL0:
  33 0000 70B5     		push	{r4, r5, r6, lr}
  34              	.LCFI0:
  35              		.cfi_def_cfa_offset 16
  36              		.cfi_offset 4, -16
  37              		.cfi_offset 5, -12
  38              		.cfi_offset 6, -8
  39              		.cfi_offset 14, -4
  40              		.loc 1 57 0
  41 0002 0446     		mov	r4, r0
  42              		.loc 1 55 0
  43 0004 0D46     		mov	r5, r1
  44 0006 1646     		mov	r6, r2
  45              		.loc 1 57 0
  46 0008 08B1     		cbz	r0, .L2
  47              		.loc 1 57 0 is_stmt 0 discriminator 2
  48 000a 0329     		cmp	r1, #3
  49 000c 02D8     		bhi	.L3
  50              	.L2:
  51              		.loc 1 57 0 discriminator 1
  52 000e 0348     		ldr	r0, .L8
  53              	.LVL1:
  54 0010 FFF7FEFF 		bl	chDbgPanic
  55              	.LVL2:
  56              	.L3:
  57              		.loc 1 59 0 is_stmt 1
ARM GAS  /tmp/ccbjJPaS.s 			page 2


  58 0014 0023     		movs	r3, #0
  59              		.loc 1 61 0
  60 0016 84E86800 		stmia	r4, {r3, r5, r6}
  61 001a 70BD     		pop	{r4, r5, r6, pc}
  62              	.L9:
  63              		.align	2
  64              	.L8:
  65 001c 00000000 		.word	.LC0
  66              		.cfi_endproc
  67              	.LFE7:
  68              		.size	chPoolInit, .-chPoolInit
  69              		.section	.text.chPoolAllocI,"ax",%progbits
  70              		.align	2
  71              		.p2align 4,,15
  72              		.global	chPoolAllocI
  73              		.thumb
  74              		.thumb_func
  75              		.type	chPoolAllocI, %function
  76              	chPoolAllocI:
  77              	.LFB9:
  78              		.loc 1 98 0
  79              		.cfi_startproc
  80              		@ args = 0, pretend = 0, frame = 0
  81              		@ frame_needed = 0, uses_anonymous_args = 0
  82              	.LVL3:
  83 0000 10B5     		push	{r4, lr}
  84              	.LCFI1:
  85              		.cfi_def_cfa_offset 8
  86              		.cfi_offset 4, -8
  87              		.cfi_offset 14, -4
  88              		.loc 1 98 0
  89 0002 0446     		mov	r4, r0
  90              		.loc 1 101 0
  91 0004 FFF7FEFF 		bl	chDbgCheckClassI
  92              	.LVL4:
  93              		.loc 1 102 0
  94 0008 4CB1     		cbz	r4, .L17
  95              	.L11:
  96              		.loc 1 104 0
  97 000a 2068     		ldr	r0, [r4, #0]
  98              	.LVL5:
  99 000c 10B1     		cbz	r0, .L12
 100              		.loc 1 105 0
 101 000e 0168     		ldr	r1, [r0, #0]
 102 0010 2160     		str	r1, [r4, #0]
 103 0012 10BD     		pop	{r4, pc}
 104              	.L12:
 105              		.loc 1 106 0
 106 0014 A368     		ldr	r3, [r4, #8]
 107 0016 0BB1     		cbz	r3, .L13
 108              		.loc 1 107 0
 109 0018 6068     		ldr	r0, [r4, #4]
 110              	.LVL6:
 111 001a 9847     		blx	r3
 112              	.LVL7:
 113              	.L13:
 114              		.loc 1 109 0
ARM GAS  /tmp/ccbjJPaS.s 			page 3


 115 001c 10BD     		pop	{r4, pc}
 116              	.LVL8:
 117              	.L17:
 118              		.loc 1 102 0 discriminator 1
 119 001e 0248     		ldr	r0, .L18
 120 0020 FFF7FEFF 		bl	chDbgPanic
 121              	.LVL9:
 122 0024 F1E7     		b	.L11
 123              	.L19:
 124 0026 00BF     		.align	2
 125              	.L18:
 126 0028 10000000 		.word	.LC1
 127              		.cfi_endproc
 128              	.LFE9:
 129              		.size	chPoolAllocI, .-chPoolAllocI
 130 002c AFF30080 		.section	.text.chPoolAlloc,"ax",%progbits
 131              		.align	2
 132              		.p2align 4,,15
 133              		.global	chPoolAlloc
 134              		.thumb
 135              		.thumb_func
 136              		.type	chPoolAlloc, %function
 137              	chPoolAlloc:
 138              	.LFB10:
 139              		.loc 1 121 0
 140              		.cfi_startproc
 141              		@ args = 0, pretend = 0, frame = 0
 142              		@ frame_needed = 0, uses_anonymous_args = 0
 143              	.LVL10:
 144 0000 10B5     		push	{r4, lr}
 145              	.LCFI2:
 146              		.cfi_def_cfa_offset 8
 147              		.cfi_offset 4, -8
 148              		.cfi_offset 14, -4
 149              	.LBB2:
 150              		.loc 1 124 0
 151 0002 2023     		movs	r3, #32
 152              	.LVL11:
 153              	.LBE2:
 154              		.loc 1 121 0
 155 0004 0446     		mov	r4, r0
 156              	.LBB3:
 157              		.loc 1 124 0
 158              	@ 124 "../../os/kernel/src/chmempools.c" 1
 159 0006 83F31188 		msr     BASEPRI, r3
 160              	@ 0 "" 2
 161              	.LVL12:
 162              		.thumb
 163              	.LBE3:
 164 000a FFF7FEFF 		bl	dbg_check_lock
 165              	.LVL13:
 166              		.loc 1 125 0
 167 000e 2046     		mov	r0, r4
 168 0010 FFF7FEFF 		bl	chPoolAllocI
 169              	.LVL14:
 170 0014 0446     		mov	r4, r0
 171              	.LVL15:
ARM GAS  /tmp/ccbjJPaS.s 			page 4


 172              		.loc 1 126 0
 173 0016 FFF7FEFF 		bl	dbg_check_unlock
 174              	.LVL16:
 175              	.LBB4:
 176 001a 0023     		movs	r3, #0
 177              	.LVL17:
 178              	@ 126 "../../os/kernel/src/chmempools.c" 1
 179 001c 83F31188 		msr     BASEPRI, r3
 180              	@ 0 "" 2
 181              	.LVL18:
 182              		.thumb
 183              	.LBE4:
 184              		.loc 1 128 0
 185 0020 2046     		mov	r0, r4
 186 0022 10BD     		pop	{r4, pc}
 187              		.cfi_endproc
 188              	.LFE10:
 189              		.size	chPoolAlloc, .-chPoolAlloc
 190 0024 AFF30080 		.section	.text.chPoolFreeI,"ax",%progbits
 190      AFF30080 
 190      AFF30080 
 191              		.align	2
 192              		.p2align 4,,15
 193              		.global	chPoolFreeI
 194              		.thumb
 195              		.thumb_func
 196              		.type	chPoolFreeI, %function
 197              	chPoolFreeI:
 198              	.LFB11:
 199              		.loc 1 142 0
 200              		.cfi_startproc
 201              		@ args = 0, pretend = 0, frame = 0
 202              		@ frame_needed = 0, uses_anonymous_args = 0
 203              	.LVL19:
 204 0000 38B5     		push	{r3, r4, r5, lr}
 205              	.LCFI3:
 206              		.cfi_def_cfa_offset 16
 207              		.cfi_offset 3, -16
 208              		.cfi_offset 4, -12
 209              		.cfi_offset 5, -8
 210              		.cfi_offset 14, -4
 211              		.loc 1 142 0
 212 0002 0446     		mov	r4, r0
 213 0004 0D46     		mov	r5, r1
 214              	.LVL20:
 215              		.loc 1 145 0
 216 0006 FFF7FEFF 		bl	chDbgCheckClassI
 217              	.LVL21:
 218              		.loc 1 146 0
 219 000a 24B1     		cbz	r4, .L22
 220              		.loc 1 146 0 is_stmt 0 discriminator 2
 221 000c 1DB1     		cbz	r5, .L22
 222              	.L23:
 223              		.loc 1 148 0 is_stmt 1
 224 000e 2368     		ldr	r3, [r4, #0]
 225 0010 2B60     		str	r3, [r5, #0]
 226              		.loc 1 149 0
ARM GAS  /tmp/ccbjJPaS.s 			page 5


 227 0012 2560     		str	r5, [r4, #0]
 228 0014 38BD     		pop	{r3, r4, r5, pc}
 229              	.L22:
 230              		.loc 1 146 0 discriminator 1
 231 0016 0248     		ldr	r0, .L27
 232 0018 FFF7FEFF 		bl	chDbgPanic
 233              	.LVL22:
 234 001c F7E7     		b	.L23
 235              	.L28:
 236 001e 00BF     		.align	2
 237              	.L27:
 238 0020 24000000 		.word	.LC2
 239              		.cfi_endproc
 240              	.LFE11:
 241              		.size	chPoolFreeI, .-chPoolFreeI
 242 0024 AFF30080 		.section	.text.chPoolFree,"ax",%progbits
 242      AFF30080 
 242      AFF30080 
 243              		.align	2
 244              		.p2align 4,,15
 245              		.global	chPoolFree
 246              		.thumb
 247              		.thumb_func
 248              		.type	chPoolFree, %function
 249              	chPoolFree:
 250              	.LFB12:
 251              		.loc 1 164 0
 252              		.cfi_startproc
 253              		@ args = 0, pretend = 0, frame = 0
 254              		@ frame_needed = 0, uses_anonymous_args = 0
 255              	.LVL23:
 256 0000 38B5     		push	{r3, r4, r5, lr}
 257              	.LCFI4:
 258              		.cfi_def_cfa_offset 16
 259              		.cfi_offset 3, -16
 260              		.cfi_offset 4, -12
 261              		.cfi_offset 5, -8
 262              		.cfi_offset 14, -4
 263              		.loc 1 164 0
 264 0002 0546     		mov	r5, r0
 265 0004 0C46     		mov	r4, r1
 266              	.LBB5:
 267              		.loc 1 166 0
 268 0006 2023     		movs	r3, #32
 269              	.LVL24:
 270              	@ 166 "../../os/kernel/src/chmempools.c" 1
 271 0008 83F31188 		msr     BASEPRI, r3
 272              	@ 0 "" 2
 273              	.LVL25:
 274              		.thumb
 275              	.LBE5:
 276 000c FFF7FEFF 		bl	dbg_check_lock
 277              	.LVL26:
 278              		.loc 1 167 0
 279 0010 2846     		mov	r0, r5
 280 0012 2146     		mov	r1, r4
 281 0014 FFF7FEFF 		bl	chPoolFreeI
ARM GAS  /tmp/ccbjJPaS.s 			page 6


 282              	.LVL27:
 283              		.loc 1 168 0
 284 0018 FFF7FEFF 		bl	dbg_check_unlock
 285              	.LVL28:
 286              	.LBB6:
 287 001c 0023     		movs	r3, #0
 288              	.LVL29:
 289              	@ 168 "../../os/kernel/src/chmempools.c" 1
 290 001e 83F31188 		msr     BASEPRI, r3
 291              	@ 0 "" 2
 292              	.LVL30:
 293              		.thumb
 294 0022 38BD     		pop	{r3, r4, r5, pc}
 295              	.LBE6:
 296              		.cfi_endproc
 297              	.LFE12:
 298              		.size	chPoolFree, .-chPoolFree
 299 0024 AFF30080 		.section	.text.chPoolLoadArray,"ax",%progbits
 299      AFF30080 
 299      AFF30080 
 300              		.align	2
 301              		.p2align 4,,15
 302              		.global	chPoolLoadArray
 303              		.thumb
 304              		.thumb_func
 305              		.type	chPoolLoadArray, %function
 306              	chPoolLoadArray:
 307              	.LFB8:
 308              		.loc 1 77 0
 309              		.cfi_startproc
 310              		@ args = 0, pretend = 0, frame = 8
 311              		@ frame_needed = 0, uses_anonymous_args = 0
 312              	.LVL31:
 313 0000 F0B5     		push	{r4, r5, r6, r7, lr}
 314              	.LCFI5:
 315              		.cfi_def_cfa_offset 20
 316              		.cfi_offset 4, -20
 317              		.cfi_offset 5, -16
 318              		.cfi_offset 6, -12
 319              		.cfi_offset 7, -8
 320              		.cfi_offset 14, -4
 321              		.loc 1 79 0
 322 0002 0446     		mov	r4, r0
 323              		.loc 1 77 0
 324 0004 83B0     		sub	sp, sp, #12
 325              	.LCFI6:
 326              		.cfi_def_cfa_offset 32
 327              		.loc 1 77 0
 328 0006 0D46     		mov	r5, r1
 329              		.loc 1 79 0
 330 0008 0028     		cmp	r0, #0
 331 000a 2CD0     		beq	.L31
 332              		.loc 1 79 0 is_stmt 0 discriminator 2
 333 000c 002A     		cmp	r2, #0
 334 000e 24D0     		beq	.L32
 335              	.LVL32:
 336              	.L42:
ARM GAS  /tmp/ccbjJPaS.s 			page 7


 337              		.loc 1 82 0 is_stmt 1
 338 0010 2946     		mov	r1, r5
 339 0012 2046     		mov	r0, r4
 340 0014 571E     		subs	r7, r2, #1
 341 0016 FFF7FEFF 		bl	chPoolFree
 342              	.LVL33:
 343              		.loc 1 83 0
 344 001a 6368     		ldr	r3, [r4, #4]
 345              		.loc 1 81 0
 346 001c 3E46     		mov	r6, r7
 347              		.loc 1 83 0
 348 001e ED18     		adds	r5, r5, r3
 349              	.LVL34:
 350 0020 07F00107 		and	r7, r7, #1
 351              	.LVL35:
 352              		.loc 1 81 0
 353 0024 BEB1     		cbz	r6, .L30
 354 0026 3FB1     		cbz	r7, .L36
 355              		.loc 1 82 0
 356 0028 2946     		mov	r1, r5
 357 002a 2046     		mov	r0, r4
 358 002c FFF7FEFF 		bl	chPoolFree
 359              	.LVL36:
 360              		.loc 1 83 0
 361 0030 6068     		ldr	r0, [r4, #4]
 362              		.loc 1 81 0
 363 0032 013E     		subs	r6, r6, #1
 364              	.LVL37:
 365              		.loc 1 83 0
 366 0034 0544     		add	r5, r5, r0
 367              	.LVL38:
 368              		.loc 1 81 0
 369 0036 0ED0     		beq	.L30
 370              	.L36:
 371              		.loc 1 82 0
 372 0038 2946     		mov	r1, r5
 373 003a 2046     		mov	r0, r4
 374 003c FFF7FEFF 		bl	chPoolFree
 375              	.LVL39:
 376              		.loc 1 83 0
 377 0040 6168     		ldr	r1, [r4, #4]
 378              		.loc 1 82 0
 379 0042 2046     		mov	r0, r4
 380              		.loc 1 83 0
 381 0044 6D18     		adds	r5, r5, r1
 382              		.loc 1 82 0
 383 0046 2946     		mov	r1, r5
 384 0048 FFF7FEFF 		bl	chPoolFree
 385              	.LVL40:
 386              		.loc 1 84 0
 387 004c 013E     		subs	r6, r6, #1
 388              		.loc 1 83 0
 389 004e 6268     		ldr	r2, [r4, #4]
 390              		.loc 1 81 0
 391 0050 013E     		subs	r6, r6, #1
 392              		.loc 1 83 0
 393 0052 1544     		add	r5, r5, r2
ARM GAS  /tmp/ccbjJPaS.s 			page 8


 394              		.loc 1 81 0
 395 0054 F0D1     		bne	.L36
 396              	.L30:
 397              		.loc 1 86 0
 398 0056 03B0     		add	sp, sp, #12
 399 0058 F0BD     		pop	{r4, r5, r6, r7, pc}
 400              	.LVL41:
 401              	.L32:
 402              		.loc 1 79 0
 403 005a 0748     		ldr	r0, .L45
 404              	.LVL42:
 405              		.loc 1 86 0
 406 005c 03B0     		add	sp, sp, #12
 407 005e BDE8F040 		pop	{r4, r5, r6, r7, lr}
 408              		.loc 1 79 0
 409 0062 FFF7FEBF 		b	chDbgPanic
 410              	.LVL43:
 411              	.L31:
 412              		.loc 1 79 0 is_stmt 0 discriminator 1
 413 0066 0448     		ldr	r0, .L45
 414              	.LVL44:
 415 0068 0192     		str	r2, [sp, #4]
 416 006a FFF7FEFF 		bl	chDbgPanic
 417              	.LVL45:
 418              		.loc 1 81 0 is_stmt 1 discriminator 1
 419 006e 019A     		ldr	r2, [sp, #4]
 420 0070 002A     		cmp	r2, #0
 421 0072 CDD1     		bne	.L42
 422 0074 EFE7     		b	.L30
 423              	.L46:
 424 0076 00BF     		.align	2
 425              	.L45:
 426 0078 34000000 		.word	.LC3
 427              		.cfi_endproc
 428              	.LFE8:
 429              		.size	chPoolLoadArray, .-chPoolLoadArray
 430 007c AFF30080 		.section	.rodata.str1.4,"aMS",%progbits,1
 431              		.align	2
 432              	.LC0:
 433 0000 22636850 		.ascii	"\"chPoolInit\"()\000"
 433      6F6F6C49 
 433      6E697422 
 433      282900
 434 000f 00       		.space	1
 435              	.LC1:
 436 0010 22636850 		.ascii	"\"chPoolAllocI\"()\000"
 436      6F6F6C41 
 436      6C6C6F63 
 436      49222829 
 436      00
 437 0021 000000   		.space	3
 438              	.LC2:
 439 0024 22636850 		.ascii	"\"chPoolFreeI\"()\000"
 439      6F6F6C46 
 439      72656549 
 439      22282900 
 440              	.LC3:
ARM GAS  /tmp/ccbjJPaS.s 			page 9


 441 0034 22636850 		.ascii	"\"chPoolLoadArray\"()\000"
 441      6F6F6C4C 
 441      6F616441 
 441      72726179 
 441      22282900 
 442              		.text
 443              	.Letext0:
 444              		.file 2 "/usr/bin/../lib/gcc/arm-none-eabi/4.7.4/include/stddef.h"
 445              		.file 3 "/usr/bin/../lib/gcc/arm-none-eabi/4.7.4/../../../../arm-none-eabi/include/stdint.h"
 446              		.file 4 "../../os/kernel/include/chmemcore.h"
 447              		.file 5 "../../os/kernel/include/chmempools.h"
 448              		.file 6 "../../os/kernel/include/chdebug.h"