ARM GAS  /tmp/ccDfF8dq.s 			page 1


   1              		.syntax unified
   2              		.cpu cortex-m3
   3              		.fpu softvfp
   4              		.eabi_attribute 20, 1
   5              		.eabi_attribute 21, 1
   6              		.eabi_attribute 23, 3
   7              		.eabi_attribute 24, 1
   8              		.eabi_attribute 25, 1
   9              		.eabi_attribute 26, 1
  10              		.eabi_attribute 30, 2
  11              		.eabi_attribute 34, 1
  12              		.eabi_attribute 18, 4
  13              		.thumb
  14              		.file	"main.c"
  15              		.text
  16              	.Ltext0:
  17              		.cfi_sections	.debug_frame
  18              		.section	.text.accDemo,"ax",%progbits
  19              		.align	2
  20              		.p2align 4,,15
  21              		.thumb
  22              		.thumb_func
  23              		.type	accDemo, %function
  24              	accDemo:
  25              	.LFB64:
  26              		.file 1 "main.c"
  27              		.loc 1 39 0
  28              		.cfi_startproc
  29              		@ args = 0, pretend = 0, frame = 8
  30              		@ frame_needed = 0, uses_anonymous_args = 0
  31              	.LVL0:
  32 0000 10B5     		push	{r4, lr}
  33              	.LCFI0:
  34              		.cfi_def_cfa_offset 8
  35              		.cfi_offset 4, -8
  36              		.cfi_offset 14, -4
  37              		.loc 1 40 0
  38 0002 1448     		ldr	r0, .L4
  39              	.LVL1:
  40              		.loc 1 39 0
  41 0004 84B0     		sub	sp, sp, #16
  42              	.LCFI1:
  43              		.cfi_def_cfa_offset 24
  44              		.loc 1 40 0
  45 0006 1C21     		movs	r1, #28
  46 0008 FFF7FEFF 		bl	accInit
  47              	.LVL2:
  48 000c 0DF10E04 		add	r4, sp, #14
  49              	.LVL3:
  50              	.L2:
  51              	.LBB2:
  52              		.loc 1 44 0 discriminator 1
  53 0010 03AB     		add	r3, sp, #12
  54 0012 0DF10A02 		add	r2, sp, #10
  55 0016 1C21     		movs	r1, #28
  56 0018 0094     		str	r4, [sp, #0]
  57 001a 0E48     		ldr	r0, .L4
ARM GAS  /tmp/ccDfF8dq.s 			page 2


  58 001c FFF7FEFF 		bl	accRead
  59              	.LVL4:
  60              		.loc 1 46 0 discriminator 1
  61 0020 BDF90A20 		ldrsh	r2, [sp, #10]
  62 0024 0C48     		ldr	r0, .L4+4
  63 0026 0D49     		ldr	r1, .L4+8
  64 0028 FFF7FEFF 		bl	chprintf
  65              	.LVL5:
  66              		.loc 1 47 0 discriminator 1
  67 002c BDF90C20 		ldrsh	r2, [sp, #12]
  68 0030 0948     		ldr	r0, .L4+4
  69 0032 0B49     		ldr	r1, .L4+12
  70 0034 FFF7FEFF 		bl	chprintf
  71              	.LVL6:
  72              		.loc 1 48 0 discriminator 1
  73 0038 BDF90E20 		ldrsh	r2, [sp, #14]
  74 003c 0648     		ldr	r0, .L4+4
  75 003e 0949     		ldr	r1, .L4+16
  76 0040 FFF7FEFF 		bl	chprintf
  77              	.LVL7:
  78              		.loc 1 49 0 discriminator 1
  79 0044 0448     		ldr	r0, .L4+4
  80 0046 0849     		ldr	r1, .L4+20
  81 0048 FFF7FEFF 		bl	chprintf
  82              	.LVL8:
  83              		.loc 1 50 0 discriminator 1
  84 004c 0520     		movs	r0, #5
  85 004e FFF7FEFF 		bl	chThdSleep
  86              	.LVL9:
  87 0052 DDE7     		b	.L2
  88              	.L5:
  89              		.align	2
  90              	.L4:
  91 0054 00000000 		.word	I2CD2
  92 0058 00000000 		.word	SD2
  93 005c 00000000 		.word	.LC0
  94 0060 0C000000 		.word	.LC1
  95 0064 18000000 		.word	.LC2
  96 0068 24000000 		.word	.LC3
  97              	.LBE2:
  98              		.cfi_endproc
  99              	.LFE64:
 100              		.size	accDemo, .-accDemo
 101 006c AFF30080 		.section	.text.heartBeat,"ax",%progbits
 102              		.align	2
 103              		.p2align 4,,15
 104              		.thumb
 105              		.thumb_func
 106              		.type	heartBeat, %function
 107              	heartBeat:
 108              	.LFB63:
 109              		.loc 1 22 0
 110              		.cfi_startproc
 111              		@ args = 0, pretend = 0, frame = 0
 112              		@ frame_needed = 0, uses_anonymous_args = 0
 113              	.LVL10:
 114 0000 F8B5     		push	{r3, r4, r5, r6, r7, lr}
ARM GAS  /tmp/ccDfF8dq.s 			page 3


 115              	.LCFI2:
 116              		.cfi_def_cfa_offset 24
 117              		.cfi_offset 3, -24
 118              		.cfi_offset 4, -20
 119              		.cfi_offset 5, -16
 120              		.cfi_offset 6, -12
 121              		.cfi_offset 7, -8
 122              		.cfi_offset 14, -4
 123              		.loc 1 23 0
 124 0002 0B48     		ldr	r0, .L8
 125              	.LVL11:
 126 0004 0B49     		ldr	r1, .L8+4
 127 0006 FFF7FEFF 		bl	chprintf
 128              	.LVL12:
 129              		.loc 1 27 0
 130 000a 4FF44064 		mov	r4, #3072
 131 000e 4FF48076 		mov	r6, #256
 132 0012 C4F20104 		movt	r4, 16385
 133 0016 3746     		mov	r7, r6
 134              		.loc 1 28 0
 135 0018 8025     		movs	r5, #128
 136              	.L7:
 137              		.loc 1 27 0 discriminator 1
 138 001a 2761     		str	r7, [r4, #16]
 139              		.loc 1 29 0 discriminator 1
 140 001c FA20     		movs	r0, #250
 141              		.loc 1 28 0 discriminator 1
 142 001e 6561     		str	r5, [r4, #20]
 143              		.loc 1 29 0 discriminator 1
 144 0020 FFF7FEFF 		bl	chThdSleep
 145              	.LVL13:
 146              		.loc 1 30 0 discriminator 1
 147 0024 6661     		str	r6, [r4, #20]
 148              		.loc 1 32 0 discriminator 1
 149 0026 FA20     		movs	r0, #250
 150              		.loc 1 31 0 discriminator 1
 151 0028 2561     		str	r5, [r4, #16]
 152              		.loc 1 32 0 discriminator 1
 153 002a FFF7FEFF 		bl	chThdSleep
 154              	.LVL14:
 155 002e F4E7     		b	.L7
 156              	.L9:
 157              		.align	2
 158              	.L8:
 159 0030 00000000 		.word	SD2
 160 0034 28000000 		.word	.LC4
 161              		.cfi_endproc
 162              	.LFE63:
 163              		.size	heartBeat, .-heartBeat
 164 0038 AFF30080 		.section	.text.startup.main,"ax",%progbits
 164      AFF30080 
 165              		.align	2
 166              		.p2align 4,,15
 167              		.global	main
 168              		.thumb
 169              		.thumb_func
 170              		.type	main, %function
ARM GAS  /tmp/ccDfF8dq.s 			page 4


 171              	main:
 172              	.LFB65:
 173              		.loc 1 56 0
 174              		.cfi_startproc
 175              		@ args = 0, pretend = 0, frame = 0
 176              		@ frame_needed = 0, uses_anonymous_args = 0
 177 0000 10B5     		push	{r4, lr}
 178              	.LCFI3:
 179              		.cfi_def_cfa_offset 8
 180              		.cfi_offset 4, -8
 181              		.cfi_offset 14, -4
 182 0002 82B0     		sub	sp, sp, #8
 183              	.LCFI4:
 184              		.cfi_def_cfa_offset 16
 185              		.loc 1 57 0
 186 0004 FFF7FEFF 		bl	halInit
 187              	.LVL15:
 188              		.loc 1 58 0
 189 0008 FFF7FEFF 		bl	chSysInit
 190              	.LVL16:
 191              		.loc 1 60 0
 192 000c 40F20000 		movw	r0, #:lower16:SD2
 193 0010 0021     		movs	r1, #0
 194 0012 C0F20000 		movt	r0, #:upper16:SD2
 195 0016 FFF7FEFF 		bl	sdStart
 196              	.LVL17:
 197              		.loc 1 61 0
 198 001a 40F20000 		movw	r0, #:lower16:I2CD2
 199 001e 40F20001 		movw	r1, #:lower16:.LANCHOR0
 200 0022 C0F20000 		movt	r0, #:upper16:I2CD2
 201 0026 C0F20001 		movt	r1, #:upper16:.LANCHOR0
 202 002a FFF7FEFF 		bl	i2cStart
 203              	.LVL18:
 204              		.loc 1 64 0
 205 002e 0024     		movs	r4, #0
 206 0030 40F20003 		movw	r3, #:lower16:heartBeat
 207 0034 40F20000 		movw	r0, #:lower16:.LANCHOR1
 208 0038 D021     		movs	r1, #208
 209 003a 4022     		movs	r2, #64
 210 003c C0F20003 		movt	r3, #:upper16:heartBeat
 211 0040 0094     		str	r4, [sp, #0]
 212 0042 C0F20000 		movt	r0, #:upper16:.LANCHOR1
 213 0046 FFF7FEFF 		bl	chThdCreateStatic
 214              	.LVL19:
 215              		.loc 1 65 0
 216 004a 40F20000 		movw	r0, #:lower16:.LANCHOR2
 217 004e 40F20003 		movw	r3, #:lower16:accDemo
 218 0052 0094     		str	r4, [sp, #0]
 219 0054 4FF4D871 		mov	r1, #432
 220 0058 4022     		movs	r2, #64
 221 005a C0F20003 		movt	r3, #:upper16:accDemo
 222 005e C0F20000 		movt	r0, #:upper16:.LANCHOR2
 223 0062 FFF7FEFF 		bl	chThdCreateStatic
 224              	.LVL20:
 225              		.loc 1 66 0
 226 0066 2046     		mov	r0, r4
 227 0068 02B0     		add	sp, sp, #8
ARM GAS  /tmp/ccDfF8dq.s 			page 5


 228 006a 10BD     		pop	{r4, pc}
 229              		.cfi_endproc
 230              	.LFE65:
 231              		.size	main, .-main
 232 006c AFF30080 		.section	.rodata.i2cCfg,"a",%progbits
 233              		.align	2
 234              		.set	.LANCHOR0,. + 0
 235              		.type	i2cCfg, %object
 236              		.size	i2cCfg, 12
 237              	i2cCfg:
 238 0000 01       		.byte	1
 239 0001 000000   		.space	3
 240 0004 801A0600 		.word	400000
 241 0008 02       		.byte	2
 242 0009 000000   		.space	3
 243              		.section	.rodata.str1.4,"aMS",%progbits,1
 244              		.align	2
 245              	.LC0:
 246 0000 25642058 		.ascii	"%d X    \000"
 246      20202020 
 246      00
 247 0009 000000   		.space	3
 248              	.LC1:
 249 000c 25642059 		.ascii	"%d Y    \000"
 249      20202020 
 249      00
 250 0015 000000   		.space	3
 251              	.LC2:
 252 0018 2564205A 		.ascii	"%d Z    \000"
 252      20202020 
 252      00
 253 0021 000000   		.space	3
 254              	.LC3:
 255 0024 0A0D00   		.ascii	"\012\015\000"
 256 0027 00       		.space	1
 257              	.LC4:
 258 0028 48656C6C 		.ascii	"Hello world!\012\015\000"
 258      6F20776F 
 258      726C6421 
 258      0A0D00
 259 0037 00       		.section	.bss.heartWrkArea,"aw",%nobits
 260              		.align	3
 261              		.set	.LANCHOR1,. + 0
 262              		.type	heartWrkArea, %object
 263              		.size	heartWrkArea, 208
 264              	heartWrkArea:
 265 0000 00000000 		.space	208
 265      00000000 
 265      00000000 
 265      00000000 
 265      00000000 
 266              		.section	.bss.accDemoWrkArea,"aw",%nobits
 267              		.align	3
 268              		.set	.LANCHOR2,. + 0
 269              		.type	accDemoWrkArea, %object
 270              		.size	accDemoWrkArea, 432
 271              	accDemoWrkArea:
ARM GAS  /tmp/ccDfF8dq.s 			page 6


 272 0000 00000000 		.space	432
 272      00000000 
 272      00000000 
 272      00000000 
 272      00000000 
 273              		.text
 274              	.Letext0:
 275              		.file 2 "/usr/bin/../lib/gcc/arm-none-eabi/4.7.4/include/stddef.h"
 276              		.file 3 "/usr/bin/../lib/gcc/arm-none-eabi/4.7.4/../../../../arm-none-eabi/include/stdint.h"
 277              		.file 4 "../../os/ports/GCC/ARMCMx/chtypes.h"
 278              		.file 5 "../../os/kernel/include/chlists.h"
 279              		.file 6 "../../os/kernel/include/chthreads.h"
 280              		.file 7 "../../os/ports/GCC/ARMCMx/chcore_v7m.h"
 281              		.file 8 "../../os/kernel/include/chmtx.h"
 282              		.file 9 "../../os/kernel/include/chevents.h"
 283              		.file 10 "../../os/kernel/include/chqueues.h"
 284              		.file 11 "../../os/kernel/include/chstreams.h"
 285              		.file 12 "../../os/hal/platforms/STM32F1xx/stm32f10x.h"
 286              		.file 13 "../../os/hal/platforms/STM32F1xx/stm32_dma.h"
 287              		.file 14 "../../os/hal/include/io_channel.h"
 288              		.file 15 "../../os/hal/platforms/STM32/GPIOv1/pal_lld.h"
 289              		.file 16 "../../os/hal/include/i2c.h"
 290              		.file 17 "../../os/hal/platforms/STM32/I2Cv1/i2c_lld.h"
 291              		.file 18 "../../os/hal/include/serial.h"
 292              		.file 19 "../../os/hal/platforms/STM32/USARTv1/serial_lld.h"
 293              		.file 20 "../../os/ports/common/ARMCMx/CMSIS/include/core_cm3.h"
 294              		.file 21 "../../os/various/chprintf.h"
 295              		.file 22 "../../os/hal/include/hal.h"
 296              		.file 23 "../../os/kernel/include/chsys.h"