ARM GAS  /tmp/ccS4EIBT.s 			page 1


   1              		.syntax unified
   2              		.cpu cortex-m3
   3              		.fpu softvfp
   4              		.eabi_attribute 20, 1
   5              		.eabi_attribute 21, 1
   6              		.eabi_attribute 23, 3
   7              		.eabi_attribute 24, 1
   8              		.eabi_attribute 25, 1
   9              		.eabi_attribute 26, 1
  10              		.eabi_attribute 30, 2
  11              		.eabi_attribute 34, 1
  12              		.eabi_attribute 18, 4
  13              		.thumb
  14              		.file	"IMU01A.c"
  15              		.text
  16              	.Ltext0:
  17              		.cfi_sections	.debug_frame
  18              		.section	.text.accInit,"ax",%progbits
  19              		.align	2
  20              		.p2align 4,,15
  21              		.global	accInit
  22              		.thumb
  23              		.thumb_func
  24              		.type	accInit, %function
  25              	accInit:
  26              	.LFB63:
  27              		.file 1 "IMU01A.c"
  28              		.loc 1 9 0
  29              		.cfi_startproc
  30              		@ args = 0, pretend = 0, frame = 8
  31              		@ frame_needed = 0, uses_anonymous_args = 0
  32              	.LVL0:
  33 0000 30B5     		push	{r4, r5, lr}
  34              	.LCFI0:
  35              		.cfi_def_cfa_offset 12
  36              		.cfi_offset 4, -12
  37              		.cfi_offset 5, -8
  38              		.cfi_offset 14, -4
  39              		.loc 1 13 0
  40 0002 2A23     		movs	r3, #42
  41              		.loc 1 9 0
  42 0004 87B0     		sub	sp, sp, #28
  43              	.LCFI1:
  44              		.cfi_def_cfa_offset 40
  45              		.loc 1 9 0
  46 0006 0C46     		mov	r4, r1
  47 0008 0546     		mov	r5, r0
  48              		.loc 1 14 0
  49 000a 0121     		movs	r1, #1
  50              	.LVL1:
  51              		.loc 1 15 0
  52 000c 0D48     		ldr	r0, .L7
  53              	.LVL2:
  54              		.loc 1 13 0
  55 000e 8DF81030 		strb	r3, [sp, #16]
  56              		.loc 1 14 0
  57 0012 8DF81110 		strb	r1, [sp, #17]
ARM GAS  /tmp/ccS4EIBT.s 			page 2


  58              		.loc 1 15 0
  59 0016 FFF7FEFF 		bl	i2cAcquireBus
  60              	.LVL3:
  61              		.loc 1 16 0
  62 001a 0020     		movs	r0, #0
  63 001c 0422     		movs	r2, #4
  64 001e 0090     		str	r0, [sp, #0]
  65 0020 0190     		str	r0, [sp, #4]
  66 0022 0292     		str	r2, [sp, #8]
  67 0024 2146     		mov	r1, r4
  68 0026 0748     		ldr	r0, .L7
  69 0028 04AA     		add	r2, sp, #16
  70 002a 0223     		movs	r3, #2
  71 002c FFF7FEFF 		bl	i2cMasterTransmitTimeout
  72              	.LVL4:
  73 0030 0446     		mov	r4, r0
  74              	.LVL5:
  75              		.loc 1 17 0
  76 0032 0448     		ldr	r0, .L7
  77              	.LVL6:
  78 0034 FFF7FEFF 		bl	i2cReleaseBus
  79              	.LVL7:
  80              		.loc 1 18 0
  81 0038 14B1     		cbz	r4, .L1
  82              	.LBB2:
  83              		.loc 1 18 0 is_stmt 0 discriminator 1
  84 003a 2846     		mov	r0, r5
  85 003c FFF7FEFF 		bl	i2cGetErr
  86              	.LVL8:
  87              	.L1:
  88              	.LBE2:
  89              		.loc 1 19 0 is_stmt 1
  90 0040 07B0     		add	sp, sp, #28
  91 0042 30BD     		pop	{r4, r5, pc}
  92              	.L8:
  93              		.align	2
  94              	.L7:
  95 0044 00000000 		.word	I2CD2
  96              		.cfi_endproc
  97              	.LFE63:
  98              		.size	accInit, .-accInit
  99 0048 AFF30080 		.section	.text.accRead,"ax",%progbits
  99      AFF30080 
 100              		.align	2
 101              		.p2align 4,,15
 102              		.global	accRead
 103              		.thumb
 104              		.thumb_func
 105              		.type	accRead, %function
 106              	accRead:
 107              	.LFB64:
 108              		.loc 1 23 0
 109              		.cfi_startproc
 110              		@ args = 4, pretend = 0, frame = 16
 111              		@ frame_needed = 0, uses_anonymous_args = 0
 112              	.LVL9:
 113 0000 2DE9F043 		push	{r4, r5, r6, r7, r8, r9, lr}
ARM GAS  /tmp/ccS4EIBT.s 			page 3


 114              	.LCFI2:
 115              		.cfi_def_cfa_offset 28
 116              		.cfi_offset 4, -28
 117              		.cfi_offset 5, -24
 118              		.cfi_offset 6, -20
 119              		.cfi_offset 7, -16
 120              		.cfi_offset 8, -12
 121              		.cfi_offset 9, -8
 122              		.cfi_offset 14, -4
 123 0004 89B0     		sub	sp, sp, #36
 124              	.LCFI3:
 125              		.cfi_def_cfa_offset 64
 126              		.loc 1 28 0
 127 0006 08AC     		add	r4, sp, #32
 128 0008 0126     		movs	r6, #1
 129              		.loc 1 23 0
 130 000a 0546     		mov	r5, r0
 131 000c 8946     		mov	r9, r1
 132              		.loc 1 28 0
 133 000e 04F8086D 		strb	r6, [r4, #-8]!
 134              		.loc 1 23 0
 135 0012 9046     		mov	r8, r2
 136 0014 1F46     		mov	r7, r3
 137              		.loc 1 29 0
 138 0016 FFF7FEFF 		bl	i2cAcquireBus
 139              	.LVL10:
 140              		.loc 1 30 0
 141 001a 04AB     		add	r3, sp, #16
 142 001c 0620     		movs	r0, #6
 143 001e 0421     		movs	r1, #4
 144 0020 0093     		str	r3, [sp, #0]
 145 0022 0190     		str	r0, [sp, #4]
 146 0024 0291     		str	r1, [sp, #8]
 147 0026 2246     		mov	r2, r4
 148 0028 2846     		mov	r0, r5
 149 002a 4946     		mov	r1, r9
 150 002c 3346     		mov	r3, r6
 151 002e FFF7FEFF 		bl	i2cMasterTransmitTimeout
 152              	.LVL11:
 153 0032 0446     		mov	r4, r0
 154              	.LVL12:
 155              		.loc 1 31 0
 156 0034 2846     		mov	r0, r5
 157              	.LVL13:
 158 0036 FFF7FEFF 		bl	i2cReleaseBus
 159              	.LVL14:
 160              		.loc 1 32 0
 161 003a 14B1     		cbz	r4, .L10
 162              	.LBB3:
 163              		.loc 1 32 0 is_stmt 0 discriminator 1
 164 003c 2846     		mov	r0, r5
 165 003e FFF7FEFF 		bl	i2cGetErr
 166              	.LVL15:
 167              	.L10:
 168              	.LBE3:
 169              		.loc 1 36 0 is_stmt 1
 170 0042 9DF81520 		ldrb	r2, [sp, #21]	@ zero_extendqisi2
ARM GAS  /tmp/ccS4EIBT.s 			page 4


 171 0046 9DF81400 		ldrb	r0, [sp, #20]	@ zero_extendqisi2
 172              		.loc 1 34 0
 173 004a 9DF81050 		ldrb	r5, [sp, #16]	@ zero_extendqisi2
 174              	.LVL16:
 175 004e 9DF81110 		ldrb	r1, [sp, #17]	@ zero_extendqisi2
 176              		.loc 1 35 0
 177 0052 9DF81240 		ldrb	r4, [sp, #18]	@ zero_extendqisi2
 178              	.LVL17:
 179 0056 9DF81330 		ldrb	r3, [sp, #19]	@ zero_extendqisi2
 180              		.loc 1 36 0
 181 005a 42EA0020 		orr	r0, r2, r0, lsl #8
 182 005e 109A     		ldr	r2, [sp, #64]
 183              		.loc 1 34 0
 184 0060 41EA0521 		orr	r1, r1, r5, lsl #8
 185              		.loc 1 35 0
 186 0064 43EA0423 		orr	r3, r3, r4, lsl #8
 187              		.loc 1 34 0
 188 0068 A8F80010 		strh	r1, [r8, #0]	@ movhi
 189              		.loc 1 35 0
 190 006c 3B80     		strh	r3, [r7, #0]	@ movhi
 191              		.loc 1 36 0
 192 006e 1080     		strh	r0, [r2, #0]	@ movhi
 193              		.loc 1 37 0
 194 0070 09B0     		add	sp, sp, #36
 195 0072 BDE8F083 		pop	{r4, r5, r6, r7, r8, r9, pc}
 196              		.cfi_endproc
 197              	.LFE64:
 198              		.size	accRead, .-accRead
 199 0076 00BFAFF3 		.section	.text.gyroInit,"ax",%progbits
 199      0080AFF3 
 199      0080
 200              		.align	2
 201              		.p2align 4,,15
 202              		.global	gyroInit
 203              		.thumb
 204              		.thumb_func
 205              		.type	gyroInit, %function
 206              	gyroInit:
 207              	.LFB65:
 208              		.loc 1 41 0
 209              		.cfi_startproc
 210              		@ args = 0, pretend = 0, frame = 8
 211              		@ frame_needed = 0, uses_anonymous_args = 0
 212              	.LVL18:
 213 0000 70B5     		push	{r4, r5, r6, lr}
 214              	.LCFI4:
 215              		.cfi_def_cfa_offset 16
 216              		.cfi_offset 4, -16
 217              		.cfi_offset 5, -12
 218              		.cfi_offset 6, -8
 219              		.cfi_offset 14, -4
 220              		.loc 1 45 0
 221 0002 2023     		movs	r3, #32
 222              		.loc 1 41 0
 223 0004 86B0     		sub	sp, sp, #24
 224              	.LCFI5:
 225              		.cfi_def_cfa_offset 40
ARM GAS  /tmp/ccS4EIBT.s 			page 5


 226              		.loc 1 41 0
 227 0006 0C46     		mov	r4, r1
 228 0008 0646     		mov	r6, r0
 229              		.loc 1 46 0
 230 000a FF21     		movs	r1, #255
 231              	.LVL19:
 232              		.loc 1 47 0
 233 000c 1C48     		ldr	r0, .L24
 234              	.LVL20:
 235              		.loc 1 45 0
 236 000e 8DF81030 		strb	r3, [sp, #16]
 237              		.loc 1 46 0
 238 0012 8DF81110 		strb	r1, [sp, #17]
 239              		.loc 1 47 0
 240 0016 FFF7FEFF 		bl	i2cAcquireBus
 241              	.LVL21:
 242              		.loc 1 48 0
 243 001a 0020     		movs	r0, #0
 244 001c 0422     		movs	r2, #4
 245 001e 0090     		str	r0, [sp, #0]
 246 0020 0190     		str	r0, [sp, #4]
 247 0022 0292     		str	r2, [sp, #8]
 248 0024 1648     		ldr	r0, .L24
 249 0026 2146     		mov	r1, r4
 250 0028 04AA     		add	r2, sp, #16
 251 002a 0223     		movs	r3, #2
 252 002c FFF7FEFF 		bl	i2cMasterTransmitTimeout
 253              	.LVL22:
 254 0030 0546     		mov	r5, r0
 255              	.LVL23:
 256              		.loc 1 49 0
 257 0032 1348     		ldr	r0, .L24
 258              	.LVL24:
 259 0034 FFF7FEFF 		bl	i2cReleaseBus
 260              	.LVL25:
 261              		.loc 1 50 0
 262 0038 EDB9     		cbnz	r5, .L23
 263              	.L15:
 264              		.loc 1 52 0
 265 003a 2E23     		movs	r3, #46
 266              		.loc 1 53 0
 267 003c 4021     		movs	r1, #64
 268              		.loc 1 54 0
 269 003e 1048     		ldr	r0, .L24
 270              		.loc 1 52 0
 271 0040 8DF81030 		strb	r3, [sp, #16]
 272              		.loc 1 53 0
 273 0044 8DF81110 		strb	r1, [sp, #17]
 274              		.loc 1 54 0
 275 0048 FFF7FEFF 		bl	i2cAcquireBus
 276              	.LVL26:
 277              		.loc 1 55 0
 278 004c 0020     		movs	r0, #0
 279 004e 0422     		movs	r2, #4
 280 0050 0090     		str	r0, [sp, #0]
 281 0052 0190     		str	r0, [sp, #4]
 282 0054 0292     		str	r2, [sp, #8]
ARM GAS  /tmp/ccS4EIBT.s 			page 6


 283 0056 2146     		mov	r1, r4
 284 0058 0948     		ldr	r0, .L24
 285 005a 04AA     		add	r2, sp, #16
 286 005c 0223     		movs	r3, #2
 287 005e FFF7FEFF 		bl	i2cMasterTransmitTimeout
 288              	.LVL27:
 289 0062 0446     		mov	r4, r0
 290              	.LVL28:
 291              		.loc 1 56 0
 292 0064 0648     		ldr	r0, .L24
 293              	.LVL29:
 294 0066 FFF7FEFF 		bl	i2cReleaseBus
 295              	.LVL30:
 296              		.loc 1 57 0
 297 006a 14B1     		cbz	r4, .L14
 298              	.LBB4:
 299              		.loc 1 57 0 is_stmt 0 discriminator 1
 300 006c 3046     		mov	r0, r6
 301 006e FFF7FEFF 		bl	i2cGetErr
 302              	.LVL31:
 303              	.L14:
 304              	.LBE4:
 305              		.loc 1 58 0 is_stmt 1
 306 0072 06B0     		add	sp, sp, #24
 307 0074 70BD     		pop	{r4, r5, r6, pc}
 308              	.LVL32:
 309              	.L23:
 310              	.LBB5:
 311              		.loc 1 50 0 discriminator 1
 312 0076 3046     		mov	r0, r6
 313 0078 FFF7FEFF 		bl	i2cGetErr
 314              	.LVL33:
 315 007c DDE7     		b	.L15
 316              	.L25:
 317 007e 00BF     		.align	2
 318              	.L24:
 319 0080 00000000 		.word	I2CD2
 320              	.LBE5:
 321              		.cfi_endproc
 322              	.LFE65:
 323              		.size	gyroInit, .-gyroInit
 324 0084 AFF30080 		.section	.text.gyroRead,"ax",%progbits
 324      AFF30080 
 324      AFF30080 
 325              		.align	2
 326              		.p2align 4,,15
 327              		.global	gyroRead
 328              		.thumb
 329              		.thumb_func
 330              		.type	gyroRead, %function
 331              	gyroRead:
 332              	.LFB66:
 333              		.loc 1 62 0
 334              		.cfi_startproc
 335              		@ args = 4, pretend = 0, frame = 16
 336              		@ frame_needed = 0, uses_anonymous_args = 0
 337              	.LVL34:
ARM GAS  /tmp/ccS4EIBT.s 			page 7


 338 0000 2DE9F041 		push	{r4, r5, r6, r7, r8, lr}
 339              	.LCFI6:
 340              		.cfi_def_cfa_offset 24
 341              		.cfi_offset 4, -24
 342              		.cfi_offset 5, -20
 343              		.cfi_offset 6, -16
 344              		.cfi_offset 7, -12
 345              		.cfi_offset 8, -8
 346              		.cfi_offset 14, -4
 347 0004 88B0     		sub	sp, sp, #32
 348              	.LCFI7:
 349              		.cfi_def_cfa_offset 56
 350              		.loc 1 67 0
 351 0006 08AC     		add	r4, sp, #32
 352              		.loc 1 62 0
 353 0008 1E46     		mov	r6, r3
 354              		.loc 1 67 0
 355 000a 2823     		movs	r3, #40
 356              	.LVL35:
 357              		.loc 1 62 0
 358 000c 0546     		mov	r5, r0
 359              		.loc 1 67 0
 360 000e 04F8083D 		strb	r3, [r4, #-8]!
 361              		.loc 1 62 0
 362 0012 8846     		mov	r8, r1
 363 0014 1746     		mov	r7, r2
 364              		.loc 1 68 0
 365 0016 FFF7FEFF 		bl	i2cAcquireBus
 366              	.LVL36:
 367              		.loc 1 69 0
 368 001a 04A8     		add	r0, sp, #16
 369 001c 0621     		movs	r1, #6
 370 001e 0422     		movs	r2, #4
 371 0020 0090     		str	r0, [sp, #0]
 372 0022 0191     		str	r1, [sp, #4]
 373 0024 0292     		str	r2, [sp, #8]
 374 0026 2846     		mov	r0, r5
 375 0028 2246     		mov	r2, r4
 376 002a 4146     		mov	r1, r8
 377 002c 0123     		movs	r3, #1
 378 002e FFF7FEFF 		bl	i2cMasterTransmitTimeout
 379              	.LVL37:
 380 0032 0446     		mov	r4, r0
 381              	.LVL38:
 382              		.loc 1 70 0
 383 0034 2846     		mov	r0, r5
 384              	.LVL39:
 385 0036 FFF7FEFF 		bl	i2cReleaseBus
 386              	.LVL40:
 387              		.loc 1 71 0
 388 003a 14B1     		cbz	r4, .L27
 389              	.LBB6:
 390              		.loc 1 71 0 is_stmt 0 discriminator 1
 391 003c 2846     		mov	r0, r5
 392 003e FFF7FEFF 		bl	i2cGetErr
 393              	.LVL41:
 394              	.L27:
ARM GAS  /tmp/ccS4EIBT.s 			page 8


 395              	.LBE6:
 396              		.loc 1 75 0 is_stmt 1
 397 0042 9DF81520 		ldrb	r2, [sp, #21]	@ zero_extendqisi2
 398 0046 9DF81400 		ldrb	r0, [sp, #20]	@ zero_extendqisi2
 399              		.loc 1 73 0
 400 004a 9DF81050 		ldrb	r5, [sp, #16]	@ zero_extendqisi2
 401              	.LVL42:
 402 004e 9DF81110 		ldrb	r1, [sp, #17]	@ zero_extendqisi2
 403              		.loc 1 74 0
 404 0052 9DF81240 		ldrb	r4, [sp, #18]	@ zero_extendqisi2
 405              	.LVL43:
 406 0056 9DF81330 		ldrb	r3, [sp, #19]	@ zero_extendqisi2
 407              		.loc 1 75 0
 408 005a 42EA0020 		orr	r0, r2, r0, lsl #8
 409 005e 0E9A     		ldr	r2, [sp, #56]
 410              		.loc 1 73 0
 411 0060 41EA0521 		orr	r1, r1, r5, lsl #8
 412              		.loc 1 74 0
 413 0064 43EA0423 		orr	r3, r3, r4, lsl #8
 414              		.loc 1 73 0
 415 0068 3980     		strh	r1, [r7, #0]	@ movhi
 416              		.loc 1 74 0
 417 006a 3380     		strh	r3, [r6, #0]	@ movhi
 418              		.loc 1 75 0
 419 006c 1080     		strh	r0, [r2, #0]	@ movhi
 420              		.loc 1 76 0
 421 006e 08B0     		add	sp, sp, #32
 422 0070 BDE8F081 		pop	{r4, r5, r6, r7, r8, pc}
 423              		.cfi_endproc
 424              	.LFE66:
 425              		.size	gyroRead, .-gyroRead
 426 0074 AFF30080 		.section	.text.tempRead,"ax",%progbits
 426      AFF30080 
 426      AFF30080 
 427              		.align	2
 428              		.p2align 4,,15
 429              		.global	tempRead
 430              		.thumb
 431              		.thumb_func
 432              		.type	tempRead, %function
 433              	tempRead:
 434              	.LFB67:
 435              		.loc 1 79 0
 436              		.cfi_startproc
 437              		@ args = 0, pretend = 0, frame = 16
 438              		@ frame_needed = 0, uses_anonymous_args = 0
 439              	.LVL44:
 440 0000 F0B5     		push	{r4, r5, r6, r7, lr}
 441              	.LCFI8:
 442              		.cfi_def_cfa_offset 20
 443              		.cfi_offset 4, -20
 444              		.cfi_offset 5, -16
 445              		.cfi_offset 6, -12
 446              		.cfi_offset 7, -8
 447              		.cfi_offset 14, -4
 448 0002 89B0     		sub	sp, sp, #36
 449              	.LCFI9:
ARM GAS  /tmp/ccS4EIBT.s 			page 9


 450              		.cfi_def_cfa_offset 56
 451              		.loc 1 84 0
 452 0004 08AC     		add	r4, sp, #32
 453 0006 2623     		movs	r3, #38
 454              		.loc 1 79 0
 455 0008 0546     		mov	r5, r0
 456              		.loc 1 84 0
 457 000a 04F8083D 		strb	r3, [r4, #-8]!
 458              		.loc 1 79 0
 459 000e 0F46     		mov	r7, r1
 460 0010 1646     		mov	r6, r2
 461              		.loc 1 85 0
 462 0012 FFF7FEFF 		bl	i2cAcquireBus
 463              	.LVL45:
 464              		.loc 1 86 0
 465 0016 04A8     		add	r0, sp, #16
 466 0018 0621     		movs	r1, #6
 467 001a 0422     		movs	r2, #4
 468 001c 0090     		str	r0, [sp, #0]
 469 001e 0191     		str	r1, [sp, #4]
 470 0020 0292     		str	r2, [sp, #8]
 471 0022 2846     		mov	r0, r5
 472 0024 2246     		mov	r2, r4
 473 0026 3946     		mov	r1, r7
 474 0028 0123     		movs	r3, #1
 475 002a FFF7FEFF 		bl	i2cMasterTransmitTimeout
 476              	.LVL46:
 477 002e 0446     		mov	r4, r0
 478              	.LVL47:
 479              		.loc 1 87 0
 480 0030 2846     		mov	r0, r5
 481              	.LVL48:
 482 0032 FFF7FEFF 		bl	i2cReleaseBus
 483              	.LVL49:
 484              		.loc 1 88 0
 485 0036 14B1     		cbz	r4, .L32
 486              	.LBB7:
 487              		.loc 1 88 0 is_stmt 0 discriminator 1
 488 0038 2846     		mov	r0, r5
 489 003a FFF7FEFF 		bl	i2cGetErr
 490              	.LVL50:
 491              	.L32:
 492              	.LBE7:
 493              		.loc 1 90 0 is_stmt 1
 494 003e 9DF81030 		ldrb	r3, [sp, #16]	@ zero_extendqisi2
 495 0042 3370     		strb	r3, [r6, #0]
 496              		.loc 1 91 0
 497 0044 09B0     		add	sp, sp, #36
 498 0046 F0BD     		pop	{r4, r5, r6, r7, pc}
 499              		.cfi_endproc
 500              	.LFE67:
 501              		.size	tempRead, .-tempRead
 502 0048 AFF30080 		.text
 502      AFF30080 
 503              	.Letext0:
 504              		.file 2 "/usr/bin/../lib/gcc/arm-none-eabi/4.7.4/include/stddef.h"
 505              		.file 3 "/usr/bin/../lib/gcc/arm-none-eabi/4.7.4/../../../../arm-none-eabi/include/stdint.h"
ARM GAS  /tmp/ccS4EIBT.s 			page 10


 506              		.file 4 "../../os/ports/GCC/ARMCMx/chtypes.h"
 507              		.file 5 "../../os/kernel/include/chlists.h"
 508              		.file 6 "../../os/kernel/include/chthreads.h"
 509              		.file 7 "../../os/ports/GCC/ARMCMx/chcore_v7m.h"
 510              		.file 8 "../../os/kernel/include/chmtx.h"
 511              		.file 9 "../../os/hal/platforms/STM32F1xx/stm32f10x.h"
 512              		.file 10 "../../os/hal/platforms/STM32F1xx/stm32_dma.h"
 513              		.file 11 "../../os/hal/include/i2c.h"
 514              		.file 12 "../../os/hal/platforms/STM32/I2Cv1/i2c_lld.h"
 515              		.file 13 "../../os/ports/common/ARMCMx/CMSIS/include/core_cm3.h"