ARM GAS  /tmp/cctq97SI.s 			page 1


   1              		.syntax unified
   2              		.cpu cortex-m3
   3              		.fpu softvfp
   4              		.eabi_attribute 20, 1
   5              		.eabi_attribute 21, 1
   6              		.eabi_attribute 23, 3
   7              		.eabi_attribute 24, 1
   8              		.eabi_attribute 25, 1
   9              		.eabi_attribute 26, 1
  10              		.eabi_attribute 30, 2
  11              		.eabi_attribute 34, 1
  12              		.eabi_attribute 18, 4
  13              		.thumb
  14              		.file	"main.c"
  15              		.text
  16              	.Ltext0:
  17              		.cfi_sections	.debug_frame
  18              		.section	.text.gyroDemo,"ax",%progbits
  19              		.align	2
  20              		.p2align 4,,15
  21              		.thumb
  22              		.thumb_func
  23              		.type	gyroDemo, %function
  24              	gyroDemo:
  25              	.LFB64:
  26              		.file 1 "main.c"
  27              		.loc 1 39 0
  28              		.cfi_startproc
  29              		@ args = 0, pretend = 0, frame = 8
  30              		@ frame_needed = 0, uses_anonymous_args = 0
  31              	.LVL0:
  32 0000 10B5     		push	{r4, lr}
  33              	.LCFI0:
  34              		.cfi_def_cfa_offset 8
  35              		.cfi_offset 4, -8
  36              		.cfi_offset 14, -4
  37              		.loc 1 40 0
  38 0002 1A48     		ldr	r0, .L4
  39              	.LVL1:
  40              		.loc 1 39 0
  41 0004 84B0     		sub	sp, sp, #16
  42              	.LCFI1:
  43              		.cfi_def_cfa_offset 24
  44              		.loc 1 40 0
  45 0006 6821     		movs	r1, #104
  46 0008 FFF7FEFF 		bl	gyroInit
  47              	.LVL2:
  48 000c 0DF10E04 		add	r4, sp, #14
  49              	.LVL3:
  50              	.L2:
  51              	.LBB2:
  52              		.loc 1 45 0 discriminator 1
  53 0010 03AB     		add	r3, sp, #12
  54 0012 0DF10A02 		add	r2, sp, #10
  55 0016 6821     		movs	r1, #104
  56 0018 0094     		str	r4, [sp, #0]
  57 001a 1448     		ldr	r0, .L4
ARM GAS  /tmp/cctq97SI.s 			page 2


  58 001c FFF7FEFF 		bl	gyroRead
  59              	.LVL4:
  60              		.loc 1 46 0 discriminator 1
  61 0020 0DF10902 		add	r2, sp, #9
  62 0024 6821     		movs	r1, #104
  63 0026 1148     		ldr	r0, .L4
  64 0028 FFF7FEFF 		bl	tempRead
  65              	.LVL5:
  66              		.loc 1 48 0 discriminator 1
  67 002c BDF90A20 		ldrsh	r2, [sp, #10]
  68 0030 0F48     		ldr	r0, .L4+4
  69 0032 1049     		ldr	r1, .L4+8
  70 0034 FFF7FEFF 		bl	chprintf
  71              	.LVL6:
  72              		.loc 1 49 0 discriminator 1
  73 0038 BDF90C20 		ldrsh	r2, [sp, #12]
  74 003c 0C48     		ldr	r0, .L4+4
  75 003e 0E49     		ldr	r1, .L4+12
  76 0040 FFF7FEFF 		bl	chprintf
  77              	.LVL7:
  78              		.loc 1 50 0 discriminator 1
  79 0044 BDF90E20 		ldrsh	r2, [sp, #14]
  80 0048 0948     		ldr	r0, .L4+4
  81 004a 0C49     		ldr	r1, .L4+16
  82 004c FFF7FEFF 		bl	chprintf
  83              	.LVL8:
  84              		.loc 1 51 0 discriminator 1
  85 0050 9DF80920 		ldrb	r2, [sp, #9]	@ zero_extendqisi2
  86 0054 0648     		ldr	r0, .L4+4
  87 0056 0A49     		ldr	r1, .L4+20
  88 0058 FFF7FEFF 		bl	chprintf
  89              	.LVL9:
  90              		.loc 1 52 0 discriminator 1
  91 005c 0448     		ldr	r0, .L4+4
  92 005e 0949     		ldr	r1, .L4+24
  93 0060 FFF7FEFF 		bl	chprintf
  94              	.LVL10:
  95              		.loc 1 53 0 discriminator 1
  96 0064 0520     		movs	r0, #5
  97 0066 FFF7FEFF 		bl	chThdSleep
  98              	.LVL11:
  99 006a D1E7     		b	.L2
 100              	.L5:
 101              		.align	2
 102              	.L4:
 103 006c 00000000 		.word	I2CD2
 104 0070 00000000 		.word	SD2
 105 0074 00000000 		.word	.LC0
 106 0078 0C000000 		.word	.LC1
 107 007c 18000000 		.word	.LC2
 108 0080 24000000 		.word	.LC3
 109 0084 30000000 		.word	.LC4
 110              	.LBE2:
 111              		.cfi_endproc
 112              	.LFE64:
 113              		.size	gyroDemo, .-gyroDemo
 114 0088 AFF30080 		.section	.text.heartBeat,"ax",%progbits
ARM GAS  /tmp/cctq97SI.s 			page 3


 114      AFF30080 
 115              		.align	2
 116              		.p2align 4,,15
 117              		.thumb
 118              		.thumb_func
 119              		.type	heartBeat, %function
 120              	heartBeat:
 121              	.LFB63:
 122              		.loc 1 22 0
 123              		.cfi_startproc
 124              		@ args = 0, pretend = 0, frame = 0
 125              		@ frame_needed = 0, uses_anonymous_args = 0
 126              	.LVL12:
 127 0000 F8B5     		push	{r3, r4, r5, r6, r7, lr}
 128              	.LCFI2:
 129              		.cfi_def_cfa_offset 24
 130              		.cfi_offset 3, -24
 131              		.cfi_offset 4, -20
 132              		.cfi_offset 5, -16
 133              		.cfi_offset 6, -12
 134              		.cfi_offset 7, -8
 135              		.cfi_offset 14, -4
 136              		.loc 1 23 0
 137 0002 0B48     		ldr	r0, .L8
 138              	.LVL13:
 139 0004 0B49     		ldr	r1, .L8+4
 140 0006 FFF7FEFF 		bl	chprintf
 141              	.LVL14:
 142              		.loc 1 27 0
 143 000a 4FF44064 		mov	r4, #3072
 144 000e 4FF48076 		mov	r6, #256
 145 0012 C4F20104 		movt	r4, 16385
 146 0016 3746     		mov	r7, r6
 147              		.loc 1 28 0
 148 0018 8025     		movs	r5, #128
 149              	.L7:
 150              		.loc 1 27 0 discriminator 1
 151 001a 2761     		str	r7, [r4, #16]
 152              		.loc 1 29 0 discriminator 1
 153 001c FA20     		movs	r0, #250
 154              		.loc 1 28 0 discriminator 1
 155 001e 6561     		str	r5, [r4, #20]
 156              		.loc 1 29 0 discriminator 1
 157 0020 FFF7FEFF 		bl	chThdSleep
 158              	.LVL15:
 159              		.loc 1 30 0 discriminator 1
 160 0024 6661     		str	r6, [r4, #20]
 161              		.loc 1 32 0 discriminator 1
 162 0026 FA20     		movs	r0, #250
 163              		.loc 1 31 0 discriminator 1
 164 0028 2561     		str	r5, [r4, #16]
 165              		.loc 1 32 0 discriminator 1
 166 002a FFF7FEFF 		bl	chThdSleep
 167              	.LVL16:
 168 002e F4E7     		b	.L7
 169              	.L9:
 170              		.align	2
ARM GAS  /tmp/cctq97SI.s 			page 4


 171              	.L8:
 172 0030 00000000 		.word	SD2
 173 0034 34000000 		.word	.LC5
 174              		.cfi_endproc
 175              	.LFE63:
 176              		.size	heartBeat, .-heartBeat
 177 0038 AFF30080 		.section	.text.startup.main,"ax",%progbits
 177      AFF30080 
 178              		.align	2
 179              		.p2align 4,,15
 180              		.global	main
 181              		.thumb
 182              		.thumb_func
 183              		.type	main, %function
 184              	main:
 185              	.LFB65:
 186              		.loc 1 59 0
 187              		.cfi_startproc
 188              		@ args = 0, pretend = 0, frame = 0
 189              		@ frame_needed = 0, uses_anonymous_args = 0
 190 0000 10B5     		push	{r4, lr}
 191              	.LCFI3:
 192              		.cfi_def_cfa_offset 8
 193              		.cfi_offset 4, -8
 194              		.cfi_offset 14, -4
 195 0002 82B0     		sub	sp, sp, #8
 196              	.LCFI4:
 197              		.cfi_def_cfa_offset 16
 198              		.loc 1 60 0
 199 0004 FFF7FEFF 		bl	halInit
 200              	.LVL17:
 201              		.loc 1 61 0
 202 0008 FFF7FEFF 		bl	chSysInit
 203              	.LVL18:
 204              		.loc 1 63 0
 205 000c 40F20000 		movw	r0, #:lower16:SD2
 206 0010 0021     		movs	r1, #0
 207 0012 C0F20000 		movt	r0, #:upper16:SD2
 208 0016 FFF7FEFF 		bl	sdStart
 209              	.LVL19:
 210              		.loc 1 64 0
 211 001a 40F20000 		movw	r0, #:lower16:I2CD2
 212 001e 40F20001 		movw	r1, #:lower16:.LANCHOR0
 213 0022 C0F20000 		movt	r0, #:upper16:I2CD2
 214 0026 C0F20001 		movt	r1, #:upper16:.LANCHOR0
 215 002a FFF7FEFF 		bl	i2cStart
 216              	.LVL20:
 217              		.loc 1 67 0
 218 002e 0024     		movs	r4, #0
 219 0030 40F20003 		movw	r3, #:lower16:heartBeat
 220 0034 40F20000 		movw	r0, #:lower16:.LANCHOR1
 221 0038 D021     		movs	r1, #208
 222 003a 4022     		movs	r2, #64
 223 003c C0F20003 		movt	r3, #:upper16:heartBeat
 224 0040 0094     		str	r4, [sp, #0]
 225 0042 C0F20000 		movt	r0, #:upper16:.LANCHOR1
 226 0046 FFF7FEFF 		bl	chThdCreateStatic
ARM GAS  /tmp/cctq97SI.s 			page 5


 227              	.LVL21:
 228              		.loc 1 68 0
 229 004a 40F20000 		movw	r0, #:lower16:.LANCHOR2
 230 004e 40F20003 		movw	r3, #:lower16:gyroDemo
 231 0052 0094     		str	r4, [sp, #0]
 232 0054 4FF4D871 		mov	r1, #432
 233 0058 4022     		movs	r2, #64
 234 005a C0F20003 		movt	r3, #:upper16:gyroDemo
 235 005e C0F20000 		movt	r0, #:upper16:.LANCHOR2
 236 0062 FFF7FEFF 		bl	chThdCreateStatic
 237              	.LVL22:
 238              		.loc 1 69 0
 239 0066 2046     		mov	r0, r4
 240 0068 02B0     		add	sp, sp, #8
 241 006a 10BD     		pop	{r4, pc}
 242              		.cfi_endproc
 243              	.LFE65:
 244              		.size	main, .-main
 245 006c AFF30080 		.section	.rodata.i2cCfg,"a",%progbits
 246              		.align	2
 247              		.set	.LANCHOR0,. + 0
 248              		.type	i2cCfg, %object
 249              		.size	i2cCfg, 12
 250              	i2cCfg:
 251 0000 01       		.byte	1
 252 0001 000000   		.space	3
 253 0004 801A0600 		.word	400000
 254 0008 02       		.byte	2
 255 0009 000000   		.space	3
 256              		.section	.rodata.str1.4,"aMS",%progbits,1
 257              		.align	2
 258              	.LC0:
 259 0000 25642058 		.ascii	"%d X    \000"
 259      20202020 
 259      00
 260 0009 000000   		.space	3
 261              	.LC1:
 262 000c 25642059 		.ascii	"%d Y    \000"
 262      20202020 
 262      00
 263 0015 000000   		.space	3
 264              	.LC2:
 265 0018 2564205A 		.ascii	"%d Z    \000"
 265      20202020 
 265      00
 266 0021 000000   		.space	3
 267              	.LC3:
 268 0024 25642054 		.ascii	"%d T    \000"
 268      20202020 
 268      00
 269 002d 000000   		.space	3
 270              	.LC4:
 271 0030 0A0D00   		.ascii	"\012\015\000"
 272 0033 00       		.space	1
 273              	.LC5:
 274 0034 48656C6C 		.ascii	"Hello world!\012\015\000"
 274      6F20776F 
ARM GAS  /tmp/cctq97SI.s 			page 6


 274      726C6421 
 274      0A0D00
 275 0043 00       		.section	.bss.heartWrkArea,"aw",%nobits
 276              		.align	3
 277              		.set	.LANCHOR1,. + 0
 278              		.type	heartWrkArea, %object
 279              		.size	heartWrkArea, 208
 280              	heartWrkArea:
 281 0000 00000000 		.space	208
 281      00000000 
 281      00000000 
 281      00000000 
 281      00000000 
 282              		.section	.bss.gyroDemoWrkArea,"aw",%nobits
 283              		.align	3
 284              		.set	.LANCHOR2,. + 0
 285              		.type	gyroDemoWrkArea, %object
 286              		.size	gyroDemoWrkArea, 432
 287              	gyroDemoWrkArea:
 288 0000 00000000 		.space	432
 288      00000000 
 288      00000000 
 288      00000000 
 288      00000000 
 289              		.text
 290              	.Letext0:
 291              		.file 2 "/usr/bin/../lib/gcc/arm-none-eabi/4.7.4/include/stddef.h"
 292              		.file 3 "/usr/bin/../lib/gcc/arm-none-eabi/4.7.4/../../../../arm-none-eabi/include/stdint.h"
 293              		.file 4 "../../os/ports/GCC/ARMCMx/chtypes.h"
 294              		.file 5 "../../os/kernel/include/chlists.h"
 295              		.file 6 "../../os/kernel/include/chthreads.h"
 296              		.file 7 "../../os/ports/GCC/ARMCMx/chcore_v7m.h"
 297              		.file 8 "../../os/kernel/include/chmtx.h"
 298              		.file 9 "../../os/kernel/include/chevents.h"
 299              		.file 10 "../../os/kernel/include/chqueues.h"
 300              		.file 11 "../../os/kernel/include/chstreams.h"
 301              		.file 12 "../../os/hal/platforms/STM32F1xx/stm32f10x.h"
 302              		.file 13 "../../os/hal/platforms/STM32F1xx/stm32_dma.h"
 303              		.file 14 "../../os/hal/include/io_channel.h"
 304              		.file 15 "../../os/hal/platforms/STM32/GPIOv1/pal_lld.h"
 305              		.file 16 "../../os/hal/include/i2c.h"
 306              		.file 17 "../../os/hal/platforms/STM32/I2Cv1/i2c_lld.h"
 307              		.file 18 "../../os/hal/include/serial.h"
 308              		.file 19 "../../os/hal/platforms/STM32/USARTv1/serial_lld.h"
 309              		.file 20 "../../os/ports/common/ARMCMx/CMSIS/include/core_cm3.h"
 310              		.file 21 "../../os/various/chprintf.h"
 311              		.file 22 "../../os/hal/include/hal.h"
 312              		.file 23 "../../os/kernel/include/chsys.h"